
kernel7.elf:     file format elf32-littlearm


Disassembly of section .init:

00100000 <__entry>:
  100000:	e10f0000 	mrs	r0, CPSR
  100004:	e200001f 	and	r0, r0, #31
  100008:	e3a0801a 	mov	r8, #26
  10000c:	e1500008 	cmp	r0, r8
  100010:	0a000000 	beq	100018 <over_hyped>
  100014:	ea000006 	b	100034 <continue>

00100018 <over_hyped>:
  100018:	e59f1148 	ldr	r1, [pc, #328]	; 100168 <cpu_icache_disable+0x10>
  10001c:	e12ef301 	msr	ELR_hyp, r1
  100020:	e10f1000 	mrs	r1, CPSR
  100024:	e201101f 	and	r1, r1, #31
  100028:	e3811013 	orr	r1, r1, #19
  10002c:	e16ef301 	msr	SPSR_hyp, r1
  100030:	e160006e 	eret

00100034 <continue>:
  100034:	ee10bfb0 	mrc	15, 0, fp, cr0, cr0, {5}
  100038:	e20bb0ff 	and	fp, fp, #255	; 0xff
  10003c:	e35b0000 	cmp	fp, #0
  100040:	1a000013 	bne	100094 <slave_core>

00100044 <core0>:
  100044:	e329f0d3 	msr	CPSR_fc, #211	; 0xd3
  100048:	e59fd11c 	ldr	sp, [pc, #284]	; 10016c <cpu_icache_disable+0x14>
  10004c:	e3a004ff 	mov	r0, #-16777216	; 0xff000000
  100050:	e000000f 	and	r0, r0, pc
  100054:	e08dd000 	add	sp, sp, r0
  100058:	eb000032 	bl	100128 <cpu_mmu_disable>
  10005c:	eb000037 	bl	100140 <cpu_dcache_disable>
  100060:	eb00003c 	bl	100158 <cpu_icache_disable>
  100064:	eb00002b 	bl	100118 <arm_smp_enable>
  100068:	eb000044 	bl	100180 <_boot_start>
  10006c:	e329f0d2 	msr	CPSR_fc, #210	; 0xd2
  100070:	e59fd0f8 	ldr	sp, [pc, #248]	; 100170 <cpu_icache_disable+0x18>
  100074:	e329f0d7 	msr	CPSR_fc, #215	; 0xd7
  100078:	e59fd0f4 	ldr	sp, [pc, #244]	; 100174 <cpu_icache_disable+0x1c>
  10007c:	e329f0db 	msr	CPSR_fc, #219	; 0xdb
  100080:	e59fd0f0 	ldr	sp, [pc, #240]	; 100178 <cpu_icache_disable+0x20>
  100084:	e329f0d3 	msr	CPSR_fc, #211	; 0xd3
  100088:	e59fd0ec 	ldr	sp, [pc, #236]	; 10017c <cpu_icache_disable+0x24>
  10008c:	eb000081 	bl	100298 <___kernel_entry_c_veneer>
  100090:	eb00001b 	bl	100104 <halt>

00100094 <slave_core>:
  100094:	ee10bfb0 	mrc	15, 0, fp, cr0, cr0, {5}
  100098:	e20bb0ff 	and	fp, fp, #255	; 0xff
  10009c:	e3a00a01 	mov	r0, #4096	; 0x1000
  1000a0:	e0000b90 	mul	r0, r0, fp
  1000a4:	e329f0d3 	msr	CPSR_fc, #211	; 0xd3
  1000a8:	e59fd0bc 	ldr	sp, [pc, #188]	; 10016c <cpu_icache_disable+0x14>
  1000ac:	e04dd000 	sub	sp, sp, r0
  1000b0:	e3a004ff 	mov	r0, #-16777216	; 0xff000000
  1000b4:	e000000f 	and	r0, r0, pc
  1000b8:	e08dd000 	add	sp, sp, r0
  1000bc:	eb000015 	bl	100118 <arm_smp_enable>
  1000c0:	eb00002e 	bl	100180 <_boot_start>
  1000c4:	e3a00a01 	mov	r0, #4096	; 0x1000
  1000c8:	e0000b90 	mul	r0, r0, fp
  1000cc:	e329f0d2 	msr	CPSR_fc, #210	; 0xd2
  1000d0:	e59fd098 	ldr	sp, [pc, #152]	; 100170 <cpu_icache_disable+0x18>
  1000d4:	e04dd000 	sub	sp, sp, r0
  1000d8:	e329f0d7 	msr	CPSR_fc, #215	; 0xd7
  1000dc:	e59fd090 	ldr	sp, [pc, #144]	; 100174 <cpu_icache_disable+0x1c>
  1000e0:	e04dd000 	sub	sp, sp, r0
  1000e4:	e329f0db 	msr	CPSR_fc, #219	; 0xdb
  1000e8:	e59fd088 	ldr	sp, [pc, #136]	; 100178 <cpu_icache_disable+0x20>
  1000ec:	e04dd000 	sub	sp, sp, r0
  1000f0:	e329f013 	msr	CPSR_fc, #19
  1000f4:	e59fd080 	ldr	sp, [pc, #128]	; 10017c <cpu_icache_disable+0x24>
  1000f8:	e04dd000 	sub	sp, sp, r0
  1000fc:	eb000063 	bl	100290 <___slave_kernel_entry_c_veneer>
  100100:	ebffffff 	bl	100104 <halt>

00100104 <halt>:
  100104:	eafffffe 	b	100104 <halt>

00100108 <arm_smp_disable>:
  100108:	ee110f30 	mrc	15, 0, r0, cr1, cr0, {1}
  10010c:	e3c00040 	bic	r0, r0, #64	; 0x40
  100110:	ee010f30 	mcr	15, 0, r0, cr1, cr0, {1}
  100114:	e12fff1e 	bx	lr

00100118 <arm_smp_enable>:
  100118:	ee110f30 	mrc	15, 0, r0, cr1, cr0, {1}
  10011c:	e3800040 	orr	r0, r0, #64	; 0x40
  100120:	ee010f30 	mcr	15, 0, r0, cr1, cr0, {1}
  100124:	e12fff1e 	bx	lr

00100128 <cpu_mmu_disable>:
  100128:	ee080f17 	mcr	15, 0, r0, cr8, cr7, {0}
  10012c:	ee110f10 	mrc	15, 0, r0, cr1, cr0, {0}
  100130:	e3c00001 	bic	r0, r0, #1
  100134:	ee010f10 	mcr	15, 0, r0, cr1, cr0, {0}
  100138:	f57ff04f 	dsb	sy
  10013c:	e12fff1e 	bx	lr

00100140 <cpu_dcache_disable>:
  100140:	e92d4ff0 	push	{r4, r5, r6, r7, r8, r9, sl, fp, lr}
  100144:	ee110f10 	mrc	15, 0, r0, cr1, cr0, {0}
  100148:	e3c00004 	bic	r0, r0, #4
  10014c:	ee010f10 	mcr	15, 0, r0, cr1, cr0, {0}
  100150:	e8bd4ff0 	pop	{r4, r5, r6, r7, r8, r9, sl, fp, lr}
  100154:	e12fff1e 	bx	lr

00100158 <cpu_icache_disable>:
  100158:	ee110f10 	mrc	15, 0, r0, cr1, cr0, {0}
  10015c:	e3c00a01 	bic	r0, r0, #4096	; 0x1000
  100160:	ee010f10 	mcr	15, 0, r0, cr1, cr0, {0}
  100164:	e12fff1e 	bx	lr
  100168:	00100034 	andseq	r0, r0, r4, lsr r0
  10016c:	0010c000 	andseq	ip, r0, r0
  100170:	80342000 	eorshi	r2, r4, r0
  100174:	80346000 	eorshi	r6, r4, r0
  100178:	8034a000 	eorshi	sl, r4, r0
  10017c:	8034e000 	eorshi	lr, r4, r0

00100180 <_boot_start>:
  100180:	e24dd010 	sub	sp, sp, #16
  100184:	e3a03000 	mov	r3, #0
  100188:	e58d300c 	str	r3, [sp, #12]
  10018c:	e59d300c 	ldr	r3, [sp, #12]
  100190:	e353001f 	cmp	r3, #31
  100194:	8a00000c 	bhi	1001cc <_boot_start+0x4c>
  100198:	e59f00e4 	ldr	r0, [pc, #228]	; 100284 <_boot_start+0x104>
  10019c:	e3a03c06 	mov	r3, #1536	; 0x600
  1001a0:	e3001402 	movw	r1, #1026	; 0x402
  1001a4:	e08f0000 	add	r0, pc, r0
  1001a8:	e1812a03 	orr	r2, r1, r3, lsl #20
  1001ac:	e7802103 	str	r2, [r0, r3, lsl #2]
  1001b0:	e59d200c 	ldr	r2, [sp, #12]
  1001b4:	e2833001 	add	r3, r3, #1
  1001b8:	e2822001 	add	r2, r2, #1
  1001bc:	e58d200c 	str	r2, [sp, #12]
  1001c0:	e59d200c 	ldr	r2, [sp, #12]
  1001c4:	e352001f 	cmp	r2, #31
  1001c8:	9afffff6 	bls	1001a8 <_boot_start+0x28>
  1001cc:	e3a03000 	mov	r3, #0
  1001d0:	e58d3008 	str	r3, [sp, #8]
  1001d4:	e59d3008 	ldr	r3, [sp, #8]
  1001d8:	e353001f 	cmp	r3, #31
  1001dc:	8a00000e 	bhi	10021c <_boot_start+0x9c>
  1001e0:	e59fc0a0 	ldr	ip, [pc, #160]	; 100288 <_boot_start+0x108>
  1001e4:	e3a01206 	mov	r1, #1610612736	; 0x60000000
  1001e8:	e3a02b02 	mov	r2, #2048	; 0x800
  1001ec:	e3000402 	movw	r0, #1026	; 0x402
  1001f0:	e08fc00c 	add	ip, pc, ip
  1001f4:	e1813000 	orr	r3, r1, r0
  1001f8:	e78c3102 	str	r3, [ip, r2, lsl #2]
  1001fc:	e59d3008 	ldr	r3, [sp, #8]
  100200:	e2822001 	add	r2, r2, #1
  100204:	e2811601 	add	r1, r1, #1048576	; 0x100000
  100208:	e2833001 	add	r3, r3, #1
  10020c:	e58d3008 	str	r3, [sp, #8]
  100210:	e59d3008 	ldr	r3, [sp, #8]
  100214:	e353001f 	cmp	r3, #31
  100218:	9afffff5 	bls	1001f4 <_boot_start+0x74>
  10021c:	e3053555 	movw	r3, #21845	; 0x5555
  100220:	e3453555 	movt	r3, #21845	; 0x5555
  100224:	e58d3004 	str	r3, [sp, #4]
  100228:	e59d3004 	ldr	r3, [sp, #4]
  10022c:	ee033f10 	mcr	15, 0, r3, cr3, cr0, {0}
  100230:	e59f3054 	ldr	r3, [pc, #84]	; 10028c <_boot_start+0x10c>
  100234:	e08f3003 	add	r3, pc, r3
  100238:	e58d3004 	str	r3, [sp, #4]
  10023c:	e59d3004 	ldr	r3, [sp, #4]
  100240:	ee023f10 	mcr	15, 0, r3, cr2, cr0, {0}
  100244:	f57ff05f 	dmb	sy
  100248:	ee110f10 	mrc	15, 0, r0, cr1, cr0, {0}
  10024c:	e3800001 	orr	r0, r0, #1
  100250:	ee010f10 	mcr	15, 0, r0, cr1, cr0, {0}
  100254:	f57ff04f 	dsb	sy
  100258:	ee110f10 	mrc	15, 0, r0, cr1, cr0, {0}
  10025c:	e3800a02 	orr	r0, r0, #8192	; 0x2000
  100260:	e3800a01 	orr	r0, r0, #4096	; 0x1000
  100264:	e3800b02 	orr	r0, r0, #2048	; 0x800
  100268:	e3800004 	orr	r0, r0, #4
  10026c:	ee010f10 	mcr	15, 0, r0, cr1, cr0, {0}
  100270:	e3a00000 	mov	r0, #0
  100274:	ee080f17 	mcr	15, 0, r0, cr8, cr7, {0}
  100278:	ee070f9a 	mcr	15, 0, r0, cr7, cr10, {4}
  10027c:	e28dd010 	add	sp, sp, #16
  100280:	e12fff1e 	bx	lr
  100284:	00003e54 	andeq	r3, r0, r4, asr lr
  100288:	00003e08 	andeq	r3, r0, r8, lsl #28
  10028c:	00003dc4 	andeq	r3, r0, r4, asr #27

00100290 <___slave_kernel_entry_c_veneer>:
  100290:	e51ff004 	ldr	pc, [pc, #-4]	; 100294 <___slave_kernel_entry_c_veneer+0x4>
  100294:	801161b8 			; <UNDEFINED> instruction: 0x801161b8

00100298 <___kernel_entry_c_veneer>:
  100298:	e51ff004 	ldr	pc, [pc, #-4]	; 10029c <___kernel_entry_c_veneer+0x4>
  10029c:	8011640c 	andshi	r6, r1, ip, lsl #8
	...

00104000 <startup_page_dir>:
	...

Disassembly of section .text:

8010c000 <udelay>:
8010c000:	e24dd008 	sub	sp, sp, #8
8010c004:	e3a02032 	mov	r2, #50	; 0x32
8010c008:	e58d0004 	str	r0, [sp, #4]
8010c00c:	e59d3004 	ldr	r3, [sp, #4]
8010c010:	e0030392 	mul	r3, r2, r3
8010c014:	e58d3004 	str	r3, [sp, #4]
8010c018:	ea000000 	b	8010c020 <udelay+0x20>
8010c01c:	e320f000 	nop	{0}
8010c020:	e59d3004 	ldr	r3, [sp, #4]
8010c024:	e2432001 	sub	r2, r3, #1
8010c028:	e3530000 	cmp	r3, #0
8010c02c:	e58d2004 	str	r2, [sp, #4]
8010c030:	1afffff9 	bne	8010c01c <udelay+0x1c>
8010c034:	e28dd008 	add	sp, sp, #8
8010c038:	e12fff1e 	bx	lr

8010c03c <dwmci_send_cmd.constprop.0>:
8010c03c:	e1a0c00d 	mov	ip, sp
8010c040:	e92ddff0 	push	{r4, r5, r6, r7, r8, r9, sl, fp, ip, lr, pc}
8010c044:	e59f65ac 	ldr	r6, [pc, #1452]	; 8010c5f8 <dwmci_send_cmd.constprop.0+0x5bc>
8010c048:	e24cb004 	sub	fp, ip, #4
8010c04c:	e24dd01c 	sub	sp, sp, #28
8010c050:	e08f6006 	add	r6, pc, r6
8010c054:	e1a05000 	mov	r5, r0
8010c058:	e50b1034 	str	r1, [fp, #-52]	; 0xffffffcc
8010c05c:	e5963004 	ldr	r3, [r6, #4]
8010c060:	e5932048 	ldr	r2, [r3, #72]	; 0x48
8010c064:	e3120c02 	tst	r2, #512	; 0x200
8010c068:	13a04f7d 	movne	r4, #500	; 0x1f4
8010c06c:	1a000002 	bne	8010c07c <dwmci_send_cmd.constprop.0+0x40>
8010c070:	ea000007 	b	8010c094 <dwmci_send_cmd.constprop.0+0x58>
8010c074:	e2544001 	subs	r4, r4, #1
8010c078:	0a000116 	beq	8010c4d8 <dwmci_send_cmd.constprop.0+0x49c>
8010c07c:	e3a00064 	mov	r0, #100	; 0x64
8010c080:	ebffffde 	bl	8010c000 <udelay>
8010c084:	e5963004 	ldr	r3, [r6, #4]
8010c088:	e5932048 	ldr	r2, [r3, #72]	; 0x48
8010c08c:	e3120c02 	tst	r2, #512	; 0x200
8010c090:	1afffff7 	bne	8010c074 <dwmci_send_cmd.constprop.0+0x38>
8010c094:	e51b1034 	ldr	r1, [fp, #-52]	; 0xffffffcc
8010c098:	e3e02000 	mvn	r2, #0
8010c09c:	e5832044 	str	r2, [r3, #68]	; 0x44
8010c0a0:	e3510000 	cmp	r1, #0
8010c0a4:	0a0000e9 	beq	8010c450 <dwmci_send_cmd.constprop.0+0x414>
8010c0a8:	e59f254c 	ldr	r2, [pc, #1356]	; 8010c5fc <dwmci_send_cmd.constprop.0+0x5c0>
8010c0ac:	e08f2002 	add	r2, pc, r2
8010c0b0:	e5d22044 	ldrb	r2, [r2, #68]	; 0x44
8010c0b4:	e3520000 	cmp	r2, #0
8010c0b8:	1a0000e8 	bne	8010c460 <dwmci_send_cmd.constprop.0+0x424>
8010c0bc:	e5952008 	ldr	r2, [r5, #8]
8010c0c0:	e5832028 	str	r2, [r3, #40]	; 0x28
8010c0c4:	e51b2034 	ldr	r2, [fp, #-52]	; 0xffffffcc
8010c0c8:	e5922004 	ldr	r2, [r2, #4]
8010c0cc:	e3120002 	tst	r2, #2
8010c0d0:	13a01c06 	movne	r1, #1536	; 0x600
8010c0d4:	03a01c02 	moveq	r1, #512	; 0x200
8010c0d8:	e5950004 	ldr	r0, [r5, #4]
8010c0dc:	e200200a 	and	r2, r0, #10
8010c0e0:	e352000a 	cmp	r2, #10
8010c0e4:	0a00012c 	beq	8010c59c <dwmci_send_cmd.constprop.0+0x560>
8010c0e8:	e1d520b0 	ldrh	r2, [r5]
8010c0ec:	e352000c 	cmp	r2, #12
8010c0f0:	03811901 	orreq	r1, r1, #16384	; 0x4000
8010c0f4:	13811a02 	orrne	r1, r1, #8192	; 0x2000
8010c0f8:	e3100001 	tst	r0, #1
8010c0fc:	1a0000a0 	bne	8010c384 <dwmci_send_cmd.constprop.0+0x348>
8010c100:	e3100004 	tst	r0, #4
8010c104:	13811c01 	orrne	r1, r1, #256	; 0x100
8010c108:	e1821001 	orr	r1, r2, r1
8010c10c:	e3a02ffa 	mov	r2, #1000	; 0x3e8
8010c110:	e381120a 	orr	r1, r1, #-1610612736	; 0xa0000000
8010c114:	e583102c 	str	r1, [r3, #44]	; 0x2c
8010c118:	ea000001 	b	8010c124 <dwmci_send_cmd.constprop.0+0xe8>
8010c11c:	e2522001 	subs	r2, r2, #1
8010c120:	0a00012d 	beq	8010c5dc <dwmci_send_cmd.constprop.0+0x5a0>
8010c124:	e5931044 	ldr	r1, [r3, #68]	; 0x44
8010c128:	e3110004 	tst	r1, #4
8010c12c:	0afffffa 	beq	8010c11c <dwmci_send_cmd.constprop.0+0xe0>
8010c130:	e51b2034 	ldr	r2, [fp, #-52]	; 0xffffffcc
8010c134:	e3520000 	cmp	r2, #0
8010c138:	05831044 	streq	r1, [r3, #68]	; 0x44
8010c13c:	e3110c01 	tst	r1, #256	; 0x100
8010c140:	1a00011e 	bne	8010c5c0 <dwmci_send_cmd.constprop.0+0x584>
8010c144:	e3110002 	tst	r1, #2
8010c148:	1a000115 	bne	8010c5a4 <dwmci_send_cmd.constprop.0+0x568>
8010c14c:	e5952004 	ldr	r2, [r5, #4]
8010c150:	e3120004 	tst	r2, #4
8010c154:	0a000001 	beq	8010c160 <dwmci_send_cmd.constprop.0+0x124>
8010c158:	e3110040 	tst	r1, #64	; 0x40
8010c15c:	1a0000ee 	bne	8010c51c <dwmci_send_cmd.constprop.0+0x4e0>
8010c160:	e3120001 	tst	r2, #1
8010c164:	0a00000a 	beq	8010c194 <dwmci_send_cmd.constprop.0+0x158>
8010c168:	e3120002 	tst	r2, #2
8010c16c:	1593203c 	ldrne	r2, [r3, #60]	; 0x3c
8010c170:	1585200c 	strne	r2, [r5, #12]
8010c174:	05933030 	ldreq	r3, [r3, #48]	; 0x30
8010c178:	15932038 	ldrne	r2, [r3, #56]	; 0x38
8010c17c:	15852010 	strne	r2, [r5, #16]
8010c180:	0585300c 	streq	r3, [r5, #12]
8010c184:	15932034 	ldrne	r2, [r3, #52]	; 0x34
8010c188:	15852014 	strne	r2, [r5, #20]
8010c18c:	15933030 	ldrne	r3, [r3, #48]	; 0x30
8010c190:	15853018 	strne	r3, [r5, #24]
8010c194:	e51b2034 	ldr	r2, [fp, #-52]	; 0xffffffcc
8010c198:	e3520000 	cmp	r2, #0
8010c19c:	051b4034 	ldreq	r4, [fp, #-52]	; 0xffffffcc
8010c1a0:	0a000072 	beq	8010c370 <dwmci_send_cmd.constprop.0+0x334>
8010c1a4:	e59f3454 	ldr	r3, [pc, #1108]	; 8010c600 <dwmci_send_cmd.constprop.0+0x5c4>
8010c1a8:	e5921008 	ldr	r1, [r2, #8]
8010c1ac:	e08f3003 	add	r3, pc, r3
8010c1b0:	e592700c 	ldr	r7, [r2, #12]
8010c1b4:	e5929000 	ldr	r9, [r2]
8010c1b8:	e1d322be 	ldrh	r2, [r3, #46]	; 0x2e
8010c1bc:	e5933004 	ldr	r3, [r3, #4]
8010c1c0:	e0070791 	mul	r7, r1, r7
8010c1c4:	e7eb2052 	ubfx	r2, r2, #0, #12
8010c1c8:	e5935044 	ldr	r5, [r3, #68]	; 0x44
8010c1cc:	e2822001 	add	r2, r2, #1
8010c1d0:	e1a01127 	lsr	r1, r7, #2
8010c1d4:	e50b1038 	str	r1, [fp, #-56]	; 0xffffffc8
8010c1d8:	e1a02082 	lsl	r2, r2, #1
8010c1dc:	e50b203c 	str	r2, [fp, #-60]	; 0xffffffc4
8010c1e0:	e30b2e80 	movw	r2, #48768	; 0xbe80
8010c1e4:	e1150002 	tst	r5, r2
8010c1e8:	1a000054 	bne	8010c340 <dwmci_send_cmd.constprop.0+0x304>
8010c1ec:	e59f8410 	ldr	r8, [pc, #1040]	; 8010c604 <dwmci_send_cmd.constprop.0+0x5c8>
8010c1f0:	e30c2351 	movw	r2, #50001	; 0xc351
8010c1f4:	e59f640c 	ldr	r6, [pc, #1036]	; 8010c608 <dwmci_send_cmd.constprop.0+0x5cc>
8010c1f8:	e08f8008 	add	r8, pc, r8
8010c1fc:	e50b2030 	str	r2, [fp, #-48]	; 0xffffffd0
8010c200:	e08f6006 	add	r6, pc, r6
8010c204:	ea000010 	b	8010c24c <dwmci_send_cmd.constprop.0+0x210>
8010c208:	e3520002 	cmp	r2, #2
8010c20c:	0a000060 	beq	8010c394 <dwmci_send_cmd.constprop.0+0x358>
8010c210:	e3150008 	tst	r5, #8
8010c214:	1a000047 	bne	8010c338 <dwmci_send_cmd.constprop.0+0x2fc>
8010c218:	e51b3030 	ldr	r3, [fp, #-48]	; 0xffffffd0
8010c21c:	e2533001 	subs	r3, r3, #1
8010c220:	e50b3030 	str	r3, [fp, #-48]	; 0xffffffd0
8010c224:	0a0000b4 	beq	8010c4fc <dwmci_send_cmd.constprop.0+0x4c0>
8010c228:	e3a000c8 	mov	r0, #200	; 0xc8
8010c22c:	ebffff73 	bl	8010c000 <udelay>
8010c230:	e59f33d4 	ldr	r3, [pc, #980]	; 8010c60c <dwmci_send_cmd.constprop.0+0x5d0>
8010c234:	e30b2e80 	movw	r2, #48768	; 0xbe80
8010c238:	e08f3003 	add	r3, pc, r3
8010c23c:	e5933004 	ldr	r3, [r3, #4]
8010c240:	e5935044 	ldr	r5, [r3, #68]	; 0x44
8010c244:	e1150002 	tst	r5, r2
8010c248:	1a00003c 	bne	8010c340 <dwmci_send_cmd.constprop.0+0x304>
8010c24c:	e59fa3bc 	ldr	sl, [pc, #956]	; 8010c610 <dwmci_send_cmd.constprop.0+0x5d4>
8010c250:	e08fa00a 	add	sl, pc, sl
8010c254:	e5da2044 	ldrb	r2, [sl, #68]	; 0x44
8010c258:	e3520000 	cmp	r2, #0
8010c25c:	0affffeb 	beq	8010c210 <dwmci_send_cmd.constprop.0+0x1d4>
8010c260:	e51b2038 	ldr	r2, [fp, #-56]	; 0xffffffc8
8010c264:	e3520000 	cmp	r2, #0
8010c268:	0affffe8 	beq	8010c210 <dwmci_send_cmd.constprop.0+0x1d4>
8010c26c:	e51b2034 	ldr	r2, [fp, #-52]	; 0xffffffcc
8010c270:	e5922004 	ldr	r2, [r2, #4]
8010c274:	e3520001 	cmp	r2, #1
8010c278:	1affffe2 	bne	8010c208 <dwmci_send_cmd.constprop.0+0x1cc>
8010c27c:	e3150028 	tst	r5, #40	; 0x28
8010c280:	0affffe2 	beq	8010c210 <dwmci_send_cmd.constprop.0+0x1d4>
8010c284:	e1a04009 	mov	r4, r9
8010c288:	e59f9384 	ldr	r9, [pc, #900]	; 8010c614 <dwmci_send_cmd.constprop.0+0x5d8>
8010c28c:	e51b7038 	ldr	r7, [fp, #-56]	; 0xffffffc8
8010c290:	e3a02028 	mov	r2, #40	; 0x28
8010c294:	e08f9009 	add	r9, pc, r9
8010c298:	e5832044 	str	r2, [r3, #68]	; 0x44
8010c29c:	e50b5040 	str	r5, [fp, #-64]	; 0xffffffc0
8010c2a0:	e50b8044 	str	r8, [fp, #-68]	; 0xffffffbc
8010c2a4:	e59a3004 	ldr	r3, [sl, #4]
8010c2a8:	e5938048 	ldr	r8, [r3, #72]	; 0x48
8010c2ac:	e3180004 	tst	r8, #4
8010c2b0:	0a00000c 	beq	8010c2e8 <dwmci_send_cmd.constprop.0+0x2ac>
8010c2b4:	e3a000c8 	mov	r0, #200	; 0xc8
8010c2b8:	e5938048 	ldr	r8, [r3, #72]	; 0x48
8010c2bc:	e3045e1e 	movw	r5, #19998	; 0x4e1e
8010c2c0:	ebffff4e 	bl	8010c000 <udelay>
8010c2c4:	ea000004 	b	8010c2dc <dwmci_send_cmd.constprop.0+0x2a0>
8010c2c8:	e5963004 	ldr	r3, [r6, #4]
8010c2cc:	e5938048 	ldr	r8, [r3, #72]	; 0x48
8010c2d0:	ebffff4a 	bl	8010c000 <udelay>
8010c2d4:	e2555001 	subs	r5, r5, #1
8010c2d8:	0a0000a4 	beq	8010c570 <dwmci_send_cmd.constprop.0+0x534>
8010c2dc:	e3180004 	tst	r8, #4
8010c2e0:	e3a000c8 	mov	r0, #200	; 0xc8
8010c2e4:	1afffff7 	bne	8010c2c8 <dwmci_send_cmd.constprop.0+0x28c>
8010c2e8:	e7ec28d8 	ubfx	r2, r8, #17, #13
8010c2ec:	e1520007 	cmp	r2, r7
8010c2f0:	21a02007 	movcs	r2, r7
8010c2f4:	e3520000 	cmp	r2, #0
8010c2f8:	10841102 	addne	r1, r4, r2, lsl #2
8010c2fc:	15990004 	ldrne	r0, [r9, #4]
8010c300:	0a00006b 	beq	8010c4b4 <dwmci_send_cmd.constprop.0+0x478>
8010c304:	e5903200 	ldr	r3, [r0, #512]	; 0x200
8010c308:	e4843004 	str	r3, [r4], #4
8010c30c:	e1540001 	cmp	r4, r1
8010c310:	1afffffb 	bne	8010c304 <dwmci_send_cmd.constprop.0+0x2c8>
8010c314:	e1520007 	cmp	r2, r7
8010c318:	3a000065 	bcc	8010c4b4 <dwmci_send_cmd.constprop.0+0x478>
8010c31c:	e51b5040 	ldr	r5, [fp, #-64]	; 0xffffffc0
8010c320:	e3a03000 	mov	r3, #0
8010c324:	e51b8044 	ldr	r8, [fp, #-68]	; 0xffffffbc
8010c328:	e1a09001 	mov	r9, r1
8010c32c:	e3150008 	tst	r5, #8
8010c330:	e50b3038 	str	r3, [fp, #-56]	; 0xffffffc8
8010c334:	0affffb7 	beq	8010c218 <dwmci_send_cmd.constprop.0+0x1dc>
8010c338:	e3a04000 	mov	r4, #0
8010c33c:	ea000007 	b	8010c360 <dwmci_send_cmd.constprop.0+0x324>
8010c340:	e59f12d0 	ldr	r1, [pc, #720]	; 8010c618 <dwmci_send_cmd.constprop.0+0x5dc>
8010c344:	e1a02005 	mov	r2, r5
8010c348:	e59f02cc 	ldr	r0, [pc, #716]	; 8010c61c <dwmci_send_cmd.constprop.0+0x5e0>
8010c34c:	e3e04015 	mvn	r4, #21
8010c350:	e08f1001 	add	r1, pc, r1
8010c354:	e08f0000 	add	r0, pc, r0
8010c358:	e2811010 	add	r1, r1, #16
8010c35c:	eb000f07 	bl	8010ff80 <printf>
8010c360:	e59f32b8 	ldr	r3, [pc, #696]	; 8010c620 <dwmci_send_cmd.constprop.0+0x5e4>
8010c364:	e08f3003 	add	r3, pc, r3
8010c368:	e5933004 	ldr	r3, [r3, #4]
8010c36c:	e5835044 	str	r5, [r3, #68]	; 0x44
8010c370:	e3a00064 	mov	r0, #100	; 0x64
8010c374:	ebffff21 	bl	8010c000 <udelay>
8010c378:	e1a00004 	mov	r0, r4
8010c37c:	e24bd028 	sub	sp, fp, #40	; 0x28
8010c380:	e89daff0 	ldm	sp, {r4, r5, r6, r7, r8, r9, sl, fp, sp, pc}
8010c384:	e3100002 	tst	r0, #2
8010c388:	03811040 	orreq	r1, r1, #64	; 0x40
8010c38c:	138110c0 	orrne	r1, r1, #192	; 0xc0
8010c390:	eaffff5a 	b	8010c100 <dwmci_send_cmd.constprop.0+0xc4>
8010c394:	e3150010 	tst	r5, #16
8010c398:	0affff9c 	beq	8010c210 <dwmci_send_cmd.constprop.0+0x1d4>
8010c39c:	e59f7280 	ldr	r7, [pc, #640]	; 8010c624 <dwmci_send_cmd.constprop.0+0x5e8>
8010c3a0:	e59a1004 	ldr	r1, [sl, #4]
8010c3a4:	e51b4038 	ldr	r4, [fp, #-56]	; 0xffffffc8
8010c3a8:	e08f7007 	add	r7, pc, r7
8010c3ac:	e50b5040 	str	r5, [fp, #-64]	; 0xffffffc0
8010c3b0:	e5915048 	ldr	r5, [r1, #72]	; 0x48
8010c3b4:	e3150008 	tst	r5, #8
8010c3b8:	0a00000d 	beq	8010c3f4 <dwmci_send_cmd.constprop.0+0x3b8>
8010c3bc:	e3a000c8 	mov	r0, #200	; 0xc8
8010c3c0:	e5915048 	ldr	r5, [r1, #72]	; 0x48
8010c3c4:	e304ae1e 	movw	sl, #19998	; 0x4e1e
8010c3c8:	ebffff0c 	bl	8010c000 <udelay>
8010c3cc:	ea000004 	b	8010c3e4 <dwmci_send_cmd.constprop.0+0x3a8>
8010c3d0:	e5983004 	ldr	r3, [r8, #4]
8010c3d4:	e5935048 	ldr	r5, [r3, #72]	; 0x48
8010c3d8:	ebffff08 	bl	8010c000 <udelay>
8010c3dc:	e25aa001 	subs	sl, sl, #1
8010c3e0:	0a000058 	beq	8010c548 <dwmci_send_cmd.constprop.0+0x50c>
8010c3e4:	e3150008 	tst	r5, #8
8010c3e8:	e3a000c8 	mov	r0, #200	; 0xc8
8010c3ec:	1afffff7 	bne	8010c3d0 <dwmci_send_cmd.constprop.0+0x394>
8010c3f0:	e5971004 	ldr	r1, [r7, #4]
8010c3f4:	e51b203c 	ldr	r2, [fp, #-60]	; 0xffffffc4
8010c3f8:	e7ec38d5 	ubfx	r3, r5, #17, #13
8010c3fc:	e0423003 	sub	r3, r2, r3
8010c400:	e1530004 	cmp	r3, r4
8010c404:	21a03004 	movcs	r3, r4
8010c408:	e3530000 	cmp	r3, #0
8010c40c:	11a00009 	movne	r0, r9
8010c410:	13a02000 	movne	r2, #0
8010c414:	0a00002d 	beq	8010c4d0 <dwmci_send_cmd.constprop.0+0x494>
8010c418:	e490c004 	ldr	ip, [r0], #4
8010c41c:	e2822001 	add	r2, r2, #1
8010c420:	e1530002 	cmp	r3, r2
8010c424:	e581c200 	str	ip, [r1, #512]	; 0x200
8010c428:	1afffffa 	bne	8010c418 <dwmci_send_cmd.constprop.0+0x3dc>
8010c42c:	e0899103 	add	r9, r9, r3, lsl #2
8010c430:	e1530004 	cmp	r3, r4
8010c434:	3a000025 	bcc	8010c4d0 <dwmci_send_cmd.constprop.0+0x494>
8010c438:	e51b5040 	ldr	r5, [fp, #-64]	; 0xffffffc0
8010c43c:	e3a03000 	mov	r3, #0
8010c440:	e50b3038 	str	r3, [fp, #-56]	; 0xffffffc8
8010c444:	e3a03010 	mov	r3, #16
8010c448:	e5813044 	str	r3, [r1, #68]	; 0x44
8010c44c:	eaffff6f 	b	8010c210 <dwmci_send_cmd.constprop.0+0x1d4>
8010c450:	e5952008 	ldr	r2, [r5, #8]
8010c454:	e51b1034 	ldr	r1, [fp, #-52]	; 0xffffffcc
8010c458:	e5832028 	str	r2, [r3, #40]	; 0x28
8010c45c:	eaffff1d 	b	8010c0d8 <dwmci_send_cmd.constprop.0+0x9c>
8010c460:	e591200c 	ldr	r2, [r1, #12]
8010c464:	e1a00001 	mov	r0, r1
8010c468:	e583201c 	str	r2, [r3, #28]
8010c46c:	e3a01002 	mov	r1, #2
8010c470:	e59f61b0 	ldr	r6, [pc, #432]	; 8010c628 <dwmci_send_cmd.constprop.0+0x5ec>
8010c474:	e3a04ffa 	mov	r4, #1000	; 0x3e8
8010c478:	e5900008 	ldr	r0, [r0, #8]
8010c47c:	e08f6006 	add	r6, pc, r6
8010c480:	e0020290 	mul	r2, r0, r2
8010c484:	e5832020 	str	r2, [r3, #32]
8010c488:	e5831000 	str	r1, [r3]
8010c48c:	ea000003 	b	8010c4a0 <dwmci_send_cmd.constprop.0+0x464>
8010c490:	ebfffeda 	bl	8010c000 <udelay>
8010c494:	e2544001 	subs	r4, r4, #1
8010c498:	0a000026 	beq	8010c538 <dwmci_send_cmd.constprop.0+0x4fc>
8010c49c:	e5963004 	ldr	r3, [r6, #4]
8010c4a0:	e5932000 	ldr	r2, [r3]
8010c4a4:	e3a0000a 	mov	r0, #10
8010c4a8:	e3120007 	tst	r2, #7
8010c4ac:	1afffff7 	bne	8010c490 <dwmci_send_cmd.constprop.0+0x454>
8010c4b0:	eaffff01 	b	8010c0bc <dwmci_send_cmd.constprop.0+0x80>
8010c4b4:	e0577002 	subs	r7, r7, r2
8010c4b8:	1affff79 	bne	8010c2a4 <dwmci_send_cmd.constprop.0+0x268>
8010c4bc:	e51b5040 	ldr	r5, [fp, #-64]	; 0xffffffc0
8010c4c0:	e1a09004 	mov	r9, r4
8010c4c4:	e51b8044 	ldr	r8, [fp, #-68]	; 0xffffffbc
8010c4c8:	e50b7038 	str	r7, [fp, #-56]	; 0xffffffc8
8010c4cc:	eaffff4f 	b	8010c210 <dwmci_send_cmd.constprop.0+0x1d4>
8010c4d0:	e0444003 	sub	r4, r4, r3
8010c4d4:	eaffffb5 	b	8010c3b0 <dwmci_send_cmd.constprop.0+0x374>
8010c4d8:	e59f114c 	ldr	r1, [pc, #332]	; 8010c62c <dwmci_send_cmd.constprop.0+0x5f0>
8010c4dc:	e3e0406d 	mvn	r4, #109	; 0x6d
8010c4e0:	e59f0148 	ldr	r0, [pc, #328]	; 8010c630 <dwmci_send_cmd.constprop.0+0x5f4>
8010c4e4:	e08f1001 	add	r1, pc, r1
8010c4e8:	e08f0000 	add	r0, pc, r0
8010c4ec:	eb000ea3 	bl	8010ff80 <printf>
8010c4f0:	e1a00004 	mov	r0, r4
8010c4f4:	e24bd028 	sub	sp, fp, #40	; 0x28
8010c4f8:	e89daff0 	ldm	sp, {r4, r5, r6, r7, r8, r9, sl, fp, sp, pc}
8010c4fc:	e59f1130 	ldr	r1, [pc, #304]	; 8010c634 <dwmci_send_cmd.constprop.0+0x5f8>
8010c500:	e3e0406d 	mvn	r4, #109	; 0x6d
8010c504:	e59f012c 	ldr	r0, [pc, #300]	; 8010c638 <dwmci_send_cmd.constprop.0+0x5fc>
8010c508:	e08f1001 	add	r1, pc, r1
8010c50c:	e2811010 	add	r1, r1, #16
8010c510:	e08f0000 	add	r0, pc, r0
8010c514:	eb000e99 	bl	8010ff80 <printf>
8010c518:	eaffff90 	b	8010c360 <dwmci_send_cmd.constprop.0+0x324>
8010c51c:	e59f1118 	ldr	r1, [pc, #280]	; 8010c63c <dwmci_send_cmd.constprop.0+0x600>
8010c520:	e3e04004 	mvn	r4, #4
8010c524:	e59f0114 	ldr	r0, [pc, #276]	; 8010c640 <dwmci_send_cmd.constprop.0+0x604>
8010c528:	e08f1001 	add	r1, pc, r1
8010c52c:	e08f0000 	add	r0, pc, r0
8010c530:	eb000e92 	bl	8010ff80 <printf>
8010c534:	eaffff8f 	b	8010c378 <dwmci_send_cmd.constprop.0+0x33c>
8010c538:	e59f3104 	ldr	r3, [pc, #260]	; 8010c644 <dwmci_send_cmd.constprop.0+0x608>
8010c53c:	e08f3003 	add	r3, pc, r3
8010c540:	e5933004 	ldr	r3, [r3, #4]
8010c544:	eafffedc 	b	8010c0bc <dwmci_send_cmd.constprop.0+0x80>
8010c548:	e59f10f8 	ldr	r1, [pc, #248]	; 8010c648 <dwmci_send_cmd.constprop.0+0x60c>
8010c54c:	e59f00f8 	ldr	r0, [pc, #248]	; 8010c64c <dwmci_send_cmd.constprop.0+0x610>
8010c550:	e08f1001 	add	r1, pc, r1
8010c554:	e51b5040 	ldr	r5, [fp, #-64]	; 0xffffffc0
8010c558:	e2811024 	add	r1, r1, #36	; 0x24
8010c55c:	e08f0000 	add	r0, pc, r0
8010c560:	e50b4038 	str	r4, [fp, #-56]	; 0xffffffc8
8010c564:	eb000e85 	bl	8010ff80 <printf>
8010c568:	e5981004 	ldr	r1, [r8, #4]
8010c56c:	eaffffb4 	b	8010c444 <dwmci_send_cmd.constprop.0+0x408>
8010c570:	e59f10d8 	ldr	r1, [pc, #216]	; 8010c650 <dwmci_send_cmd.constprop.0+0x614>
8010c574:	e1a09004 	mov	r9, r4
8010c578:	e59f00d4 	ldr	r0, [pc, #212]	; 8010c654 <dwmci_send_cmd.constprop.0+0x618>
8010c57c:	e08f1001 	add	r1, pc, r1
8010c580:	e51b5040 	ldr	r5, [fp, #-64]	; 0xffffffc0
8010c584:	e2811024 	add	r1, r1, #36	; 0x24
8010c588:	e08f0000 	add	r0, pc, r0
8010c58c:	e51b8044 	ldr	r8, [fp, #-68]	; 0xffffffbc
8010c590:	e50b7038 	str	r7, [fp, #-56]	; 0xffffffc8
8010c594:	eb000e79 	bl	8010ff80 <printf>
8010c598:	eaffff1c 	b	8010c210 <dwmci_send_cmd.constprop.0+0x1d4>
8010c59c:	e3e0400f 	mvn	r4, #15
8010c5a0:	eaffff74 	b	8010c378 <dwmci_send_cmd.constprop.0+0x33c>
8010c5a4:	e59f10ac 	ldr	r1, [pc, #172]	; 8010c658 <dwmci_send_cmd.constprop.0+0x61c>
8010c5a8:	e3e04004 	mvn	r4, #4
8010c5ac:	e59f00a8 	ldr	r0, [pc, #168]	; 8010c65c <dwmci_send_cmd.constprop.0+0x620>
8010c5b0:	e08f1001 	add	r1, pc, r1
8010c5b4:	e08f0000 	add	r0, pc, r0
8010c5b8:	eb000e70 	bl	8010ff80 <printf>
8010c5bc:	eaffff6d 	b	8010c378 <dwmci_send_cmd.constprop.0+0x33c>
8010c5c0:	e59f1098 	ldr	r1, [pc, #152]	; 8010c660 <dwmci_send_cmd.constprop.0+0x624>
8010c5c4:	e3e0406d 	mvn	r4, #109	; 0x6d
8010c5c8:	e59f0094 	ldr	r0, [pc, #148]	; 8010c664 <dwmci_send_cmd.constprop.0+0x628>
8010c5cc:	e08f1001 	add	r1, pc, r1
8010c5d0:	e08f0000 	add	r0, pc, r0
8010c5d4:	eb000e69 	bl	8010ff80 <printf>
8010c5d8:	eaffff66 	b	8010c378 <dwmci_send_cmd.constprop.0+0x33c>
8010c5dc:	e59f1084 	ldr	r1, [pc, #132]	; 8010c668 <dwmci_send_cmd.constprop.0+0x62c>
8010c5e0:	e3e0406d 	mvn	r4, #109	; 0x6d
8010c5e4:	e59f0080 	ldr	r0, [pc, #128]	; 8010c66c <dwmci_send_cmd.constprop.0+0x630>
8010c5e8:	e08f1001 	add	r1, pc, r1
8010c5ec:	e08f0000 	add	r0, pc, r0
8010c5f0:	eb000e62 	bl	8010ff80 <printf>
8010c5f4:	eaffff5f 	b	8010c378 <dwmci_send_cmd.constprop.0+0x33c>
8010c5f8:	0000bfa8 	andeq	fp, r0, r8, lsr #31
8010c5fc:	0000bf4c 	andeq	fp, r0, ip, asr #30
8010c600:	0000be4c 	andeq	fp, r0, ip, asr #28
8010c604:	0000be00 	andeq	fp, r0, r0, lsl #28
8010c608:	0000bdf8 	strdeq	fp, [r0], -r8
8010c60c:	0000bdc0 	andeq	fp, r0, r0, asr #27
8010c610:	0000bda8 	andeq	fp, r0, r8, lsr #27
8010c614:	0000bd64 	andeq	fp, r0, r4, ror #26
8010c618:	0000a794 	muleq	r0, r4, r7
8010c61c:	0000a404 	andeq	sl, r0, r4, lsl #8
8010c620:	0000bc94 	muleq	r0, r4, ip
8010c624:	0000bc50 	andeq	fp, r0, r0, asr ip
8010c628:	0000bb7c 	andeq	fp, r0, ip, ror fp
8010c62c:	0000a600 	andeq	sl, r0, r0, lsl #12
8010c630:	0000a208 	andeq	sl, r0, r8, lsl #4
8010c634:	0000a5dc 	ldrdeq	sl, [r0], -ip
8010c638:	0000a260 	andeq	sl, r0, r0, ror #4
8010c63c:	0000a5bc 			; <UNDEFINED> instruction: 0x0000a5bc
8010c640:	0000a210 	andeq	sl, r0, r0, lsl r2
8010c644:	0000babc 			; <UNDEFINED> instruction: 0x0000babc
8010c648:	0000a594 	muleq	r0, r4, r5
8010c64c:	0000a234 	andeq	sl, r0, r4, lsr r2
8010c650:	0000a568 	andeq	sl, r0, r8, ror #10
8010c654:	0000a208 	andeq	sl, r0, r8, lsl #4
8010c658:	0000a534 	andeq	sl, r0, r4, lsr r5
8010c65c:	0000a170 	andeq	sl, r0, r0, ror r1
8010c660:	0000a518 	andeq	sl, r0, r8, lsl r5
8010c664:	0000a13c 	andeq	sl, r0, ip, lsr r1
8010c668:	0000a4fc 	strdeq	sl, [r0], -ip
8010c66c:	0000a1c0 	andeq	sl, r0, r0, asr #3

8010c670 <mmc_set_blocklen>:
8010c670:	e1a0c00d 	mov	ip, sp
8010c674:	e92dd800 	push	{fp, ip, lr, pc}
8010c678:	e24cb004 	sub	fp, ip, #4
8010c67c:	e24dd020 	sub	sp, sp, #32
8010c680:	e1a03000 	mov	r3, r0
8010c684:	e24b0028 	sub	r0, fp, #40	; 0x28
8010c688:	e3a01000 	mov	r1, #0
8010c68c:	e3a0c010 	mov	ip, #16
8010c690:	e3a02015 	mov	r2, #21
8010c694:	e14bc2b8 	strh	ip, [fp, #-40]	; 0xffffffd8
8010c698:	e14b22f4 	strd	r2, [fp, #-36]	; 0xffffffdc
8010c69c:	ebfffe66 	bl	8010c03c <dwmci_send_cmd.constprop.0>
8010c6a0:	e2500000 	subs	r0, r0, #0
8010c6a4:	13a00001 	movne	r0, #1
8010c6a8:	e2600000 	rsb	r0, r0, #0
8010c6ac:	e24bd00c 	sub	sp, fp, #12
8010c6b0:	e89da800 	ldm	sp, {fp, sp, pc}

8010c6b4 <mmc_read_blocks>:
8010c6b4:	e1a0c00d 	mov	ip, sp
8010c6b8:	e92dd800 	push	{fp, ip, lr, pc}
8010c6bc:	e24cb004 	sub	fp, ip, #4
8010c6c0:	e24dd030 	sub	sp, sp, #48	; 0x30
8010c6c4:	e1a0c000 	mov	ip, r0
8010c6c8:	e1a02001 	mov	r2, r1
8010c6cc:	e24b0028 	sub	r0, fp, #40	; 0x28
8010c6d0:	e24b1038 	sub	r1, fp, #56	; 0x38
8010c6d4:	e3a03001 	mov	r3, #1
8010c6d8:	e3a0e011 	mov	lr, #17
8010c6dc:	e50b2020 	str	r2, [fp, #-32]	; 0xffffffe0
8010c6e0:	e3a02015 	mov	r2, #21
8010c6e4:	e14be2b8 	strh	lr, [fp, #-40]	; 0xffffffd8
8010c6e8:	e50b2024 	str	r2, [fp, #-36]	; 0xffffffdc
8010c6ec:	e3a02c02 	mov	r2, #512	; 0x200
8010c6f0:	e50bc038 	str	ip, [fp, #-56]	; 0xffffffc8
8010c6f4:	e50b3030 	str	r3, [fp, #-48]	; 0xffffffd0
8010c6f8:	e50b202c 	str	r2, [fp, #-44]	; 0xffffffd4
8010c6fc:	e50b3034 	str	r3, [fp, #-52]	; 0xffffffcc
8010c700:	ebfffe4d 	bl	8010c03c <dwmci_send_cmd.constprop.0>
8010c704:	e24bd00c 	sub	sp, fp, #12
8010c708:	e89da800 	ldm	sp, {fp, sp, pc}

8010c70c <dwmci_init>:
8010c70c:	e3a00000 	mov	r0, #0
8010c710:	e12fff1e 	bx	lr

8010c714 <__core_id>:
8010c714:	ee100fb0 	mrc	15, 0, r0, cr0, cr0, {5}
8010c718:	e20000ff 	and	r0, r0, #255	; 0xff
8010c71c:	e1a0f00e 	mov	pc, lr

8010c720 <__v7_flush_dcache_all>:
8010c720:	f57ff05f 	dmb	sy
8010c724:	ee300f30 	mrc	15, 1, r0, cr0, cr0, {1}
8010c728:	e1a03ba0 	lsr	r3, r0, #23
8010c72c:	e213300e 	ands	r3, r3, #14
8010c730:	0a00001a 	beq	8010c7a0 <finished>

8010c734 <start_flush_levels>:
8010c734:	e3a0a000 	mov	sl, #0

8010c738 <flush_levels>:
8010c738:	e08a20aa 	add	r2, sl, sl, lsr #1
8010c73c:	e1a01230 	lsr	r1, r0, r2
8010c740:	e2011007 	and	r1, r1, #7
8010c744:	e3510002 	cmp	r1, #2
8010c748:	ba000011 	blt	8010c794 <skip>
8010c74c:	ee40af10 	mcr	15, 2, sl, cr0, cr0, {0}
8010c750:	f57ff06f 	isb	sy
8010c754:	ee301f10 	mrc	15, 1, r1, cr0, cr0, {0}
8010c758:	e2012007 	and	r2, r1, #7
8010c75c:	e2822004 	add	r2, r2, #4
8010c760:	e30043ff 	movw	r4, #1023	; 0x3ff
8010c764:	e01441a1 	ands	r4, r4, r1, lsr #3
8010c768:	e16f5f14 	clz	r5, r4
8010c76c:	e3077fff 	movw	r7, #32767	; 0x7fff
8010c770:	e01776a1 	ands	r7, r7, r1, lsr #13

8010c774 <loop1>:
8010c774:	e1a09007 	mov	r9, r7

8010c778 <loop2>:
8010c778:	e18ab514 	orr	fp, sl, r4, lsl r5
8010c77c:	e18bb219 	orr	fp, fp, r9, lsl r2
8010c780:	ee07bf5e 	mcr	15, 0, fp, cr7, cr14, {2}
8010c784:	e2599001 	subs	r9, r9, #1
8010c788:	aafffffa 	bge	8010c778 <loop2>
8010c78c:	e2544001 	subs	r4, r4, #1
8010c790:	aafffff7 	bge	8010c774 <loop1>

8010c794 <skip>:
8010c794:	e28aa002 	add	sl, sl, #2
8010c798:	e153000a 	cmp	r3, sl
8010c79c:	caffffe5 	bgt	8010c738 <flush_levels>

8010c7a0 <finished>:
8010c7a0:	e3a0a000 	mov	sl, #0
8010c7a4:	ee40af10 	mcr	15, 2, sl, cr0, cr0, {0}
8010c7a8:	f57ff04e 	dsb	st
8010c7ac:	f57ff06f 	isb	sy
8010c7b0:	e12fff1e 	bx	lr

8010c7b4 <__flush_dcache_all>:
8010c7b4:	e92d4eb0 	push	{r4, r5, r7, r9, sl, fp, lr}
8010c7b8:	ebffffd8 	bl	8010c720 <__v7_flush_dcache_all>
8010c7bc:	e8bd4eb0 	pop	{r4, r5, r7, r9, sl, fp, lr}
8010c7c0:	e12fff1e 	bx	lr

8010c7c4 <__v7_invalidate_dcache_all>:
8010c7c4:	f57ff05f 	dmb	sy
8010c7c8:	ee300f30 	mrc	15, 1, r0, cr0, cr0, {1}
8010c7cc:	e1a03ba0 	lsr	r3, r0, #23
8010c7d0:	e213300e 	ands	r3, r3, #14
8010c7d4:	0a00001a 	beq	8010c844 <inval_finished>
8010c7d8:	e3a0a000 	mov	sl, #0

8010c7dc <inval_levels>:
8010c7dc:	e08a20aa 	add	r2, sl, sl, lsr #1
8010c7e0:	e1a01230 	lsr	r1, r0, r2
8010c7e4:	e2011007 	and	r1, r1, #7
8010c7e8:	e3510002 	cmp	r1, #2
8010c7ec:	ba000011 	blt	8010c838 <inval_skip>
8010c7f0:	ee40af10 	mcr	15, 2, sl, cr0, cr0, {0}
8010c7f4:	f57ff06f 	isb	sy
8010c7f8:	ee301f10 	mrc	15, 1, r1, cr0, cr0, {0}
8010c7fc:	e2012007 	and	r2, r1, #7
8010c800:	e2822004 	add	r2, r2, #4
8010c804:	e30043ff 	movw	r4, #1023	; 0x3ff
8010c808:	e01441a1 	ands	r4, r4, r1, lsr #3
8010c80c:	e16f5f14 	clz	r5, r4
8010c810:	e3077fff 	movw	r7, #32767	; 0x7fff
8010c814:	e01776a1 	ands	r7, r7, r1, lsr #13

8010c818 <inval_loop1>:
8010c818:	e1a09007 	mov	r9, r7

8010c81c <inval_loop2>:
8010c81c:	e18ab514 	orr	fp, sl, r4, lsl r5
8010c820:	e18bb219 	orr	fp, fp, r9, lsl r2
8010c824:	ee07bf56 	mcr	15, 0, fp, cr7, cr6, {2}
8010c828:	e2599001 	subs	r9, r9, #1
8010c82c:	aafffffa 	bge	8010c81c <inval_loop2>
8010c830:	e2544001 	subs	r4, r4, #1
8010c834:	aafffff7 	bge	8010c818 <inval_loop1>

8010c838 <inval_skip>:
8010c838:	e28aa002 	add	sl, sl, #2
8010c83c:	e153000a 	cmp	r3, sl
8010c840:	caffffe5 	bgt	8010c7dc <inval_levels>

8010c844 <inval_finished>:
8010c844:	e3a0a000 	mov	sl, #0
8010c848:	ee40af10 	mcr	15, 2, sl, cr0, cr0, {0}
8010c84c:	f57ff04e 	dsb	st
8010c850:	f57ff06f 	isb	sy
8010c854:	e12fff1e 	bx	lr

8010c858 <__invalidate_dcache_all>:
8010c858:	e92d4eb0 	push	{r4, r5, r7, r9, sl, fp, lr}
8010c85c:	ebffffd8 	bl	8010c7c4 <__v7_invalidate_dcache_all>
8010c860:	e8bd4eb0 	pop	{r4, r5, r7, r9, sl, fp, lr}
8010c864:	e12fff1e 	bx	lr

8010c868 <__flush_tlb>:
8010c868:	e3a00000 	mov	r0, #0
8010c86c:	ee070f15 	mcr	15, 0, r0, cr7, cr5, {0}
8010c870:	ee070fd5 	mcr	15, 0, r0, cr7, cr5, {6}
8010c874:	ee080f17 	mcr	15, 0, r0, cr8, cr7, {0}
8010c878:	ee080f16 	mcr	15, 0, r0, cr8, cr6, {0}
8010c87c:	ee080f15 	mcr	15, 0, r0, cr8, cr5, {0}
8010c880:	f57ff06f 	isb	sy
8010c884:	f57ff04f 	dsb	sy
8010c888:	e1a0f00e 	mov	pc, lr

8010c88c <__set_translation_table_base>:
8010c88c:	ee020f10 	mcr	15, 0, r0, cr2, cr0, {0}
8010c890:	f57ff05f 	dmb	sy
8010c894:	e1a0f00e 	mov	pc, lr

8010c898 <__irq_enable>:
8010c898:	e10f0000 	mrs	r0, CPSR
8010c89c:	e3c00080 	bic	r0, r0, #128	; 0x80
8010c8a0:	e121f000 	msr	CPSR_c, r0
8010c8a4:	e1a0f00e 	mov	pc, lr

8010c8a8 <__irq_disable>:
8010c8a8:	e10f0000 	mrs	r0, CPSR
8010c8ac:	e3800080 	orr	r0, r0, #128	; 0x80
8010c8b0:	e121f000 	msr	CPSR_c, r0
8010c8b4:	e1a0f00e 	mov	pc, lr

8010c8b8 <__smp_lock>:
8010c8b8:	e1901f9f 	ldrex	r1, [r0]
8010c8bc:	e3510000 	cmp	r1, #0
8010c8c0:	1320f002 	wfene
8010c8c4:	1afffffb 	bne	8010c8b8 <__smp_lock>
8010c8c8:	e3a01001 	mov	r1, #1
8010c8cc:	e1802f91 	strex	r2, r1, [r0]
8010c8d0:	e3520000 	cmp	r2, #0
8010c8d4:	1afffff7 	bne	8010c8b8 <__smp_lock>
8010c8d8:	f57ff05f 	dmb	sy
8010c8dc:	e12fff1e 	bx	lr

8010c8e0 <__smp_unlock>:
8010c8e0:	e3a01000 	mov	r1, #0
8010c8e4:	f57ff05f 	dmb	sy
8010c8e8:	e5801000 	str	r1, [r0]
8010c8ec:	f57ff04f 	dsb	sy
8010c8f0:	e320f004 	sev
8010c8f4:	e12fff1e 	bx	lr

8010c8f8 <set_pte_flags>:
8010c8f8:	e1d030b0 	ldrh	r3, [r0]
8010c8fc:	e30f2bf3 	movw	r2, #64499	; 0xfbf3
8010c900:	e34f2fff 	movt	r2, #65535	; 0xffff
8010c904:	e3510000 	cmp	r1, #0
8010c908:	e0033002 	and	r3, r3, r2
8010c90c:	e3833b01 	orr	r3, r3, #1024	; 0x400
8010c910:	e1c030b0 	strh	r3, [r0]
8010c914:	1a000004 	bne	8010c92c <set_pte_flags+0x34>
8010c918:	e5d03000 	ldrb	r3, [r0]
8010c91c:	e3c3300c 	bic	r3, r3, #12
8010c920:	e383300c 	orr	r3, r3, #12
8010c924:	e5c03000 	strb	r3, [r0]
8010c928:	e12fff1e 	bx	lr
8010c92c:	e3510003 	cmp	r1, #3
8010c930:	0a000006 	beq	8010c950 <set_pte_flags+0x58>
8010c934:	e3510002 	cmp	r1, #2
8010c938:	0a000009 	beq	8010c964 <set_pte_flags+0x6c>
8010c93c:	e3510001 	cmp	r1, #1
8010c940:	05d03000 	ldrbeq	r3, [r0]
8010c944:	03833004 	orreq	r3, r3, #4
8010c948:	05c03000 	strbeq	r3, [r0]
8010c94c:	e12fff1e 	bx	lr
8010c950:	e1d030b0 	ldrh	r3, [r0]
8010c954:	e3c33f73 	bic	r3, r3, #460	; 0x1cc
8010c958:	e383304c 	orr	r3, r3, #76	; 0x4c
8010c95c:	e1c030b0 	strh	r3, [r0]
8010c960:	e12fff1e 	bx	lr
8010c964:	e5d03000 	ldrb	r3, [r0]
8010c968:	e3833008 	orr	r3, r3, #8
8010c96c:	e5c03000 	strb	r3, [r0]
8010c970:	e12fff1e 	bx	lr

8010c974 <start_core>:
8010c974:	e1a0c00d 	mov	ip, sp
8010c978:	e92dd800 	push	{fp, ip, lr, pc}
8010c97c:	e24cb004 	sub	fp, ip, #4
8010c980:	e24dd010 	sub	sp, sp, #16
8010c984:	e50b0018 	str	r0, [fp, #-24]	; 0xffffffe8
8010c988:	e59f308c 	ldr	r3, [pc, #140]	; 8010ca1c <start_core+0xa8>
8010c98c:	e08f3003 	add	r3, pc, r3
8010c990:	e59f2088 	ldr	r2, [pc, #136]	; 8010ca20 <start_core+0xac>
8010c994:	e7932002 	ldr	r2, [r3, r2]
8010c998:	e5922050 	ldr	r2, [r2, #80]	; 0x50
8010c99c:	e51b1018 	ldr	r1, [fp, #-24]	; 0xffffffe8
8010c9a0:	e1510002 	cmp	r1, r2
8010c9a4:	2a000019 	bcs	8010ca10 <start_core+0x9c>
8010c9a8:	e59f2070 	ldr	r2, [pc, #112]	; 8010ca20 <start_core+0xac>
8010c9ac:	e7932002 	ldr	r2, [r3, r2]
8010c9b0:	e5921028 	ldr	r1, [r2, #40]	; 0x28
8010c9b4:	e59f2064 	ldr	r2, [pc, #100]	; 8010ca20 <start_core+0xac>
8010c9b8:	e7932002 	ldr	r2, [r3, r2]
8010c9bc:	e5922024 	ldr	r2, [r2, #36]	; 0x24
8010c9c0:	e0812002 	add	r2, r1, r2
8010c9c4:	e59f1058 	ldr	r1, [pc, #88]	; 8010ca24 <start_core+0xb0>
8010c9c8:	e7933001 	ldr	r3, [r3, r1]
8010c9cc:	e2833102 	add	r3, r3, #-2147483648	; 0x80000000
8010c9d0:	e0823003 	add	r3, r2, r3
8010c9d4:	e50b3010 	str	r3, [fp, #-16]
8010c9d8:	e51b2010 	ldr	r2, [fp, #-16]
8010c9dc:	e51b1018 	ldr	r1, [fp, #-24]	; 0xffffffe8
8010c9e0:	e59f3040 	ldr	r3, [pc, #64]	; 8010ca28 <start_core+0xb4>
8010c9e4:	e08f3003 	add	r3, pc, r3
8010c9e8:	e1a00003 	mov	r0, r3
8010c9ec:	eb000d63 	bl	8010ff80 <printf>
8010c9f0:	e51b3018 	ldr	r3, [fp, #-24]	; 0xffffffe8
8010c9f4:	e6ef3073 	uxtb	r3, r3
8010c9f8:	e2833003 	add	r3, r3, #3
8010c9fc:	e6ef3073 	uxtb	r3, r3
8010ca00:	e51b1010 	ldr	r1, [fp, #-16]
8010ca04:	e1a00003 	mov	r0, r3
8010ca08:	eb000007 	bl	8010ca2c <rk312x_sys_set_power_domain>
8010ca0c:	ea000000 	b	8010ca14 <start_core+0xa0>
8010ca10:	e320f000 	nop	{0}
8010ca14:	e24bd00c 	sub	sp, fp, #12
8010ca18:	e89da800 	ldm	sp, {fp, sp, pc}
8010ca1c:	0000b6d4 	ldrdeq	fp, [r0], -r4
8010ca20:	00000058 	andeq	r0, r0, r8, asr r0
8010ca24:	00000044 	andeq	r0, r0, r4, asr #32
8010ca28:	0000a138 	andeq	sl, r0, r8, lsr r1

8010ca2c <rk312x_sys_set_power_domain>:
8010ca2c:	e59f3194 	ldr	r3, [pc, #404]	; 8010cbc8 <rk312x_sys_set_power_domain+0x19c>
8010ca30:	e1a0c00d 	mov	ip, sp
8010ca34:	e92ddff0 	push	{r4, r5, r6, r7, r8, r9, sl, fp, ip, lr, pc}
8010ca38:	e3a02057 	mov	r2, #87	; 0x57
8010ca3c:	e08f3003 	add	r3, pc, r3
8010ca40:	e24cb004 	sub	fp, ip, #4
8010ca44:	e24dd03c 	sub	sp, sp, #60	; 0x3c
8010ca48:	e1a07000 	mov	r7, r0
8010ca4c:	e1a08001 	mov	r8, r1
8010ca50:	e283001c 	add	r0, r3, #28
8010ca54:	e1a01003 	mov	r1, r3
8010ca58:	e24b405c 	sub	r4, fp, #92	; 0x5c
8010ca5c:	eb000d47 	bl	8010ff80 <printf>
8010ca60:	e24b302c 	sub	r3, fp, #44	; 0x2c
8010ca64:	e2631202 	rsb	r1, r3, #536870912	; 0x20000000
8010ca68:	e24b6058 	sub	r6, fp, #88	; 0x58
8010ca6c:	e24b5030 	sub	r5, fp, #48	; 0x30
8010ca70:	e2811c01 	add	r1, r1, #256	; 0x100
8010ca74:	e1a02004 	mov	r2, r4
8010ca78:	e7913002 	ldr	r3, [r1, r2]
8010ca7c:	e5a23004 	str	r3, [r2, #4]!
8010ca80:	e1520005 	cmp	r2, r5
8010ca84:	1afffffb 	bne	8010ca78 <rk312x_sys_set_power_domain+0x4c>
8010ca88:	e59f113c 	ldr	r1, [pc, #316]	; 8010cbcc <rk312x_sys_set_power_domain+0x1a0>
8010ca8c:	e3a0205c 	mov	r2, #92	; 0x5c
8010ca90:	e08f1001 	add	r1, pc, r1
8010ca94:	e281001c 	add	r0, r1, #28
8010ca98:	eb000d38 	bl	8010ff80 <printf>
8010ca9c:	e3a020d0 	mov	r2, #208	; 0xd0
8010caa0:	e3422000 	movt	r2, #8192	; 0x2000
8010caa4:	e3a01000 	mov	r1, #0
8010caa8:	e34f1fff 	movt	r1, #65535	; 0xffff
8010caac:	e3a030fc 	mov	r3, #252	; 0xfc
8010cab0:	e3423000 	movt	r3, #8192	; 0x2000
8010cab4:	e4821004 	str	r1, [r2], #4
8010cab8:	f57ff04f 	dsb	sy
8010cabc:	e1520003 	cmp	r2, r3
8010cac0:	1afffffb 	bne	8010cab4 <rk312x_sys_set_power_domain+0x88>
8010cac4:	e59fa104 	ldr	sl, [pc, #260]	; 8010cbd0 <rk312x_sys_set_power_domain+0x1a4>
8010cac8:	e2477004 	sub	r7, r7, #4
8010cacc:	e3a02060 	mov	r2, #96	; 0x60
8010cad0:	e08fa00a 	add	sl, pc, sl
8010cad4:	e28a901c 	add	r9, sl, #28
8010cad8:	e1a0100a 	mov	r1, sl
8010cadc:	e1a00009 	mov	r0, r9
8010cae0:	eb000d26 	bl	8010ff80 <printf>
8010cae4:	e6ef3077 	uxtb	r3, r7
8010cae8:	e3530002 	cmp	r3, #2
8010caec:	9a000017 	bls	8010cb50 <rk312x_sys_set_power_domain+0x124>
8010caf0:	e59f10dc 	ldr	r1, [pc, #220]	; 8010cbd4 <rk312x_sys_set_power_domain+0x1a8>
8010caf4:	e3a0206f 	mov	r2, #111	; 0x6f
8010caf8:	e08f1001 	add	r1, pc, r1
8010cafc:	e281001c 	add	r0, r1, #28
8010cb00:	eb000d1e 	bl	8010ff80 <printf>
8010cb04:	e3a01000 	mov	r1, #0
8010cb08:	e34f1fff 	movt	r1, #65535	; 0xffff
8010cb0c:	e2843202 	add	r3, r4, #536870912	; 0x20000000
8010cb10:	e5b42004 	ldr	r2, [r4, #4]!
8010cb14:	e28330d4 	add	r3, r3, #212	; 0xd4
8010cb18:	e0433006 	sub	r3, r3, r6
8010cb1c:	e1822001 	orr	r2, r2, r1
8010cb20:	e5832000 	str	r2, [r3]
8010cb24:	f57ff04f 	dsb	sy
8010cb28:	e1540005 	cmp	r4, r5
8010cb2c:	1afffff6 	bne	8010cb0c <rk312x_sys_set_power_domain+0xe0>
8010cb30:	e59f10a0 	ldr	r1, [pc, #160]	; 8010cbd8 <rk312x_sys_set_power_domain+0x1ac>
8010cb34:	e3a02075 	mov	r2, #117	; 0x75
8010cb38:	e08f1001 	add	r1, pc, r1
8010cb3c:	e281001c 	add	r0, r1, #28
8010cb40:	eb000d0e 	bl	8010ff80 <printf>
8010cb44:	e3a00000 	mov	r0, #0
8010cb48:	e24bd028 	sub	sp, fp, #40	; 0x28
8010cb4c:	e89daff0 	ldm	sp, {r4, r5, r6, r7, r8, r9, sl, fp, sp, pc}
8010cb50:	e3a02202 	mov	r2, #536870912	; 0x20000000
8010cb54:	e3a03802 	mov	r3, #131072	; 0x20000
8010cb58:	e1a07713 	lsl	r7, r3, r7
8010cb5c:	e5827110 	str	r7, [r2, #272]	; 0x110
8010cb60:	f57ff04f 	dsb	sy
8010cb64:	e3a07902 	mov	r7, #32768	; 0x8000
8010cb68:	e34c7008 	movt	r7, #49160	; 0xc008
8010cb6c:	e3a0000a 	mov	r0, #10
8010cb70:	ebfffd22 	bl	8010c000 <udelay>
8010cb74:	e1a03008 	mov	r3, r8
8010cb78:	e1a0100a 	mov	r1, sl
8010cb7c:	e28a0024 	add	r0, sl, #36	; 0x24
8010cb80:	e58d7000 	str	r7, [sp]
8010cb84:	e3a02066 	mov	r2, #102	; 0x66
8010cb88:	eb000cfc 	bl	8010ff80 <printf>
8010cb8c:	e1a0100a 	mov	r1, sl
8010cb90:	e1a00009 	mov	r0, r9
8010cb94:	e5878008 	str	r8, [r7, #8]
8010cb98:	e3a02068 	mov	r2, #104	; 0x68
8010cb9c:	eb000cf7 	bl	8010ff80 <printf>
8010cba0:	e1a0100a 	mov	r1, sl
8010cba4:	e1a00009 	mov	r0, r9
8010cba8:	e3a0206a 	mov	r2, #106	; 0x6a
8010cbac:	e30b3eaf 	movw	r3, #48815	; 0xbeaf
8010cbb0:	e34d3ead 	movt	r3, #57005	; 0xdead
8010cbb4:	e5873004 	str	r3, [r7, #4]
8010cbb8:	eb000cf0 	bl	8010ff80 <printf>
8010cbbc:	f57ff04f 	dsb	sy
8010cbc0:	e320f004 	sev
8010cbc4:	eaffffc9 	b	8010caf0 <rk312x_sys_set_power_domain+0xc4>
8010cbc8:	0000a0f4 	strdeq	sl, [r0], -r4
8010cbcc:	0000a0a0 	andeq	sl, r0, r0, lsr #1
8010cbd0:	0000a060 	andeq	sl, r0, r0, rrx
8010cbd4:	0000a038 	andeq	sl, r0, r8, lsr r0
8010cbd8:	00009ff8 	strdeq	r9, [r0], -r8

8010cbdc <sys_info_init>:
8010cbdc:	e1a0c00d 	mov	ip, sp
8010cbe0:	e92dd830 	push	{r4, r5, fp, ip, lr, pc}
8010cbe4:	e59f50ac 	ldr	r5, [pc, #172]	; 8010cc98 <sys_info_init+0xbc>
8010cbe8:	e59f30ac 	ldr	r3, [pc, #172]	; 8010cc9c <sys_info_init+0xc0>
8010cbec:	e24cb004 	sub	fp, ip, #4
8010cbf0:	e08f5005 	add	r5, pc, r5
8010cbf4:	e3a02054 	mov	r2, #84	; 0x54
8010cbf8:	e3a01000 	mov	r1, #0
8010cbfc:	e7954003 	ldr	r4, [r5, r3]
8010cc00:	e1a00004 	mov	r0, r4
8010cc04:	eb000868 	bl	8010edac <memset>
8010cc08:	e59f1090 	ldr	r1, [pc, #144]	; 8010cca0 <sys_info_init+0xc4>
8010cc0c:	e1a00004 	mov	r0, r4
8010cc10:	e08f1001 	add	r1, pc, r1
8010cc14:	e2811038 	add	r1, r1, #56	; 0x38
8010cc18:	eb00089d 	bl	8010ee94 <strcpy>
8010cc1c:	e59f3080 	ldr	r3, [pc, #128]	; 8010cca4 <sys_info_init+0xc8>
8010cc20:	e3a01206 	mov	r1, #1610612736	; 0x60000000
8010cc24:	e3a02201 	mov	r2, #268435456	; 0x10000000
8010cc28:	e5841024 	str	r1, [r4, #36]	; 0x24
8010cc2c:	e3a00000 	mov	r0, #0
8010cc30:	e3460dc0 	movt	r0, #28096	; 0x6dc0
8010cc34:	e584102c 	str	r1, [r4, #44]	; 0x2c
8010cc38:	e5842020 	str	r2, [r4, #32]
8010cc3c:	e3a01102 	mov	r1, #-2147483648	; 0x80000000
8010cc40:	e5842030 	str	r2, [r4, #48]	; 0x30
8010cc44:	e3a02103 	mov	r2, #-1073741824	; 0xc0000000
8010cc48:	e5841028 	str	r1, [r4, #40]	; 0x28
8010cc4c:	e5842034 	str	r2, [r4, #52]	; 0x34
8010cc50:	e3a02502 	mov	r2, #8388608	; 0x800000
8010cc54:	e5842038 	str	r2, [r4, #56]	; 0x38
8010cc58:	e59f1048 	ldr	r1, [pc, #72]	; 8010cca8 <sys_info_init+0xcc>
8010cc5c:	e7953003 	ldr	r3, [r5, r3]
8010cc60:	e59f2044 	ldr	r2, [pc, #68]	; 8010ccac <sys_info_init+0xd0>
8010cc64:	e2833dff 	add	r3, r3, #16320	; 0x3fc0
8010cc68:	e283303f 	add	r3, r3, #63	; 0x3f
8010cc6c:	e7951001 	ldr	r1, [r5, r1]
8010cc70:	e3c33dff 	bic	r3, r3, #16320	; 0x3fc0
8010cc74:	e3c3303f 	bic	r3, r3, #63	; 0x3f
8010cc78:	e283320e 	add	r3, r3, #-536870912	; 0xe0000000
8010cc7c:	e2833892 	add	r3, r3, #9568256	; 0x920000
8010cc80:	e5813000 	str	r3, [r1]
8010cc84:	e7953002 	ldr	r3, [r5, r2]
8010cc88:	e5830000 	str	r0, [r3]
8010cc8c:	eb0007bb 	bl	8010eb80 <get_cpu_cores>
8010cc90:	e5840050 	str	r0, [r4, #80]	; 0x50
8010cc94:	e89da830 	ldm	sp, {r4, r5, fp, sp, pc}
8010cc98:	0000b470 	andeq	fp, r0, r0, ror r4
8010cc9c:	00000058 	andeq	r0, r0, r8, asr r0
8010cca0:	00009f20 	andeq	r9, r0, r0, lsr #30
8010cca4:	00000020 	andeq	r0, r0, r0, lsr #32
8010cca8:	0000004c 	andeq	r0, r0, ip, asr #32
8010ccac:	00000040 	andeq	r0, r0, r0, asr #32

8010ccb0 <arch_vm>:
8010ccb0:	e1a0c00d 	mov	ip, sp
8010ccb4:	e92dd830 	push	{r4, r5, fp, ip, lr, pc}
8010ccb8:	e3a02000 	mov	r2, #0
8010ccbc:	e3462dd0 	movt	r2, #28112	; 0x6dd0
8010ccc0:	e24dd008 	sub	sp, sp, #8
8010ccc4:	e24cb004 	sub	fp, ip, #4
8010ccc8:	e3a04001 	mov	r4, #1
8010cccc:	e1a05000 	mov	r5, r0
8010ccd0:	e1a01002 	mov	r1, r2
8010ccd4:	e3a03996 	mov	r3, #2457600	; 0x258000
8010ccd8:	e58d4004 	str	r4, [sp, #4]
8010ccdc:	e58d4000 	str	r4, [sp]
8010cce0:	eb0015db 	bl	80112454 <map_pages_size>
8010cce4:	e3a02202 	mov	r2, #536870912	; 0x20000000
8010cce8:	e1a00005 	mov	r0, r5
8010ccec:	e1a01002 	mov	r1, r2
8010ccf0:	e58d4004 	str	r4, [sp, #4]
8010ccf4:	e3a03502 	mov	r3, #8388608	; 0x800000
8010ccf8:	e58d4000 	str	r4, [sp]
8010ccfc:	eb0015d4 	bl	80112454 <map_pages_size>
8010cd00:	e24bd014 	sub	sp, fp, #20
8010cd04:	e89da830 	ldm	sp, {r4, r5, fp, sp, pc}

8010cd08 <irq_arch_init>:
8010cd08:	e3a00902 	mov	r0, #32768	; 0x8000
8010cd0c:	e34c0013 	movt	r0, #49171	; 0xc013
8010cd10:	ea0000ec 	b	8010d0c8 <gic_init>

8010cd14 <irq_gets>:
8010cd14:	e1a0c00d 	mov	ip, sp
8010cd18:	e92dd800 	push	{fp, ip, lr, pc}
8010cd1c:	e24cb004 	sub	fp, ip, #4
8010cd20:	eb000148 	bl	8010d248 <gic_get_irq>
8010cd24:	e7e90050 	ubfx	r0, r0, #0, #10
8010cd28:	e350001b 	cmp	r0, #27
8010cd2c:	0a000003 	beq	8010cd40 <irq_gets+0x2c>
8010cd30:	e3500000 	cmp	r0, #0
8010cd34:	13a00000 	movne	r0, #0
8010cd38:	03a00a01 	moveq	r0, #4096	; 0x1000
8010cd3c:	e89da800 	ldm	sp, {fp, sp, pc}
8010cd40:	e3a00001 	mov	r0, #1
8010cd44:	e89da800 	ldm	sp, {fp, sp, pc}

8010cd48 <irq_enable>:
8010cd48:	e3a0101b 	mov	r1, #27
8010cd4c:	e3a00000 	mov	r0, #0
8010cd50:	ea00011b 	b	8010d1c4 <gic_irq_enable>

8010cd54 <irq_disable>:
8010cd54:	e12fff1e 	bx	lr

8010cd58 <write_cntv_tval>:
8010cd58:	ee0e0f13 	mcr	15, 0, r0, cr14, cr3, {0}
8010cd5c:	e12fff1e 	bx	lr

8010cd60 <timer_set_interval>:
8010cd60:	e1a0c00d 	mov	ip, sp
8010cd64:	e3510a01 	cmp	r1, #4096	; 0x1000
8010cd68:	e92dd8f0 	push	{r4, r5, r6, r7, fp, ip, lr, pc}
8010cd6c:	e24cb004 	sub	fp, ip, #4
8010cd70:	e59f407c 	ldr	r4, [pc, #124]	; 8010cdf4 <timer_set_interval+0x94>
8010cd74:	21a06001 	movcs	r6, r1
8010cd78:	33a06a01 	movcc	r6, #4096	; 0x1000
8010cd7c:	e08f4004 	add	r4, pc, r4
8010cd80:	ee1e1f10 	mrc	15, 0, r1, cr14, cr0, {0}
8010cd84:	e241393d 	sub	r3, r1, #999424	; 0xf4000
8010cd88:	e30a2e40 	movw	r2, #44608	; 0xae40
8010cd8c:	e34022eb 	movt	r2, #747	; 0x2eb
8010cd90:	e2433d09 	sub	r3, r3, #576	; 0x240
8010cd94:	e1530002 	cmp	r3, r2
8010cd98:	8a00000e 	bhi	8010cdd8 <timer_set_interval+0x78>
8010cd9c:	e59f3054 	ldr	r3, [pc, #84]	; 8010cdf8 <timer_set_interval+0x98>
8010cda0:	e7945003 	ldr	r5, [r4, r3]
8010cda4:	e5851000 	str	r1, [r5]
8010cda8:	e59f004c 	ldr	r0, [pc, #76]	; 8010cdfc <timer_set_interval+0x9c>
8010cdac:	e08f0000 	add	r0, pc, r0
8010cdb0:	eb000c72 	bl	8010ff80 <printf>
8010cdb4:	e5951000 	ldr	r1, [r5]
8010cdb8:	e59f3040 	ldr	r3, [pc, #64]	; 8010ce00 <timer_set_interval+0xa0>
8010cdbc:	e731f611 	udiv	r1, r1, r6
8010cdc0:	e7943003 	ldr	r3, [r4, r3]
8010cdc4:	e5831000 	str	r1, [r3]
8010cdc8:	ee0e1f13 	mcr	15, 0, r1, cr14, cr3, {0}
8010cdcc:	e3a03001 	mov	r3, #1
8010cdd0:	ee0e3f33 	mcr	15, 0, r3, cr14, cr3, {1}
8010cdd4:	e89da8f0 	ldm	sp, {r4, r5, r6, r7, fp, sp, pc}
8010cdd8:	e59f2018 	ldr	r2, [pc, #24]	; 8010cdf8 <timer_set_interval+0x98>
8010cddc:	e3083d80 	movw	r3, #36224	; 0x8d80
8010cde0:	e340305b 	movt	r3, #91	; 0x5b
8010cde4:	e1a01003 	mov	r1, r3
8010cde8:	e7945002 	ldr	r5, [r4, r2]
8010cdec:	e5853000 	str	r3, [r5]
8010cdf0:	eaffffec 	b	8010cda8 <timer_set_interval+0x48>
8010cdf4:	0000b2e4 	andeq	fp, r0, r4, ror #5
8010cdf8:	00000008 	andeq	r0, r0, r8
8010cdfc:	00009a10 	andeq	r9, r0, r0, lsl sl
8010ce00:	00000030 	andeq	r0, r0, r0, lsr r0

8010ce04 <timer_clear_interrupt>:
8010ce04:	e59f3014 	ldr	r3, [pc, #20]	; 8010ce20 <timer_clear_interrupt+0x1c>
8010ce08:	e59f2014 	ldr	r2, [pc, #20]	; 8010ce24 <timer_clear_interrupt+0x20>
8010ce0c:	e08f3003 	add	r3, pc, r3
8010ce10:	e7933002 	ldr	r3, [r3, r2]
8010ce14:	e5933000 	ldr	r3, [r3]
8010ce18:	ee0e3f13 	mcr	15, 0, r3, cr14, cr3, {0}
8010ce1c:	e12fff1e 	bx	lr
8010ce20:	0000b254 	andeq	fp, r0, r4, asr r2
8010ce24:	00000030 	andeq	r0, r0, r0, lsr r0

8010ce28 <timer_read_sys_usec>:
8010ce28:	e92d4030 	push	{r4, r5, lr}
8010ce2c:	ec554f1e 	mrrc	15, 1, r4, r5, cr14
8010ce30:	e0940004 	adds	r0, r4, r4
8010ce34:	e0a51005 	adc	r1, r5, r5
8010ce38:	e0900000 	adds	r0, r0, r0
8010ce3c:	e0a11001 	adc	r1, r1, r1
8010ce40:	e0900004 	adds	r0, r0, r4
8010ce44:	e0a11005 	adc	r1, r1, r5
8010ce48:	e1a0e200 	lsl	lr, r0, #4
8010ce4c:	e1a0c201 	lsl	ip, r1, #4
8010ce50:	e18cce20 	orr	ip, ip, r0, lsr #28
8010ce54:	e090000e 	adds	r0, r0, lr
8010ce58:	e0a1100c 	adc	r1, r1, ip
8010ce5c:	e0900000 	adds	r0, r0, r0
8010ce60:	e0a11001 	adc	r1, r1, r1
8010ce64:	e0900004 	adds	r0, r0, r4
8010ce68:	e0a11005 	adc	r1, r1, r5
8010ce6c:	e1a00620 	lsr	r0, r0, #12
8010ce70:	e1800a01 	orr	r0, r0, r1, lsl #20
8010ce74:	e1a01621 	lsr	r1, r1, #12
8010ce78:	e8bd8030 	pop	{r4, r5, pc}

8010ce7c <sd_init>:
8010ce7c:	eafffe22 	b	8010c70c <dwmci_init>

8010ce80 <sd_dev_read>:
8010ce80:	e1a01000 	mov	r1, r0
8010ce84:	e59f0004 	ldr	r0, [pc, #4]	; 8010ce90 <sd_dev_read+0x10>
8010ce88:	e08f0000 	add	r0, pc, r0
8010ce8c:	eafffe08 	b	8010c6b4 <mmc_read_blocks>
8010ce90:	0000f1d0 	ldrdeq	pc, [r0], -r0

8010ce94 <sd_dev_read_done>:
8010ce94:	e59f101c 	ldr	r1, [pc, #28]	; 8010ceb8 <sd_dev_read_done+0x24>
8010ce98:	e1a0c00d 	mov	ip, sp
8010ce9c:	e3a02c02 	mov	r2, #512	; 0x200
8010cea0:	e92dd800 	push	{fp, ip, lr, pc}
8010cea4:	e08f1001 	add	r1, pc, r1
8010cea8:	e24cb004 	sub	fp, ip, #4
8010ceac:	eb00079e 	bl	8010ed2c <memcpy>
8010ceb0:	e3a00000 	mov	r0, #0
8010ceb4:	e89da800 	ldm	sp, {fp, sp, pc}
8010ceb8:	0000f1b4 			; <UNDEFINED> instruction: 0x0000f1b4

8010cebc <sd_dev_write>:
8010cebc:	e3e00000 	mvn	r0, #0
8010cec0:	e12fff1e 	bx	lr

8010cec4 <sd_dev_write_done>:
8010cec4:	e3e00000 	mvn	r0, #0
8010cec8:	e12fff1e 	bx	lr

8010cecc <fb_init>:
8010cecc:	e3a00b01 	mov	r0, #1024	; 0x400
8010ced0:	e3a01f96 	mov	r1, #600	; 0x258
8010ced4:	e52de004 	push	{lr}		; (str lr, [sp, #-4]!)
8010ced8:	e3a0c996 	mov	ip, #2457600	; 0x258000
8010cedc:	e3a0e020 	mov	lr, #32
8010cee0:	e1c200f0 	strd	r0, [r2]
8010cee4:	e3a03000 	mov	r3, #0
8010cee8:	e3463dd0 	movt	r3, #28112	; 0x6dd0
8010ceec:	e1c200f8 	strd	r0, [r2, #8]
8010cef0:	e582e014 	str	lr, [r2, #20]
8010cef4:	e3a00000 	mov	r0, #0
8010cef8:	e5823020 	str	r3, [r2, #32]
8010cefc:	e582c024 	str	ip, [r2, #36]	; 0x24
8010cf00:	e49df004 	pop	{pc}		; (ldr pc, [sp], #4)

8010cf04 <fb_flush32>:
8010cf04:	e12fff1e 	bx	lr

8010cf08 <uart_dev_init>:
8010cf08:	e3a00000 	mov	r0, #0
8010cf0c:	e12fff1e 	bx	lr

8010cf10 <uart_write>:
8010cf10:	e3510000 	cmp	r1, #0
8010cf14:	da00000b 	ble	8010cf48 <uart_write+0x38>
8010cf18:	e080c001 	add	ip, r0, r1
8010cf1c:	e3a02000 	mov	r2, #0
8010cf20:	e3422006 	movt	r2, #8198	; 0x2006
8010cf24:	e2401001 	sub	r1, r0, #1
8010cf28:	e24cc001 	sub	ip, ip, #1
8010cf2c:	e5f10001 	ldrb	r0, [r1, #1]!
8010cf30:	e5923014 	ldr	r3, [r2, #20]
8010cf34:	e3130020 	tst	r3, #32
8010cf38:	0afffffc 	beq	8010cf30 <uart_write+0x20>
8010cf3c:	e151000c 	cmp	r1, ip
8010cf40:	e5820000 	str	r0, [r2]
8010cf44:	1afffff8 	bne	8010cf2c <uart_write+0x1c>
8010cf48:	e3a00000 	mov	r0, #0
8010cf4c:	e12fff1e 	bx	lr

8010cf50 <interrupt_table_start>:
8010cf50:	e59ff014 	ldr	pc, [pc, #20]	; 8010cf6c <reset_entry_address>
8010cf54:	e59ff014 	ldr	pc, [pc, #20]	; 8010cf70 <undef_abort_entry_address>
8010cf58:	e59ff014 	ldr	pc, [pc, #20]	; 8010cf74 <svc_entry_address>
8010cf5c:	e59ff018 	ldr	pc, [pc, #24]	; 8010cf7c <prefetch_abort_entry_address>
8010cf60:	e59ff018 	ldr	pc, [pc, #24]	; 8010cf80 <data_abort_entry_address>
8010cf64:	eafffffe 	b	8010cf64 <interrupt_table_start+0x14>
8010cf68:	e59ff008 	ldr	pc, [pc, #8]	; 8010cf78 <irq_entry_address>

8010cf6c <reset_entry_address>:
8010cf6c:	00100000 	andseq	r0, r0, r0

8010cf70 <undef_abort_entry_address>:
8010cf70:	8010cff0 			; <UNDEFINED> instruction: 0x8010cff0

8010cf74 <svc_entry_address>:
8010cf74:	8010cf84 	andshi	ip, r0, r4, lsl #31

8010cf78 <irq_entry_address>:
8010cf78:	8010cfbc 			; <UNDEFINED> instruction: 0x8010cfbc

8010cf7c <prefetch_abort_entry_address>:
8010cf7c:	8010d028 	andshi	sp, r0, r8, lsr #32

8010cf80 <data_abort_entry_address>:
8010cf80:	8010d060 	andshi	sp, r0, r0, rrx

8010cf84 <interrupt_table_end>:
8010cf84:	e329f0d3 	msr	CPSR_fc, #211	; 0xd3
8010cf88:	e24dd03c 	sub	sp, sp, #60	; 0x3c
8010cf8c:	e8cd7fff 	stmia	sp, {r0, r1, r2, r3, r4, r5, r6, r7, r8, r9, sl, fp, ip, sp, lr}^
8010cf90:	e14f5000 	mrs	r5, SPSR
8010cf94:	e92d4020 	push	{r5, lr}
8010cf98:	e1a0400d 	mov	r4, sp
8010cf9c:	e92d0010 	stmfd	sp!, {r4}
8010cfa0:	eb00178e 	bl	80112de0 <svc_handler>
8010cfa4:	e8bd0010 	ldmfd	sp!, {r4}
8010cfa8:	e8bd4002 	pop	{r1, lr}
8010cfac:	e169f001 	msr	SPSR_fc, r1
8010cfb0:	e8dd7fff 	ldm	sp, {r0, r1, r2, r3, r4, r5, r6, r7, r8, r9, sl, fp, ip, sp, lr}^
8010cfb4:	e28dd03c 	add	sp, sp, #60	; 0x3c
8010cfb8:	e1b0f00e 	movs	pc, lr

8010cfbc <irq_entry>:
8010cfbc:	e329f0d2 	msr	CPSR_fc, #210	; 0xd2
8010cfc0:	e24ee004 	sub	lr, lr, #4
8010cfc4:	e24dd03c 	sub	sp, sp, #60	; 0x3c
8010cfc8:	e8cd7fff 	stmia	sp, {r0, r1, r2, r3, r4, r5, r6, r7, r8, r9, sl, fp, ip, sp, lr}^
8010cfcc:	e14f0000 	mrs	r0, SPSR
8010cfd0:	e92d4001 	push	{r0, lr}
8010cfd4:	e1a0000d 	mov	r0, sp
8010cfd8:	eb001646 	bl	801128f8 <irq_handler>
8010cfdc:	e8bd4001 	pop	{r0, lr}
8010cfe0:	e169f000 	msr	SPSR_fc, r0
8010cfe4:	e8dd7fff 	ldm	sp, {r0, r1, r2, r3, r4, r5, r6, r7, r8, r9, sl, fp, ip, sp, lr}^
8010cfe8:	e28dd03c 	add	sp, sp, #60	; 0x3c
8010cfec:	e1b0f00e 	movs	pc, lr

8010cff0 <undef_abort_entry>:
8010cff0:	e329f0d7 	msr	CPSR_fc, #215	; 0xd7
8010cff4:	e24ee004 	sub	lr, lr, #4
8010cff8:	e24dd03c 	sub	sp, sp, #60	; 0x3c
8010cffc:	e8cd7fff 	stmia	sp, {r0, r1, r2, r3, r4, r5, r6, r7, r8, r9, sl, fp, ip, sp, lr}^
8010d000:	e14f0000 	mrs	r0, SPSR
8010d004:	e92d4001 	push	{r0, lr}
8010d008:	e1a0000d 	mov	r0, sp
8010d00c:	ee151f30 	mrc	15, 0, r1, cr5, cr0, {1}
8010d010:	eb0016b1 	bl	80112adc <undef_abort_handler>
8010d014:	e8bd4001 	pop	{r0, lr}
8010d018:	e169f000 	msr	SPSR_fc, r0
8010d01c:	e8dd7fff 	ldm	sp, {r0, r1, r2, r3, r4, r5, r6, r7, r8, r9, sl, fp, ip, sp, lr}^
8010d020:	e28dd03c 	add	sp, sp, #60	; 0x3c
8010d024:	e1b0f00e 	movs	pc, lr

8010d028 <prefetch_abort_entry>:
8010d028:	e24ee004 	sub	lr, lr, #4
8010d02c:	e329f0d7 	msr	CPSR_fc, #215	; 0xd7
8010d030:	e24dd03c 	sub	sp, sp, #60	; 0x3c
8010d034:	e8cd7fff 	stmia	sp, {r0, r1, r2, r3, r4, r5, r6, r7, r8, r9, sl, fp, ip, sp, lr}^
8010d038:	e14f0000 	mrs	r0, SPSR
8010d03c:	e92d4001 	push	{r0, lr}
8010d040:	e1a0000d 	mov	r0, sp
8010d044:	ee151f30 	mrc	15, 0, r1, cr5, cr0, {1}
8010d048:	eb0016c5 	bl	80112b64 <prefetch_abort_handler>
8010d04c:	e8bd4001 	pop	{r0, lr}
8010d050:	e169f000 	msr	SPSR_fc, r0
8010d054:	e8dd7fff 	ldm	sp, {r0, r1, r2, r3, r4, r5, r6, r7, r8, r9, sl, fp, ip, sp, lr}^
8010d058:	e28dd03c 	add	sp, sp, #60	; 0x3c
8010d05c:	e1b0f00e 	movs	pc, lr

8010d060 <data_abort_entry>:
8010d060:	e24ee008 	sub	lr, lr, #8
8010d064:	e329f0d7 	msr	CPSR_fc, #215	; 0xd7
8010d068:	e24dd03c 	sub	sp, sp, #60	; 0x3c
8010d06c:	e8cd7fff 	stmia	sp, {r0, r1, r2, r3, r4, r5, r6, r7, r8, r9, sl, fp, ip, sp, lr}^
8010d070:	e14f0000 	mrs	r0, SPSR
8010d074:	e92d4001 	push	{r0, lr}
8010d078:	e1a0000d 	mov	r0, sp
8010d07c:	ee161f10 	mrc	15, 0, r1, cr6, cr0, {0}
8010d080:	ee152f10 	mrc	15, 0, r2, cr5, cr0, {0}
8010d084:	eb0016f4 	bl	80112c5c <data_abort_handler>
8010d088:	e8bd4001 	pop	{r0, lr}
8010d08c:	e169f000 	msr	SPSR_fc, r0
8010d090:	e8dd7fff 	ldm	sp, {r0, r1, r2, r3, r4, r5, r6, r7, r8, r9, sl, fp, ip, sp, lr}^
8010d094:	e28dd03c 	add	sp, sp, #60	; 0x3c
8010d098:	e1b0f00e 	movs	pc, lr

8010d09c <get_gic_baseaddr>:
8010d09c:	e1a0c00d 	mov	ip, sp
8010d0a0:	e92dd830 	push	{r4, r5, fp, ip, lr, pc}
8010d0a4:	e24cb004 	sub	fp, ip, #4
8010d0a8:	ee9f4f10 	mrc	15, 4, r4, cr15, cr0, {0}
8010d0ac:	e59f0010 	ldr	r0, [pc, #16]	; 8010d0c4 <get_gic_baseaddr+0x28>
8010d0b0:	e1a01004 	mov	r1, r4
8010d0b4:	e08f0000 	add	r0, pc, r0
8010d0b8:	eb000bb0 	bl	8010ff80 <printf>
8010d0bc:	e1a00004 	mov	r0, r4
8010d0c0:	e89da830 	ldm	sp, {r4, r5, fp, sp, pc}
8010d0c4:	00009728 	andeq	r9, r0, r8, lsr #14

8010d0c8 <gic_init>:
8010d0c8:	e1a0c00d 	mov	ip, sp
8010d0cc:	e3500000 	cmp	r0, #0
8010d0d0:	e92dd800 	push	{fp, ip, lr, pc}
8010d0d4:	e24cb004 	sub	fp, ip, #4
8010d0d8:	0a00000b 	beq	8010d10c <gic_init+0x44>
8010d0dc:	e59f2030 	ldr	r2, [pc, #48]	; 8010d114 <gic_init+0x4c>
8010d0e0:	e2803a02 	add	r3, r0, #8192	; 0x2000
8010d0e4:	e2800a01 	add	r0, r0, #4096	; 0x1000
8010d0e8:	e3a01001 	mov	r1, #1
8010d0ec:	e08f2002 	add	r2, pc, r2
8010d0f0:	e3a0c0f0 	mov	ip, #240	; 0xf0
8010d0f4:	e5801000 	str	r1, [r0]
8010d0f8:	e5820000 	str	r0, [r2]
8010d0fc:	e5831000 	str	r1, [r3]
8010d100:	e5823004 	str	r3, [r2, #4]
8010d104:	e583c004 	str	ip, [r3, #4]
8010d108:	e89da800 	ldm	sp, {fp, sp, pc}
8010d10c:	ebffffe2 	bl	8010d09c <get_gic_baseaddr>
8010d110:	eafffff1 	b	8010d0dc <gic_init+0x14>
8010d114:	0000f16c 	andeq	pc, r0, ip, ror #2

8010d118 <gic_v2_gicd_get_address>:
8010d118:	e59f3004 	ldr	r3, [pc, #4]	; 8010d124 <gic_v2_gicd_get_address+0xc>
8010d11c:	e79f0003 	ldr	r0, [pc, r3]
8010d120:	e12fff1e 	bx	lr
8010d124:	0000f13c 	andeq	pc, r0, ip, lsr r1	; <UNPREDICTABLE>

8010d128 <gic_v2_gicc_get_address>:
8010d128:	e59f3008 	ldr	r3, [pc, #8]	; 8010d138 <gic_v2_gicc_get_address+0x10>
8010d12c:	e08f3003 	add	r3, pc, r3
8010d130:	e5930004 	ldr	r0, [r3, #4]
8010d134:	e12fff1e 	bx	lr
8010d138:	0000f12c 	andeq	pc, r0, ip, lsr #2

8010d13c <gic_v2_irq_enable>:
8010d13c:	e59f2024 	ldr	r2, [pc, #36]	; 8010d168 <gic_v2_irq_enable+0x2c>
8010d140:	e200101f 	and	r1, r0, #31
8010d144:	e1a002a0 	lsr	r0, r0, #5
8010d148:	e3a0c001 	mov	ip, #1
8010d14c:	e08f2002 	add	r2, pc, r2
8010d150:	e2800040 	add	r0, r0, #64	; 0x40
8010d154:	e5922000 	ldr	r2, [r2]
8010d158:	e7923100 	ldr	r3, [r2, r0, lsl #2]
8010d15c:	e183311c 	orr	r3, r3, ip, lsl r1
8010d160:	e7823100 	str	r3, [r2, r0, lsl #2]
8010d164:	e12fff1e 	bx	lr
8010d168:	0000f10c 	andeq	pc, r0, ip, lsl #2

8010d16c <gic_v2_irq_set_prio>:
8010d16c:	e1a0c00d 	mov	ip, sp
8010d170:	e92dd830 	push	{r4, r5, fp, ip, lr, pc}
8010d174:	e1a04000 	mov	r4, r0
8010d178:	e24cb004 	sub	fp, ip, #4
8010d17c:	e1a05001 	mov	r5, r1
8010d180:	ebffffe4 	bl	8010d118 <gic_v2_gicd_get_address>
8010d184:	e3540000 	cmp	r4, #0
8010d188:	e2042003 	and	r2, r4, #3
8010d18c:	e2843003 	add	r3, r4, #3
8010d190:	a1a03004 	movge	r3, r4
8010d194:	e2744000 	rsbs	r4, r4, #0
8010d198:	e2044003 	and	r4, r4, #3
8010d19c:	e3c33003 	bic	r3, r3, #3
8010d1a0:	52642000 	rsbpl	r2, r4, #0
8010d1a4:	e2833b01 	add	r3, r3, #1024	; 0x400
8010d1a8:	e0823003 	add	r3, r2, r3
8010d1ac:	e1a05205 	lsl	r5, r5, #4
8010d1b0:	e3e02000 	mvn	r2, #0
8010d1b4:	e6ef5075 	uxtb	r5, r5
8010d1b8:	e7c02003 	strb	r2, [r0, r3]
8010d1bc:	e7c05003 	strb	r5, [r0, r3]
8010d1c0:	e89da830 	ldm	sp, {r4, r5, fp, sp, pc}

8010d1c4 <gic_irq_enable>:
8010d1c4:	e1a0c00d 	mov	ip, sp
8010d1c8:	e92dd830 	push	{r4, r5, fp, ip, lr, pc}
8010d1cc:	e24cb004 	sub	fp, ip, #4
8010d1d0:	e24dd008 	sub	sp, sp, #8
8010d1d4:	e1a05000 	mov	r5, r0
8010d1d8:	e1a04001 	mov	r4, r1
8010d1dc:	ebffffcd 	bl	8010d118 <gic_v2_gicd_get_address>
8010d1e0:	e3a03001 	mov	r3, #1
8010d1e4:	e1a03513 	lsl	r3, r3, r5
8010d1e8:	e284cb02 	add	ip, r4, #2048	; 0x800
8010d1ec:	e1a02000 	mov	r2, r0
8010d1f0:	e3a0100e 	mov	r1, #14
8010d1f4:	e6ef3073 	uxtb	r3, r3
8010d1f8:	e54b3015 	strb	r3, [fp, #-21]	; 0xffffffeb
8010d1fc:	e7d0e00c 	ldrb	lr, [r0, ip]
8010d200:	e1a00004 	mov	r0, r4
8010d204:	e55b3015 	ldrb	r3, [fp, #-21]	; 0xffffffeb
8010d208:	e183300e 	orr	r3, r3, lr
8010d20c:	e54b3015 	strb	r3, [fp, #-21]	; 0xffffffeb
8010d210:	e55b3015 	ldrb	r3, [fp, #-21]	; 0xffffffeb
8010d214:	e6ef3073 	uxtb	r3, r3
8010d218:	e7c2300c 	strb	r3, [r2, ip]
8010d21c:	ebffffd2 	bl	8010d16c <gic_v2_irq_set_prio>
8010d220:	e1a00004 	mov	r0, r4
8010d224:	e24bd014 	sub	sp, fp, #20
8010d228:	e89d6830 	ldm	sp, {r4, r5, fp, sp, lr}
8010d22c:	eaffffc2 	b	8010d13c <gic_v2_irq_enable>

8010d230 <gic_eoi>:
8010d230:	e59f300c 	ldr	r3, [pc, #12]	; 8010d244 <gic_eoi+0x14>
8010d234:	e08f3003 	add	r3, pc, r3
8010d238:	e5933004 	ldr	r3, [r3, #4]
8010d23c:	e5830010 	str	r0, [r3, #16]
8010d240:	e12fff1e 	bx	lr
8010d244:	0000f024 	andeq	pc, r0, r4, lsr #32

8010d248 <gic_get_irq>:
8010d248:	e59f3024 	ldr	r3, [pc, #36]	; 8010d274 <gic_get_irq+0x2c>
8010d24c:	e1a0c00d 	mov	ip, sp
8010d250:	e92dd830 	push	{r4, r5, fp, ip, lr, pc}
8010d254:	e24cb004 	sub	fp, ip, #4
8010d258:	e08f3003 	add	r3, pc, r3
8010d25c:	e5933004 	ldr	r3, [r3, #4]
8010d260:	e593400c 	ldr	r4, [r3, #12]
8010d264:	e1a00004 	mov	r0, r4
8010d268:	ebfffff0 	bl	8010d230 <gic_eoi>
8010d26c:	e1a00004 	mov	r0, r4
8010d270:	e89da830 	ldm	sp, {r4, r5, fp, sp, pc}
8010d274:	0000f000 	andeq	pc, r0, r0

8010d278 <gic_gen_soft_irq>:
8010d278:	e59f201c 	ldr	r2, [pc, #28]	; 8010d29c <gic_gen_soft_irq+0x24>
8010d27c:	e3a03801 	mov	r3, #65536	; 0x10000
8010d280:	e1a03013 	lsl	r3, r3, r0
8010d284:	e08f2002 	add	r2, pc, r2
8010d288:	e20338ff 	and	r3, r3, #16711680	; 0xff0000
8010d28c:	e1833001 	orr	r3, r3, r1
8010d290:	e5922000 	ldr	r2, [r2]
8010d294:	e5823f00 	str	r3, [r2, #3840]	; 0xf00
8010d298:	e12fff1e 	bx	lr
8010d29c:	0000efd4 	ldrdeq	lr, [r0], -r4

8010d2a0 <gic_getack>:
8010d2a0:	e59f300c 	ldr	r3, [pc, #12]	; 8010d2b4 <gic_getack+0x14>
8010d2a4:	e08f3003 	add	r3, pc, r3
8010d2a8:	e5933004 	ldr	r3, [r3, #4]
8010d2ac:	e593000c 	ldr	r0, [r3, #12]
8010d2b0:	e12fff1e 	bx	lr
8010d2b4:	0000efb4 			; <UNDEFINED> instruction: 0x0000efb4

8010d2b8 <irq_enable_cpsr>:
8010d2b8:	e5903000 	ldr	r3, [r0]
8010d2bc:	e3c33080 	bic	r3, r3, #128	; 0x80
8010d2c0:	e5803000 	str	r3, [r0]
8010d2c4:	e12fff1e 	bx	lr

8010d2c8 <irq_disable_cpsr>:
8010d2c8:	e5903000 	ldr	r3, [r0]
8010d2cc:	e3833080 	orr	r3, r3, #128	; 0x80
8010d2d0:	e5803000 	str	r3, [r0]
8010d2d4:	e12fff1e 	bx	lr

8010d2d8 <__memcpy32>:
8010d2d8:	e92d07f8 	push	{r3, r4, r5, r6, r7, r8, r9, sl}

8010d2dc <ldmloop>:
8010d2dc:	e8b107f8 	ldm	r1!, {r3, r4, r5, r6, r7, r8, r9, sl}
8010d2e0:	e8a007f8 	stmia	r0!, {r3, r4, r5, r6, r7, r8, r9, sl}
8010d2e4:	e2522020 	subs	r2, r2, #32
8010d2e8:	cafffffb 	bgt	8010d2dc <ldmloop>
8010d2ec:	e8bd07f8 	pop	{r3, r4, r5, r6, r7, r8, r9, sl}
8010d2f0:	e1a0f00e 	mov	pc, lr

8010d2f4 <map_page>:
8010d2f4:	e1a0c00d 	mov	ip, sp
8010d2f8:	e92ddff0 	push	{r4, r5, r6, r7, r8, r9, sl, fp, ip, lr, pc}
8010d2fc:	e1a07a21 	lsr	r7, r1, #20
8010d300:	e59fa0e0 	ldr	sl, [pc, #224]	; 8010d3e8 <map_page+0xf4>
8010d304:	e24cb004 	sub	fp, ip, #4
8010d308:	e24dd00c 	sub	sp, sp, #12
8010d30c:	e7e76651 	ubfx	r6, r1, #12, #8
8010d310:	e7d01107 	ldrb	r1, [r0, r7, lsl #2]
8010d314:	e08fa00a 	add	sl, pc, sl
8010d318:	e1a09000 	mov	r9, r0
8010d31c:	e1a08002 	mov	r8, r2
8010d320:	e1a04003 	mov	r4, r3
8010d324:	e2111003 	ands	r1, r1, #3
8010d328:	0a000018 	beq	8010d390 <map_page+0x9c>
8010d32c:	e59f30b8 	ldr	r3, [pc, #184]	; 8010d3ec <map_page+0xf8>
8010d330:	e7905107 	ldr	r5, [r0, r7, lsl #2]
8010d334:	e3c55fff 	bic	r5, r5, #1020	; 0x3fc
8010d338:	e79a3003 	ldr	r3, [sl, r3]
8010d33c:	e3c55003 	bic	r5, r5, #3
8010d340:	e5930024 	ldr	r0, [r3, #36]	; 0x24
8010d344:	e2600102 	rsb	r0, r0, #-2147483648	; 0x80000000
8010d348:	e0855000 	add	r5, r5, r0
8010d34c:	e1a03204 	lsl	r3, r4, #4
8010d350:	e7951106 	ldr	r1, [r5, r6, lsl #2]
8010d354:	e2033030 	and	r3, r3, #48	; 0x30
8010d358:	e3c82eff 	bic	r2, r8, #4080	; 0xff0
8010d35c:	e3c2200f 	bic	r2, r2, #15
8010d360:	e3833002 	orr	r3, r3, #2
8010d364:	e1833002 	orr	r3, r3, r2
8010d368:	e3002fcc 	movw	r2, #4044	; 0xfcc
8010d36c:	e0022001 	and	r2, r2, r1
8010d370:	e0850106 	add	r0, r5, r6, lsl #2
8010d374:	e1833002 	orr	r3, r3, r2
8010d378:	e59b1004 	ldr	r1, [fp, #4]
8010d37c:	e7853106 	str	r3, [r5, r6, lsl #2]
8010d380:	ebfffd5c 	bl	8010c8f8 <set_pte_flags>
8010d384:	e3a00000 	mov	r0, #0
8010d388:	e24bd028 	sub	sp, fp, #40	; 0x28
8010d38c:	e89daff0 	ldm	sp, {r4, r5, r6, r7, r8, r9, sl, fp, sp, pc}
8010d390:	e50b1030 	str	r1, [fp, #-48]	; 0xffffffd0
8010d394:	eb00105b 	bl	80111508 <kalloc1k>
8010d398:	e2505000 	subs	r5, r0, #0
8010d39c:	0a00000f 	beq	8010d3e0 <map_page+0xec>
8010d3a0:	e3a02b01 	mov	r2, #1024	; 0x400
8010d3a4:	e51b1030 	ldr	r1, [fp, #-48]	; 0xffffffd0
8010d3a8:	eb00067f 	bl	8010edac <memset>
8010d3ac:	e59f3038 	ldr	r3, [pc, #56]	; 8010d3ec <map_page+0xf8>
8010d3b0:	e7992107 	ldr	r2, [r9, r7, lsl #2]
8010d3b4:	e2022c02 	and	r2, r2, #512	; 0x200
8010d3b8:	e79a3003 	ldr	r3, [sl, r3]
8010d3bc:	e5933024 	ldr	r3, [r3, #36]	; 0x24
8010d3c0:	e2833102 	add	r3, r3, #-2147483648	; 0x80000000
8010d3c4:	e0853003 	add	r3, r5, r3
8010d3c8:	e3c33fff 	bic	r3, r3, #1020	; 0x3fc
8010d3cc:	e3c33003 	bic	r3, r3, #3
8010d3d0:	e3833001 	orr	r3, r3, #1
8010d3d4:	e1833002 	orr	r3, r3, r2
8010d3d8:	e7893107 	str	r3, [r9, r7, lsl #2]
8010d3dc:	eaffffda 	b	8010d34c <map_page+0x58>
8010d3e0:	e3e00000 	mvn	r0, #0
8010d3e4:	eaffffe7 	b	8010d388 <map_page+0x94>
8010d3e8:	0000ad4c 	andeq	sl, r0, ip, asr #26
8010d3ec:	00000058 	andeq	r0, r0, r8, asr r0

8010d3f0 <unmap_page>:
8010d3f0:	e59f3038 	ldr	r3, [pc, #56]	; 8010d430 <unmap_page+0x40>
8010d3f4:	e1a0ca21 	lsr	ip, r1, #20
8010d3f8:	e59f2034 	ldr	r2, [pc, #52]	; 8010d434 <unmap_page+0x44>
8010d3fc:	e7e71651 	ubfx	r1, r1, #12, #8
8010d400:	e08f3003 	add	r3, pc, r3
8010d404:	e7932002 	ldr	r2, [r3, r2]
8010d408:	e790310c 	ldr	r3, [r0, ip, lsl #2]
8010d40c:	e5922024 	ldr	r2, [r2, #36]	; 0x24
8010d410:	e3c33fff 	bic	r3, r3, #1020	; 0x3fc
8010d414:	e3c33003 	bic	r3, r3, #3
8010d418:	e2622102 	rsb	r2, r2, #-2147483648	; 0x80000000
8010d41c:	e0833101 	add	r3, r3, r1, lsl #2
8010d420:	e7d31002 	ldrb	r1, [r3, r2]
8010d424:	e7c1101f 	bfc	r1, #0, #2
8010d428:	e7c31002 	strb	r1, [r3, r2]
8010d42c:	e12fff1e 	bx	lr
8010d430:	0000ac60 	andeq	sl, r0, r0, ror #24
8010d434:	00000058 	andeq	r0, r0, r8, asr r0

8010d438 <resolve_phy_address>:
8010d438:	e59f204c 	ldr	r2, [pc, #76]	; 8010d48c <resolve_phy_address+0x54>
8010d43c:	e1a03521 	lsr	r3, r1, #10
8010d440:	e92d4010 	push	{r4, lr}
8010d444:	e1a04a21 	lsr	r4, r1, #20
8010d448:	e59fe040 	ldr	lr, [pc, #64]	; 8010d490 <resolve_phy_address+0x58>
8010d44c:	e08f2002 	add	r2, pc, r2
8010d450:	e1800104 	orr	r0, r0, r4, lsl #2
8010d454:	e203cfff 	and	ip, r3, #1020	; 0x3fc
8010d458:	e7eb1051 	ubfx	r1, r1, #0, #12
8010d45c:	e792200e 	ldr	r2, [r2, lr]
8010d460:	e5903000 	ldr	r3, [r0]
8010d464:	e5922024 	ldr	r2, [r2, #36]	; 0x24
8010d468:	e3c33fff 	bic	r3, r3, #1020	; 0x3fc
8010d46c:	e3c33003 	bic	r3, r3, #3
8010d470:	e2622102 	rsb	r2, r2, #-2147483648	; 0x80000000
8010d474:	e183300c 	orr	r3, r3, ip
8010d478:	e7933002 	ldr	r3, [r3, r2]
8010d47c:	e3c33eff 	bic	r3, r3, #4080	; 0xff0
8010d480:	e3c3300f 	bic	r3, r3, #15
8010d484:	e1830001 	orr	r0, r3, r1
8010d488:	e8bd8010 	pop	{r4, pc}
8010d48c:	0000ac14 	andeq	sl, r0, r4, lsl ip
8010d490:	00000058 	andeq	r0, r0, r8, asr r0

8010d494 <get_page_table_entry>:
8010d494:	e59f3038 	ldr	r3, [pc, #56]	; 8010d4d4 <get_page_table_entry+0x40>
8010d498:	e1a0ca21 	lsr	ip, r1, #20
8010d49c:	e59f2034 	ldr	r2, [pc, #52]	; 8010d4d8 <get_page_table_entry+0x44>
8010d4a0:	e1a01521 	lsr	r1, r1, #10
8010d4a4:	e08f3003 	add	r3, pc, r3
8010d4a8:	e180010c 	orr	r0, r0, ip, lsl #2
8010d4ac:	e2011fff 	and	r1, r1, #1020	; 0x3fc
8010d4b0:	e7932002 	ldr	r2, [r3, r2]
8010d4b4:	e5903000 	ldr	r3, [r0]
8010d4b8:	e5920024 	ldr	r0, [r2, #36]	; 0x24
8010d4bc:	e3c33fff 	bic	r3, r3, #1020	; 0x3fc
8010d4c0:	e3c33003 	bic	r3, r3, #3
8010d4c4:	e1831001 	orr	r1, r3, r1
8010d4c8:	e2600102 	rsb	r0, r0, #-2147483648	; 0x80000000
8010d4cc:	e0810000 	add	r0, r1, r0
8010d4d0:	e12fff1e 	bx	lr
8010d4d4:	0000abbc 			; <UNDEFINED> instruction: 0x0000abbc
8010d4d8:	00000058 	andeq	r0, r0, r8, asr r0

8010d4dc <gpio_config>:
8010d4dc:	e59f304c 	ldr	r3, [pc, #76]	; 8010d530 <gpio_config+0x54>
8010d4e0:	e306c667 	movw	ip, #26215	; 0x6667
8010d4e4:	e346c666 	movt	ip, #26214	; 0x6666
8010d4e8:	e59f2044 	ldr	r2, [pc, #68]	; 8010d534 <gpio_config+0x58>
8010d4ec:	e08f3003 	add	r3, pc, r3
8010d4f0:	e92d4030 	push	{r4, r5, lr}
8010d4f4:	e3a04007 	mov	r4, #7
8010d4f8:	e7935002 	ldr	r5, [r3, r2]
8010d4fc:	e0ce209c 	smull	r2, lr, ip, r0
8010d500:	e1a03fc0 	asr	r3, r0, #31
8010d504:	e3a0200a 	mov	r2, #10
8010d508:	e063314e 	rsb	r3, r3, lr, asr #2
8010d50c:	e595c034 	ldr	ip, [r5, #52]	; 0x34
8010d510:	e28cc602 	add	ip, ip, #2097152	; 0x200000
8010d514:	e0600392 	mls	r0, r2, r3, r0
8010d518:	e79c2103 	ldr	r2, [ip, r3, lsl #2]
8010d51c:	e0800080 	add	r0, r0, r0, lsl #1
8010d520:	e1c22014 	bic	r2, r2, r4, lsl r0
8010d524:	e1820011 	orr	r0, r2, r1, lsl r0
8010d528:	e78c0103 	str	r0, [ip, r3, lsl #2]
8010d52c:	e8bd8030 	pop	{r4, r5, pc}
8010d530:	0000ab74 	andeq	sl, r0, r4, ror fp
8010d534:	00000058 	andeq	r0, r0, r8, asr r0

8010d538 <gpio_pull>:
8010d538:	e59f207c 	ldr	r2, [pc, #124]	; 8010d5bc <gpio_pull+0x84>
8010d53c:	e3500000 	cmp	r0, #0
8010d540:	e59fc078 	ldr	ip, [pc, #120]	; 8010d5c0 <gpio_pull+0x88>
8010d544:	e280301f 	add	r3, r0, #31
8010d548:	e08f2002 	add	r2, pc, r2
8010d54c:	e92d4010 	push	{r4, lr}
8010d550:	a1a03000 	movge	r3, r0
8010d554:	e2011003 	and	r1, r1, #3
8010d558:	e3a04000 	mov	r4, #0
8010d55c:	e792c00c 	ldr	ip, [r2, ip]
8010d560:	e2702000 	rsbs	r2, r0, #0
8010d564:	e202201f 	and	r2, r2, #31
8010d568:	e200001f 	and	r0, r0, #31
8010d56c:	52620000 	rsbpl	r0, r2, #0
8010d570:	e3a02001 	mov	r2, #1
8010d574:	e59ce034 	ldr	lr, [ip, #52]	; 0x34
8010d578:	e1a032c3 	asr	r3, r3, #5
8010d57c:	e1a00012 	lsl	r0, r2, r0
8010d580:	e2833001 	add	r3, r3, #1
8010d584:	e28ee602 	add	lr, lr, #2097152	; 0x200000
8010d588:	e58e1094 	str	r1, [lr, #148]	; 0x94
8010d58c:	e59c2034 	ldr	r2, [ip, #52]	; 0x34
8010d590:	e2822602 	add	r2, r2, #2097152	; 0x200000
8010d594:	e2822094 	add	r2, r2, #148	; 0x94
8010d598:	e7820103 	str	r0, [r2, r3, lsl #2]
8010d59c:	e59c2034 	ldr	r2, [ip, #52]	; 0x34
8010d5a0:	e2822602 	add	r2, r2, #2097152	; 0x200000
8010d5a4:	e5824094 	str	r4, [r2, #148]	; 0x94
8010d5a8:	e59c2034 	ldr	r2, [ip, #52]	; 0x34
8010d5ac:	e2822602 	add	r2, r2, #2097152	; 0x200000
8010d5b0:	e2822094 	add	r2, r2, #148	; 0x94
8010d5b4:	e7824103 	str	r4, [r2, r3, lsl #2]
8010d5b8:	e8bd8010 	pop	{r4, pc}
8010d5bc:	0000ab18 	andeq	sl, r0, r8, lsl fp
8010d5c0:	00000058 	andeq	r0, r0, r8, asr r0

8010d5c4 <gpio_write>:
8010d5c4:	e59f3080 	ldr	r3, [pc, #128]	; 8010d64c <gpio_write+0x88>
8010d5c8:	e3500000 	cmp	r0, #0
8010d5cc:	e280201f 	add	r2, r0, #31
8010d5d0:	e59fc078 	ldr	ip, [pc, #120]	; 8010d650 <gpio_write+0x8c>
8010d5d4:	a1a02000 	movge	r2, r0
8010d5d8:	e08f3003 	add	r3, pc, r3
8010d5dc:	e3510000 	cmp	r1, #0
8010d5e0:	0a00000c 	beq	8010d618 <gpio_write+0x54>
8010d5e4:	e2701000 	rsbs	r1, r0, #0
8010d5e8:	e793c00c 	ldr	ip, [r3, ip]
8010d5ec:	e201101f 	and	r1, r1, #31
8010d5f0:	e200001f 	and	r0, r0, #31
8010d5f4:	52610000 	rsbpl	r0, r1, #0
8010d5f8:	e3a03001 	mov	r3, #1
8010d5fc:	e1a022c2 	asr	r2, r2, #5
8010d600:	e1a00013 	lsl	r0, r3, r0
8010d604:	e59c3034 	ldr	r3, [ip, #52]	; 0x34
8010d608:	e2833602 	add	r3, r3, #2097152	; 0x200000
8010d60c:	e283301c 	add	r3, r3, #28
8010d610:	e7830102 	str	r0, [r3, r2, lsl #2]
8010d614:	e12fff1e 	bx	lr
8010d618:	e2701000 	rsbs	r1, r0, #0
8010d61c:	e793c00c 	ldr	ip, [r3, ip]
8010d620:	e201101f 	and	r1, r1, #31
8010d624:	e200001f 	and	r0, r0, #31
8010d628:	52610000 	rsbpl	r0, r1, #0
8010d62c:	e3a03001 	mov	r3, #1
8010d630:	e1a022c2 	asr	r2, r2, #5
8010d634:	e1a00013 	lsl	r0, r3, r0
8010d638:	e59c3034 	ldr	r3, [ip, #52]	; 0x34
8010d63c:	e2833602 	add	r3, r3, #2097152	; 0x200000
8010d640:	e2833028 	add	r3, r3, #40	; 0x28
8010d644:	e7830102 	str	r0, [r3, r2, lsl #2]
8010d648:	e12fff1e 	bx	lr
8010d64c:	0000aa88 	andeq	sl, r0, r8, lsl #21
8010d650:	00000058 	andeq	r0, r0, r8, asr r0

8010d654 <gpio_read>:
8010d654:	e59f3050 	ldr	r3, [pc, #80]	; 8010d6ac <gpio_read+0x58>
8010d658:	e3500000 	cmp	r0, #0
8010d65c:	e52de004 	push	{lr}		; (str lr, [sp, #-4]!)
8010d660:	e280201f 	add	r2, r0, #31
8010d664:	e59fe044 	ldr	lr, [pc, #68]	; 8010d6b0 <gpio_read+0x5c>
8010d668:	e08f3003 	add	r3, pc, r3
8010d66c:	a1a02000 	movge	r2, r0
8010d670:	e200101f 	and	r1, r0, #31
8010d674:	e2700000 	rsbs	r0, r0, #0
8010d678:	e1a022c2 	asr	r2, r2, #5
8010d67c:	e200001f 	and	r0, r0, #31
8010d680:	e793300e 	ldr	r3, [r3, lr]
8010d684:	52601000 	rsbpl	r1, r0, #0
8010d688:	e3a0c001 	mov	ip, #1
8010d68c:	e5933034 	ldr	r3, [r3, #52]	; 0x34
8010d690:	e2833602 	add	r3, r3, #2097152	; 0x200000
8010d694:	e2833034 	add	r3, r3, #52	; 0x34
8010d698:	e7933102 	ldr	r3, [r3, r2, lsl #2]
8010d69c:	e013311c 	ands	r3, r3, ip, lsl r1
8010d6a0:	11a0000c 	movne	r0, ip
8010d6a4:	03a00000 	moveq	r0, #0
8010d6a8:	e49df004 	pop	{pc}		; (ldr pc, [sp], #4)
8010d6ac:	0000a9f8 	strdeq	sl, [r0], -r8
8010d6b0:	00000058 	andeq	r0, r0, r8, asr r0

8010d6b4 <sd_clk>:
8010d6b4:	e1a0c00d 	mov	ip, sp
8010d6b8:	e92dd8f0 	push	{r4, r5, r6, r7, fp, ip, lr, pc}
8010d6bc:	e59f617c 	ldr	r6, [pc, #380]	; 8010d840 <sd_clk+0x18c>
8010d6c0:	e59f217c 	ldr	r2, [pc, #380]	; 8010d844 <sd_clk+0x190>
8010d6c4:	e24cb004 	sub	fp, ip, #4
8010d6c8:	e08f6006 	add	r6, pc, r6
8010d6cc:	e1a07000 	mov	r7, r0
8010d6d0:	e7965002 	ldr	r5, [r6, r2]
8010d6d4:	e5953034 	ldr	r3, [r5, #52]	; 0x34
8010d6d8:	e2833603 	add	r3, r3, #3145728	; 0x300000
8010d6dc:	e5932024 	ldr	r2, [r3, #36]	; 0x24
8010d6e0:	e3120003 	tst	r2, #3
8010d6e4:	0a00000d 	beq	8010d720 <sd_clk+0x6c>
8010d6e8:	e308469f 	movw	r4, #34463	; 0x869f
8010d6ec:	e3404001 	movt	r4, #1
8010d6f0:	ea000001 	b	8010d6fc <sd_clk+0x48>
8010d6f4:	e2544001 	subs	r4, r4, #1
8010d6f8:	3a000048 	bcc	8010d820 <sd_clk+0x16c>
8010d6fc:	e3a00001 	mov	r0, #1
8010d700:	eb002231 	bl	80115fcc <_delay_msec>
8010d704:	e5953034 	ldr	r3, [r5, #52]	; 0x34
8010d708:	e2833603 	add	r3, r3, #3145728	; 0x300000
8010d70c:	e5932024 	ldr	r2, [r3, #36]	; 0x24
8010d710:	e3120003 	tst	r2, #3
8010d714:	1afffff6 	bne	8010d6f4 <sd_clk+0x40>
8010d718:	e3540000 	cmp	r4, #0
8010d71c:	0a00003f 	beq	8010d820 <sd_clk+0x16c>
8010d720:	e30c486a 	movw	r4, #51306	; 0xc86a
8010d724:	e340427b 	movt	r4, #635	; 0x27b
8010d728:	e593202c 	ldr	r2, [r3, #44]	; 0x2c
8010d72c:	e3a0000a 	mov	r0, #10
8010d730:	e734f714 	udiv	r4, r4, r7
8010d734:	e3c22004 	bic	r2, r2, #4
8010d738:	e583202c 	str	r2, [r3, #44]	; 0x2c
8010d73c:	eb002222 	bl	80115fcc <_delay_msec>
8010d740:	e2442001 	sub	r2, r4, #1
8010d744:	e1a03c02 	lsl	r3, r2, #24
8010d748:	e313020f 	tst	r3, #-268435456	; 0xf0000000
8010d74c:	0a000035 	beq	8010d828 <sd_clk+0x174>
8010d750:	e3130103 	tst	r3, #-1073741824	; 0xc0000000
8010d754:	13a02006 	movne	r2, #6
8010d758:	1a000003 	bne	8010d76c <sd_clk+0xb8>
8010d75c:	e3a02005 	mov	r2, #5
8010d760:	e1a03103 	lsl	r3, r3, #2
8010d764:	e3530000 	cmp	r3, #0
8010d768:	a2422001 	subge	r2, r2, #1
8010d76c:	e59f30d4 	ldr	r3, [pc, #212]	; 8010d848 <sd_clk+0x194>
8010d770:	e3a0000a 	mov	r0, #10
8010d774:	e7961003 	ldr	r1, [r6, r3]
8010d778:	e5913000 	ldr	r3, [r1]
8010d77c:	e3530001 	cmp	r3, #1
8010d780:	e5913000 	ldr	r3, [r1]
8010d784:	93a04001 	movls	r4, #1
8010d788:	91a04214 	lslls	r4, r4, r2
8010d78c:	e5952034 	ldr	r2, [r5, #52]	; 0x34
8010d790:	e3540002 	cmp	r4, #2
8010d794:	e2822603 	add	r2, r2, #3145728	; 0x300000
8010d798:	33a04002 	movcc	r4, #2
8010d79c:	e592302c 	ldr	r3, [r2, #44]	; 0x2c
8010d7a0:	e3c33cff 	bic	r3, r3, #65280	; 0xff00
8010d7a4:	e3c330c0 	bic	r3, r3, #192	; 0xc0
8010d7a8:	e1833404 	orr	r3, r3, r4, lsl #8
8010d7ac:	e582302c 	str	r3, [r2, #44]	; 0x2c
8010d7b0:	eb002205 	bl	80115fcc <_delay_msec>
8010d7b4:	e5953034 	ldr	r3, [r5, #52]	; 0x34
8010d7b8:	e3a0000a 	mov	r0, #10
8010d7bc:	e2833603 	add	r3, r3, #3145728	; 0x300000
8010d7c0:	e593202c 	ldr	r2, [r3, #44]	; 0x2c
8010d7c4:	e3822004 	orr	r2, r2, #4
8010d7c8:	e583202c 	str	r2, [r3, #44]	; 0x2c
8010d7cc:	eb0021fe 	bl	80115fcc <_delay_msec>
8010d7d0:	e5953034 	ldr	r3, [r5, #52]	; 0x34
8010d7d4:	e2833603 	add	r3, r3, #3145728	; 0x300000
8010d7d8:	e593302c 	ldr	r3, [r3, #44]	; 0x2c
8010d7dc:	e3130002 	tst	r3, #2
8010d7e0:	1a00000c 	bne	8010d818 <sd_clk+0x164>
8010d7e4:	e302470f 	movw	r4, #9999	; 0x270f
8010d7e8:	ea000001 	b	8010d7f4 <sd_clk+0x140>
8010d7ec:	e2544001 	subs	r4, r4, #1
8010d7f0:	3a00000a 	bcc	8010d820 <sd_clk+0x16c>
8010d7f4:	e3a0000a 	mov	r0, #10
8010d7f8:	eb0021f3 	bl	80115fcc <_delay_msec>
8010d7fc:	e5953034 	ldr	r3, [r5, #52]	; 0x34
8010d800:	e2833603 	add	r3, r3, #3145728	; 0x300000
8010d804:	e593302c 	ldr	r3, [r3, #44]	; 0x2c
8010d808:	e3130002 	tst	r3, #2
8010d80c:	0afffff6 	beq	8010d7ec <sd_clk+0x138>
8010d810:	e3540000 	cmp	r4, #0
8010d814:	0a000001 	beq	8010d820 <sd_clk+0x16c>
8010d818:	e3a00000 	mov	r0, #0
8010d81c:	e89da8f0 	ldm	sp, {r4, r5, r6, r7, fp, sp, pc}
8010d820:	e3e00001 	mvn	r0, #1
8010d824:	e89da8f0 	ldm	sp, {r4, r5, r6, r7, fp, sp, pc}
8010d828:	e1a03e02 	lsl	r3, r2, #28
8010d82c:	e3130103 	tst	r3, #-1073741824	; 0xc0000000
8010d830:	03a02001 	moveq	r2, #1
8010d834:	0affffc9 	beq	8010d760 <sd_clk+0xac>
8010d838:	e3a02003 	mov	r2, #3
8010d83c:	eaffffc8 	b	8010d764 <sd_clk+0xb0>
8010d840:	0000a998 	muleq	r0, r8, r9
8010d844:	00000058 	andeq	r0, r0, r8, asr r0
8010d848:	00000054 	andeq	r0, r0, r4, asr r0

8010d84c <sd_cmd>:
8010d84c:	e1a0c00d 	mov	ip, sp
8010d850:	e92ddff0 	push	{r4, r5, r6, r7, r8, r9, sl, fp, ip, lr, pc}
8010d854:	e59f52f4 	ldr	r5, [pc, #756]	; 8010db50 <sd_cmd+0x304>
8010d858:	e59f32f4 	ldr	r3, [pc, #756]	; 8010db54 <sd_cmd+0x308>
8010d85c:	e24cb004 	sub	fp, ip, #4
8010d860:	e08f5005 	add	r5, pc, r5
8010d864:	e24dd00c 	sub	sp, sp, #12
8010d868:	e3a04000 	mov	r4, #0
8010d86c:	e1a07001 	mov	r7, r1
8010d870:	e2506000 	subs	r6, r0, #0
8010d874:	e7953003 	ldr	r3, [r5, r3]
8010d878:	e50b3030 	str	r3, [fp, #-48]	; 0xffffffd0
8010d87c:	e5834000 	str	r4, [r3]
8010d880:	aa000011 	bge	8010d8cc <sd_cmd+0x80>
8010d884:	e59f32cc 	ldr	r3, [pc, #716]	; 8010db58 <sd_cmd+0x30c>
8010d888:	e1a00004 	mov	r0, r4
8010d88c:	e3430702 	movt	r0, #14082	; 0x3702
8010d890:	e7958003 	ldr	r8, [r5, r3]
8010d894:	e5983000 	ldr	r3, [r8]
8010d898:	e5981000 	ldr	r1, [r8]
8010d89c:	e1530004 	cmp	r3, r4
8010d8a0:	03a00437 	moveq	r0, #922746880	; 0x37000000
8010d8a4:	ebffffe8 	bl	8010d84c <sd_cmd>
8010d8a8:	e5983000 	ldr	r3, [r8]
8010d8ac:	e0400004 	sub	r0, r0, r4
8010d8b0:	e16f0f10 	clz	r0, r0
8010d8b4:	e1530004 	cmp	r3, r4
8010d8b8:	e1a002a0 	lsr	r0, r0, #5
8010d8bc:	03a00000 	moveq	r0, #0
8010d8c0:	e1500004 	cmp	r0, r4
8010d8c4:	03c66102 	biceq	r6, r6, #-2147483648	; 0x80000000
8010d8c8:	1a00007a 	bne	8010dab8 <sd_cmd+0x26c>
8010d8cc:	e59f3288 	ldr	r3, [pc, #648]	; 8010db5c <sd_cmd+0x310>
8010d8d0:	e7954003 	ldr	r4, [r5, r3]
8010d8d4:	e5943034 	ldr	r3, [r4, #52]	; 0x34
8010d8d8:	e2833603 	add	r3, r3, #3145728	; 0x300000
8010d8dc:	e5932024 	ldr	r2, [r3, #36]	; 0x24
8010d8e0:	e3120001 	tst	r2, #1
8010d8e4:	0a000063 	beq	8010da78 <sd_cmd+0x22c>
8010d8e8:	e3a05902 	mov	r5, #32768	; 0x8000
8010d8ec:	e340517e 	movt	r5, #382	; 0x17e
8010d8f0:	ea000005 	b	8010d90c <sd_cmd+0xc0>
8010d8f4:	eb002194 	bl	80115f4c <_delay>
8010d8f8:	e5943034 	ldr	r3, [r4, #52]	; 0x34
8010d8fc:	e2833603 	add	r3, r3, #3145728	; 0x300000
8010d900:	e5932024 	ldr	r2, [r3, #36]	; 0x24
8010d904:	e3120001 	tst	r2, #1
8010d908:	0a00005a 	beq	8010da78 <sd_cmd+0x22c>
8010d90c:	e5932030 	ldr	r2, [r3, #48]	; 0x30
8010d910:	e3a00ffa 	mov	r0, #1000	; 0x3e8
8010d914:	e2833030 	add	r3, r3, #48	; 0x30
8010d918:	e1120005 	tst	r2, r5
8010d91c:	0afffff4 	beq	8010d8f4 <sd_cmd+0xa8>
8010d920:	e5931000 	ldr	r1, [r3]
8010d924:	e3a02902 	mov	r2, #32768	; 0x8000
8010d928:	e340217e 	movt	r2, #382	; 0x17e
8010d92c:	e1110002 	tst	r1, r2
8010d930:	1a000052 	bne	8010da80 <sd_cmd+0x234>
8010d934:	e5932000 	ldr	r2, [r3]
8010d938:	e2468437 	sub	r8, r6, #922746880	; 0x37000000
8010d93c:	e5832000 	str	r2, [r3]
8010d940:	e16f8f18 	clz	r8, r8
8010d944:	e3a02000 	mov	r2, #0
8010d948:	e3402802 	movt	r2, #2050	; 0x802
8010d94c:	e5943034 	ldr	r3, [r4, #52]	; 0x34
8010d950:	e1a082a8 	lsr	r8, r8, #5
8010d954:	e1560002 	cmp	r6, r2
8010d958:	11a0a008 	movne	sl, r8
8010d95c:	0388a001 	orreq	sl, r8, #1
8010d960:	e2833603 	add	r3, r3, #3145728	; 0x300000
8010d964:	e35a0000 	cmp	sl, #0
8010d968:	e5837008 	str	r7, [r3, #8]
8010d96c:	e5943034 	ldr	r3, [r4, #52]	; 0x34
8010d970:	e2833603 	add	r3, r3, #3145728	; 0x300000
8010d974:	e583600c 	str	r6, [r3, #12]
8010d978:	1a000053 	bne	8010dacc <sd_cmd+0x280>
8010d97c:	e5942034 	ldr	r2, [r4, #52]	; 0x34
8010d980:	e3083001 	movw	r3, #32769	; 0x8001
8010d984:	e340317e 	movt	r3, #382	; 0x17e
8010d988:	e2822603 	add	r2, r2, #3145728	; 0x300000
8010d98c:	e2821030 	add	r1, r2, #48	; 0x30
8010d990:	e5922030 	ldr	r2, [r2, #48]	; 0x30
8010d994:	e0033002 	and	r3, r3, r2
8010d998:	e3530000 	cmp	r3, #0
8010d99c:	1a000069 	bne	8010db48 <sd_cmd+0x2fc>
8010d9a0:	e3085001 	movw	r5, #32769	; 0x8001
8010d9a4:	e340517e 	movt	r5, #382	; 0x17e
8010d9a8:	e302970f 	movw	r9, #9999	; 0x270f
8010d9ac:	ea000001 	b	8010d9b8 <sd_cmd+0x16c>
8010d9b0:	e2599001 	subs	r9, r9, #1
8010d9b4:	3a000037 	bcc	8010da98 <sd_cmd+0x24c>
8010d9b8:	e3a00ffa 	mov	r0, #1000	; 0x3e8
8010d9bc:	eb002162 	bl	80115f4c <_delay>
8010d9c0:	e5943034 	ldr	r3, [r4, #52]	; 0x34
8010d9c4:	e2833603 	add	r3, r3, #3145728	; 0x300000
8010d9c8:	e2831030 	add	r1, r3, #48	; 0x30
8010d9cc:	e5933030 	ldr	r3, [r3, #48]	; 0x30
8010d9d0:	e1130005 	tst	r3, r5
8010d9d4:	0afffff5 	beq	8010d9b0 <sd_cmd+0x164>
8010d9d8:	e5913000 	ldr	r3, [r1]
8010d9dc:	e3590000 	cmp	r9, #0
8010d9e0:	0a00002d 	beq	8010da9c <sd_cmd+0x250>
8010d9e4:	e3130811 	tst	r3, #1114112	; 0x110000
8010d9e8:	1a00002b 	bne	8010da9c <sd_cmd+0x250>
8010d9ec:	e3a00902 	mov	r0, #32768	; 0x8000
8010d9f0:	e340017e 	movt	r0, #382	; 0x17e
8010d9f4:	e0130000 	ands	r0, r3, r0
8010d9f8:	15813000 	strne	r3, [r1]
8010d9fc:	13e03001 	mvnne	r3, #1
8010da00:	1a000027 	bne	8010daa4 <sd_cmd+0x258>
8010da04:	e3a03001 	mov	r3, #1
8010da08:	e5813000 	str	r3, [r1]
8010da0c:	e3560000 	cmp	r6, #0
8010da10:	03888001 	orreq	r8, r8, #1
8010da14:	e5943034 	ldr	r3, [r4, #52]	; 0x34
8010da18:	e3580000 	cmp	r8, #0
8010da1c:	e2833603 	add	r3, r3, #3145728	; 0x300000
8010da20:	e5932010 	ldr	r2, [r3, #16]
8010da24:	1a000011 	bne	8010da70 <sd_cmd+0x224>
8010da28:	e3a01000 	mov	r1, #0
8010da2c:	e3431702 	movt	r1, #14082	; 0x3702
8010da30:	e1560001 	cmp	r6, r1
8010da34:	02020020 	andeq	r0, r2, #32
8010da38:	0a00000c 	beq	8010da70 <sd_cmd+0x224>
8010da3c:	e35a0000 	cmp	sl, #0
8010da40:	1a000024 	bne	8010dad8 <sd_cmd+0x28c>
8010da44:	e3a01000 	mov	r1, #0
8010da48:	e3401201 	movt	r1, #513	; 0x201
8010da4c:	e1560001 	cmp	r6, r1
8010da50:	0a000035 	beq	8010db2c <sd_cmd+0x2e0>
8010da54:	e3a03000 	mov	r3, #0
8010da58:	e3403302 	movt	r3, #770	; 0x302
8010da5c:	e1560003 	cmp	r6, r3
8010da60:	130c0004 	movwne	r0, #49156	; 0xc004
8010da64:	134f0ff9 	movtne	r0, #65529	; 0xfff9
8010da68:	10000002 	andne	r0, r0, r2
8010da6c:	0a00001d 	beq	8010dae8 <sd_cmd+0x29c>
8010da70:	e24bd028 	sub	sp, fp, #40	; 0x28
8010da74:	e89daff0 	ldm	sp, {r4, r5, r6, r7, r8, r9, sl, fp, sp, pc}
8010da78:	e2833030 	add	r3, r3, #48	; 0x30
8010da7c:	eaffffa7 	b	8010d920 <sd_cmd+0xd4>
8010da80:	e51b2030 	ldr	r2, [fp, #-48]	; 0xffffffd0
8010da84:	e3e03000 	mvn	r3, #0
8010da88:	e3a00000 	mov	r0, #0
8010da8c:	e5823000 	str	r3, [r2]
8010da90:	e24bd028 	sub	sp, fp, #40	; 0x28
8010da94:	e89daff0 	ldm	sp, {r4, r5, r6, r7, r8, r9, sl, fp, sp, pc}
8010da98:	e5913000 	ldr	r3, [r1]
8010da9c:	e5813000 	str	r3, [r1]
8010daa0:	e3e03000 	mvn	r3, #0
8010daa4:	e51b2030 	ldr	r2, [fp, #-48]	; 0xffffffd0
8010daa8:	e3a00000 	mov	r0, #0
8010daac:	e5823000 	str	r3, [r2]
8010dab0:	e24bd028 	sub	sp, fp, #40	; 0x28
8010dab4:	e89daff0 	ldm	sp, {r4, r5, r6, r7, r8, r9, sl, fp, sp, pc}
8010dab8:	e51b2030 	ldr	r2, [fp, #-48]	; 0xffffffd0
8010dabc:	e3e03001 	mvn	r3, #1
8010dac0:	e1a00004 	mov	r0, r4
8010dac4:	e5823000 	str	r3, [r2]
8010dac8:	eaffffe8 	b	8010da70 <sd_cmd+0x224>
8010dacc:	e3a0000a 	mov	r0, #10
8010dad0:	eb00213d 	bl	80115fcc <_delay_msec>
8010dad4:	eaffffa8 	b	8010d97c <sd_cmd+0x130>
8010dad8:	e1520007 	cmp	r2, r7
8010dadc:	03a00000 	moveq	r0, #0
8010dae0:	13e00001 	mvnne	r0, #1
8010dae4:	eaffffe1 	b	8010da70 <sd_cmd+0x224>
8010dae8:	e1a01402 	lsl	r1, r2, #8
8010daec:	e1a03302 	lsl	r3, r2, #6
8010daf0:	e2010501 	and	r0, r1, #4194304	; 0x400000
8010daf4:	e2033702 	and	r3, r3, #524288	; 0x80000
8010daf8:	e1833000 	orr	r3, r3, r0
8010dafc:	e7ec0052 	ubfx	r0, r2, #0, #13
8010db00:	e1833000 	orr	r3, r3, r0
8010db04:	e2011502 	and	r1, r1, #8388608	; 0x800000
8010db08:	e1a00822 	lsr	r0, r2, #16
8010db0c:	e1833001 	orr	r3, r3, r1
8010db10:	e3a02004 	mov	r2, #4
8010db14:	e34020c8 	movt	r2, #200	; 0xc8
8010db18:	e0022003 	and	r2, r2, r3
8010db1c:	e51b3030 	ldr	r3, [fp, #-48]	; 0xffffffd0
8010db20:	e1a00800 	lsl	r0, r0, #16
8010db24:	e5832000 	str	r2, [r3]
8010db28:	eaffffd0 	b	8010da70 <sd_cmd+0x224>
8010db2c:	e593001c 	ldr	r0, [r3, #28]
8010db30:	e5931018 	ldr	r1, [r3, #24]
8010db34:	e1820000 	orr	r0, r2, r0
8010db38:	e5933014 	ldr	r3, [r3, #20]
8010db3c:	e1800001 	orr	r0, r0, r1
8010db40:	e1800003 	orr	r0, r0, r3
8010db44:	eaffffc9 	b	8010da70 <sd_cmd+0x224>
8010db48:	e5913000 	ldr	r3, [r1]
8010db4c:	eaffffa4 	b	8010d9e4 <sd_cmd+0x198>
8010db50:	0000a800 	andeq	sl, r0, r0, lsl #16
8010db54:	00000028 	andeq	r0, r0, r8, lsr #32
8010db58:	0000002c 	andeq	r0, r0, ip, lsr #32
8010db5c:	00000058 	andeq	r0, r0, r8, asr r0

8010db60 <bcm283x_sd_init>:
8010db60:	e59f358c 	ldr	r3, [pc, #1420]	; 8010e0f4 <bcm283x_sd_init+0x594>
8010db64:	e1a0c00d 	mov	ip, sp
8010db68:	e92ddff0 	push	{r4, r5, r6, r7, r8, r9, sl, fp, ip, lr, pc}
8010db6c:	e3a01001 	mov	r1, #1
8010db70:	e08f3003 	add	r3, pc, r3
8010db74:	e59f657c 	ldr	r6, [pc, #1404]	; 8010e0f8 <bcm283x_sd_init+0x598>
8010db78:	e24cb004 	sub	fp, ip, #4
8010db7c:	e59f2578 	ldr	r2, [pc, #1400]	; 8010e0fc <bcm283x_sd_init+0x59c>
8010db80:	e24dd00c 	sub	sp, sp, #12
8010db84:	e08f6006 	add	r6, pc, r6
8010db88:	e5831404 	str	r1, [r3, #1028]	; 0x404
8010db8c:	e3a09002 	mov	r9, #2
8010db90:	e5831408 	str	r1, [r3, #1032]	; 0x408
8010db94:	e3a00096 	mov	r0, #150	; 0x96
8010db98:	e3a08000 	mov	r8, #0
8010db9c:	e3024710 	movw	r4, #10000	; 0x2710
8010dba0:	e7967002 	ldr	r7, [r6, r2]
8010dba4:	e1a05008 	mov	r5, r8
8010dba8:	e5973034 	ldr	r3, [r7, #52]	; 0x34
8010dbac:	e2833602 	add	r3, r3, #2097152	; 0x200000
8010dbb0:	e5932010 	ldr	r2, [r3, #16]
8010dbb4:	e3c2260e 	bic	r2, r2, #14680064	; 0xe00000
8010dbb8:	e5832010 	str	r2, [r3, #16]
8010dbbc:	e5973034 	ldr	r3, [r7, #52]	; 0x34
8010dbc0:	e2833602 	add	r3, r3, #2097152	; 0x200000
8010dbc4:	e5839094 	str	r9, [r3, #148]	; 0x94
8010dbc8:	eb0020df 	bl	80115f4c <_delay>
8010dbcc:	e5973034 	ldr	r3, [r7, #52]	; 0x34
8010dbd0:	e3a02902 	mov	r2, #32768	; 0x8000
8010dbd4:	e3a00096 	mov	r0, #150	; 0x96
8010dbd8:	e2833602 	add	r3, r3, #2097152	; 0x200000
8010dbdc:	e583209c 	str	r2, [r3, #156]	; 0x9c
8010dbe0:	eb0020d9 	bl	80115f4c <_delay>
8010dbe4:	e5973034 	ldr	r3, [r7, #52]	; 0x34
8010dbe8:	e3a00096 	mov	r0, #150	; 0x96
8010dbec:	e2833602 	add	r3, r3, #2097152	; 0x200000
8010dbf0:	e5838094 	str	r8, [r3, #148]	; 0x94
8010dbf4:	e5973034 	ldr	r3, [r7, #52]	; 0x34
8010dbf8:	e2833602 	add	r3, r3, #2097152	; 0x200000
8010dbfc:	e583809c 	str	r8, [r3, #156]	; 0x9c
8010dc00:	e5973034 	ldr	r3, [r7, #52]	; 0x34
8010dc04:	e2833602 	add	r3, r3, #2097152	; 0x200000
8010dc08:	e5932068 	ldr	r2, [r3, #104]	; 0x68
8010dc0c:	e3822902 	orr	r2, r2, #32768	; 0x8000
8010dc10:	e5832068 	str	r2, [r3, #104]	; 0x68
8010dc14:	e5973034 	ldr	r3, [r7, #52]	; 0x34
8010dc18:	e2833602 	add	r3, r3, #2097152	; 0x200000
8010dc1c:	e5932010 	ldr	r2, [r3, #16]
8010dc20:	e382243f 	orr	r2, r2, #1056964608	; 0x3f000000
8010dc24:	e5832010 	str	r2, [r3, #16]
8010dc28:	e5973034 	ldr	r3, [r7, #52]	; 0x34
8010dc2c:	e2833602 	add	r3, r3, #2097152	; 0x200000
8010dc30:	e5839094 	str	r9, [r3, #148]	; 0x94
8010dc34:	eb0020c4 	bl	80115f4c <_delay>
8010dc38:	e5973034 	ldr	r3, [r7, #52]	; 0x34
8010dc3c:	e3a02803 	mov	r2, #196608	; 0x30000
8010dc40:	e3a00096 	mov	r0, #150	; 0x96
8010dc44:	e2833602 	add	r3, r3, #2097152	; 0x200000
8010dc48:	e583209c 	str	r2, [r3, #156]	; 0x9c
8010dc4c:	eb0020be 	bl	80115f4c <_delay>
8010dc50:	e5973034 	ldr	r3, [r7, #52]	; 0x34
8010dc54:	e3a00096 	mov	r0, #150	; 0x96
8010dc58:	e2833602 	add	r3, r3, #2097152	; 0x200000
8010dc5c:	e5838094 	str	r8, [r3, #148]	; 0x94
8010dc60:	e5973034 	ldr	r3, [r7, #52]	; 0x34
8010dc64:	e2833602 	add	r3, r3, #2097152	; 0x200000
8010dc68:	e583809c 	str	r8, [r3, #156]	; 0x9c
8010dc6c:	e5972034 	ldr	r2, [r7, #52]	; 0x34
8010dc70:	e2822602 	add	r2, r2, #2097152	; 0x200000
8010dc74:	e5923014 	ldr	r3, [r2, #20]
8010dc78:	e1e03623 	mvn	r3, r3, lsr #12
8010dc7c:	e1e03603 	mvn	r3, r3, lsl #12
8010dc80:	e5823014 	str	r3, [r2, #20]
8010dc84:	e5973034 	ldr	r3, [r7, #52]	; 0x34
8010dc88:	e2833602 	add	r3, r3, #2097152	; 0x200000
8010dc8c:	e5839094 	str	r9, [r3, #148]	; 0x94
8010dc90:	eb0020ad 	bl	80115f4c <_delay>
8010dc94:	e5973034 	ldr	r3, [r7, #52]	; 0x34
8010dc98:	e3a0270f 	mov	r2, #3932160	; 0x3c0000
8010dc9c:	e3a00096 	mov	r0, #150	; 0x96
8010dca0:	e2833602 	add	r3, r3, #2097152	; 0x200000
8010dca4:	e583209c 	str	r2, [r3, #156]	; 0x9c
8010dca8:	eb0020a7 	bl	80115f4c <_delay>
8010dcac:	e5973034 	ldr	r3, [r7, #52]	; 0x34
8010dcb0:	e59f2448 	ldr	r2, [pc, #1096]	; 8010e100 <bcm283x_sd_init+0x5a0>
8010dcb4:	e2833602 	add	r3, r3, #2097152	; 0x200000
8010dcb8:	e5838094 	str	r8, [r3, #148]	; 0x94
8010dcbc:	e5973034 	ldr	r3, [r7, #52]	; 0x34
8010dcc0:	e2833602 	add	r3, r3, #2097152	; 0x200000
8010dcc4:	e583809c 	str	r8, [r3, #156]	; 0x9c
8010dcc8:	e5973034 	ldr	r3, [r7, #52]	; 0x34
8010dccc:	e7961002 	ldr	r1, [r6, r2]
8010dcd0:	e2833603 	add	r3, r3, #3145728	; 0x300000
8010dcd4:	e59320fc 	ldr	r2, [r3, #252]	; 0xfc
8010dcd8:	e7e72852 	ubfx	r2, r2, #16, #8
8010dcdc:	e5812000 	str	r2, [r1]
8010dce0:	e5838028 	str	r8, [r3, #40]	; 0x28
8010dce4:	e5973034 	ldr	r3, [r7, #52]	; 0x34
8010dce8:	e2833603 	add	r3, r3, #3145728	; 0x300000
8010dcec:	e593202c 	ldr	r2, [r3, #44]	; 0x2c
8010dcf0:	e3822401 	orr	r2, r2, #16777216	; 0x1000000
8010dcf4:	e583202c 	str	r2, [r3, #44]	; 0x2c
8010dcf8:	ea000004 	b	8010dd10 <bcm283x_sd_init+0x1b0>
8010dcfc:	e2544001 	subs	r4, r4, #1
8010dd00:	e2c55000 	sbc	r5, r5, #0
8010dd04:	e3750001 	cmn	r5, #1
8010dd08:	03740001 	cmneq	r4, #1
8010dd0c:	0a000074 	beq	8010dee4 <bcm283x_sd_init+0x384>
8010dd10:	e3a0000a 	mov	r0, #10
8010dd14:	eb0020ac 	bl	80115fcc <_delay_msec>
8010dd18:	e5973034 	ldr	r3, [r7, #52]	; 0x34
8010dd1c:	e2833603 	add	r3, r3, #3145728	; 0x300000
8010dd20:	e283202c 	add	r2, r3, #44	; 0x2c
8010dd24:	e593302c 	ldr	r3, [r3, #44]	; 0x2c
8010dd28:	e3130401 	tst	r3, #16777216	; 0x1000000
8010dd2c:	1afffff2 	bne	8010dcfc <bcm283x_sd_init+0x19c>
8010dd30:	e1943005 	orrs	r3, r4, r5
8010dd34:	0a00006a 	beq	8010dee4 <bcm283x_sd_init+0x384>
8010dd38:	e5923000 	ldr	r3, [r2]
8010dd3c:	e3a0000a 	mov	r0, #10
8010dd40:	e383380e 	orr	r3, r3, #917504	; 0xe0000
8010dd44:	e3833001 	orr	r3, r3, #1
8010dd48:	e5823000 	str	r3, [r2]
8010dd4c:	eb00209e 	bl	80115fcc <_delay_msec>
8010dd50:	e3a00d6a 	mov	r0, #6784	; 0x1a80
8010dd54:	e3400006 	movt	r0, #6
8010dd58:	ebfffe55 	bl	8010d6b4 <sd_clk>
8010dd5c:	e2504000 	subs	r4, r0, #0
8010dd60:	0a000002 	beq	8010dd70 <bcm283x_sd_init+0x210>
8010dd64:	e1a00004 	mov	r0, r4
8010dd68:	e24bd028 	sub	sp, fp, #40	; 0x28
8010dd6c:	e89daff0 	ldm	sp, {r4, r5, r6, r7, r8, r9, sl, fp, sp, pc}
8010dd70:	e5973034 	ldr	r3, [r7, #52]	; 0x34
8010dd74:	e3e02000 	mvn	r2, #0
8010dd78:	e1a01004 	mov	r1, r4
8010dd7c:	e2833603 	add	r3, r3, #3145728	; 0x300000
8010dd80:	e5832038 	str	r2, [r3, #56]	; 0x38
8010dd84:	e5973034 	ldr	r3, [r7, #52]	; 0x34
8010dd88:	e2833603 	add	r3, r3, #3145728	; 0x300000
8010dd8c:	e5832034 	str	r2, [r3, #52]	; 0x34
8010dd90:	e59f236c 	ldr	r2, [pc, #876]	; 8010e104 <bcm283x_sd_init+0x5a4>
8010dd94:	e59f336c 	ldr	r3, [pc, #876]	; 8010e108 <bcm283x_sd_init+0x5a8>
8010dd98:	e7968002 	ldr	r8, [r6, r2]
8010dd9c:	e5884000 	str	r4, [r8]
8010dda0:	e7963003 	ldr	r3, [r6, r3]
8010dda4:	e50b3030 	str	r3, [fp, #-48]	; 0xffffffd0
8010dda8:	e5834000 	str	r4, [r3]
8010ddac:	e59f3358 	ldr	r3, [pc, #856]	; 8010e10c <bcm283x_sd_init+0x5ac>
8010ddb0:	e7963003 	ldr	r3, [r6, r3]
8010ddb4:	e50b3034 	str	r3, [fp, #-52]	; 0xffffffcc
8010ddb8:	e5834004 	str	r4, [r3, #4]
8010ddbc:	e5834000 	str	r4, [r3]
8010ddc0:	ebfffea1 	bl	8010d84c <sd_cmd>
8010ddc4:	e5983000 	ldr	r3, [r8]
8010ddc8:	e3530000 	cmp	r3, #0
8010ddcc:	1a000040 	bne	8010ded4 <bcm283x_sd_init+0x374>
8010ddd0:	e30011aa 	movw	r1, #426	; 0x1aa
8010ddd4:	e3a00000 	mov	r0, #0
8010ddd8:	e3400802 	movt	r0, #2050	; 0x802
8010dddc:	ebfffe9a 	bl	8010d84c <sd_cmd>
8010dde0:	e5982000 	ldr	r2, [r8]
8010dde4:	e3520000 	cmp	r2, #0
8010dde8:	1a000039 	bne	8010ded4 <bcm283x_sd_init+0x374>
8010ddec:	e3a0a902 	mov	sl, #32768	; 0x8000
8010ddf0:	e345a1ff 	movt	sl, #20991	; 0x51ff
8010ddf4:	e3a04000 	mov	r4, #0
8010ddf8:	e34a4902 	movt	r4, #43266	; 0xa902
8010ddfc:	e1a09002 	mov	r9, r2
8010de00:	e3a06005 	mov	r6, #5
8010de04:	ea000005 	b	8010de20 <bcm283x_sd_init+0x2c0>
8010de08:	e2563001 	subs	r3, r6, #1
8010de0c:	e2c99000 	sbc	r9, r9, #0
8010de10:	e1a06003 	mov	r6, r3
8010de14:	e3790001 	cmn	r9, #1
8010de18:	03730001 	cmneq	r3, #1
8010de1c:	0a000036 	beq	8010defc <bcm283x_sd_init+0x39c>
8010de20:	e3a00efa 	mov	r0, #4000	; 0xfa0
8010de24:	eb002048 	bl	80115f4c <_delay>
8010de28:	e1a0100a 	mov	r1, sl
8010de2c:	e1a00004 	mov	r0, r4
8010de30:	ebfffe85 	bl	8010d84c <sd_cmd>
8010de34:	e2505000 	subs	r5, r0, #0
8010de38:	aafffff2 	bge	8010de08 <bcm283x_sd_init+0x2a8>
8010de3c:	e3a01902 	mov	r1, #32768	; 0x8000
8010de40:	e34010ff 	movt	r1, #255	; 0xff
8010de44:	e0011005 	and	r1, r1, r5
8010de48:	e3510000 	cmp	r1, #0
8010de4c:	0a000007 	beq	8010de70 <bcm283x_sd_init+0x310>
8010de50:	e3150101 	tst	r5, #1073741824	; 0x40000000
8010de54:	0a000005 	beq	8010de70 <bcm283x_sd_init+0x310>
8010de58:	e5980000 	ldr	r0, [r8]
8010de5c:	e3700001 	cmn	r0, #1
8010de60:	0a000002 	beq	8010de70 <bcm283x_sd_init+0x310>
8010de64:	e5980000 	ldr	r0, [r8]
8010de68:	e3500000 	cmp	r0, #0
8010de6c:	1a000018 	bne	8010ded4 <bcm283x_sd_init+0x374>
8010de70:	e1963009 	orrs	r3, r6, r9
8010de74:	0a000020 	beq	8010defc <bcm283x_sd_init+0x39c>
8010de78:	e3510000 	cmp	r1, #0
8010de7c:	0a000018 	beq	8010dee4 <bcm283x_sd_init+0x384>
8010de80:	e3a01000 	mov	r1, #0
8010de84:	e1a00001 	mov	r0, r1
8010de88:	e3400201 	movt	r0, #513	; 0x201
8010de8c:	ebfffe6e 	bl	8010d84c <sd_cmd>
8010de90:	e3a01000 	mov	r1, #0
8010de94:	e1a00001 	mov	r0, r1
8010de98:	e3400302 	movt	r0, #770	; 0x302
8010de9c:	ebfffe6a 	bl	8010d84c <sd_cmd>
8010dea0:	e51b3030 	ldr	r3, [fp, #-48]	; 0xffffffd0
8010dea4:	e5830000 	str	r0, [r3]
8010dea8:	e5983000 	ldr	r3, [r8]
8010deac:	e3530000 	cmp	r3, #0
8010deb0:	1a000007 	bne	8010ded4 <bcm283x_sd_init+0x374>
8010deb4:	e51b3030 	ldr	r3, [fp, #-48]	; 0xffffffd0
8010deb8:	e3a00000 	mov	r0, #0
8010debc:	e3400703 	movt	r0, #1795	; 0x703
8010dec0:	e5931000 	ldr	r1, [r3]
8010dec4:	ebfffe60 	bl	8010d84c <sd_cmd>
8010dec8:	e5983000 	ldr	r3, [r8]
8010decc:	e3530000 	cmp	r3, #0
8010ded0:	0a00000d 	beq	8010df0c <bcm283x_sd_init+0x3ac>
8010ded4:	e5984000 	ldr	r4, [r8]
8010ded8:	e1a00004 	mov	r0, r4
8010dedc:	e24bd028 	sub	sp, fp, #40	; 0x28
8010dee0:	e89daff0 	ldm	sp, {r4, r5, r6, r7, r8, r9, sl, fp, sp, pc}
8010dee4:	e3e04001 	mvn	r4, #1
8010dee8:	e1a00004 	mov	r0, r4
8010deec:	e24bd028 	sub	sp, fp, #40	; 0x28
8010def0:	e89daff0 	ldm	sp, {r4, r5, r6, r7, r8, r9, sl, fp, sp, pc}
8010def4:	e5913000 	ldr	r3, [r1]
8010def8:	e5813000 	str	r3, [r1]
8010defc:	e3e04000 	mvn	r4, #0
8010df00:	e1a00004 	mov	r0, r4
8010df04:	e24bd028 	sub	sp, fp, #40	; 0x28
8010df08:	e89daff0 	ldm	sp, {r4, r5, r6, r7, r8, r9, sl, fp, sp, pc}
8010df0c:	e30b0c20 	movw	r0, #48160	; 0xbc20
8010df10:	e34000be 	movt	r0, #190	; 0xbe
8010df14:	ebfffde6 	bl	8010d6b4 <sd_clk>
8010df18:	e2504000 	subs	r4, r0, #0
8010df1c:	1affff90 	bne	8010dd64 <bcm283x_sd_init+0x204>
8010df20:	e5973034 	ldr	r3, [r7, #52]	; 0x34
8010df24:	e2833603 	add	r3, r3, #3145728	; 0x300000
8010df28:	e5932024 	ldr	r2, [r3, #36]	; 0x24
8010df2c:	e3120002 	tst	r2, #2
8010df30:	0a00004f 	beq	8010e074 <bcm283x_sd_init+0x514>
8010df34:	e3a04902 	mov	r4, #32768	; 0x8000
8010df38:	e340417e 	movt	r4, #382	; 0x17e
8010df3c:	ea000005 	b	8010df58 <bcm283x_sd_init+0x3f8>
8010df40:	eb002001 	bl	80115f4c <_delay>
8010df44:	e5973034 	ldr	r3, [r7, #52]	; 0x34
8010df48:	e2833603 	add	r3, r3, #3145728	; 0x300000
8010df4c:	e5932024 	ldr	r2, [r3, #36]	; 0x24
8010df50:	e3120002 	tst	r2, #2
8010df54:	0a000046 	beq	8010e074 <bcm283x_sd_init+0x514>
8010df58:	e5932030 	ldr	r2, [r3, #48]	; 0x30
8010df5c:	e2831030 	add	r1, r3, #48	; 0x30
8010df60:	e3a00ffa 	mov	r0, #1000	; 0x3e8
8010df64:	e1120004 	tst	r2, r4
8010df68:	0afffff4 	beq	8010df40 <bcm283x_sd_init+0x3e0>
8010df6c:	e5912000 	ldr	r2, [r1]
8010df70:	e3a01902 	mov	r1, #32768	; 0x8000
8010df74:	e340117e 	movt	r1, #382	; 0x17e
8010df78:	e0121001 	ands	r1, r2, r1
8010df7c:	1affffde 	bne	8010defc <bcm283x_sd_init+0x39c>
8010df80:	e3a02008 	mov	r2, #8
8010df84:	e3402001 	movt	r2, #1
8010df88:	e3a00010 	mov	r0, #16
8010df8c:	e34b0322 	movt	r0, #45858	; 0xb322
8010df90:	e5832004 	str	r2, [r3, #4]
8010df94:	ebfffe2c 	bl	8010d84c <sd_cmd>
8010df98:	e5984000 	ldr	r4, [r8]
8010df9c:	e3540000 	cmp	r4, #0
8010dfa0:	1affffcb 	bne	8010ded4 <bcm283x_sd_init+0x374>
8010dfa4:	e5973034 	ldr	r3, [r7, #52]	; 0x34
8010dfa8:	e308a020 	movw	sl, #32800	; 0x8020
8010dfac:	e340a17e 	movt	sl, #382	; 0x17e
8010dfb0:	e2833603 	add	r3, r3, #3145728	; 0x300000
8010dfb4:	e2831030 	add	r1, r3, #48	; 0x30
8010dfb8:	e5932030 	ldr	r2, [r3, #48]	; 0x30
8010dfbc:	e112000a 	tst	r2, sl
8010dfc0:	0302670f 	movweq	r6, #9999	; 0x270f
8010dfc4:	0a000002 	beq	8010dfd4 <bcm283x_sd_init+0x474>
8010dfc8:	ea000047 	b	8010e0ec <bcm283x_sd_init+0x58c>
8010dfcc:	e2566001 	subs	r6, r6, #1
8010dfd0:	3affffc7 	bcc	8010def4 <bcm283x_sd_init+0x394>
8010dfd4:	e3a00ffa 	mov	r0, #1000	; 0x3e8
8010dfd8:	eb001fdb 	bl	80115f4c <_delay>
8010dfdc:	e5973034 	ldr	r3, [r7, #52]	; 0x34
8010dfe0:	e2833603 	add	r3, r3, #3145728	; 0x300000
8010dfe4:	e2831030 	add	r1, r3, #48	; 0x30
8010dfe8:	e5933030 	ldr	r3, [r3, #48]	; 0x30
8010dfec:	e113000a 	tst	r3, sl
8010dff0:	0afffff5 	beq	8010dfcc <bcm283x_sd_init+0x46c>
8010dff4:	e5913000 	ldr	r3, [r1]
8010dff8:	e3560000 	cmp	r6, #0
8010dffc:	0affffbd 	beq	8010def8 <bcm283x_sd_init+0x398>
8010e000:	e3130811 	tst	r3, #1114112	; 0x110000
8010e004:	1affffbb 	bne	8010def8 <bcm283x_sd_init+0x398>
8010e008:	e3a02902 	mov	r2, #32768	; 0x8000
8010e00c:	e340217e 	movt	r2, #382	; 0x17e
8010e010:	e0132002 	ands	r2, r3, r2
8010e014:	01a0a002 	moveq	sl, r2
8010e018:	03a03020 	moveq	r3, #32
8010e01c:	01a0600a 	moveq	r6, sl
8010e020:	05813000 	streq	r3, [r1]
8010e024:	1affffb3 	bne	8010def8 <bcm283x_sd_init+0x398>
8010e028:	e5973034 	ldr	r3, [r7, #52]	; 0x34
8010e02c:	e2833603 	add	r3, r3, #3145728	; 0x300000
8010e030:	e5931024 	ldr	r1, [r3, #36]	; 0x24
8010e034:	e3110b02 	tst	r1, #2048	; 0x800
8010e038:	0a00000a 	beq	8010e068 <bcm283x_sd_init+0x508>
8010e03c:	e51b2034 	ldr	r2, [fp, #-52]	; 0xffffffcc
8010e040:	e29a1001 	adds	r1, sl, #1
8010e044:	e5933020 	ldr	r3, [r3, #32]
8010e048:	e782310a 	str	r3, [r2, sl, lsl #2]
8010e04c:	e2a63000 	adc	r3, r6, #0
8010e050:	e24aa001 	sub	sl, sl, #1
8010e054:	e1a06003 	mov	r6, r3
8010e058:	e19a3003 	orrs	r3, sl, r3
8010e05c:	0a000006 	beq	8010e07c <bcm283x_sd_init+0x51c>
8010e060:	e1a0a001 	mov	sl, r1
8010e064:	eaffffef 	b	8010e028 <bcm283x_sd_init+0x4c8>
8010e068:	e3a00001 	mov	r0, #1
8010e06c:	eb001fd6 	bl	80115fcc <_delay_msec>
8010e070:	eaffffec 	b	8010e028 <bcm283x_sd_init+0x4c8>
8010e074:	e2831030 	add	r1, r3, #48	; 0x30
8010e078:	eaffffbb 	b	8010df6c <bcm283x_sd_init+0x40c>
8010e07c:	e51b3034 	ldr	r3, [fp, #-52]	; 0xffffffcc
8010e080:	e5933000 	ldr	r3, [r3]
8010e084:	e3130b01 	tst	r3, #1024	; 0x400
8010e088:	1a000008 	bne	8010e0b0 <bcm283x_sd_init+0x550>
8010e08c:	e51b1034 	ldr	r1, [fp, #-52]	; 0xffffffcc
8010e090:	e7e03f55 	ubfx	r3, r5, #30, #1
8010e094:	e5912000 	ldr	r2, [r1]
8010e098:	e3c22001 	bic	r2, r2, #1
8010e09c:	e5812000 	str	r2, [r1]
8010e0a0:	e5912000 	ldr	r2, [r1]
8010e0a4:	e1833002 	orr	r3, r3, r2
8010e0a8:	e5813000 	str	r3, [r1]
8010e0ac:	eaffff2c 	b	8010dd64 <bcm283x_sd_init+0x204>
8010e0b0:	e51b3030 	ldr	r3, [fp, #-48]	; 0xffffffd0
8010e0b4:	e3a00000 	mov	r0, #0
8010e0b8:	e3480602 	movt	r0, #34306	; 0x8602
8010e0bc:	e5931000 	ldr	r1, [r3]
8010e0c0:	e3811002 	orr	r1, r1, #2
8010e0c4:	ebfffde0 	bl	8010d84c <sd_cmd>
8010e0c8:	e5983000 	ldr	r3, [r8]
8010e0cc:	e3530000 	cmp	r3, #0
8010e0d0:	1affff7f 	bne	8010ded4 <bcm283x_sd_init+0x374>
8010e0d4:	e5973034 	ldr	r3, [r7, #52]	; 0x34
8010e0d8:	e2833603 	add	r3, r3, #3145728	; 0x300000
8010e0dc:	e5932028 	ldr	r2, [r3, #40]	; 0x28
8010e0e0:	e3822002 	orr	r2, r2, #2
8010e0e4:	e5832028 	str	r2, [r3, #40]	; 0x28
8010e0e8:	eaffffe7 	b	8010e08c <bcm283x_sd_init+0x52c>
8010e0ec:	e5933030 	ldr	r3, [r3, #48]	; 0x30
8010e0f0:	eaffffc2 	b	8010e000 <bcm283x_sd_init+0x4a0>
8010e0f4:	0000e6f0 	strdeq	lr, [r0], -r0
8010e0f8:	0000a4dc 	ldrdeq	sl, [r0], -ip
8010e0fc:	00000058 	andeq	r0, r0, r8, asr r0
8010e100:	00000054 	andeq	r0, r0, r4, asr r0
8010e104:	00000028 	andeq	r0, r0, r8, lsr #32
8010e108:	0000002c 	andeq	r0, r0, ip, lsr #32
8010e10c:	00000034 	andeq	r0, r0, r4, lsr r0

8010e110 <bcm283x_sd_read>:
8010e110:	e59f3114 	ldr	r3, [pc, #276]	; 8010e22c <bcm283x_sd_read+0x11c>
8010e114:	e1a0c00d 	mov	ip, sp
8010e118:	e92dd8f0 	push	{r4, r5, r6, r7, fp, ip, lr, pc}
8010e11c:	e24cb004 	sub	fp, ip, #4
8010e120:	e08f3003 	add	r3, pc, r3
8010e124:	e59f6104 	ldr	r6, [pc, #260]	; 8010e230 <bcm283x_sd_read+0x120>
8010e128:	e5932404 	ldr	r2, [r3, #1028]	; 0x404
8010e12c:	e08f6006 	add	r6, pc, r6
8010e130:	e3520000 	cmp	r2, #0
8010e134:	0a000034 	beq	8010e20c <bcm283x_sd_read+0xfc>
8010e138:	e59f20f4 	ldr	r2, [pc, #244]	; 8010e234 <bcm283x_sd_read+0x124>
8010e13c:	e3a01000 	mov	r1, #0
8010e140:	e5830000 	str	r0, [r3]
8010e144:	e5831404 	str	r1, [r3, #1028]	; 0x404
8010e148:	e7965002 	ldr	r5, [r6, r2]
8010e14c:	e5937000 	ldr	r7, [r3]
8010e150:	e5953034 	ldr	r3, [r5, #52]	; 0x34
8010e154:	e2833603 	add	r3, r3, #3145728	; 0x300000
8010e158:	e5932024 	ldr	r2, [r3, #36]	; 0x24
8010e15c:	e3120002 	tst	r2, #2
8010e160:	0a000027 	beq	8010e204 <bcm283x_sd_read+0xf4>
8010e164:	e3a04902 	mov	r4, #32768	; 0x8000
8010e168:	e340417e 	movt	r4, #382	; 0x17e
8010e16c:	ea000005 	b	8010e188 <bcm283x_sd_read+0x78>
8010e170:	eb001f75 	bl	80115f4c <_delay>
8010e174:	e5953034 	ldr	r3, [r5, #52]	; 0x34
8010e178:	e2833603 	add	r3, r3, #3145728	; 0x300000
8010e17c:	e5932024 	ldr	r2, [r3, #36]	; 0x24
8010e180:	e3120002 	tst	r2, #2
8010e184:	0a00001e 	beq	8010e204 <bcm283x_sd_read+0xf4>
8010e188:	e5932030 	ldr	r2, [r3, #48]	; 0x30
8010e18c:	e2831030 	add	r1, r3, #48	; 0x30
8010e190:	e3a00ffa 	mov	r0, #1000	; 0x3e8
8010e194:	e1120004 	tst	r2, r4
8010e198:	0afffff4 	beq	8010e170 <bcm283x_sd_read+0x60>
8010e19c:	e5911000 	ldr	r1, [r1]
8010e1a0:	e3a02902 	mov	r2, #32768	; 0x8000
8010e1a4:	e340217e 	movt	r2, #382	; 0x17e
8010e1a8:	e1110002 	tst	r1, r2
8010e1ac:	1a000018 	bne	8010e214 <bcm283x_sd_read+0x104>
8010e1b0:	e59f2080 	ldr	r2, [pc, #128]	; 8010e238 <bcm283x_sd_read+0x128>
8010e1b4:	e3a01c02 	mov	r1, #512	; 0x200
8010e1b8:	e3401001 	movt	r1, #1
8010e1bc:	e5831004 	str	r1, [r3, #4]
8010e1c0:	e7963002 	ldr	r3, [r6, r2]
8010e1c4:	e5933000 	ldr	r3, [r3]
8010e1c8:	e3130001 	tst	r3, #1
8010e1cc:	11a01007 	movne	r1, r7
8010e1d0:	01a01487 	lsleq	r1, r7, #9
8010e1d4:	13a00010 	movne	r0, #16
8010e1d8:	03a00010 	moveq	r0, #16
8010e1dc:	13410122 	movtne	r0, #4386	; 0x1122
8010e1e0:	03410122 	movteq	r0, #4386	; 0x1122
8010e1e4:	ebfffd98 	bl	8010d84c <sd_cmd>
8010e1e8:	e59f304c 	ldr	r3, [pc, #76]	; 8010e23c <bcm283x_sd_read+0x12c>
8010e1ec:	e7963003 	ldr	r3, [r6, r3]
8010e1f0:	e5930000 	ldr	r0, [r3]
8010e1f4:	e2500000 	subs	r0, r0, #0
8010e1f8:	13a00001 	movne	r0, #1
8010e1fc:	e2600000 	rsb	r0, r0, #0
8010e200:	e89da8f0 	ldm	sp, {r4, r5, r6, r7, fp, sp, pc}
8010e204:	e2831030 	add	r1, r3, #48	; 0x30
8010e208:	eaffffe3 	b	8010e19c <bcm283x_sd_read+0x8c>
8010e20c:	e3e00000 	mvn	r0, #0
8010e210:	e89da8f0 	ldm	sp, {r4, r5, r6, r7, fp, sp, pc}
8010e214:	e59f3020 	ldr	r3, [pc, #32]	; 8010e23c <bcm283x_sd_read+0x12c>
8010e218:	e3e02000 	mvn	r2, #0
8010e21c:	e1a00002 	mov	r0, r2
8010e220:	e7963003 	ldr	r3, [r6, r3]
8010e224:	e5832000 	str	r2, [r3]
8010e228:	e89da8f0 	ldm	sp, {r4, r5, r6, r7, fp, sp, pc}
8010e22c:	0000e140 	andeq	lr, r0, r0, asr #2
8010e230:	00009f34 	andeq	r9, r0, r4, lsr pc
8010e234:	00000058 	andeq	r0, r0, r8, asr r0
8010e238:	00000034 	andeq	r0, r0, r4, lsr r0
8010e23c:	00000028 	andeq	r0, r0, r8, lsr #32

8010e240 <bcm283x_sd_read_done>:
8010e240:	e59f30e8 	ldr	r3, [pc, #232]	; 8010e330 <bcm283x_sd_read_done+0xf0>
8010e244:	e1a0c00d 	mov	ip, sp
8010e248:	e59f10e4 	ldr	r1, [pc, #228]	; 8010e334 <bcm283x_sd_read_done+0xf4>
8010e24c:	e08f3003 	add	r3, pc, r3
8010e250:	e92dd830 	push	{r4, r5, fp, ip, lr, pc}
8010e254:	e08f1001 	add	r1, pc, r1
8010e258:	e24cb004 	sub	fp, ip, #4
8010e25c:	e1a04000 	mov	r4, r0
8010e260:	e5932404 	ldr	r2, [r3, #1028]	; 0x404
8010e264:	e3520001 	cmp	r2, #1
8010e268:	0a00000b 	beq	8010e29c <bcm283x_sd_read_done+0x5c>
8010e26c:	e59f00c4 	ldr	r0, [pc, #196]	; 8010e338 <bcm283x_sd_read_done+0xf8>
8010e270:	e3082020 	movw	r2, #32800	; 0x8020
8010e274:	e340217e 	movt	r2, #382	; 0x17e
8010e278:	e7910000 	ldr	r0, [r1, r0]
8010e27c:	e5901034 	ldr	r1, [r0, #52]	; 0x34
8010e280:	e2811603 	add	r1, r1, #3145728	; 0x300000
8010e284:	e591c030 	ldr	ip, [r1, #48]	; 0x30
8010e288:	e002200c 	and	r2, r2, ip
8010e28c:	e3520000 	cmp	r2, #0
8010e290:	1a00000c 	bne	8010e2c8 <bcm283x_sd_read_done+0x88>
8010e294:	e3a00ffa 	mov	r0, #1000	; 0x3e8
8010e298:	eb001f2b 	bl	80115f4c <_delay>
8010e29c:	e59f1098 	ldr	r1, [pc, #152]	; 8010e33c <bcm283x_sd_read_done+0xfc>
8010e2a0:	e08f1001 	add	r1, pc, r1
8010e2a4:	e5913404 	ldr	r3, [r1, #1028]	; 0x404
8010e2a8:	e3530000 	cmp	r3, #0
8010e2ac:	0a00001b 	beq	8010e320 <bcm283x_sd_read_done+0xe0>
8010e2b0:	e2811004 	add	r1, r1, #4
8010e2b4:	e1a00004 	mov	r0, r4
8010e2b8:	e3a02c02 	mov	r2, #512	; 0x200
8010e2bc:	eb00029a 	bl	8010ed2c <memcpy>
8010e2c0:	e3a00000 	mov	r0, #0
8010e2c4:	e89da830 	ldm	sp, {r4, r5, fp, sp, pc}
8010e2c8:	e5912030 	ldr	r2, [r1, #48]	; 0x30
8010e2cc:	e3120811 	tst	r2, #1114112	; 0x110000
8010e2d0:	1a000014 	bne	8010e328 <bcm283x_sd_read_done+0xe8>
8010e2d4:	e3a0c902 	mov	ip, #32768	; 0x8000
8010e2d8:	e340c17e 	movt	ip, #382	; 0x17e
8010e2dc:	e112000c 	tst	r2, ip
8010e2e0:	1a000010 	bne	8010e328 <bcm283x_sd_read_done+0xe8>
8010e2e4:	e3a02020 	mov	r2, #32
8010e2e8:	e5812030 	str	r2, [r1, #48]	; 0x30
8010e2ec:	e283cc02 	add	ip, r3, #512	; 0x200
8010e2f0:	e5901034 	ldr	r1, [r0, #52]	; 0x34
8010e2f4:	e2811603 	add	r1, r1, #3145728	; 0x300000
8010e2f8:	e0811002 	add	r1, r1, r2
8010e2fc:	e5912000 	ldr	r2, [r1]
8010e300:	e5a32004 	str	r2, [r3, #4]!
8010e304:	e15c0003 	cmp	ip, r3
8010e308:	1afffffb 	bne	8010e2fc <bcm283x_sd_read_done+0xbc>
8010e30c:	e59f302c 	ldr	r3, [pc, #44]	; 8010e340 <bcm283x_sd_read_done+0x100>
8010e310:	e3a02001 	mov	r2, #1
8010e314:	e08f3003 	add	r3, pc, r3
8010e318:	e5832404 	str	r2, [r3, #1028]	; 0x404
8010e31c:	eaffffde 	b	8010e29c <bcm283x_sd_read_done+0x5c>
8010e320:	e3e00000 	mvn	r0, #0
8010e324:	e89da830 	ldm	sp, {r4, r5, fp, sp, pc}
8010e328:	e5812030 	str	r2, [r1, #48]	; 0x30
8010e32c:	eaffffda 	b	8010e29c <bcm283x_sd_read_done+0x5c>
8010e330:	0000e014 	andeq	lr, r0, r4, lsl r0
8010e334:	00009e0c 	andeq	r9, r0, ip, lsl #28
8010e338:	00000058 	andeq	r0, r0, r8, asr r0
8010e33c:	0000dfc0 	andeq	sp, r0, r0, asr #31
8010e340:	0000df4c 	andeq	sp, r0, ip, asr #30

8010e344 <bcm283x_sd_write>:
8010e344:	e1a0c00d 	mov	ip, sp
8010e348:	e92ddbf0 	push	{r4, r5, r6, r7, r8, r9, fp, ip, lr, pc}
8010e34c:	e59f7264 	ldr	r7, [pc, #612]	; 8010e5b8 <bcm283x_sd_write+0x274>
8010e350:	e59f3264 	ldr	r3, [pc, #612]	; 8010e5bc <bcm283x_sd_write+0x278>
8010e354:	e1a06001 	mov	r6, r1
8010e358:	e08f7007 	add	r7, pc, r7
8010e35c:	e3002402 	movw	r2, #1026	; 0x402
8010e360:	e24cb004 	sub	fp, ip, #4
8010e364:	e1a08000 	mov	r8, r0
8010e368:	e7974003 	ldr	r4, [r7, r3]
8010e36c:	e5943034 	ldr	r3, [r4, #52]	; 0x34
8010e370:	e2833603 	add	r3, r3, #3145728	; 0x300000
8010e374:	e5931024 	ldr	r1, [r3, #36]	; 0x24
8010e378:	e1110002 	tst	r1, r2
8010e37c:	0a000028 	beq	8010e424 <bcm283x_sd_write+0xe0>
8010e380:	e3a05902 	mov	r5, #32768	; 0x8000
8010e384:	e340517e 	movt	r5, #382	; 0x17e
8010e388:	ea000006 	b	8010e3a8 <bcm283x_sd_write+0x64>
8010e38c:	eb001eee 	bl	80115f4c <_delay>
8010e390:	e5943034 	ldr	r3, [r4, #52]	; 0x34
8010e394:	e3002402 	movw	r2, #1026	; 0x402
8010e398:	e2833603 	add	r3, r3, #3145728	; 0x300000
8010e39c:	e5931024 	ldr	r1, [r3, #36]	; 0x24
8010e3a0:	e1110002 	tst	r1, r2
8010e3a4:	0a00001e 	beq	8010e424 <bcm283x_sd_write+0xe0>
8010e3a8:	e5932030 	ldr	r2, [r3, #48]	; 0x30
8010e3ac:	e2831030 	add	r1, r3, #48	; 0x30
8010e3b0:	e3a00ffa 	mov	r0, #1000	; 0x3e8
8010e3b4:	e1120005 	tst	r2, r5
8010e3b8:	0afffff3 	beq	8010e38c <bcm283x_sd_write+0x48>
8010e3bc:	e5911000 	ldr	r1, [r1]
8010e3c0:	e3a02902 	mov	r2, #32768	; 0x8000
8010e3c4:	e340217e 	movt	r2, #382	; 0x17e
8010e3c8:	e1110002 	tst	r1, r2
8010e3cc:	1a000016 	bne	8010e42c <bcm283x_sd_write+0xe8>
8010e3d0:	e3a02c02 	mov	r2, #512	; 0x200
8010e3d4:	e3402001 	movt	r2, #1
8010e3d8:	e5832004 	str	r2, [r3, #4]
8010e3dc:	e59f31dc 	ldr	r3, [pc, #476]	; 8010e5c0 <bcm283x_sd_write+0x27c>
8010e3e0:	e7973003 	ldr	r3, [r7, r3]
8010e3e4:	e5933000 	ldr	r3, [r3]
8010e3e8:	e3130001 	tst	r3, #1
8010e3ec:	11a01008 	movne	r1, r8
8010e3f0:	01a01488 	lsleq	r1, r8, #9
8010e3f4:	13a00010 	movne	r0, #16
8010e3f8:	03a00010 	moveq	r0, #16
8010e3fc:	13410822 	movtne	r0, #6178	; 0x1822
8010e400:	03410822 	movteq	r0, #6178	; 0x1822
8010e404:	ebfffd10 	bl	8010d84c <sd_cmd>
8010e408:	e59f31b4 	ldr	r3, [pc, #436]	; 8010e5c4 <bcm283x_sd_write+0x280>
8010e40c:	e7975003 	ldr	r5, [r7, r3]
8010e410:	e5953000 	ldr	r3, [r5]
8010e414:	e3530000 	cmp	r3, #0
8010e418:	0a000009 	beq	8010e444 <bcm283x_sd_write+0x100>
8010e41c:	e3e00000 	mvn	r0, #0
8010e420:	e89dabf0 	ldm	sp, {r4, r5, r6, r7, r8, r9, fp, sp, pc}
8010e424:	e2831030 	add	r1, r3, #48	; 0x30
8010e428:	eaffffe3 	b	8010e3bc <bcm283x_sd_write+0x78>
8010e42c:	e59f3190 	ldr	r3, [pc, #400]	; 8010e5c4 <bcm283x_sd_write+0x280>
8010e430:	e3e02000 	mvn	r2, #0
8010e434:	e1a00002 	mov	r0, r2
8010e438:	e7973003 	ldr	r3, [r7, r3]
8010e43c:	e5832000 	str	r2, [r3]
8010e440:	e89dabf0 	ldm	sp, {r4, r5, r6, r7, r8, r9, fp, sp, pc}
8010e444:	e5943034 	ldr	r3, [r4, #52]	; 0x34
8010e448:	e3088010 	movw	r8, #32784	; 0x8010
8010e44c:	e340817e 	movt	r8, #382	; 0x17e
8010e450:	e2833603 	add	r3, r3, #3145728	; 0x300000
8010e454:	e2831030 	add	r1, r3, #48	; 0x30
8010e458:	e5932030 	ldr	r2, [r3, #48]	; 0x30
8010e45c:	e1120008 	tst	r2, r8
8010e460:	1a00004c 	bne	8010e598 <bcm283x_sd_write+0x254>
8010e464:	e302770f 	movw	r7, #9999	; 0x270f
8010e468:	ea000001 	b	8010e474 <bcm283x_sd_write+0x130>
8010e46c:	e2577001 	subs	r7, r7, #1
8010e470:	3a000042 	bcc	8010e580 <bcm283x_sd_write+0x23c>
8010e474:	e3a00ffa 	mov	r0, #1000	; 0x3e8
8010e478:	eb001eb3 	bl	80115f4c <_delay>
8010e47c:	e5943034 	ldr	r3, [r4, #52]	; 0x34
8010e480:	e2833603 	add	r3, r3, #3145728	; 0x300000
8010e484:	e2831030 	add	r1, r3, #48	; 0x30
8010e488:	e5933030 	ldr	r3, [r3, #48]	; 0x30
8010e48c:	e1130008 	tst	r3, r8
8010e490:	0afffff5 	beq	8010e46c <bcm283x_sd_write+0x128>
8010e494:	e5913000 	ldr	r3, [r1]
8010e498:	e3570000 	cmp	r7, #0
8010e49c:	0a000038 	beq	8010e584 <bcm283x_sd_write+0x240>
8010e4a0:	e3130811 	tst	r3, #1114112	; 0x110000
8010e4a4:	1a000036 	bne	8010e584 <bcm283x_sd_write+0x240>
8010e4a8:	e3a02902 	mov	r2, #32768	; 0x8000
8010e4ac:	e340217e 	movt	r2, #382	; 0x17e
8010e4b0:	e1130002 	tst	r3, r2
8010e4b4:	15813000 	strne	r3, [r1]
8010e4b8:	13e03001 	mvnne	r3, #1
8010e4bc:	1a000032 	bne	8010e58c <bcm283x_sd_write+0x248>
8010e4c0:	e2462004 	sub	r2, r6, #4
8010e4c4:	e2860f7f 	add	r0, r6, #508	; 0x1fc
8010e4c8:	e3a03010 	mov	r3, #16
8010e4cc:	e5813000 	str	r3, [r1]
8010e4d0:	e5943034 	ldr	r3, [r4, #52]	; 0x34
8010e4d4:	e5b21004 	ldr	r1, [r2, #4]!
8010e4d8:	e2833603 	add	r3, r3, #3145728	; 0x300000
8010e4dc:	e1520000 	cmp	r2, r0
8010e4e0:	e5831020 	str	r1, [r3, #32]
8010e4e4:	1afffff9 	bne	8010e4d0 <bcm283x_sd_write+0x18c>
8010e4e8:	e5943034 	ldr	r3, [r4, #52]	; 0x34
8010e4ec:	e3087002 	movw	r7, #32770	; 0x8002
8010e4f0:	e340717e 	movt	r7, #382	; 0x17e
8010e4f4:	e2833603 	add	r3, r3, #3145728	; 0x300000
8010e4f8:	e2832030 	add	r2, r3, #48	; 0x30
8010e4fc:	e5931030 	ldr	r1, [r3, #48]	; 0x30
8010e500:	e1110007 	tst	r1, r7
8010e504:	1a000025 	bne	8010e5a0 <bcm283x_sd_write+0x25c>
8010e508:	e302670f 	movw	r6, #9999	; 0x270f
8010e50c:	ea000001 	b	8010e518 <bcm283x_sd_write+0x1d4>
8010e510:	e2566001 	subs	r6, r6, #1
8010e514:	3a000023 	bcc	8010e5a8 <bcm283x_sd_write+0x264>
8010e518:	e3a00ffa 	mov	r0, #1000	; 0x3e8
8010e51c:	eb001e8a 	bl	80115f4c <_delay>
8010e520:	e5943034 	ldr	r3, [r4, #52]	; 0x34
8010e524:	e2833603 	add	r3, r3, #3145728	; 0x300000
8010e528:	e2832030 	add	r2, r3, #48	; 0x30
8010e52c:	e5933030 	ldr	r3, [r3, #48]	; 0x30
8010e530:	e1130007 	tst	r3, r7
8010e534:	0afffff5 	beq	8010e510 <bcm283x_sd_write+0x1cc>
8010e538:	e5923000 	ldr	r3, [r2]
8010e53c:	e3560000 	cmp	r6, #0
8010e540:	0a000019 	beq	8010e5ac <bcm283x_sd_write+0x268>
8010e544:	e3130811 	tst	r3, #1114112	; 0x110000
8010e548:	1a000017 	bne	8010e5ac <bcm283x_sd_write+0x268>
8010e54c:	e3a01902 	mov	r1, #32768	; 0x8000
8010e550:	e340117e 	movt	r1, #382	; 0x17e
8010e554:	e1130001 	tst	r3, r1
8010e558:	15823000 	strne	r3, [r2]
8010e55c:	13e03001 	mvnne	r3, #1
8010e560:	1a000009 	bne	8010e58c <bcm283x_sd_write+0x248>
8010e564:	e3a03002 	mov	r3, #2
8010e568:	e5823000 	str	r3, [r2]
8010e56c:	e5950000 	ldr	r0, [r5]
8010e570:	e2500000 	subs	r0, r0, #0
8010e574:	13a00001 	movne	r0, #1
8010e578:	e2600000 	rsb	r0, r0, #0
8010e57c:	e89dabf0 	ldm	sp, {r4, r5, r6, r7, r8, r9, fp, sp, pc}
8010e580:	e5913000 	ldr	r3, [r1]
8010e584:	e5813000 	str	r3, [r1]
8010e588:	e3e03000 	mvn	r3, #0
8010e58c:	e5853000 	str	r3, [r5]
8010e590:	e3e00000 	mvn	r0, #0
8010e594:	e89dabf0 	ldm	sp, {r4, r5, r6, r7, r8, r9, fp, sp, pc}
8010e598:	e5933030 	ldr	r3, [r3, #48]	; 0x30
8010e59c:	eaffffbf 	b	8010e4a0 <bcm283x_sd_write+0x15c>
8010e5a0:	e5933030 	ldr	r3, [r3, #48]	; 0x30
8010e5a4:	eaffffe6 	b	8010e544 <bcm283x_sd_write+0x200>
8010e5a8:	e5923000 	ldr	r3, [r2]
8010e5ac:	e5823000 	str	r3, [r2]
8010e5b0:	e3e03000 	mvn	r3, #0
8010e5b4:	eafffff4 	b	8010e58c <bcm283x_sd_write+0x248>
8010e5b8:	00009d08 	andeq	r9, r0, r8, lsl #26
8010e5bc:	00000058 	andeq	r0, r0, r8, asr r0
8010e5c0:	00000034 	andeq	r0, r0, r4, lsr r0
8010e5c4:	00000028 	andeq	r0, r0, r8, lsr #32

8010e5c8 <bcm283x_sd_write_done>:
8010e5c8:	e3a00000 	mov	r0, #0
8010e5cc:	e12fff1e 	bx	lr

8010e5d0 <mailbox_read>:
8010e5d0:	e3a02a0b 	mov	r2, #45056	; 0xb000
8010e5d4:	e34c2000 	movt	r2, #49152	; 0xc000
8010e5d8:	e5923898 	ldr	r3, [r2, #2200]	; 0x898
8010e5dc:	e3130101 	tst	r3, #1073741824	; 0x40000000
8010e5e0:	1afffffc 	bne	8010e5d8 <mailbox_read+0x8>
8010e5e4:	e5923880 	ldr	r3, [r2, #2176]	; 0x880
8010e5e8:	e5813000 	str	r3, [r1]
8010e5ec:	e203300f 	and	r3, r3, #15
8010e5f0:	e1530000 	cmp	r3, r0
8010e5f4:	1afffff7 	bne	8010e5d8 <mailbox_read+0x8>
8010e5f8:	e12fff1e 	bx	lr

8010e5fc <mailbox_send>:
8010e5fc:	e5d13000 	ldrb	r3, [r1]
8010e600:	e3a02a0b 	mov	r2, #45056	; 0xb000
8010e604:	e34c2000 	movt	r2, #49152	; 0xc000
8010e608:	e7c33010 	bfi	r3, r0, #0, #4
8010e60c:	e5c13000 	strb	r3, [r1]
8010e610:	e5923898 	ldr	r3, [r2, #2200]	; 0x898
8010e614:	e3530000 	cmp	r3, #0
8010e618:	bafffffc 	blt	8010e610 <mailbox_send+0x14>
8010e61c:	e5913000 	ldr	r3, [r1]
8010e620:	e58238a0 	str	r3, [r2, #2208]	; 0x8a0
8010e624:	e12fff1e 	bx	lr

8010e628 <pl011_uart_init>:
8010e628:	e59f30d8 	ldr	r3, [pc, #216]	; 8010e708 <pl011_uart_init+0xe0>
8010e62c:	e1a0c00d 	mov	ip, sp
8010e630:	e59f20d4 	ldr	r2, [pc, #212]	; 8010e70c <pl011_uart_init+0xe4>
8010e634:	e3a00096 	mov	r0, #150	; 0x96
8010e638:	e08f3003 	add	r3, pc, r3
8010e63c:	e92dd8f0 	push	{r4, r5, r6, r7, fp, ip, lr, pc}
8010e640:	e3016030 	movw	r6, #4144	; 0x1030
8010e644:	e3406020 	movt	r6, #32
8010e648:	e3a05000 	mov	r5, #0
8010e64c:	e7934002 	ldr	r4, [r3, r2]
8010e650:	e24cb004 	sub	fp, ip, #4
8010e654:	e5943034 	ldr	r3, [r4, #52]	; 0x34
8010e658:	e7835006 	str	r5, [r3, r6]
8010e65c:	e5943034 	ldr	r3, [r4, #52]	; 0x34
8010e660:	e2833602 	add	r3, r3, #2097152	; 0x200000
8010e664:	e5835094 	str	r5, [r3, #148]	; 0x94
8010e668:	eb001e37 	bl	80115f4c <_delay>
8010e66c:	e5943034 	ldr	r3, [r4, #52]	; 0x34
8010e670:	e3a02903 	mov	r2, #49152	; 0xc000
8010e674:	e3a00096 	mov	r0, #150	; 0x96
8010e678:	e2833602 	add	r3, r3, #2097152	; 0x200000
8010e67c:	e5832098 	str	r2, [r3, #152]	; 0x98
8010e680:	eb001e31 	bl	80115f4c <_delay>
8010e684:	e5943034 	ldr	r3, [r4, #52]	; 0x34
8010e688:	e3012044 	movw	r2, #4164	; 0x1044
8010e68c:	e3402020 	movt	r2, #32
8010e690:	e2833602 	add	r3, r3, #2097152	; 0x200000
8010e694:	e30017ff 	movw	r1, #2047	; 0x7ff
8010e698:	e1a00005 	mov	r0, r5
8010e69c:	e5835098 	str	r5, [r3, #152]	; 0x98
8010e6a0:	e5943034 	ldr	r3, [r4, #52]	; 0x34
8010e6a4:	e7831002 	str	r1, [r3, r2]
8010e6a8:	e3013024 	movw	r3, #4132	; 0x1024
8010e6ac:	e3403020 	movt	r3, #32
8010e6b0:	e3a01001 	mov	r1, #1
8010e6b4:	e5942034 	ldr	r2, [r4, #52]	; 0x34
8010e6b8:	e7821003 	str	r1, [r2, r3]
8010e6bc:	e3013028 	movw	r3, #4136	; 0x1028
8010e6c0:	e3403020 	movt	r3, #32
8010e6c4:	e3a01028 	mov	r1, #40	; 0x28
8010e6c8:	e5942034 	ldr	r2, [r4, #52]	; 0x34
8010e6cc:	e7821003 	str	r1, [r2, r3]
8010e6d0:	e301302c 	movw	r3, #4140	; 0x102c
8010e6d4:	e3403020 	movt	r3, #32
8010e6d8:	e3a01070 	mov	r1, #112	; 0x70
8010e6dc:	e5942034 	ldr	r2, [r4, #52]	; 0x34
8010e6e0:	e7821003 	str	r1, [r2, r3]
8010e6e4:	e3013038 	movw	r3, #4152	; 0x1038
8010e6e8:	e3403020 	movt	r3, #32
8010e6ec:	e30017f2 	movw	r1, #2034	; 0x7f2
8010e6f0:	e5942034 	ldr	r2, [r4, #52]	; 0x34
8010e6f4:	e7821003 	str	r1, [r2, r3]
8010e6f8:	e3002301 	movw	r2, #769	; 0x301
8010e6fc:	e5943034 	ldr	r3, [r4, #52]	; 0x34
8010e700:	e7832006 	str	r2, [r3, r6]
8010e704:	e89da8f0 	ldm	sp, {r4, r5, r6, r7, fp, sp, pc}
8010e708:	00009a28 	andeq	r9, r0, r8, lsr #20
8010e70c:	00000058 	andeq	r0, r0, r8, asr r0

8010e710 <pl011_uart_write>:
8010e710:	e59f206c 	ldr	r2, [pc, #108]	; 8010e784 <pl011_uart_write+0x74>
8010e714:	e92d4070 	push	{r4, r5, r6, lr}
8010e718:	e1a0e000 	mov	lr, r0
8010e71c:	e08f2002 	add	r2, pc, r2
8010e720:	e2510000 	subs	r0, r1, #0
8010e724:	da000014 	ble	8010e77c <pl011_uart_write+0x6c>
8010e728:	e59f3058 	ldr	r3, [pc, #88]	; 8010e788 <pl011_uart_write+0x78>
8010e72c:	e08e4000 	add	r4, lr, r0
8010e730:	e3016018 	movw	r6, #4120	; 0x1018
8010e734:	e3406020 	movt	r6, #32
8010e738:	e24ee001 	sub	lr, lr, #1
8010e73c:	e2444001 	sub	r4, r4, #1
8010e740:	e7925003 	ldr	r5, [r2, r3]
8010e744:	e5951034 	ldr	r1, [r5, #52]	; 0x34
8010e748:	e5fec001 	ldrb	ip, [lr, #1]!
8010e74c:	e0812006 	add	r2, r1, r6
8010e750:	e5923000 	ldr	r3, [r2]
8010e754:	e3130020 	tst	r3, #32
8010e758:	1afffffc 	bne	8010e750 <pl011_uart_write+0x40>
8010e75c:	e2813602 	add	r3, r1, #2097152	; 0x200000
8010e760:	e35c000d 	cmp	ip, #13
8010e764:	e2833a01 	add	r3, r3, #4096	; 0x1000
8010e768:	03a0c00a 	moveq	ip, #10
8010e76c:	e154000e 	cmp	r4, lr
8010e770:	e583c000 	str	ip, [r3]
8010e774:	1afffff2 	bne	8010e744 <pl011_uart_write+0x34>
8010e778:	e8bd8070 	pop	{r4, r5, r6, pc}
8010e77c:	e3a00000 	mov	r0, #0
8010e780:	e8bd8070 	pop	{r4, r5, r6, pc}
8010e784:	00009944 	andeq	r9, r0, r4, asr #18
8010e788:	00000058 	andeq	r0, r0, r8, asr r0

8010e78c <mini_uart_init>:
8010e78c:	e59f30c4 	ldr	r3, [pc, #196]	; 8010e858 <mini_uart_init+0xcc>
8010e790:	e1a0c00d 	mov	ip, sp
8010e794:	e59f20c0 	ldr	r2, [pc, #192]	; 8010e85c <mini_uart_init+0xd0>
8010e798:	e3a0000e 	mov	r0, #14
8010e79c:	e08f3003 	add	r3, pc, r3
8010e7a0:	e92dd8f0 	push	{r4, r5, r6, r7, fp, ip, lr, pc}
8010e7a4:	e3054040 	movw	r4, #20544	; 0x5040
8010e7a8:	e3404021 	movt	r4, #33	; 0x21
8010e7ac:	e3a07003 	mov	r7, #3
8010e7b0:	e7935002 	ldr	r5, [r3, r2]
8010e7b4:	e3a06000 	mov	r6, #0
8010e7b8:	e24cb004 	sub	fp, ip, #4
8010e7bc:	e1a01006 	mov	r1, r6
8010e7c0:	e5953034 	ldr	r3, [r5, #52]	; 0x34
8010e7c4:	e3833985 	orr	r3, r3, #2179072	; 0x214000
8010e7c8:	e3833a01 	orr	r3, r3, #4096	; 0x1000
8010e7cc:	e5932004 	ldr	r2, [r3, #4]
8010e7d0:	e3822001 	orr	r2, r2, #1
8010e7d4:	e5832004 	str	r2, [r3, #4]
8010e7d8:	e300210e 	movw	r2, #270	; 0x10e
8010e7dc:	e5953034 	ldr	r3, [r5, #52]	; 0x34
8010e7e0:	e1833004 	orr	r3, r3, r4
8010e7e4:	e583700c 	str	r7, [r3, #12]
8010e7e8:	e5953034 	ldr	r3, [r5, #52]	; 0x34
8010e7ec:	e1833004 	orr	r3, r3, r4
8010e7f0:	e5836010 	str	r6, [r3, #16]
8010e7f4:	e5953034 	ldr	r3, [r5, #52]	; 0x34
8010e7f8:	e1833004 	orr	r3, r3, r4
8010e7fc:	e5836004 	str	r6, [r3, #4]
8010e800:	e5953034 	ldr	r3, [r5, #52]	; 0x34
8010e804:	e1833004 	orr	r3, r3, r4
8010e808:	e5832028 	str	r2, [r3, #40]	; 0x28
8010e80c:	ebfffb49 	bl	8010d538 <gpio_pull>
8010e810:	e1a01006 	mov	r1, r6
8010e814:	e3a0000f 	mov	r0, #15
8010e818:	ebfffb46 	bl	8010d538 <gpio_pull>
8010e81c:	e3a01002 	mov	r1, #2
8010e820:	e3a0000e 	mov	r0, #14
8010e824:	ebfffb2c 	bl	8010d4dc <gpio_config>
8010e828:	e3a0000f 	mov	r0, #15
8010e82c:	e3a01002 	mov	r1, #2
8010e830:	ebfffb29 	bl	8010d4dc <gpio_config>
8010e834:	e5953034 	ldr	r3, [r5, #52]	; 0x34
8010e838:	e3a020c6 	mov	r2, #198	; 0xc6
8010e83c:	e1a00006 	mov	r0, r6
8010e840:	e1833004 	orr	r3, r3, r4
8010e844:	e5832008 	str	r2, [r3, #8]
8010e848:	e5953034 	ldr	r3, [r5, #52]	; 0x34
8010e84c:	e1834004 	orr	r4, r3, r4
8010e850:	e5847020 	str	r7, [r4, #32]
8010e854:	e89da8f0 	ldm	sp, {r4, r5, r6, r7, fp, sp, pc}
8010e858:	000098c4 	andeq	r9, r0, r4, asr #17
8010e85c:	00000058 	andeq	r0, r0, r8, asr r0

8010e860 <mini_uart_write>:
8010e860:	e59f2068 	ldr	r2, [pc, #104]	; 8010e8d0 <mini_uart_write+0x70>
8010e864:	e92d4070 	push	{r4, r5, r6, lr}
8010e868:	e1a0e000 	mov	lr, r0
8010e86c:	e08f2002 	add	r2, pc, r2
8010e870:	e2510000 	subs	r0, r1, #0
8010e874:	da000013 	ble	8010e8c8 <mini_uart_write+0x68>
8010e878:	e59f3054 	ldr	r3, [pc, #84]	; 8010e8d4 <mini_uart_write+0x74>
8010e87c:	e08e4000 	add	r4, lr, r0
8010e880:	e3056040 	movw	r6, #20544	; 0x5040
8010e884:	e3406021 	movt	r6, #33	; 0x21
8010e888:	e24ee001 	sub	lr, lr, #1
8010e88c:	e2444001 	sub	r4, r4, #1
8010e890:	e7925003 	ldr	r5, [r2, r3]
8010e894:	e5951034 	ldr	r1, [r5, #52]	; 0x34
8010e898:	e5fec001 	ldrb	ip, [lr, #1]!
8010e89c:	e1811006 	orr	r1, r1, r6
8010e8a0:	e2812014 	add	r2, r1, #20
8010e8a4:	e5923000 	ldr	r3, [r2]
8010e8a8:	e3130020 	tst	r3, #32
8010e8ac:	0afffffc 	beq	8010e8a4 <mini_uart_write+0x44>
8010e8b0:	e35c000d 	cmp	ip, #13
8010e8b4:	03a0c00a 	moveq	ip, #10
8010e8b8:	e154000e 	cmp	r4, lr
8010e8bc:	e581c000 	str	ip, [r1]
8010e8c0:	1afffff3 	bne	8010e894 <mini_uart_write+0x34>
8010e8c4:	e8bd8070 	pop	{r4, r5, r6, pc}
8010e8c8:	e3a00000 	mov	r0, #0
8010e8cc:	e8bd8070 	pop	{r4, r5, r6, pc}
8010e8d0:	000097f4 	strdeq	r9, [r0], -r4
8010e8d4:	00000058 	andeq	r0, r0, r8, asr r0

8010e8d8 <bcm283x_board>:
8010e8d8:	e1a0c00d 	mov	ip, sp
8010e8dc:	e92dd830 	push	{r4, r5, fp, ip, lr, pc}
8010e8e0:	e59f4088 	ldr	r4, [pc, #136]	; 8010e970 <bcm283x_board+0x98>
8010e8e4:	e24cb004 	sub	fp, ip, #4
8010e8e8:	e24dd008 	sub	sp, sp, #8
8010e8ec:	e08f4004 	add	r4, pc, r4
8010e8f0:	e24b5018 	sub	r5, fp, #24
8010e8f4:	e1a00004 	mov	r0, r4
8010e8f8:	e3a02018 	mov	r2, #24
8010e8fc:	e3a01000 	mov	r1, #0
8010e900:	eb000129 	bl	8010edac <memset>
8010e904:	e3a01000 	mov	r1, #0
8010e908:	e3a02004 	mov	r2, #4
8010e90c:	e5841004 	str	r1, [r4, #4]
8010e910:	e5841014 	str	r1, [r4, #20]
8010e914:	e1a00005 	mov	r0, r5
8010e918:	e584200c 	str	r2, [r4, #12]
8010e91c:	e3a03018 	mov	r3, #24
8010e920:	e5842010 	str	r2, [r4, #16]
8010e924:	e5843000 	str	r3, [r4]
8010e928:	e3a03002 	mov	r3, #2
8010e92c:	e3403001 	movt	r3, #1
8010e930:	e5843008 	str	r3, [r4, #8]
8010e934:	eb00011c 	bl	8010edac <memset>
8010e938:	e2843101 	add	r3, r4, #1073741824	; 0x40000000
8010e93c:	e51b2018 	ldr	r2, [fp, #-24]	; 0xffffffe8
8010e940:	e1a01005 	mov	r1, r5
8010e944:	e1a03223 	lsr	r3, r3, #4
8010e948:	e3a00008 	mov	r0, #8
8010e94c:	e7df2213 	bfi	r2, r3, #4, #28
8010e950:	e50b2018 	str	r2, [fp, #-24]	; 0xffffffe8
8010e954:	ebffff28 	bl	8010e5fc <mailbox_send>
8010e958:	e1a01005 	mov	r1, r5
8010e95c:	e3a00008 	mov	r0, #8
8010e960:	ebffff1a 	bl	8010e5d0 <mailbox_read>
8010e964:	e5940014 	ldr	r0, [r4, #20]
8010e968:	e24bd014 	sub	sp, fp, #20
8010e96c:	e89da830 	ldm	sp, {r4, r5, fp, sp, pc}
8010e970:	0000dd9c 	muleq	r0, ip, sp

8010e974 <fb_init_raw>:
8010e974:	e1a0c00d 	mov	ip, sp
8010e978:	e92ddff0 	push	{r4, r5, r6, r7, r8, r9, sl, fp, ip, lr, pc}
8010e97c:	e59f6170 	ldr	r6, [pc, #368]	; 8010eaf4 <fb_init_raw+0x180>
8010e980:	e59f5170 	ldr	r5, [pc, #368]	; 8010eaf8 <fb_init_raw+0x184>
8010e984:	e24cb004 	sub	fp, ip, #4
8010e988:	e08f6006 	add	r6, pc, r6
8010e98c:	e24dd01c 	sub	sp, sp, #28
8010e990:	e08f5005 	add	r5, pc, r5
8010e994:	e2464eff 	sub	r4, r6, #4080	; 0xff0
8010e998:	e1a03002 	mov	r3, r2
8010e99c:	e1a09001 	mov	r9, r1
8010e9a0:	e1a0a000 	mov	sl, r0
8010e9a4:	e2444008 	sub	r4, r4, #8
8010e9a8:	e3a0202c 	mov	r2, #44	; 0x2c
8010e9ac:	e3a01000 	mov	r1, #0
8010e9b0:	e1a00005 	mov	r0, r5
8010e9b4:	e50b3038 	str	r3, [fp, #-56]	; 0xffffffc8
8010e9b8:	e24b8030 	sub	r8, fp, #48	; 0x30
8010e9bc:	eb0000fa 	bl	8010edac <memset>
8010e9c0:	e1a00004 	mov	r0, r4
8010e9c4:	e3a02028 	mov	r2, #40	; 0x28
8010e9c8:	e3a01000 	mov	r1, #0
8010e9cc:	eb0000f6 	bl	8010edac <memset>
8010e9d0:	e3a01000 	mov	r1, #0
8010e9d4:	e3a02004 	mov	r2, #4
8010e9d8:	e1a00008 	mov	r0, r8
8010e9dc:	eb0000f2 	bl	8010edac <memset>
8010e9e0:	e59f7114 	ldr	r7, [pc, #276]	; 8010eafc <fb_init_raw+0x188>
8010e9e4:	e51b3038 	ldr	r3, [fp, #-56]	; 0xffffffc8
8010e9e8:	e5063fe4 	str	r3, [r6, #-4068]	; 0xfffff01c
8010e9ec:	e08f7007 	add	r7, pc, r7
8010e9f0:	e59f3108 	ldr	r3, [pc, #264]	; 8010eb00 <fb_init_raw+0x18c>
8010e9f4:	e506aff8 	str	sl, [r6, #-4088]	; 0xfffff008
8010e9f8:	e506aff0 	str	sl, [r6, #-4080]	; 0xfffff010
8010e9fc:	e5069ff4 	str	r9, [r6, #-4084]	; 0xfffff00c
8010ea00:	e5069fec 	str	r9, [r6, #-4076]	; 0xfffff014
8010ea04:	e7979003 	ldr	r9, [r7, r3]
8010ea08:	e51b3030 	ldr	r3, [fp, #-48]	; 0xffffffd0
8010ea0c:	e5992024 	ldr	r2, [r9, #36]	; 0x24
8010ea10:	e0844002 	add	r4, r4, r2
8010ea14:	e2844102 	add	r4, r4, #-2147483648	; 0x80000000
8010ea18:	e1a04224 	lsr	r4, r4, #4
8010ea1c:	e3844303 	orr	r4, r4, #201326592	; 0xc000000
8010ea20:	e7df3214 	bfi	r3, r4, #4, #28
8010ea24:	e50b3030 	str	r3, [fp, #-48]	; 0xffffffd0
8010ea28:	eb001d6b 	bl	80115fdc <flush_dcache>
8010ea2c:	e1a01008 	mov	r1, r8
8010ea30:	e3a00001 	mov	r0, #1
8010ea34:	ebfffef0 	bl	8010e5fc <mailbox_send>
8010ea38:	e1a01008 	mov	r1, r8
8010ea3c:	e3a00001 	mov	r0, #1
8010ea40:	ebfffee2 	bl	8010e5d0 <mailbox_read>
8010ea44:	e5161fd8 	ldr	r1, [r6, #-4056]	; 0xfffff028
8010ea48:	e3510000 	cmp	r1, #0
8010ea4c:	0a000026 	beq	8010eaec <fb_init_raw+0x178>
8010ea50:	e5163fe4 	ldr	r3, [r6, #-4068]	; 0xfffff01c
8010ea54:	e3c11103 	bic	r1, r1, #-1073741824	; 0xc0000000
8010ea58:	e5162ff8 	ldr	r2, [r6, #-4088]	; 0xfffff008
8010ea5c:	e3a04000 	mov	r4, #0
8010ea60:	e5853014 	str	r3, [r5, #20]
8010ea64:	e1a031a3 	lsr	r3, r3, #3
8010ea68:	e5990028 	ldr	r0, [r9, #40]	; 0x28
8010ea6c:	e5852000 	str	r2, [r5]
8010ea70:	e5852008 	str	r2, [r5, #8]
8010ea74:	e0030392 	mul	r3, r2, r3
8010ea78:	e5992024 	ldr	r2, [r9, #36]	; 0x24
8010ea7c:	e5853010 	str	r3, [r5, #16]
8010ea80:	e5993020 	ldr	r3, [r9, #32]
8010ea84:	e516cff4 	ldr	ip, [r6, #-4084]	; 0xfffff00c
8010ea88:	e0833000 	add	r3, r3, r0
8010ea8c:	e2620102 	rsb	r0, r2, #-2147483648	; 0x80000000
8010ea90:	e0811000 	add	r1, r1, r0
8010ea94:	e59f0068 	ldr	r0, [pc, #104]	; 8010eb04 <fb_init_raw+0x190>
8010ea98:	e516efd4 	ldr	lr, [r6, #-4052]	; 0xfffff02c
8010ea9c:	e0433001 	sub	r3, r3, r1
8010eaa0:	e5851020 	str	r1, [r5, #32]
8010eaa4:	e2822102 	add	r2, r2, #-2147483648	; 0x80000000
8010eaa8:	e5853028 	str	r3, [r5, #40]	; 0x28
8010eaac:	e0822001 	add	r2, r2, r1
8010eab0:	e585e024 	str	lr, [r5, #36]	; 0x24
8010eab4:	e585c004 	str	ip, [r5, #4]
8010eab8:	e585c00c 	str	ip, [r5, #12]
8010eabc:	e5854018 	str	r4, [r5, #24]
8010eac0:	e585401c 	str	r4, [r5, #28]
8010eac4:	e797c000 	ldr	ip, [r7, r0]
8010eac8:	e3a00001 	mov	r0, #1
8010eacc:	e58d0004 	str	r0, [sp, #4]
8010ead0:	e58d0000 	str	r0, [sp]
8010ead4:	e59c0000 	ldr	r0, [ip]
8010ead8:	eb000e5d 	bl	80112454 <map_pages_size>
8010eadc:	eb001d3f 	bl	80115fe0 <flush_tlb>
8010eae0:	e1a00004 	mov	r0, r4
8010eae4:	e24bd028 	sub	sp, fp, #40	; 0x28
8010eae8:	e89daff0 	ldm	sp, {r4, r5, r6, r7, r8, r9, sl, fp, sp, pc}
8010eaec:	e3e00000 	mvn	r0, #0
8010eaf0:	eafffffb 	b	8010eae4 <fb_init_raw+0x170>
8010eaf4:	00010668 	andeq	r0, r1, r8, ror #12
8010eaf8:	0000e668 	andeq	lr, r0, r8, ror #12
8010eafc:	00009674 	andeq	r9, r0, r4, ror r6
8010eb00:	00000058 	andeq	r0, r0, r8, asr r0
8010eb04:	00000018 	andeq	r0, r0, r8, lsl r0

8010eb08 <bcm283x_fb_init>:
8010eb08:	e1a0c00d 	mov	ip, sp
8010eb0c:	e92dd800 	push	{fp, ip, lr, pc}
8010eb10:	e24cb004 	sub	fp, ip, #4
8010eb14:	ebffff96 	bl	8010e974 <fb_init_raw>
8010eb18:	e2500000 	subs	r0, r0, #0
8010eb1c:	13a00001 	movne	r0, #1
8010eb20:	e2600000 	rsb	r0, r0, #0
8010eb24:	e89da800 	ldm	sp, {fp, sp, pc}

8010eb28 <bcm283x_get_fbinfo>:
8010eb28:	e59f0004 	ldr	r0, [pc, #4]	; 8010eb34 <bcm283x_get_fbinfo+0xc>
8010eb2c:	e08f0000 	add	r0, pc, r0
8010eb30:	e12fff1e 	bx	lr
8010eb34:	0000e4cc 	andeq	lr, r0, ip, asr #9

8010eb38 <ipi_enable>:
8010eb38:	e3a01000 	mov	r1, #0
8010eb3c:	eafff9a0 	b	8010d1c4 <gic_irq_enable>

8010eb40 <ipi_send>:
8010eb40:	e3a01000 	mov	r1, #0
8010eb44:	eafff9cb 	b	8010d278 <gic_gen_soft_irq>

8010eb48 <ipi_clear>:
8010eb48:	e12fff1e 	bx	lr

8010eb4c <cpu_core_ready>:
8010eb4c:	e1a0c00d 	mov	ip, sp
8010eb50:	e92dd830 	push	{r4, r5, fp, ip, lr, pc}
8010eb54:	e24cb004 	sub	fp, ip, #4
8010eb58:	e1a04000 	mov	r4, r0
8010eb5c:	e3a00902 	mov	r0, #32768	; 0x8000
8010eb60:	e34c0013 	movt	r0, #49171	; 0xc013
8010eb64:	ebfff957 	bl	8010d0c8 <gic_init>
8010eb68:	e1a00004 	mov	r0, r4
8010eb6c:	e3a01000 	mov	r1, #0
8010eb70:	ebfff993 	bl	8010d1c4 <gic_irq_enable>
8010eb74:	e24bd014 	sub	sp, fp, #20
8010eb78:	e89d6830 	ldm	sp, {r4, r5, fp, sp, lr}
8010eb7c:	eafff745 	b	8010c898 <__irq_enable>

8010eb80 <get_cpu_cores>:
8010eb80:	e3a00004 	mov	r0, #4
8010eb84:	e12fff1e 	bx	lr

8010eb88 <strstr_bmh>:
8010eb88:	e92d47f0 	push	{r4, r5, r6, r7, r8, r9, sl, lr}
8010eb8c:	e2514000 	subs	r4, r1, #0
8010eb90:	e24ddb01 	sub	sp, sp, #1024	; 0x400
8010eb94:	e5d4c000 	ldrb	ip, [r4]
8010eb98:	0a000049 	beq	8010ecc4 <strstr_bmh+0x13c>
8010eb9c:	e35c0000 	cmp	ip, #0
8010eba0:	0a000051 	beq	8010ecec <strstr_bmh+0x164>
8010eba4:	e1a03004 	mov	r3, r4
8010eba8:	e2641001 	rsb	r1, r4, #1
8010ebac:	e0815003 	add	r5, r1, r3
8010ebb0:	e5f32001 	ldrb	r2, [r3, #1]!
8010ebb4:	e3520000 	cmp	r2, #0
8010ebb8:	1afffffb 	bne	8010ebac <strstr_bmh+0x24>
8010ebbc:	e1a02005 	mov	r2, r5
8010ebc0:	e3500000 	cmp	r0, #0
8010ebc4:	0a000046 	beq	8010ece4 <strstr_bmh+0x15c>
8010ebc8:	e5d06000 	ldrb	r6, [r0]
8010ebcc:	e3560000 	cmp	r6, #0
8010ebd0:	0a000007 	beq	8010ebf4 <strstr_bmh+0x6c>
8010ebd4:	e1a03000 	mov	r3, r0
8010ebd8:	e260e001 	rsb	lr, r0, #1
8010ebdc:	e08e6003 	add	r6, lr, r3
8010ebe0:	e5f31001 	ldrb	r1, [r3, #1]!
8010ebe4:	e3510000 	cmp	r1, #0
8010ebe8:	1afffffb 	bne	8010ebdc <strstr_bmh+0x54>
8010ebec:	e35c0000 	cmp	ip, #0
8010ebf0:	0a000031 	beq	8010ecbc <strstr_bmh+0x134>
8010ebf4:	e24d3004 	sub	r3, sp, #4
8010ebf8:	e28d1fff 	add	r1, sp, #1020	; 0x3fc
8010ebfc:	e5a32004 	str	r2, [r3, #4]!
8010ec00:	e1530001 	cmp	r3, r1
8010ec04:	1afffffc 	bne	8010ebfc <strstr_bmh+0x74>
8010ec08:	e2427001 	sub	r7, r2, #1
8010ec0c:	e3570000 	cmp	r7, #0
8010ec10:	da00000c 	ble	8010ec48 <strstr_bmh+0xc0>
8010ec14:	e2448002 	sub	r8, r4, #2
8010ec18:	e244e001 	sub	lr, r4, #1
8010ec1c:	e0888002 	add	r8, r8, r2
8010ec20:	e08ee002 	add	lr, lr, r2
8010ec24:	e1a03004 	mov	r3, r4
8010ec28:	ea000000 	b	8010ec30 <strstr_bmh+0xa8>
8010ec2c:	e5f3c001 	ldrb	ip, [r3, #1]!
8010ec30:	e28d1b01 	add	r1, sp, #1024	; 0x400
8010ec34:	e1530008 	cmp	r3, r8
8010ec38:	e081c10c 	add	ip, r1, ip, lsl #2
8010ec3c:	e04e1003 	sub	r1, lr, r3
8010ec40:	e50c1400 	str	r1, [ip, #-1024]	; 0xfffffc00
8010ec44:	1afffff8 	bne	8010ec2c <strstr_bmh+0xa4>
8010ec48:	e1560002 	cmp	r6, r2
8010ec4c:	ba000019 	blt	8010ecb8 <strstr_bmh+0x130>
8010ec50:	e7d49007 	ldrb	r9, [r4, r7]
8010ec54:	e242a002 	sub	sl, r2, #2
8010ec58:	e2648001 	rsb	r8, r4, #1
8010ec5c:	e7d03007 	ldrb	r3, [r0, r7]
8010ec60:	e1530009 	cmp	r3, r9
8010ec64:	1a00000a 	bne	8010ec94 <strstr_bmh+0x10c>
8010ec68:	e3570000 	cmp	r7, #0
8010ec6c:	0a000012 	beq	8010ecbc <strstr_bmh+0x134>
8010ec70:	e084300a 	add	r3, r4, sl
8010ec74:	e0801007 	add	r1, r0, r7
8010ec78:	ea000001 	b	8010ec84 <strstr_bmh+0xfc>
8010ec7c:	e1780003 	cmn	r8, r3
8010ec80:	0a00000d 	beq	8010ecbc <strstr_bmh+0x134>
8010ec84:	e453c001 	ldrb	ip, [r3], #-1
8010ec88:	e571e001 	ldrb	lr, [r1, #-1]!
8010ec8c:	e15e000c 	cmp	lr, ip
8010ec90:	0afffff9 	beq	8010ec7c <strstr_bmh+0xf4>
8010ec94:	e0803005 	add	r3, r0, r5
8010ec98:	e28d1b01 	add	r1, sp, #1024	; 0x400
8010ec9c:	e5533001 	ldrb	r3, [r3, #-1]
8010eca0:	e0813103 	add	r3, r1, r3, lsl #2
8010eca4:	e5133400 	ldr	r3, [r3, #-1024]	; 0xfffffc00
8010eca8:	e0466003 	sub	r6, r6, r3
8010ecac:	e0800003 	add	r0, r0, r3
8010ecb0:	e1560002 	cmp	r6, r2
8010ecb4:	aaffffe8 	bge	8010ec5c <strstr_bmh+0xd4>
8010ecb8:	e3a00000 	mov	r0, #0
8010ecbc:	e28ddb01 	add	sp, sp, #1024	; 0x400
8010ecc0:	e8bd87f0 	pop	{r4, r5, r6, r7, r8, r9, sl, pc}
8010ecc4:	e3500000 	cmp	r0, #0
8010ecc8:	0a00000f 	beq	8010ed0c <strstr_bmh+0x184>
8010eccc:	e5d03000 	ldrb	r3, [r0]
8010ecd0:	e3530000 	cmp	r3, #0
8010ecd4:	0a000010 	beq	8010ed1c <strstr_bmh+0x194>
8010ecd8:	e1a05004 	mov	r5, r4
8010ecdc:	e1a02004 	mov	r2, r4
8010ece0:	eaffffbb 	b	8010ebd4 <strstr_bmh+0x4c>
8010ece4:	e1a06000 	mov	r6, r0
8010ece8:	eaffffc1 	b	8010ebf4 <strstr_bmh+0x6c>
8010ecec:	e3500000 	cmp	r0, #0
8010ecf0:	0afffff1 	beq	8010ecbc <strstr_bmh+0x134>
8010ecf4:	e5d03000 	ldrb	r3, [r0]
8010ecf8:	e3530000 	cmp	r3, #0
8010ecfc:	11a0500c 	movne	r5, ip
8010ed00:	11a0200c 	movne	r2, ip
8010ed04:	1affffb2 	bne	8010ebd4 <strstr_bmh+0x4c>
8010ed08:	eaffffeb 	b	8010ecbc <strstr_bmh+0x134>
8010ed0c:	e1a06000 	mov	r6, r0
8010ed10:	e1a05000 	mov	r5, r0
8010ed14:	e1a02000 	mov	r2, r0
8010ed18:	eaffffb3 	b	8010ebec <strstr_bmh+0x64>
8010ed1c:	e1a06004 	mov	r6, r4
8010ed20:	e1a05004 	mov	r5, r4
8010ed24:	e1a02004 	mov	r2, r4
8010ed28:	eaffffaf 	b	8010ebec <strstr_bmh+0x64>

8010ed2c <memcpy>:
8010ed2c:	e3510000 	cmp	r1, #0
8010ed30:	13500000 	cmpne	r0, #0
8010ed34:	e1a0c00d 	mov	ip, sp
8010ed38:	e92dd8f0 	push	{r4, r5, r6, r7, fp, ip, lr, pc}
8010ed3c:	e24cb004 	sub	fp, ip, #4
8010ed40:	e1a05000 	mov	r5, r0
8010ed44:	e1a07002 	mov	r7, r2
8010ed48:	e1a06001 	mov	r6, r1
8010ed4c:	03a04001 	moveq	r4, #1
8010ed50:	13a04000 	movne	r4, #0
8010ed54:	0a000012 	beq	8010eda4 <memcpy+0x78>
8010ed58:	e352001f 	cmp	r2, #31
8010ed5c:	8a00000c 	bhi	8010ed94 <memcpy+0x68>
8010ed60:	e1570004 	cmp	r7, r4
8010ed64:	9a000008 	bls	8010ed8c <memcpy+0x60>
8010ed68:	e2444001 	sub	r4, r4, #1
8010ed6c:	e247c001 	sub	ip, r7, #1
8010ed70:	e0863004 	add	r3, r6, r4
8010ed74:	e0852004 	add	r2, r5, r4
8010ed78:	e086c00c 	add	ip, r6, ip
8010ed7c:	e5f31001 	ldrb	r1, [r3, #1]!
8010ed80:	e5e21001 	strb	r1, [r2, #1]!
8010ed84:	e153000c 	cmp	r3, ip
8010ed88:	1afffffb 	bne	8010ed7c <memcpy+0x50>
8010ed8c:	e1a00005 	mov	r0, r5
8010ed90:	e89da8f0 	ldm	sp, {r4, r5, r6, r7, fp, sp, pc}
8010ed94:	e3c2401f 	bic	r4, r2, #31
8010ed98:	e1a02004 	mov	r2, r4
8010ed9c:	ebfff94d 	bl	8010d2d8 <__memcpy32>
8010eda0:	eaffffee 	b	8010ed60 <memcpy+0x34>
8010eda4:	e3a00000 	mov	r0, #0
8010eda8:	e89da8f0 	ldm	sp, {r4, r5, r6, r7, fp, sp, pc}

8010edac <memset>:
8010edac:	e24dd008 	sub	sp, sp, #8
8010edb0:	e3500000 	cmp	r0, #0
8010edb4:	e58d2004 	str	r2, [sp, #4]
8010edb8:	0a000019 	beq	8010ee24 <memset+0x78>
8010edbc:	e6ef1071 	uxtb	r1, r1
8010edc0:	e2103003 	ands	r3, r0, #3
8010edc4:	1a000018 	bne	8010ee2c <memset+0x80>
8010edc8:	e1a03000 	mov	r3, r0
8010edcc:	e59d2004 	ldr	r2, [sp, #4]
8010edd0:	e181c401 	orr	ip, r1, r1, lsl #8
8010edd4:	e3520003 	cmp	r2, #3
8010edd8:	e18cc80c 	orr	ip, ip, ip, lsl #16
8010eddc:	9a00000d 	bls	8010ee18 <memset+0x6c>
8010ede0:	e59d2004 	ldr	r2, [sp, #4]
8010ede4:	e483c004 	str	ip, [r3], #4
8010ede8:	e2422004 	sub	r2, r2, #4
8010edec:	e58d2004 	str	r2, [sp, #4]
8010edf0:	e59d2004 	ldr	r2, [sp, #4]
8010edf4:	e3520003 	cmp	r2, #3
8010edf8:	8afffff8 	bhi	8010ede0 <memset+0x34>
8010edfc:	e59d2004 	ldr	r2, [sp, #4]
8010ee00:	e3520000 	cmp	r2, #0
8010ee04:	0a000006 	beq	8010ee24 <memset+0x78>
8010ee08:	e59d2004 	ldr	r2, [sp, #4]
8010ee0c:	e4c31001 	strb	r1, [r3], #1
8010ee10:	e2422001 	sub	r2, r2, #1
8010ee14:	e58d2004 	str	r2, [sp, #4]
8010ee18:	e59d2004 	ldr	r2, [sp, #4]
8010ee1c:	e3520000 	cmp	r2, #0
8010ee20:	1afffff8 	bne	8010ee08 <memset+0x5c>
8010ee24:	e28dd008 	add	sp, sp, #8
8010ee28:	e12fff1e 	bx	lr
8010ee2c:	e59d2004 	ldr	r2, [sp, #4]
8010ee30:	e2633004 	rsb	r3, r3, #4
8010ee34:	e1520003 	cmp	r2, r3
8010ee38:	80803003 	addhi	r3, r0, r3
8010ee3c:	81a0c000 	movhi	ip, r0
8010ee40:	9a000006 	bls	8010ee60 <memset+0xb4>
8010ee44:	e59d2004 	ldr	r2, [sp, #4]
8010ee48:	e4cc1001 	strb	r1, [ip], #1
8010ee4c:	e2422001 	sub	r2, r2, #1
8010ee50:	e58d2004 	str	r2, [sp, #4]
8010ee54:	e153000c 	cmp	r3, ip
8010ee58:	1afffff9 	bne	8010ee44 <memset+0x98>
8010ee5c:	eaffffda 	b	8010edcc <memset+0x20>
8010ee60:	e59d3004 	ldr	r3, [sp, #4]
8010ee64:	e3530000 	cmp	r3, #0
8010ee68:	11a02000 	movne	r2, r0
8010ee6c:	0affffec 	beq	8010ee24 <memset+0x78>
8010ee70:	e59d3004 	ldr	r3, [sp, #4]
8010ee74:	e4c21001 	strb	r1, [r2], #1
8010ee78:	e2433001 	sub	r3, r3, #1
8010ee7c:	e58d3004 	str	r3, [sp, #4]
8010ee80:	e59d3004 	ldr	r3, [sp, #4]
8010ee84:	e3530000 	cmp	r3, #0
8010ee88:	1afffff8 	bne	8010ee70 <memset+0xc4>
8010ee8c:	e28dd008 	add	sp, sp, #8
8010ee90:	e12fff1e 	bx	lr

8010ee94 <strcpy>:
8010ee94:	e3510000 	cmp	r1, #0
8010ee98:	012fff1e 	bxeq	lr
8010ee9c:	e5d13000 	ldrb	r3, [r1]
8010eea0:	e1a02000 	mov	r2, r0
8010eea4:	e3530000 	cmp	r3, #0
8010eea8:	0a000003 	beq	8010eebc <strcpy+0x28>
8010eeac:	e4c23001 	strb	r3, [r2], #1
8010eeb0:	e5f13001 	ldrb	r3, [r1, #1]!
8010eeb4:	e3530000 	cmp	r3, #0
8010eeb8:	1afffffb 	bne	8010eeac <strcpy+0x18>
8010eebc:	e3a03000 	mov	r3, #0
8010eec0:	e5c23000 	strb	r3, [r2]
8010eec4:	e12fff1e 	bx	lr

8010eec8 <strncpy>:
8010eec8:	e3510000 	cmp	r1, #0
8010eecc:	e92d4010 	push	{r4, lr}
8010eed0:	0a00001a 	beq	8010ef40 <strncpy+0x78>
8010eed4:	e3520000 	cmp	r2, #0
8010eed8:	1241e001 	subne	lr, r1, #1
8010eedc:	12404001 	subne	r4, r0, #1
8010eee0:	13a03000 	movne	r3, #0
8010eee4:	1a000004 	bne	8010eefc <strncpy+0x34>
8010eee8:	ea000007 	b	8010ef0c <strncpy+0x44>
8010eeec:	e2833001 	add	r3, r3, #1
8010eef0:	e5e4c001 	strb	ip, [r4, #1]!
8010eef4:	e1520003 	cmp	r2, r3
8010eef8:	0a00000e 	beq	8010ef38 <strncpy+0x70>
8010eefc:	e5fec001 	ldrb	ip, [lr, #1]!
8010ef00:	e35c0000 	cmp	ip, #0
8010ef04:	1afffff8 	bne	8010eeec <strncpy+0x24>
8010ef08:	e0800003 	add	r0, r0, r3
8010ef0c:	e3a03000 	mov	r3, #0
8010ef10:	e5c03000 	strb	r3, [r0]
8010ef14:	e5d13000 	ldrb	r3, [r1]
8010ef18:	e3530000 	cmp	r3, #0
8010ef1c:	0a000007 	beq	8010ef40 <strncpy+0x78>
8010ef20:	e2612001 	rsb	r2, r1, #1
8010ef24:	e0820001 	add	r0, r2, r1
8010ef28:	e5f13001 	ldrb	r3, [r1, #1]!
8010ef2c:	e3530000 	cmp	r3, #0
8010ef30:	1afffffb 	bne	8010ef24 <strncpy+0x5c>
8010ef34:	e8bd8010 	pop	{r4, pc}
8010ef38:	e0800002 	add	r0, r0, r2
8010ef3c:	eafffff2 	b	8010ef0c <strncpy+0x44>
8010ef40:	e3a00000 	mov	r0, #0
8010ef44:	e8bd8010 	pop	{r4, pc}

8010ef48 <strcmp>:
8010ef48:	e3510000 	cmp	r1, #0
8010ef4c:	13500000 	cmpne	r0, #0
8010ef50:	0a000012 	beq	8010efa0 <strcmp+0x58>
8010ef54:	e5d03000 	ldrb	r3, [r0]
8010ef58:	e5d12000 	ldrb	r2, [r1]
8010ef5c:	e1530002 	cmp	r3, r2
8010ef60:	0a000006 	beq	8010ef80 <strcmp+0x38>
8010ef64:	ea000009 	b	8010ef90 <strcmp+0x48>
8010ef68:	e3520000 	cmp	r2, #0
8010ef6c:	0a000009 	beq	8010ef98 <strcmp+0x50>
8010ef70:	e5f03001 	ldrb	r3, [r0, #1]!
8010ef74:	e5f12001 	ldrb	r2, [r1, #1]!
8010ef78:	e1530002 	cmp	r3, r2
8010ef7c:	1a000003 	bne	8010ef90 <strcmp+0x48>
8010ef80:	e3530000 	cmp	r3, #0
8010ef84:	1afffff7 	bne	8010ef68 <strcmp+0x20>
8010ef88:	e2620000 	rsb	r0, r2, #0
8010ef8c:	e12fff1e 	bx	lr
8010ef90:	e0430002 	sub	r0, r3, r2
8010ef94:	e12fff1e 	bx	lr
8010ef98:	e1a00003 	mov	r0, r3
8010ef9c:	e12fff1e 	bx	lr
8010efa0:	e3e00000 	mvn	r0, #0
8010efa4:	e12fff1e 	bx	lr

8010efa8 <strncmp>:
8010efa8:	e3510000 	cmp	r1, #0
8010efac:	13500000 	cmpne	r0, #0
8010efb0:	0a00001a 	beq	8010f020 <strncmp+0x78>
8010efb4:	e3520000 	cmp	r2, #0
8010efb8:	0a000012 	beq	8010f008 <strncmp+0x60>
8010efbc:	e5d03000 	ldrb	r3, [r0]
8010efc0:	e5d1c000 	ldrb	ip, [r1]
8010efc4:	e153000c 	cmp	r3, ip
8010efc8:	02422001 	subeq	r2, r2, #1
8010efcc:	00802002 	addeq	r2, r0, r2
8010efd0:	0a000008 	beq	8010eff8 <strncmp+0x50>
8010efd4:	ea00000d 	b	8010f010 <strncmp+0x68>
8010efd8:	e35c0000 	cmp	ip, #0
8010efdc:	0a00000d 	beq	8010f018 <strncmp+0x70>
8010efe0:	e1520000 	cmp	r2, r0
8010efe4:	0a000009 	beq	8010f010 <strncmp+0x68>
8010efe8:	e5f03001 	ldrb	r3, [r0, #1]!
8010efec:	e5f1c001 	ldrb	ip, [r1, #1]!
8010eff0:	e153000c 	cmp	r3, ip
8010eff4:	1a000005 	bne	8010f010 <strncmp+0x68>
8010eff8:	e3530000 	cmp	r3, #0
8010effc:	1afffff5 	bne	8010efd8 <strncmp+0x30>
8010f000:	e26c0000 	rsb	r0, ip, #0
8010f004:	e12fff1e 	bx	lr
8010f008:	e1a00002 	mov	r0, r2
8010f00c:	e12fff1e 	bx	lr
8010f010:	e043000c 	sub	r0, r3, ip
8010f014:	e12fff1e 	bx	lr
8010f018:	e1a00003 	mov	r0, r3
8010f01c:	e12fff1e 	bx	lr
8010f020:	e3e00000 	mvn	r0, #0
8010f024:	e12fff1e 	bx	lr

8010f028 <strchr>:
8010f028:	e3500000 	cmp	r0, #0
8010f02c:	012fff1e 	bxeq	lr
8010f030:	e5d03000 	ldrb	r3, [r0]
8010f034:	e3530000 	cmp	r3, #0
8010f038:	0a000004 	beq	8010f050 <strchr+0x28>
8010f03c:	e1510003 	cmp	r1, r3
8010f040:	012fff1e 	bxeq	lr
8010f044:	e5f03001 	ldrb	r3, [r0, #1]!
8010f048:	e3530000 	cmp	r3, #0
8010f04c:	1afffffa 	bne	8010f03c <strchr+0x14>
8010f050:	e3510000 	cmp	r1, #0
8010f054:	13a00000 	movne	r0, #0
8010f058:	e12fff1e 	bx	lr

8010f05c <memcmp>:
8010f05c:	e3520000 	cmp	r2, #0
8010f060:	0a00000a 	beq	8010f090 <memcmp+0x34>
8010f064:	e0803002 	add	r3, r0, r2
8010f068:	e0812002 	add	r2, r1, r2
8010f06c:	ea000001 	b	8010f078 <memcmp+0x1c>
8010f070:	e1530000 	cmp	r3, r0
8010f074:	0a000005 	beq	8010f090 <memcmp+0x34>
8010f078:	e573c001 	ldrb	ip, [r3, #-1]!
8010f07c:	e5721001 	ldrb	r1, [r2, #-1]!
8010f080:	e15c0001 	cmp	ip, r1
8010f084:	9afffff9 	bls	8010f070 <memcmp+0x14>
8010f088:	e3a00001 	mov	r0, #1
8010f08c:	e12fff1e 	bx	lr
8010f090:	e3a00000 	mov	r0, #0
8010f094:	e12fff1e 	bx	lr

8010f098 <strstr>:
8010f098:	eafffeba 	b	8010eb88 <strstr_bmh>

8010f09c <strtok>:
8010f09c:	e92d4030 	push	{r4, r5, lr}
8010f0a0:	e1a04001 	mov	r4, r1
8010f0a4:	e2501000 	subs	r1, r0, #0
8010f0a8:	0a000033 	beq	8010f17c <strtok+0xe0>
8010f0ac:	e5d1c000 	ldrb	ip, [r1]
8010f0b0:	e35c0000 	cmp	ip, #0
8010f0b4:	0a000011 	beq	8010f100 <strtok+0x64>
8010f0b8:	e1a0e00c 	mov	lr, ip
8010f0bc:	e3540000 	cmp	r4, #0
8010f0c0:	0a00002f 	beq	8010f184 <strtok+0xe8>
8010f0c4:	e5d45000 	ldrb	r5, [r4]
8010f0c8:	e1a00001 	mov	r0, r1
8010f0cc:	e3550000 	cmp	r5, #0
8010f0d0:	0a000013 	beq	8010f124 <strtok+0x88>
8010f0d4:	e1a03005 	mov	r3, r5
8010f0d8:	e1a02004 	mov	r2, r4
8010f0dc:	ea000002 	b	8010f0ec <strtok+0x50>
8010f0e0:	e5f23001 	ldrb	r3, [r2, #1]!
8010f0e4:	e3530000 	cmp	r3, #0
8010f0e8:	0a00000d 	beq	8010f124 <strtok+0x88>
8010f0ec:	e153000e 	cmp	r3, lr
8010f0f0:	1afffffa 	bne	8010f0e0 <strtok+0x44>
8010f0f4:	e5f0e001 	ldrb	lr, [r0, #1]!
8010f0f8:	e35e0000 	cmp	lr, #0
8010f0fc:	1afffff2 	bne	8010f0cc <strtok+0x30>
8010f100:	e59f3084 	ldr	r3, [pc, #132]	; 8010f18c <strtok+0xf0>
8010f104:	e3a02000 	mov	r2, #0
8010f108:	e1a00002 	mov	r0, r2
8010f10c:	e08f3003 	add	r3, pc, r3
8010f110:	e5832000 	str	r2, [r3]
8010f114:	e8bd8030 	pop	{r4, r5, pc}
8010f118:	e5f1c001 	ldrb	ip, [r1, #1]!
8010f11c:	e35c0000 	cmp	ip, #0
8010f120:	0a000011 	beq	8010f16c <strtok+0xd0>
8010f124:	e3540000 	cmp	r4, #0
8010f128:	0afffffa 	beq	8010f118 <strtok+0x7c>
8010f12c:	e5d43000 	ldrb	r3, [r4]
8010f130:	e3530000 	cmp	r3, #0
8010f134:	11a02004 	movne	r2, r4
8010f138:	1a000003 	bne	8010f14c <strtok+0xb0>
8010f13c:	eafffff5 	b	8010f118 <strtok+0x7c>
8010f140:	e5f23001 	ldrb	r3, [r2, #1]!
8010f144:	e3530000 	cmp	r3, #0
8010f148:	0afffff2 	beq	8010f118 <strtok+0x7c>
8010f14c:	e153000c 	cmp	r3, ip
8010f150:	1afffffa 	bne	8010f140 <strtok+0xa4>
8010f154:	e59f3034 	ldr	r3, [pc, #52]	; 8010f190 <strtok+0xf4>
8010f158:	e3a02000 	mov	r2, #0
8010f15c:	e4c12001 	strb	r2, [r1], #1
8010f160:	e08f3003 	add	r3, pc, r3
8010f164:	e5831000 	str	r1, [r3]
8010f168:	e8bd8030 	pop	{r4, r5, pc}
8010f16c:	e59f3020 	ldr	r3, [pc, #32]	; 8010f194 <strtok+0xf8>
8010f170:	e08f3003 	add	r3, pc, r3
8010f174:	e5831000 	str	r1, [r3]
8010f178:	e8bd8030 	pop	{r4, r5, pc}
8010f17c:	e1a00001 	mov	r0, r1
8010f180:	e8bd8030 	pop	{r4, r5, pc}
8010f184:	e1a00001 	mov	r0, r1
8010f188:	eaffffe5 	b	8010f124 <strtok+0x88>
8010f18c:	0000ef14 	andeq	lr, r0, r4, lsl pc
8010f190:	0000eec0 	andeq	lr, r0, r0, asr #29
8010f194:	0000eeb0 			; <UNDEFINED> instruction: 0x0000eeb0

8010f198 <strlen>:
8010f198:	e2503000 	subs	r3, r0, #0
8010f19c:	0a000008 	beq	8010f1c4 <strlen+0x2c>
8010f1a0:	e5d30000 	ldrb	r0, [r3]
8010f1a4:	e3500000 	cmp	r0, #0
8010f1a8:	012fff1e 	bxeq	lr
8010f1ac:	e2631001 	rsb	r1, r3, #1
8010f1b0:	e0810003 	add	r0, r1, r3
8010f1b4:	e5f32001 	ldrb	r2, [r3, #1]!
8010f1b8:	e3520000 	cmp	r2, #0
8010f1bc:	1afffffb 	bne	8010f1b0 <strlen+0x18>
8010f1c0:	e12fff1e 	bx	lr
8010f1c4:	e1a00003 	mov	r0, r3
8010f1c8:	e12fff1e 	bx	lr

8010f1cc <outc_sn>:
8010f1cc:	e5913004 	ldr	r3, [r1, #4]
8010f1d0:	e5912008 	ldr	r2, [r1, #8]
8010f1d4:	e1530002 	cmp	r3, r2
8010f1d8:	35912000 	ldrcc	r2, [r1]
8010f1dc:	37c20003 	strbcc	r0, [r2, r3]
8010f1e0:	35913004 	ldrcc	r3, [r1, #4]
8010f1e4:	32833001 	addcc	r3, r3, #1
8010f1e8:	35813004 	strcc	r3, [r1, #4]
8010f1ec:	e12fff1e 	bx	lr

8010f1f0 <print_uint_in_base_raw>:
8010f1f0:	e1a0c00d 	mov	ip, sp
8010f1f4:	e92dd8f0 	push	{r4, r5, r6, r7, fp, ip, lr, pc}
8010f1f8:	e24cb004 	sub	fp, ip, #4
8010f1fc:	e1a06003 	mov	r6, r3
8010f200:	e1a05000 	mov	r5, r0
8010f204:	e1a04fa1 	lsr	r4, r1, #31
8010f208:	e3a0c01f 	mov	ip, #31
8010f20c:	e3a07000 	mov	r7, #0
8010f210:	e3a03001 	mov	r3, #1
8010f214:	ea000007 	b	8010f238 <print_uint_in_base_raw+0x48>
8010f218:	e1a0ec13 	lsl	lr, r3, ip
8010f21c:	e111000e 	tst	r1, lr
8010f220:	13a00001 	movne	r0, #1
8010f224:	03a00000 	moveq	r0, #0
8010f228:	e1804084 	orr	r4, r0, r4, lsl #1
8010f22c:	e1520004 	cmp	r2, r4
8010f230:	90444002 	subls	r4, r4, r2
8010f234:	9187700e 	orrls	r7, r7, lr
8010f238:	e25cc001 	subs	ip, ip, #1
8010f23c:	2afffff5 	bcs	8010f218 <print_uint_in_base_raw+0x28>
8010f240:	e3570000 	cmp	r7, #0
8010f244:	1a00000b 	bne	8010f278 <print_uint_in_base_raw+0x88>
8010f248:	e3560000 	cmp	r6, #0
8010f24c:	0a000004 	beq	8010f264 <print_uint_in_base_raw+0x74>
8010f250:	e59f3034 	ldr	r3, [pc, #52]	; 8010f28c <print_uint_in_base_raw+0x9c>
8010f254:	e08f3003 	add	r3, pc, r3
8010f258:	e7d33004 	ldrb	r3, [r3, r4]
8010f25c:	e5c53000 	strb	r3, [r5]
8010f260:	e89da8f0 	ldm	sp, {r4, r5, r6, r7, fp, sp, pc}
8010f264:	e59f3024 	ldr	r3, [pc, #36]	; 8010f290 <print_uint_in_base_raw+0xa0>
8010f268:	e08f3003 	add	r3, pc, r3
8010f26c:	e7d33004 	ldrb	r3, [r3, r4]
8010f270:	e5c53000 	strb	r3, [r5]
8010f274:	e89da8f0 	ldm	sp, {r4, r5, r6, r7, fp, sp, pc}
8010f278:	e1a03006 	mov	r3, r6
8010f27c:	e1a01007 	mov	r1, r7
8010f280:	e2850001 	add	r0, r5, #1
8010f284:	ebffffd9 	bl	8010f1f0 <print_uint_in_base_raw>
8010f288:	eaffffee 	b	8010f248 <print_uint_in_base_raw+0x58>
8010f28c:	00007590 	muleq	r0, r0, r5
8010f290:	00007590 	muleq	r0, r0, r5

8010f294 <print_uint_in_base>:
8010f294:	e1a0c00d 	mov	ip, sp
8010f298:	e92ddff0 	push	{r4, r5, r6, r7, r8, r9, sl, fp, ip, lr, pc}
8010f29c:	e24cb004 	sub	fp, ip, #4
8010f2a0:	e24ba04c 	sub	sl, fp, #76	; 0x4c
8010f2a4:	e24dd02c 	sub	sp, sp, #44	; 0x2c
8010f2a8:	e1a06002 	mov	r6, r2
8010f2ac:	e1a09003 	mov	r9, r3
8010f2b0:	e3a02020 	mov	r2, #32
8010f2b4:	e5db300c 	ldrb	r3, [fp, #12]
8010f2b8:	e1a08000 	mov	r8, r0
8010f2bc:	e1a07001 	mov	r7, r1
8010f2c0:	e1a0000a 	mov	r0, sl
8010f2c4:	e3a01000 	mov	r1, #0
8010f2c8:	e5db4008 	ldrb	r4, [fp, #8]
8010f2cc:	e50b3050 	str	r3, [fp, #-80]	; 0xffffffb0
8010f2d0:	e59b5004 	ldr	r5, [fp, #4]
8010f2d4:	ebfffeb4 	bl	8010edac <memset>
8010f2d8:	e51b3050 	ldr	r3, [fp, #-80]	; 0xffffffb0
8010f2dc:	e1a02009 	mov	r2, r9
8010f2e0:	e1a01006 	mov	r1, r6
8010f2e4:	e1a0000a 	mov	r0, sl
8010f2e8:	ebffffc0 	bl	8010f1f0 <print_uint_in_base_raw>
8010f2ec:	e1a0000a 	mov	r0, sl
8010f2f0:	ebffffa8 	bl	8010f198 <strlen>
8010f2f4:	e3540000 	cmp	r4, #0
8010f2f8:	0a000009 	beq	8010f324 <print_uint_in_base+0x90>
8010f2fc:	e0454000 	sub	r4, r5, r0
8010f300:	e3540000 	cmp	r4, #0
8010f304:	da000027 	ble	8010f3a8 <print_uint_in_base+0x114>
8010f308:	e3a09000 	mov	r9, #0
8010f30c:	e1a01007 	mov	r1, r7
8010f310:	e2899001 	add	r9, r9, #1
8010f314:	e3a00030 	mov	r0, #48	; 0x30
8010f318:	e12fff38 	blx	r8
8010f31c:	e1540009 	cmp	r4, r9
8010f320:	1afffff9 	bne	8010f30c <print_uint_in_base+0x78>
8010f324:	e1a0000a 	mov	r0, sl
8010f328:	ebffff9a 	bl	8010f198 <strlen>
8010f32c:	e2509001 	subs	r9, r0, #1
8010f330:	508aa000 	addpl	sl, sl, r0
8010f334:	50849009 	addpl	r9, r4, r9
8010f338:	5a00000c 	bpl	8010f370 <print_uint_in_base+0xdc>
8010f33c:	ea00000f 	b	8010f380 <print_uint_in_base+0xec>
8010f340:	e1550004 	cmp	r5, r4
8010f344:	e2844001 	add	r4, r4, #1
8010f348:	d3a03001 	movle	r3, #1
8010f34c:	c3a03000 	movgt	r3, #0
8010f350:	e3550000 	cmp	r5, #0
8010f354:	d3a03000 	movle	r3, #0
8010f358:	e3530000 	cmp	r3, #0
8010f35c:	1a00000f 	bne	8010f3a0 <print_uint_in_base+0x10c>
8010f360:	e12fff38 	blx	r8
8010f364:	e0493004 	sub	r3, r9, r4
8010f368:	e3530000 	cmp	r3, #0
8010f36c:	ba000003 	blt	8010f380 <print_uint_in_base+0xec>
8010f370:	e57a0001 	ldrb	r0, [sl, #-1]!
8010f374:	e1a01007 	mov	r1, r7
8010f378:	e3500000 	cmp	r0, #0
8010f37c:	1affffef 	bne	8010f340 <print_uint_in_base+0xac>
8010f380:	e1540005 	cmp	r4, r5
8010f384:	aa000005 	bge	8010f3a0 <print_uint_in_base+0x10c>
8010f388:	e1a01007 	mov	r1, r7
8010f38c:	e2844001 	add	r4, r4, #1
8010f390:	e3a00020 	mov	r0, #32
8010f394:	e12fff38 	blx	r8
8010f398:	e1550004 	cmp	r5, r4
8010f39c:	1afffff9 	bne	8010f388 <print_uint_in_base+0xf4>
8010f3a0:	e24bd028 	sub	sp, fp, #40	; 0x28
8010f3a4:	e89daff0 	ldm	sp, {r4, r5, r6, r7, r8, r9, sl, fp, sp, pc}
8010f3a8:	e3a04000 	mov	r4, #0
8010f3ac:	eaffffdc 	b	8010f324 <print_uint_in_base+0x90>

8010f3b0 <v_printf>:
8010f3b0:	e1a0c00d 	mov	ip, sp
8010f3b4:	e92ddff0 	push	{r4, r5, r6, r7, r8, r9, sl, fp, ip, lr, pc}
8010f3b8:	e24cb004 	sub	fp, ip, #4
8010f3bc:	e24dd02c 	sub	sp, sp, #44	; 0x2c
8010f3c0:	e1a06000 	mov	r6, r0
8010f3c4:	e5d20000 	ldrb	r0, [r2]
8010f3c8:	e1a09002 	mov	r9, r2
8010f3cc:	e1a05001 	mov	r5, r1
8010f3d0:	e3500000 	cmp	r0, #0
8010f3d4:	e1a0a003 	mov	sl, r3
8010f3d8:	13a04000 	movne	r4, #0
8010f3dc:	13a0700a 	movne	r7, #10
8010f3e0:	0a000077 	beq	8010f5c4 <v_printf+0x214>
8010f3e4:	e3500025 	cmp	r0, #37	; 0x25
8010f3e8:	10898004 	addne	r8, r9, r4
8010f3ec:	0a000008 	beq	8010f414 <v_printf+0x64>
8010f3f0:	e1a01005 	mov	r1, r5
8010f3f4:	e2844001 	add	r4, r4, #1
8010f3f8:	e12fff36 	blx	r6
8010f3fc:	e5f80001 	ldrb	r0, [r8, #1]!
8010f400:	e3500025 	cmp	r0, #37	; 0x25
8010f404:	13500000 	cmpne	r0, #0
8010f408:	1afffff8 	bne	8010f3f0 <v_printf+0x40>
8010f40c:	e3500000 	cmp	r0, #0
8010f410:	0a00006b 	beq	8010f5c4 <v_printf+0x214>
8010f414:	e0893004 	add	r3, r9, r4
8010f418:	e5d33001 	ldrb	r3, [r3, #1]
8010f41c:	e3530000 	cmp	r3, #0
8010f420:	0a000067 	beq	8010f5c4 <v_printf+0x214>
8010f424:	e3530030 	cmp	r3, #48	; 0x30
8010f428:	02844002 	addeq	r4, r4, #2
8010f42c:	12844001 	addne	r4, r4, #1
8010f430:	13a02000 	movne	r2, #0
8010f434:	03a02001 	moveq	r2, #1
8010f438:	e7d93004 	ldrb	r3, [r9, r4]
8010f43c:	e353002d 	cmp	r3, #45	; 0x2d
8010f440:	054b3034 	strbeq	r3, [fp, #-52]	; 0xffffffcc
8010f444:	00890004 	addeq	r0, r9, r4
8010f448:	01a03000 	moveq	r3, r0
8010f44c:	03a01001 	moveq	r1, #1
8010f450:	13a01000 	movne	r1, #0
8010f454:	e281c001 	add	ip, r1, #1
8010f458:	e24b0034 	sub	r0, fp, #52	; 0x34
8010f45c:	e08cc004 	add	ip, ip, r4
8010f460:	e241e001 	sub	lr, r1, #1
8010f464:	05d33001 	ldrbeq	r3, [r3, #1]
8010f468:	e089c00c 	add	ip, r9, ip
8010f46c:	e080e00e 	add	lr, r0, lr
8010f470:	ea000000 	b	8010f478 <v_printf+0xc8>
8010f474:	e4dc3001 	ldrb	r3, [ip], #1
8010f478:	e2438030 	sub	r8, r3, #48	; 0x30
8010f47c:	e3580009 	cmp	r8, #9
8010f480:	8a0000a5 	bhi	8010f71c <v_printf+0x36c>
8010f484:	e2811001 	add	r1, r1, #1
8010f488:	e5ee3001 	strb	r3, [lr, #1]!
8010f48c:	e3510008 	cmp	r1, #8
8010f490:	1afffff7 	bne	8010f474 <v_printf+0xc4>
8010f494:	e2844008 	add	r4, r4, #8
8010f498:	e7d93004 	ldrb	r3, [r9, r4]
8010f49c:	e241102c 	sub	r1, r1, #44	; 0x2c
8010f4a0:	e3a0c000 	mov	ip, #0
8010f4a4:	e081100b 	add	r1, r1, fp
8010f4a8:	e541c008 	strb	ip, [r1, #-8]
8010f4ac:	e55b1034 	ldrb	r1, [fp, #-52]	; 0xffffffcc
8010f4b0:	e351002d 	cmp	r1, #45	; 0x2d
8010f4b4:	11a0e000 	movne	lr, r0
8010f4b8:	13a08001 	movne	r8, #1
8010f4bc:	055b1033 	ldrbeq	r1, [fp, #-51]	; 0xffffffcd
8010f4c0:	024be033 	subeq	lr, fp, #51	; 0x33
8010f4c4:	03e08000 	mvneq	r8, #0
8010f4c8:	e3510000 	cmp	r1, #0
8010f4cc:	0a0000af 	beq	8010f790 <v_printf+0x3e0>
8010f4d0:	e3a0c000 	mov	ip, #0
8010f4d4:	ea000003 	b	8010f4e8 <v_printf+0x138>
8010f4d8:	e5fe1001 	ldrb	r1, [lr, #1]!
8010f4dc:	e02c0c97 	mla	ip, r7, ip, r0
8010f4e0:	e3510000 	cmp	r1, #0
8010f4e4:	0a000003 	beq	8010f4f8 <v_printf+0x148>
8010f4e8:	e2410030 	sub	r0, r1, #48	; 0x30
8010f4ec:	e6ef1070 	uxtb	r1, r0
8010f4f0:	e3510009 	cmp	r1, #9
8010f4f4:	9afffff7 	bls	8010f4d8 <v_printf+0x128>
8010f4f8:	e008089c 	mul	r8, ip, r8
8010f4fc:	e2433058 	sub	r3, r3, #88	; 0x58
8010f500:	e3530020 	cmp	r3, #32
8010f504:	908ff103 	addls	pc, pc, r3, lsl #2
8010f508:	ea000029 	b	8010f5b4 <v_printf+0x204>
8010f50c:	ea00007e 	b	8010f70c <v_printf+0x35c>
8010f510:	ea000027 	b	8010f5b4 <v_printf+0x204>
8010f514:	ea000026 	b	8010f5b4 <v_printf+0x204>
8010f518:	ea000025 	b	8010f5b4 <v_printf+0x204>
8010f51c:	ea000024 	b	8010f5b4 <v_printf+0x204>
8010f520:	ea000023 	b	8010f5b4 <v_printf+0x204>
8010f524:	ea000022 	b	8010f5b4 <v_printf+0x204>
8010f528:	ea000021 	b	8010f5b4 <v_printf+0x204>
8010f52c:	ea000020 	b	8010f5b4 <v_printf+0x204>
8010f530:	ea00001f 	b	8010f5b4 <v_printf+0x204>
8010f534:	ea00001e 	b	8010f5b4 <v_printf+0x204>
8010f538:	ea00006a 	b	8010f6e8 <v_printf+0x338>
8010f53c:	ea000050 	b	8010f684 <v_printf+0x2d4>
8010f540:	ea00001b 	b	8010f5b4 <v_printf+0x204>
8010f544:	ea00001a 	b	8010f5b4 <v_printf+0x204>
8010f548:	ea000019 	b	8010f5b4 <v_printf+0x204>
8010f54c:	ea000018 	b	8010f5b4 <v_printf+0x204>
8010f550:	ea000017 	b	8010f5b4 <v_printf+0x204>
8010f554:	ea000016 	b	8010f5b4 <v_printf+0x204>
8010f558:	ea000015 	b	8010f5b4 <v_printf+0x204>
8010f55c:	ea000014 	b	8010f5b4 <v_printf+0x204>
8010f560:	ea000013 	b	8010f5b4 <v_printf+0x204>
8010f564:	ea000012 	b	8010f5b4 <v_printf+0x204>
8010f568:	ea000011 	b	8010f5b4 <v_printf+0x204>
8010f56c:	ea000010 	b	8010f5b4 <v_printf+0x204>
8010f570:	ea00000f 	b	8010f5b4 <v_printf+0x204>
8010f574:	ea00000e 	b	8010f5b4 <v_printf+0x204>
8010f578:	ea000018 	b	8010f5e0 <v_printf+0x230>
8010f57c:	ea00000c 	b	8010f5b4 <v_printf+0x204>
8010f580:	ea000011 	b	8010f5cc <v_printf+0x21c>
8010f584:	ea00000a 	b	8010f5b4 <v_printf+0x204>
8010f588:	ea000009 	b	8010f5b4 <v_printf+0x204>
8010f58c:	eaffffff 	b	8010f590 <v_printf+0x1e0>
8010f590:	e1a01005 	mov	r1, r5
8010f594:	e1a00006 	mov	r0, r6
8010f598:	e3a0e000 	mov	lr, #0
8010f59c:	e3a03010 	mov	r3, #16
8010f5a0:	e49ac004 	ldr	ip, [sl], #4
8010f5a4:	e98d4004 	stmib	sp, {r2, lr}
8010f5a8:	e58d8000 	str	r8, [sp]
8010f5ac:	e1a0200c 	mov	r2, ip
8010f5b0:	ebffff37 	bl	8010f294 <print_uint_in_base>
8010f5b4:	e2844001 	add	r4, r4, #1
8010f5b8:	e7d90004 	ldrb	r0, [r9, r4]
8010f5bc:	e3500000 	cmp	r0, #0
8010f5c0:	1affff87 	bne	8010f3e4 <v_printf+0x34>
8010f5c4:	e24bd028 	sub	sp, fp, #40	; 0x28
8010f5c8:	e89daff0 	ldm	sp, {r4, r5, r6, r7, r8, r9, sl, fp, sp, pc}
8010f5cc:	e1a01005 	mov	r1, r5
8010f5d0:	e1a00006 	mov	r0, r6
8010f5d4:	e3a0e000 	mov	lr, #0
8010f5d8:	e3a0300a 	mov	r3, #10
8010f5dc:	eaffffef 	b	8010f5a0 <v_printf+0x1f0>
8010f5e0:	e1a0300a 	mov	r3, sl
8010f5e4:	e4930004 	ldr	r0, [r3], #4
8010f5e8:	e50b003c 	str	r0, [fp, #-60]	; 0xffffffc4
8010f5ec:	e50b3038 	str	r3, [fp, #-56]	; 0xffffffc8
8010f5f0:	ebfffee8 	bl	8010f198 <strlen>
8010f5f4:	e3580000 	cmp	r8, #0
8010f5f8:	ba000055 	blt	8010f754 <v_printf+0x3a4>
8010f5fc:	e3a0a000 	mov	sl, #0
8010f600:	e51b303c 	ldr	r3, [fp, #-60]	; 0xffffffc4
8010f604:	e50b403c 	str	r4, [fp, #-60]	; 0xffffffc4
8010f608:	e1a04005 	mov	r4, r5
8010f60c:	e2432001 	sub	r2, r3, #1
8010f610:	e1a05008 	mov	r5, r8
8010f614:	e1a08002 	mov	r8, r2
8010f618:	ea000004 	b	8010f630 <v_printf+0x280>
8010f61c:	e28aa001 	add	sl, sl, #1
8010f620:	e12fff36 	blx	r6
8010f624:	e15a0005 	cmp	sl, r5
8010f628:	a3550000 	cmpge	r5, #0
8010f62c:	ca00003c 	bgt	8010f724 <v_printf+0x374>
8010f630:	e5f80001 	ldrb	r0, [r8, #1]!
8010f634:	e1a01004 	mov	r1, r4
8010f638:	e3500000 	cmp	r0, #0
8010f63c:	1afffff6 	bne	8010f61c <v_printf+0x26c>
8010f640:	e1a08005 	mov	r8, r5
8010f644:	e1a05004 	mov	r5, r4
8010f648:	e15a0008 	cmp	sl, r8
8010f64c:	e51b403c 	ldr	r4, [fp, #-60]	; 0xffffffc4
8010f650:	aa000005 	bge	8010f66c <v_printf+0x2bc>
8010f654:	e1a01005 	mov	r1, r5
8010f658:	e28aa001 	add	sl, sl, #1
8010f65c:	e3a00020 	mov	r0, #32
8010f660:	e12fff36 	blx	r6
8010f664:	e158000a 	cmp	r8, sl
8010f668:	1afffff9 	bne	8010f654 <v_printf+0x2a4>
8010f66c:	e2844001 	add	r4, r4, #1
8010f670:	e51ba038 	ldr	sl, [fp, #-56]	; 0xffffffc8
8010f674:	e7d90004 	ldrb	r0, [r9, r4]
8010f678:	e3500000 	cmp	r0, #0
8010f67c:	1affff58 	bne	8010f3e4 <v_printf+0x34>
8010f680:	eaffffcf 	b	8010f5c4 <v_printf+0x214>
8010f684:	e49a3004 	ldr	r3, [sl], #4
8010f688:	e3530000 	cmp	r3, #0
8010f68c:	aa00002c 	bge	8010f744 <v_printf+0x394>
8010f690:	e50b303c 	str	r3, [fp, #-60]	; 0xffffffc4
8010f694:	e1a01005 	mov	r1, r5
8010f698:	e50b2038 	str	r2, [fp, #-56]	; 0xffffffc8
8010f69c:	e3a0002d 	mov	r0, #45	; 0x2d
8010f6a0:	e12fff36 	blx	r6
8010f6a4:	e51b303c 	ldr	r3, [fp, #-60]	; 0xffffffc4
8010f6a8:	e51b2038 	ldr	r2, [fp, #-56]	; 0xffffffc8
8010f6ac:	e2488001 	sub	r8, r8, #1
8010f6b0:	e58d2004 	str	r2, [sp, #4]
8010f6b4:	e2632000 	rsb	r2, r3, #0
8010f6b8:	e58d8000 	str	r8, [sp]
8010f6bc:	e2844001 	add	r4, r4, #1
8010f6c0:	e1a00006 	mov	r0, r6
8010f6c4:	e3a03000 	mov	r3, #0
8010f6c8:	e1a01005 	mov	r1, r5
8010f6cc:	e58d3008 	str	r3, [sp, #8]
8010f6d0:	e3a0300a 	mov	r3, #10
8010f6d4:	ebfffeee 	bl	8010f294 <print_uint_in_base>
8010f6d8:	e7d90004 	ldrb	r0, [r9, r4]
8010f6dc:	e3500000 	cmp	r0, #0
8010f6e0:	1affff3f 	bne	8010f3e4 <v_printf+0x34>
8010f6e4:	eaffffb6 	b	8010f5c4 <v_printf+0x214>
8010f6e8:	e49a0004 	ldr	r0, [sl], #4
8010f6ec:	e2844001 	add	r4, r4, #1
8010f6f0:	e1a01005 	mov	r1, r5
8010f6f4:	e6ef0070 	uxtb	r0, r0
8010f6f8:	e12fff36 	blx	r6
8010f6fc:	e7d90004 	ldrb	r0, [r9, r4]
8010f700:	e3500000 	cmp	r0, #0
8010f704:	1affff36 	bne	8010f3e4 <v_printf+0x34>
8010f708:	eaffffad 	b	8010f5c4 <v_printf+0x214>
8010f70c:	e1a01005 	mov	r1, r5
8010f710:	e1a00006 	mov	r0, r6
8010f714:	e3a0e001 	mov	lr, #1
8010f718:	eaffff9f 	b	8010f59c <v_printf+0x1ec>
8010f71c:	e0844001 	add	r4, r4, r1
8010f720:	eaffff5d 	b	8010f49c <v_printf+0xec>
8010f724:	e1a05004 	mov	r5, r4
8010f728:	e51b403c 	ldr	r4, [fp, #-60]	; 0xffffffc4
8010f72c:	e51ba038 	ldr	sl, [fp, #-56]	; 0xffffffc8
8010f730:	e2844001 	add	r4, r4, #1
8010f734:	e7d90004 	ldrb	r0, [r9, r4]
8010f738:	e3500000 	cmp	r0, #0
8010f73c:	1affff28 	bne	8010f3e4 <v_printf+0x34>
8010f740:	eaffff9f 	b	8010f5c4 <v_printf+0x214>
8010f744:	e58d2004 	str	r2, [sp, #4]
8010f748:	e1a02003 	mov	r2, r3
8010f74c:	e58d8000 	str	r8, [sp]
8010f750:	eaffffd9 	b	8010f6bc <v_printf+0x30c>
8010f754:	e2688000 	rsb	r8, r8, #0
8010f758:	e048a000 	sub	sl, r8, r0
8010f75c:	e35a0000 	cmp	sl, #0
8010f760:	daffffa5 	ble	8010f5fc <v_printf+0x24c>
8010f764:	e3a02000 	mov	r2, #0
8010f768:	e50b4040 	str	r4, [fp, #-64]	; 0xffffffc0
8010f76c:	e1a04002 	mov	r4, r2
8010f770:	e1a01005 	mov	r1, r5
8010f774:	e2844001 	add	r4, r4, #1
8010f778:	e3a00020 	mov	r0, #32
8010f77c:	e12fff36 	blx	r6
8010f780:	e15a0004 	cmp	sl, r4
8010f784:	1afffff9 	bne	8010f770 <v_printf+0x3c0>
8010f788:	e51b4040 	ldr	r4, [fp, #-64]	; 0xffffffc0
8010f78c:	eaffff9b 	b	8010f600 <v_printf+0x250>
8010f790:	e1a08001 	mov	r8, r1
8010f794:	eaffff58 	b	8010f4fc <v_printf+0x14c>

8010f798 <snprintf>:
8010f798:	e1a0c00d 	mov	ip, sp
8010f79c:	e92d000c 	push	{r2, r3}
8010f7a0:	e92dd810 	push	{r4, fp, ip, lr, pc}
8010f7a4:	e24cb00c 	sub	fp, ip, #12
8010f7a8:	e1a0c000 	mov	ip, r0
8010f7ac:	e59f003c 	ldr	r0, [pc, #60]	; 8010f7f0 <snprintf+0x58>
8010f7b0:	e24dd014 	sub	sp, sp, #20
8010f7b4:	e28b3008 	add	r3, fp, #8
8010f7b8:	e59b2004 	ldr	r2, [fp, #4]
8010f7bc:	e08f0000 	add	r0, pc, r0
8010f7c0:	e50b1018 	str	r1, [fp, #-24]	; 0xffffffe8
8010f7c4:	e24b1020 	sub	r1, fp, #32
8010f7c8:	e3a04000 	mov	r4, #0
8010f7cc:	e50b3024 	str	r3, [fp, #-36]	; 0xffffffdc
8010f7d0:	e50bc020 	str	ip, [fp, #-32]	; 0xffffffe0
8010f7d4:	e50b401c 	str	r4, [fp, #-28]	; 0xffffffe4
8010f7d8:	ebfffef4 	bl	8010f3b0 <v_printf>
8010f7dc:	e14b22d0 	ldrd	r2, [fp, #-32]	; 0xffffffe0
8010f7e0:	e7c24003 	strb	r4, [r2, r3]
8010f7e4:	e51b001c 	ldr	r0, [fp, #-28]	; 0xffffffe4
8010f7e8:	e24bd010 	sub	sp, fp, #16
8010f7ec:	e89da810 	ldm	sp, {r4, fp, sp, pc}
8010f7f0:	fffffa08 			; <UNDEFINED> instruction: 0xfffffa08

8010f7f4 <proto_init>:
8010f7f4:	e3a03000 	mov	r3, #0
8010f7f8:	e3a02080 	mov	r2, #128	; 0x80
8010f7fc:	e5800080 	str	r0, [r0, #128]	; 0x80
8010f800:	e5802088 	str	r2, [r0, #136]	; 0x88
8010f804:	e5803084 	str	r3, [r0, #132]	; 0x84
8010f808:	e5803090 	str	r3, [r0, #144]	; 0x90
8010f80c:	e580308c 	str	r3, [r0, #140]	; 0x8c
8010f810:	e12fff1e 	bx	lr

8010f814 <proto_copy>:
8010f814:	e5903088 	ldr	r3, [r0, #136]	; 0x88
8010f818:	e1a0c00d 	mov	ip, sp
8010f81c:	e92dd8f0 	push	{r4, r5, r6, r7, fp, ip, lr, pc}
8010f820:	e1a04000 	mov	r4, r0
8010f824:	e24cb004 	sub	fp, ip, #4
8010f828:	e5900080 	ldr	r0, [r0, #128]	; 0x80
8010f82c:	e1a05002 	mov	r5, r2
8010f830:	e1a06001 	mov	r6, r1
8010f834:	e1530002 	cmp	r3, r2
8010f838:	2a000008 	bcs	8010f860 <proto_copy+0x4c>
8010f83c:	e3500000 	cmp	r0, #0
8010f840:	0a000002 	beq	8010f850 <proto_copy+0x3c>
8010f844:	e1500004 	cmp	r0, r4
8010f848:	0a000000 	beq	8010f850 <proto_copy+0x3c>
8010f84c:	eb000894 	bl	80111aa4 <kfree>
8010f850:	e1a00005 	mov	r0, r5
8010f854:	eb000873 	bl	80111a28 <kmalloc>
8010f858:	e5845088 	str	r5, [r4, #136]	; 0x88
8010f85c:	e5840080 	str	r0, [r4, #128]	; 0x80
8010f860:	e1a02005 	mov	r2, r5
8010f864:	e1a01006 	mov	r1, r6
8010f868:	ebfffd2f 	bl	8010ed2c <memcpy>
8010f86c:	e3a03000 	mov	r3, #0
8010f870:	e5845084 	str	r5, [r4, #132]	; 0x84
8010f874:	e584308c 	str	r3, [r4, #140]	; 0x8c
8010f878:	e5843090 	str	r3, [r4, #144]	; 0x90
8010f87c:	e89da8f0 	ldm	sp, {r4, r5, r6, r7, fp, sp, pc}

8010f880 <proto_clear>:
8010f880:	e1a0c00d 	mov	ip, sp
8010f884:	e92dd830 	push	{r4, r5, fp, ip, lr, pc}
8010f888:	e1a04000 	mov	r4, r0
8010f88c:	e5900080 	ldr	r0, [r0, #128]	; 0x80
8010f890:	e3a03000 	mov	r3, #0
8010f894:	e24cb004 	sub	fp, ip, #4
8010f898:	e1500003 	cmp	r0, r3
8010f89c:	e5843084 	str	r3, [r4, #132]	; 0x84
8010f8a0:	e584308c 	str	r3, [r4, #140]	; 0x8c
8010f8a4:	0a000002 	beq	8010f8b4 <proto_clear+0x34>
8010f8a8:	e1500004 	cmp	r0, r4
8010f8ac:	0a000000 	beq	8010f8b4 <proto_clear+0x34>
8010f8b0:	eb00087b 	bl	80111aa4 <kfree>
8010f8b4:	e3a03080 	mov	r3, #128	; 0x80
8010f8b8:	e5844080 	str	r4, [r4, #128]	; 0x80
8010f8bc:	e5843088 	str	r3, [r4, #136]	; 0x88
8010f8c0:	e89da830 	ldm	sp, {r4, r5, fp, sp, pc}

8010f8c4 <ret_idivmod_values>:
8010f8c4:	e12fff1e 	bx	lr

8010f8c8 <ret_uidivmod_values>:
8010f8c8:	e12fff1e 	bx	lr

8010f8cc <__aeabi_ldivmod>:
8010f8cc:	e92d5000 	push	{ip, lr}
8010f8d0:	e92d000f 	push	{r0, r1, r2, r3}
8010f8d4:	e1a0000d 	mov	r0, sp
8010f8d8:	eb0000bc 	bl	8010fbd0 <__l_divmod>
8010f8dc:	e8bd000f 	pop	{r0, r1, r2, r3}
8010f8e0:	e8bd9000 	pop	{ip, pc}

8010f8e4 <__aeabi_uldivmod>:
8010f8e4:	e92d5000 	push	{ip, lr}
8010f8e8:	e92d000f 	push	{r0, r1, r2, r3}
8010f8ec:	e1a0000d 	mov	r0, sp
8010f8f0:	eb000083 	bl	8010fb04 <__ul_divmod>
8010f8f4:	e8bd000f 	pop	{r0, r1, r2, r3}
8010f8f8:	e8bd9000 	pop	{ip, pc}

8010f8fc <uint_div_qr>:
8010f8fc:	e3510000 	cmp	r1, #0
8010f900:	0a00001c 	beq	8010f978 <uint_div_qr+0x7c>
8010f904:	e3a03001 	mov	r3, #1
8010f908:	ba000005 	blt	8010f924 <uint_div_qr+0x28>
8010f90c:	e1a03083 	lsl	r3, r3, #1
8010f910:	e1b01081 	lsls	r1, r1, #1
8010f914:	5afffffc 	bpl	8010f90c <uint_div_qr+0x10>
8010f918:	e3530000 	cmp	r3, #0
8010f91c:	01a0c003 	moveq	ip, r3
8010f920:	0a000007 	beq	8010f944 <uint_div_qr+0x48>
8010f924:	e3a0c000 	mov	ip, #0
8010f928:	e1510000 	cmp	r1, r0
8010f92c:	e1a0c08c 	lsl	ip, ip, #1
8010f930:	90400001 	subls	r0, r0, r1
8010f934:	928cc001 	addls	ip, ip, #1
8010f938:	e1a010a1 	lsr	r1, r1, #1
8010f93c:	e1b030a3 	lsrs	r3, r3, #1
8010f940:	1afffff8 	bne	8010f928 <uint_div_qr+0x2c>
8010f944:	e5820004 	str	r0, [r2, #4]
8010f948:	e582c000 	str	ip, [r2]
8010f94c:	e5923008 	ldr	r3, [r2, #8]
8010f950:	e3530000 	cmp	r3, #0
8010f954:	15923000 	ldrne	r3, [r2]
8010f958:	12633000 	rsbne	r3, r3, #0
8010f95c:	15823000 	strne	r3, [r2]
8010f960:	e592300c 	ldr	r3, [r2, #12]
8010f964:	e3530000 	cmp	r3, #0
8010f968:	15923004 	ldrne	r3, [r2, #4]
8010f96c:	12633000 	rsbne	r3, r3, #0
8010f970:	15823004 	strne	r3, [r2, #4]
8010f974:	e12fff1e 	bx	lr
8010f978:	e3e03000 	mvn	r3, #0
8010f97c:	e5823004 	str	r3, [r2, #4]
8010f980:	eafffff1 	b	8010f94c <uint_div_qr+0x50>

8010f984 <__aeabi_uidiv>:
8010f984:	e1a0c00d 	mov	ip, sp
8010f988:	e92dd800 	push	{fp, ip, lr, pc}
8010f98c:	e24cb004 	sub	fp, ip, #4
8010f990:	e24b201c 	sub	r2, fp, #28
8010f994:	e24dd010 	sub	sp, sp, #16
8010f998:	e3a03000 	mov	r3, #0
8010f99c:	e50b301c 	str	r3, [fp, #-28]	; 0xffffffe4
8010f9a0:	e5823004 	str	r3, [r2, #4]
8010f9a4:	e5823008 	str	r3, [r2, #8]
8010f9a8:	e582300c 	str	r3, [r2, #12]
8010f9ac:	ebffffd2 	bl	8010f8fc <uint_div_qr>
8010f9b0:	e51b001c 	ldr	r0, [fp, #-28]	; 0xffffffe4
8010f9b4:	e24bd00c 	sub	sp, fp, #12
8010f9b8:	e89da800 	ldm	sp, {fp, sp, pc}

8010f9bc <__aeabi_uidivmod>:
8010f9bc:	e1a0c00d 	mov	ip, sp
8010f9c0:	e92dd800 	push	{fp, ip, lr, pc}
8010f9c4:	e24cb004 	sub	fp, ip, #4
8010f9c8:	e24b201c 	sub	r2, fp, #28
8010f9cc:	e24dd010 	sub	sp, sp, #16
8010f9d0:	e3a03000 	mov	r3, #0
8010f9d4:	e50b301c 	str	r3, [fp, #-28]	; 0xffffffe4
8010f9d8:	e5823004 	str	r3, [r2, #4]
8010f9dc:	e5823008 	str	r3, [r2, #8]
8010f9e0:	e582300c 	str	r3, [r2, #12]
8010f9e4:	ebffffc4 	bl	8010f8fc <uint_div_qr>
8010f9e8:	e14b01dc 	ldrd	r0, [fp, #-28]	; 0xffffffe4
8010f9ec:	ebffffb5 	bl	8010f8c8 <ret_uidivmod_values>
8010f9f0:	e24bd00c 	sub	sp, fp, #12
8010f9f4:	e89da800 	ldm	sp, {fp, sp, pc}

8010f9f8 <__aeabi_idiv>:
8010f9f8:	e1a0c00d 	mov	ip, sp
8010f9fc:	e92dd800 	push	{fp, ip, lr, pc}
8010fa00:	e24cb004 	sub	fp, ip, #4
8010fa04:	e24b201c 	sub	r2, fp, #28
8010fa08:	e3510000 	cmp	r1, #0
8010fa0c:	e3a03000 	mov	r3, #0
8010fa10:	d1a0c003 	movle	ip, r3
8010fa14:	c3a0c001 	movgt	ip, #1
8010fa18:	e24dd010 	sub	sp, sp, #16
8010fa1c:	e01ccfa0 	ands	ip, ip, r0, lsr #31
8010fa20:	e50b301c 	str	r3, [fp, #-28]	; 0xffffffe4
8010fa24:	e5823004 	str	r3, [r2, #4]
8010fa28:	e5823008 	str	r3, [r2, #8]
8010fa2c:	e582300c 	str	r3, [r2, #12]
8010fa30:	1a000005 	bne	8010fa4c <__aeabi_idiv+0x54>
8010fa34:	e1500003 	cmp	r0, r3
8010fa38:	e1a03fa1 	lsr	r3, r1, #31
8010fa3c:	c2033001 	andgt	r3, r3, #1
8010fa40:	d3a03000 	movle	r3, #0
8010fa44:	e3530000 	cmp	r3, #0
8010fa48:	0a000001 	beq	8010fa54 <__aeabi_idiv+0x5c>
8010fa4c:	e3a03001 	mov	r3, #1
8010fa50:	e50b3014 	str	r3, [fp, #-20]	; 0xffffffec
8010fa54:	e3500000 	cmp	r0, #0
8010fa58:	b2600000 	rsblt	r0, r0, #0
8010fa5c:	b3a03001 	movlt	r3, #1
8010fa60:	b50b3010 	strlt	r3, [fp, #-16]
8010fa64:	e3510000 	cmp	r1, #0
8010fa68:	b2611000 	rsblt	r1, r1, #0
8010fa6c:	ebffffa2 	bl	8010f8fc <uint_div_qr>
8010fa70:	e51b001c 	ldr	r0, [fp, #-28]	; 0xffffffe4
8010fa74:	e24bd00c 	sub	sp, fp, #12
8010fa78:	e89da800 	ldm	sp, {fp, sp, pc}

8010fa7c <__aeabi_idivmod>:
8010fa7c:	e1a0c00d 	mov	ip, sp
8010fa80:	e92dd800 	push	{fp, ip, lr, pc}
8010fa84:	e24cb004 	sub	fp, ip, #4
8010fa88:	e24b201c 	sub	r2, fp, #28
8010fa8c:	e3510000 	cmp	r1, #0
8010fa90:	e3a03000 	mov	r3, #0
8010fa94:	d1a0c003 	movle	ip, r3
8010fa98:	c3a0c001 	movgt	ip, #1
8010fa9c:	e24dd010 	sub	sp, sp, #16
8010faa0:	e01ccfa0 	ands	ip, ip, r0, lsr #31
8010faa4:	e50b301c 	str	r3, [fp, #-28]	; 0xffffffe4
8010faa8:	e5823004 	str	r3, [r2, #4]
8010faac:	e5823008 	str	r3, [r2, #8]
8010fab0:	e582300c 	str	r3, [r2, #12]
8010fab4:	1a000005 	bne	8010fad0 <__aeabi_idivmod+0x54>
8010fab8:	e1500003 	cmp	r0, r3
8010fabc:	e1a03fa1 	lsr	r3, r1, #31
8010fac0:	c2033001 	andgt	r3, r3, #1
8010fac4:	d3a03000 	movle	r3, #0
8010fac8:	e3530000 	cmp	r3, #0
8010facc:	0a000001 	beq	8010fad8 <__aeabi_idivmod+0x5c>
8010fad0:	e3a03001 	mov	r3, #1
8010fad4:	e50b3014 	str	r3, [fp, #-20]	; 0xffffffec
8010fad8:	e3500000 	cmp	r0, #0
8010fadc:	b2600000 	rsblt	r0, r0, #0
8010fae0:	b3a03001 	movlt	r3, #1
8010fae4:	b50b3010 	strlt	r3, [fp, #-16]
8010fae8:	e3510000 	cmp	r1, #0
8010faec:	b2611000 	rsblt	r1, r1, #0
8010faf0:	ebffff81 	bl	8010f8fc <uint_div_qr>
8010faf4:	e14b01dc 	ldrd	r0, [fp, #-28]	; 0xffffffe4
8010faf8:	ebffff71 	bl	8010f8c4 <ret_idivmod_values>
8010fafc:	e24bd00c 	sub	sp, fp, #12
8010fb00:	e89da800 	ldm	sp, {fp, sp, pc}

8010fb04 <__ul_divmod>:
8010fb04:	e5903008 	ldr	r3, [r0, #8]
8010fb08:	e590100c 	ldr	r1, [r0, #12]
8010fb0c:	e92d41f0 	push	{r4, r5, r6, r7, r8, lr}
8010fb10:	e1932001 	orrs	r2, r3, r1
8010fb14:	e5907000 	ldr	r7, [r0]
8010fb18:	e5906004 	ldr	r6, [r0, #4]
8010fb1c:	0a000025 	beq	8010fbb8 <__ul_divmod+0xb4>
8010fb20:	e3510000 	cmp	r1, #0
8010fb24:	e3a0e001 	mov	lr, #1
8010fb28:	e3a04000 	mov	r4, #0
8010fb2c:	ba000007 	blt	8010fb50 <__ul_divmod+0x4c>
8010fb30:	e09ee00e 	adds	lr, lr, lr
8010fb34:	e0a44004 	adc	r4, r4, r4
8010fb38:	e0933003 	adds	r3, r3, r3
8010fb3c:	e0a11001 	adc	r1, r1, r1
8010fb40:	e3510000 	cmp	r1, #0
8010fb44:	aafffff9 	bge	8010fb30 <__ul_divmod+0x2c>
8010fb48:	e19e2004 	orrs	r2, lr, r4
8010fb4c:	0a00001c 	beq	8010fbc4 <__ul_divmod+0xc0>
8010fb50:	e1a02003 	mov	r2, r3
8010fb54:	e1a05001 	mov	r5, r1
8010fb58:	e3a03000 	mov	r3, #0
8010fb5c:	e1a01003 	mov	r1, r3
8010fb60:	e0933003 	adds	r3, r3, r3
8010fb64:	e1a0e0ae 	lsr	lr, lr, #1
8010fb68:	e0a11001 	adc	r1, r1, r1
8010fb6c:	e1570002 	cmp	r7, r2
8010fb70:	e18eef84 	orr	lr, lr, r4, lsl #31
8010fb74:	e1a0c0a2 	lsr	ip, r2, #1
8010fb78:	e1a040a4 	lsr	r4, r4, #1
8010fb7c:	e0d68005 	sbcs	r8, r6, r5
8010fb80:	3a000004 	bcc	8010fb98 <__ul_divmod+0x94>
8010fb84:	e0572002 	subs	r2, r7, r2
8010fb88:	e0c66005 	sbc	r6, r6, r5
8010fb8c:	e2933001 	adds	r3, r3, #1
8010fb90:	e2a11000 	adc	r1, r1, #0
8010fb94:	e1a07002 	mov	r7, r2
8010fb98:	e18c2f85 	orr	r2, ip, r5, lsl #31
8010fb9c:	e19ec004 	orrs	ip, lr, r4
8010fba0:	e1a050a5 	lsr	r5, r5, #1
8010fba4:	1affffed 	bne	8010fb60 <__ul_divmod+0x5c>
8010fba8:	e5803000 	str	r3, [r0]
8010fbac:	e9800082 	stmib	r0, {r1, r7}
8010fbb0:	e580600c 	str	r6, [r0, #12]
8010fbb4:	e8bd81f0 	pop	{r4, r5, r6, r7, r8, pc}
8010fbb8:	e3e07000 	mvn	r7, #0
8010fbbc:	e1a06007 	mov	r6, r7
8010fbc0:	eafffff8 	b	8010fba8 <__ul_divmod+0xa4>
8010fbc4:	e1a0300e 	mov	r3, lr
8010fbc8:	e1a01004 	mov	r1, r4
8010fbcc:	eafffff5 	b	8010fba8 <__ul_divmod+0xa4>

8010fbd0 <__l_divmod>:
8010fbd0:	e5903008 	ldr	r3, [r0, #8]
8010fbd4:	e590c00c 	ldr	ip, [r0, #12]
8010fbd8:	e92d47f0 	push	{r4, r5, r6, r7, r8, r9, sl, lr}
8010fbdc:	e3530001 	cmp	r3, #1
8010fbe0:	e2dc2000 	sbcs	r2, ip, #0
8010fbe4:	e8900060 	ldm	r0, {r5, r6}
8010fbe8:	a3a07001 	movge	r7, #1
8010fbec:	b3a07000 	movlt	r7, #0
8010fbf0:	e0177fa6 	ands	r7, r7, r6, lsr #31
8010fbf4:	1a000035 	bne	8010fcd0 <__l_divmod+0x100>
8010fbf8:	e3550001 	cmp	r5, #1
8010fbfc:	e1a01fac 	lsr	r1, ip, #31
8010fc00:	e2d62000 	sbcs	r2, r6, #0
8010fc04:	a2011001 	andge	r1, r1, #1
8010fc08:	b3a01000 	movlt	r1, #0
8010fc0c:	e3510000 	cmp	r1, #0
8010fc10:	0a000035 	beq	8010fcec <__l_divmod+0x11c>
8010fc14:	e3560000 	cmp	r6, #0
8010fc18:	ba00002c 	blt	8010fcd0 <__l_divmod+0x100>
8010fc1c:	e3a08001 	mov	r8, #1
8010fc20:	e1a02fcc 	asr	r2, ip, #31
8010fc24:	e3a0e000 	mov	lr, #0
8010fc28:	e0233002 	eor	r3, r3, r2
8010fc2c:	e02cc002 	eor	ip, ip, r2
8010fc30:	e0533002 	subs	r3, r3, r2
8010fc34:	e0ccc002 	sbc	ip, ip, r2
8010fc38:	e3a02001 	mov	r2, #1
8010fc3c:	e0922002 	adds	r2, r2, r2
8010fc40:	e0aee00e 	adc	lr, lr, lr
8010fc44:	e0933003 	adds	r3, r3, r3
8010fc48:	e0acc00c 	adc	ip, ip, ip
8010fc4c:	e35c0000 	cmp	ip, #0
8010fc50:	aafffff9 	bge	8010fc3c <__l_divmod+0x6c>
8010fc54:	e192100e 	orrs	r1, r2, lr
8010fc58:	0a000035 	beq	8010fd34 <__l_divmod+0x164>
8010fc5c:	e3a01000 	mov	r1, #0
8010fc60:	e1a04001 	mov	r4, r1
8010fc64:	e0911001 	adds	r1, r1, r1
8010fc68:	e1a020a2 	lsr	r2, r2, #1
8010fc6c:	e0a44004 	adc	r4, r4, r4
8010fc70:	e1550003 	cmp	r5, r3
8010fc74:	e1822f8e 	orr	r2, r2, lr, lsl #31
8010fc78:	e1a090a3 	lsr	r9, r3, #1
8010fc7c:	e1a0e0ae 	lsr	lr, lr, #1
8010fc80:	e0d6a00c 	sbcs	sl, r6, ip
8010fc84:	3a000003 	bcc	8010fc98 <__l_divmod+0xc8>
8010fc88:	e0555003 	subs	r5, r5, r3
8010fc8c:	e0c6600c 	sbc	r6, r6, ip
8010fc90:	e2911001 	adds	r1, r1, #1
8010fc94:	e2a44000 	adc	r4, r4, #0
8010fc98:	e1893f8c 	orr	r3, r9, ip, lsl #31
8010fc9c:	e192900e 	orrs	r9, r2, lr
8010fca0:	e1a0c0ac 	lsr	ip, ip, #1
8010fca4:	1affffee 	bne	8010fc64 <__l_divmod+0x94>
8010fca8:	e3580000 	cmp	r8, #0
8010fcac:	0a000001 	beq	8010fcb8 <__l_divmod+0xe8>
8010fcb0:	e2711000 	rsbs	r1, r1, #0
8010fcb4:	e2e44000 	rsc	r4, r4, #0
8010fcb8:	e3570000 	cmp	r7, #0
8010fcbc:	0a000001 	beq	8010fcc8 <__l_divmod+0xf8>
8010fcc0:	e2755000 	rsbs	r5, r5, #0
8010fcc4:	e2e66000 	rsc	r6, r6, #0
8010fcc8:	e8800072 	stm	r0, {r1, r4, r5, r6}
8010fccc:	e8bd87f0 	pop	{r4, r5, r6, r7, r8, r9, sl, pc}
8010fcd0:	e3a08001 	mov	r8, #1
8010fcd4:	e2755000 	rsbs	r5, r5, #0
8010fcd8:	e2e66000 	rsc	r6, r6, #0
8010fcdc:	e193200c 	orrs	r2, r3, ip
8010fce0:	0a00000d 	beq	8010fd1c <__l_divmod+0x14c>
8010fce4:	e3a07001 	mov	r7, #1
8010fce8:	eaffffcc 	b	8010fc20 <__l_divmod+0x50>
8010fcec:	e3560000 	cmp	r6, #0
8010fcf0:	b1a08001 	movlt	r8, r1
8010fcf4:	bafffff6 	blt	8010fcd4 <__l_divmod+0x104>
8010fcf8:	e193200c 	orrs	r2, r3, ip
8010fcfc:	11a08001 	movne	r8, r1
8010fd00:	11a07008 	movne	r7, r8
8010fd04:	1affffc5 	bne	8010fc20 <__l_divmod+0x50>
8010fd08:	e3e05000 	mvn	r5, #0
8010fd0c:	e1a04001 	mov	r4, r1
8010fd10:	e1a06005 	mov	r6, r5
8010fd14:	e8800072 	stm	r0, {r1, r4, r5, r6}
8010fd18:	e8bd87f0 	pop	{r4, r5, r6, r7, r8, r9, sl, pc}
8010fd1c:	e3e05000 	mvn	r5, #0
8010fd20:	e3a01000 	mov	r1, #0
8010fd24:	e1a06005 	mov	r6, r5
8010fd28:	e1a04001 	mov	r4, r1
8010fd2c:	e3a07001 	mov	r7, #1
8010fd30:	eaffffdc 	b	8010fca8 <__l_divmod+0xd8>
8010fd34:	e1a01002 	mov	r1, r2
8010fd38:	e1a0400e 	mov	r4, lr
8010fd3c:	eaffffd9 	b	8010fca8 <__l_divmod+0xd8>

8010fd40 <queue_init>:
8010fd40:	e3a03000 	mov	r3, #0
8010fd44:	e5803004 	str	r3, [r0, #4]
8010fd48:	e5803000 	str	r3, [r0]
8010fd4c:	e12fff1e 	bx	lr

8010fd50 <queue_push>:
8010fd50:	e1a0c00d 	mov	ip, sp
8010fd54:	e92dd8f0 	push	{r4, r5, r6, r7, fp, ip, lr, pc}
8010fd58:	e1a05000 	mov	r5, r0
8010fd5c:	e24cb004 	sub	fp, ip, #4
8010fd60:	e3a0000c 	mov	r0, #12
8010fd64:	e1a06001 	mov	r6, r1
8010fd68:	eb00072e 	bl	80111a28 <kmalloc>
8010fd6c:	e3a0200c 	mov	r2, #12
8010fd70:	e3a01000 	mov	r1, #0
8010fd74:	e1a04000 	mov	r4, r0
8010fd78:	ebfffc0b 	bl	8010edac <memset>
8010fd7c:	e5953004 	ldr	r3, [r5, #4]
8010fd80:	e5846000 	str	r6, [r4]
8010fd84:	e3530000 	cmp	r3, #0
8010fd88:	15834008 	strne	r4, [r3, #8]
8010fd8c:	05854004 	streq	r4, [r5, #4]
8010fd90:	15843004 	strne	r3, [r4, #4]
8010fd94:	05854000 	streq	r4, [r5]
8010fd98:	15854004 	strne	r4, [r5, #4]
8010fd9c:	e89da8f0 	ldm	sp, {r4, r5, r6, r7, fp, sp, pc}

8010fda0 <queue_push_head>:
8010fda0:	e1a0c00d 	mov	ip, sp
8010fda4:	e92dd8f0 	push	{r4, r5, r6, r7, fp, ip, lr, pc}
8010fda8:	e1a05000 	mov	r5, r0
8010fdac:	e24cb004 	sub	fp, ip, #4
8010fdb0:	e3a0000c 	mov	r0, #12
8010fdb4:	e1a06001 	mov	r6, r1
8010fdb8:	eb00071a 	bl	80111a28 <kmalloc>
8010fdbc:	e3a0200c 	mov	r2, #12
8010fdc0:	e3a01000 	mov	r1, #0
8010fdc4:	e1a04000 	mov	r4, r0
8010fdc8:	ebfffbf7 	bl	8010edac <memset>
8010fdcc:	e5953000 	ldr	r3, [r5]
8010fdd0:	e5846000 	str	r6, [r4]
8010fdd4:	e3530000 	cmp	r3, #0
8010fdd8:	15834004 	strne	r4, [r3, #4]
8010fddc:	05854004 	streq	r4, [r5, #4]
8010fde0:	15843008 	strne	r3, [r4, #8]
8010fde4:	e5854000 	str	r4, [r5]
8010fde8:	e89da8f0 	ldm	sp, {r4, r5, r6, r7, fp, sp, pc}

8010fdec <queue_pop>:
8010fdec:	e1a03000 	mov	r3, r0
8010fdf0:	e5900000 	ldr	r0, [r0]
8010fdf4:	e1a0c00d 	mov	ip, sp
8010fdf8:	e92dd830 	push	{r4, r5, fp, ip, lr, pc}
8010fdfc:	e3500000 	cmp	r0, #0
8010fe00:	e24cb004 	sub	fp, ip, #4
8010fe04:	0a000009 	beq	8010fe30 <queue_pop+0x44>
8010fe08:	e5902008 	ldr	r2, [r0, #8]
8010fe0c:	e5832000 	str	r2, [r3]
8010fe10:	e3520000 	cmp	r2, #0
8010fe14:	05832004 	streq	r2, [r3, #4]
8010fe18:	e5904000 	ldr	r4, [r0]
8010fe1c:	13a03000 	movne	r3, #0
8010fe20:	15823004 	strne	r3, [r2, #4]
8010fe24:	eb00071e 	bl	80111aa4 <kfree>
8010fe28:	e1a00004 	mov	r0, r4
8010fe2c:	e89da830 	ldm	sp, {r4, r5, fp, sp, pc}
8010fe30:	e1a04000 	mov	r4, r0
8010fe34:	eafffffb 	b	8010fe28 <queue_pop+0x3c>

8010fe38 <queue_in>:
8010fe38:	e5900000 	ldr	r0, [r0]
8010fe3c:	e3500000 	cmp	r0, #0
8010fe40:	012fff1e 	bxeq	lr
8010fe44:	e5903000 	ldr	r3, [r0]
8010fe48:	e1530001 	cmp	r3, r1
8010fe4c:	012fff1e 	bxeq	lr
8010fe50:	e5900008 	ldr	r0, [r0, #8]
8010fe54:	e3500000 	cmp	r0, #0
8010fe58:	1afffff9 	bne	8010fe44 <queue_in+0xc>
8010fe5c:	e12fff1e 	bx	lr

8010fe60 <queue_remove>:
8010fe60:	e1a03000 	mov	r3, r0
8010fe64:	e2510000 	subs	r0, r1, #0
8010fe68:	012fff1e 	bxeq	lr
8010fe6c:	e5902008 	ldr	r2, [r0, #8]
8010fe70:	e3520000 	cmp	r2, #0
8010fe74:	15901004 	ldrne	r1, [r0, #4]
8010fe78:	15821004 	strne	r1, [r2, #4]
8010fe7c:	e5901004 	ldr	r1, [r0, #4]
8010fe80:	e3510000 	cmp	r1, #0
8010fe84:	15812008 	strne	r2, [r1, #8]
8010fe88:	e5932000 	ldr	r2, [r3]
8010fe8c:	e1520000 	cmp	r2, r0
8010fe90:	05902008 	ldreq	r2, [r0, #8]
8010fe94:	05832000 	streq	r2, [r3]
8010fe98:	e5932004 	ldr	r2, [r3, #4]
8010fe9c:	e1520000 	cmp	r2, r0
8010fea0:	05831004 	streq	r1, [r3, #4]
8010fea4:	ea0006fe 	b	80111aa4 <kfree>

8010fea8 <queue_clear>:
8010fea8:	e1a0c00d 	mov	ip, sp
8010feac:	e92dd8f0 	push	{r4, r5, r6, r7, fp, ip, lr, pc}
8010feb0:	e5904000 	ldr	r4, [r0]
8010feb4:	e24cb004 	sub	fp, ip, #4
8010feb8:	e1a07000 	mov	r7, r0
8010febc:	e1a06001 	mov	r6, r1
8010fec0:	e3540000 	cmp	r4, #0
8010fec4:	0a00000b 	beq	8010fef8 <queue_clear+0x50>
8010fec8:	e1a05004 	mov	r5, r4
8010fecc:	e3560000 	cmp	r6, #0
8010fed0:	e5944008 	ldr	r4, [r4, #8]
8010fed4:	0a000003 	beq	8010fee8 <queue_clear+0x40>
8010fed8:	e5950000 	ldr	r0, [r5]
8010fedc:	e3500000 	cmp	r0, #0
8010fee0:	0a000000 	beq	8010fee8 <queue_clear+0x40>
8010fee4:	e12fff36 	blx	r6
8010fee8:	e1a00005 	mov	r0, r5
8010feec:	eb0006ec 	bl	80111aa4 <kfree>
8010fef0:	e3540000 	cmp	r4, #0
8010fef4:	1afffff3 	bne	8010fec8 <queue_clear+0x20>
8010fef8:	e3a03000 	mov	r3, #0
8010fefc:	e5873004 	str	r3, [r7, #4]
8010ff00:	e5873000 	str	r3, [r7]
8010ff04:	e89da8f0 	ldm	sp, {r4, r5, r6, r7, fp, sp, pc}

8010ff08 <queue_is_empty>:
8010ff08:	e5900000 	ldr	r0, [r0]
8010ff0c:	e16f0f10 	clz	r0, r0
8010ff10:	e1a002a0 	lsr	r0, r0, #5
8010ff14:	e12fff1e 	bx	lr

8010ff18 <outc>:
8010ff18:	e59f302c 	ldr	r3, [pc, #44]	; 8010ff4c <outc+0x34>
8010ff1c:	e08f3003 	add	r3, pc, r3
8010ff20:	e5931000 	ldr	r1, [r3]
8010ff24:	e2812001 	add	r2, r1, #1
8010ff28:	e3520c02 	cmp	r2, #512	; 0x200
8010ff2c:	212fff1e 	bxcs	lr
8010ff30:	e1a0c003 	mov	ip, r3
8010ff34:	e0833001 	add	r3, r3, r1
8010ff38:	e3a01000 	mov	r1, #0
8010ff3c:	e68c2002 	str	r2, [ip], r2
8010ff40:	e5c30004 	strb	r0, [r3, #4]
8010ff44:	e5cc1004 	strb	r1, [ip, #4]
8010ff48:	e12fff1e 	bx	lr
8010ff4c:	0000e108 	andeq	lr, r0, r8, lsl #2

8010ff50 <kout>:
8010ff50:	e1a0c00d 	mov	ip, sp
8010ff54:	e92dd830 	push	{r4, r5, fp, ip, lr, pc}
8010ff58:	e24cb004 	sub	fp, ip, #4
8010ff5c:	e1a04000 	mov	r4, r0
8010ff60:	ebfffc8c 	bl	8010f198 <strlen>
8010ff64:	e1a01000 	mov	r1, r0
8010ff68:	e1a00004 	mov	r0, r4
8010ff6c:	ebfff3e7 	bl	8010cf10 <uart_write>
8010ff70:	e1a00004 	mov	r0, r4
8010ff74:	e24bd014 	sub	sp, fp, #20
8010ff78:	e89d6830 	ldm	sp, {r4, r5, fp, sp, lr}
8010ff7c:	ea0009d9 	b	801126e8 <kconsole_input>

8010ff80 <printf>:
8010ff80:	e1a0c00d 	mov	ip, sp
8010ff84:	e92d000f 	push	{r0, r1, r2, r3}
8010ff88:	e59f003c 	ldr	r0, [pc, #60]	; 8010ffcc <printf+0x4c>
8010ff8c:	e92dd810 	push	{r4, fp, ip, lr, pc}
8010ff90:	e24cb014 	sub	fp, ip, #20
8010ff94:	e59f4034 	ldr	r4, [pc, #52]	; 8010ffd0 <printf+0x50>
8010ff98:	e24dd00c 	sub	sp, sp, #12
8010ff9c:	e3a01000 	mov	r1, #0
8010ffa0:	e08f4004 	add	r4, pc, r4
8010ffa4:	e28b3008 	add	r3, fp, #8
8010ffa8:	e59b2004 	ldr	r2, [fp, #4]
8010ffac:	e08f0000 	add	r0, pc, r0
8010ffb0:	e50b3018 	str	r3, [fp, #-24]	; 0xffffffe8
8010ffb4:	e4841004 	str	r1, [r4], #4
8010ffb8:	ebfffcfc 	bl	8010f3b0 <v_printf>
8010ffbc:	e1a00004 	mov	r0, r4
8010ffc0:	ebffffe2 	bl	8010ff50 <kout>
8010ffc4:	e24bd010 	sub	sp, fp, #16
8010ffc8:	e89da810 	ldm	sp, {r4, fp, sp, pc}
8010ffcc:	ffffff64 			; <UNDEFINED> instruction: 0xffffff64
8010ffd0:	0000e084 	andeq	lr, r0, r4, lsl #1

8010ffd4 <argb>:
8010ffd4:	e1833402 	orr	r3, r3, r2, lsl #8
8010ffd8:	e1833801 	orr	r3, r3, r1, lsl #16
8010ffdc:	e1830c00 	orr	r0, r3, r0, lsl #24
8010ffe0:	e12fff1e 	bx	lr

8010ffe4 <graph_new>:
8010ffe4:	e1a0c00d 	mov	ip, sp
8010ffe8:	e92ddbf0 	push	{r4, r5, r6, r7, r8, r9, fp, ip, lr, pc}
8010ffec:	e2515000 	subs	r5, r1, #0
8010fff0:	e24cb004 	sub	fp, ip, #4
8010fff4:	e1a08000 	mov	r8, r0
8010fff8:	d3a07001 	movle	r7, #1
8010fffc:	c3a07000 	movgt	r7, #0
80110000:	e2526000 	subs	r6, r2, #0
80110004:	d3877001 	orrle	r7, r7, #1
80110008:	e3570000 	cmp	r7, #0
8011000c:	13a04000 	movne	r4, #0
80110010:	1a000007 	bne	80110034 <graph_new+0x50>
80110014:	e3a00010 	mov	r0, #16
80110018:	eb000682 	bl	80111a28 <kmalloc>
8011001c:	e3580000 	cmp	r8, #0
80110020:	e1a04000 	mov	r4, r0
80110024:	e9800060 	stmib	r0, {r5, r6}
80110028:	0a000003 	beq	8011003c <graph_new+0x58>
8011002c:	e5808000 	str	r8, [r0]
80110030:	e5c0700c 	strb	r7, [r0, #12]
80110034:	e1a00004 	mov	r0, r4
80110038:	e89dabf0 	ldm	sp, {r4, r5, r6, r7, r8, r9, fp, sp, pc}
8011003c:	e0000596 	mul	r0, r6, r5
80110040:	e1a00100 	lsl	r0, r0, #2
80110044:	eb000677 	bl	80111a28 <kmalloc>
80110048:	e3a03001 	mov	r3, #1
8011004c:	e5840000 	str	r0, [r4]
80110050:	e1a00004 	mov	r0, r4
80110054:	e5c4300c 	strb	r3, [r4, #12]
80110058:	e89dabf0 	ldm	sp, {r4, r5, r6, r7, r8, r9, fp, sp, pc}

8011005c <graph_free>:
8011005c:	e1a0c00d 	mov	ip, sp
80110060:	e92dd830 	push	{r4, r5, fp, ip, lr, pc}
80110064:	e2504000 	subs	r4, r0, #0
80110068:	e24cb004 	sub	fp, ip, #4
8011006c:	089da830 	ldmeq	sp, {r4, r5, fp, sp, pc}
80110070:	e5940000 	ldr	r0, [r4]
80110074:	e3500000 	cmp	r0, #0
80110078:	0a000002 	beq	80110088 <graph_free+0x2c>
8011007c:	e5d4300c 	ldrb	r3, [r4, #12]
80110080:	e3530000 	cmp	r3, #0
80110084:	1a000003 	bne	80110098 <graph_free+0x3c>
80110088:	e1a00004 	mov	r0, r4
8011008c:	e24bd014 	sub	sp, fp, #20
80110090:	e89d6830 	ldm	sp, {r4, r5, fp, sp, lr}
80110094:	ea000682 	b	80111aa4 <kfree>
80110098:	eb000681 	bl	80111aa4 <kfree>
8011009c:	e1a00004 	mov	r0, r4
801100a0:	e24bd014 	sub	sp, fp, #20
801100a4:	e89d6830 	ldm	sp, {r4, r5, fp, sp, lr}
801100a8:	ea00067d 	b	80111aa4 <kfree>

801100ac <graph_clear>:
801100ac:	e1a0c00d 	mov	ip, sp
801100b0:	e92ddbf0 	push	{r4, r5, r6, r7, r8, r9, fp, ip, lr, pc}
801100b4:	e2504000 	subs	r4, r0, #0
801100b8:	e24cb004 	sub	fp, ip, #4
801100bc:	089dabf0 	ldmeq	sp, {r4, r5, r6, r7, r8, r9, fp, sp, pc}
801100c0:	e5947004 	ldr	r7, [r4, #4]
801100c4:	e3570000 	cmp	r7, #0
801100c8:	089dabf0 	ldmeq	sp, {r4, r5, r6, r7, r8, r9, fp, sp, pc}
801100cc:	e5948000 	ldr	r8, [r4]
801100d0:	e1a07107 	lsl	r7, r7, #2
801100d4:	da000006 	ble	801100f4 <graph_clear+0x48>
801100d8:	e2482004 	sub	r2, r8, #4
801100dc:	e3a03000 	mov	r3, #0
801100e0:	e5a21004 	str	r1, [r2, #4]!
801100e4:	e2833001 	add	r3, r3, #1
801100e8:	e5940004 	ldr	r0, [r4, #4]
801100ec:	e1500003 	cmp	r0, r3
801100f0:	cafffffa 	bgt	801100e0 <graph_clear+0x34>
801100f4:	e5943008 	ldr	r3, [r4, #8]
801100f8:	e3530001 	cmp	r3, #1
801100fc:	d89dabf0 	ldmle	sp, {r4, r5, r6, r7, r8, r9, fp, sp, pc}
80110100:	e0886007 	add	r6, r8, r7
80110104:	e3a05001 	mov	r5, #1
80110108:	e1a00006 	mov	r0, r6
8011010c:	e1a02007 	mov	r2, r7
80110110:	e1a01008 	mov	r1, r8
80110114:	e2855001 	add	r5, r5, #1
80110118:	ebfffb03 	bl	8010ed2c <memcpy>
8011011c:	e5943008 	ldr	r3, [r4, #8]
80110120:	e0866007 	add	r6, r6, r7
80110124:	e1530005 	cmp	r3, r5
80110128:	cafffff6 	bgt	80110108 <graph_clear+0x5c>
8011012c:	e89dabf0 	ldm	sp, {r4, r5, r6, r7, r8, r9, fp, sp, pc}

80110130 <graph_reverse>:
80110130:	e3500000 	cmp	r0, #0
80110134:	e92d4010 	push	{r4, lr}
80110138:	08bd8010 	popeq	{r4, pc}
8011013c:	e5903004 	ldr	r3, [r0, #4]
80110140:	e5902008 	ldr	r2, [r0, #8]
80110144:	e0030392 	mul	r3, r2, r3
80110148:	e3530000 	cmp	r3, #0
8011014c:	d8bd8010 	pople	{r4, pc}
80110150:	e590c000 	ldr	ip, [r0]
80110154:	e3a0e000 	mov	lr, #0
80110158:	e24cc004 	sub	ip, ip, #4
8011015c:	e5bc3004 	ldr	r3, [ip, #4]!
80110160:	e28ee001 	add	lr, lr, #1
80110164:	e1e01003 	mvn	r1, r3
80110168:	e20344ff 	and	r4, r3, #-16777216	; 0xff000000
8011016c:	e20128ff 	and	r2, r1, #16711680	; 0xff0000
80110170:	e1e03003 	mvn	r3, r3
80110174:	e6ef1071 	uxtb	r1, r1
80110178:	e2033cff 	and	r3, r3, #65280	; 0xff00
8011017c:	e1811004 	orr	r1, r1, r4
80110180:	e1822001 	orr	r2, r2, r1
80110184:	e1823003 	orr	r3, r2, r3
80110188:	e58c3000 	str	r3, [ip]
8011018c:	e5903004 	ldr	r3, [r0, #4]
80110190:	e5902008 	ldr	r2, [r0, #8]
80110194:	e0030392 	mul	r3, r2, r3
80110198:	e153000e 	cmp	r3, lr
8011019c:	caffffee 	bgt	8011015c <graph_reverse+0x2c>
801101a0:	e8bd8010 	pop	{r4, pc}

801101a4 <blt16>:
801101a4:	e52de004 	push	{lr}		; (str lr, [sp, #-4]!)
801101a8:	e00e0293 	mul	lr, r3, r2
801101ac:	e35e0000 	cmp	lr, #0
801101b0:	049df004 	popeq	{pc}		; (ldreq pc, [sp], #4)
801101b4:	e2411002 	sub	r1, r1, #2
801101b8:	e080e10e 	add	lr, r0, lr, lsl #2
801101bc:	e4903004 	ldr	r3, [r0], #4
801101c0:	e15e0000 	cmp	lr, r0
801101c4:	e7e425d3 	ubfx	r2, r3, #11, #5
801101c8:	e7e4c9d3 	ubfx	ip, r3, #19, #5
801101cc:	e7e431d3 	ubfx	r3, r3, #3, #5
801101d0:	e1a02302 	lsl	r2, r2, #6
801101d4:	e182258c 	orr	r2, r2, ip, lsl #11
801101d8:	e1833002 	orr	r3, r3, r2
801101dc:	e1e130b2 	strh	r3, [r1, #2]!
801101e0:	1afffff5 	bne	801101bc <blt16+0x18>
801101e4:	e49df004 	pop	{pc}		; (ldr pc, [sp], #4)

801101e8 <graph_pixel>:
801101e8:	e8901001 	ldm	r0, {r0, ip}
801101ec:	e021129c 	mla	r1, ip, r2, r1
801101f0:	e7803101 	str	r3, [r0, r1, lsl #2]
801101f4:	e12fff1e 	bx	lr

801101f8 <graph_pixel_safe>:
801101f8:	e16fcf10 	clz	ip, r0
801101fc:	e52de004 	push	{lr}		; (str lr, [sp, #-4]!)
80110200:	e1a0c2ac 	lsr	ip, ip, #5
80110204:	e19ccfa1 	orrs	ip, ip, r1, lsr #31
80110208:	149df004 	popne	{pc}		; (ldrne pc, [sp], #4)
8011020c:	e590c004 	ldr	ip, [r0, #4]
80110210:	e15c0001 	cmp	ip, r1
80110214:	c3a0e000 	movgt	lr, #0
80110218:	d3a0e001 	movle	lr, #1
8011021c:	e19eefa2 	orrs	lr, lr, r2, lsr #31
80110220:	149df004 	popne	{pc}		; (ldrne pc, [sp], #4)
80110224:	e590e008 	ldr	lr, [r0, #8]
80110228:	e15e0002 	cmp	lr, r2
8011022c:	c0211c92 	mlagt	r1, r2, ip, r1
80110230:	c5902000 	ldrgt	r2, [r0]
80110234:	c7823101 	strgt	r3, [r2, r1, lsl #2]
80110238:	e49df004 	pop	{pc}		; (ldr pc, [sp], #4)

8011023c <graph_pixel_argb>:
8011023c:	e1a0c00d 	mov	ip, sp
80110240:	e92ddff8 	push	{r3, r4, r5, r6, r7, r8, r9, sl, fp, ip, lr, pc}
80110244:	e5904004 	ldr	r4, [r0, #4]
80110248:	e5905000 	ldr	r5, [r0]
8011024c:	e24cb004 	sub	fp, ip, #4
80110250:	e308c081 	movw	ip, #32897	; 0x8081
80110254:	e348c080 	movt	ip, #32896	; 0x8080
80110258:	e0241294 	mla	r4, r4, r2, r1
8011025c:	e5db9004 	ldrb	r9, [fp, #4]
80110260:	e5dba008 	ldrb	sl, [fp, #8]
80110264:	e5db600c 	ldrb	r6, [fp, #12]
80110268:	e795e104 	ldr	lr, [r5, r4, lsl #2]
8011026c:	e1690983 	smulbb	r9, r3, r9
80110270:	e16a0a83 	smulbb	sl, r3, sl
80110274:	e1660683 	smulbb	r6, r3, r6
80110278:	e1a00c2e 	lsr	r0, lr, #24
8011027c:	e7e7185e 	ubfx	r1, lr, #16, #8
80110280:	e26000ff 	rsb	r0, r0, #255	; 0xff
80110284:	e6ef807e 	uxtb	r8, lr
80110288:	e7e7745e 	ubfx	r7, lr, #8, #8
8011028c:	e086269c 	umull	r2, r6, ip, r6
80110290:	e0000093 	mul	r0, r3, r0
80110294:	e26330ff 	rsb	r3, r3, #255	; 0xff
80110298:	e0080893 	mul	r8, r3, r8
8011029c:	e0070793 	mul	r7, r3, r7
801102a0:	e0030193 	mul	r3, r3, r1
801102a4:	e0821a9c 	umull	r1, r2, ip, sl
801102a8:	e081999c 	umull	r9, r1, ip, r9
801102ac:	e080909c 	umull	r9, r0, ip, r0
801102b0:	e088989c 	umull	r9, r8, ip, r8
801102b4:	e1a023a2 	lsr	r2, r2, #7
801102b8:	e087979c 	umull	r9, r7, ip, r7
801102bc:	e1a013a1 	lsr	r1, r1, #7
801102c0:	e08c339c 	umull	r3, ip, ip, r3
801102c4:	e1a003a0 	lsr	r0, r0, #7
801102c8:	e1a033a6 	lsr	r3, r6, #7
801102cc:	e0800c2e 	add	r0, r0, lr, lsr #24
801102d0:	e08333a8 	add	r3, r3, r8, lsr #7
801102d4:	e08223a7 	add	r2, r2, r7, lsr #7
801102d8:	e08113ac 	add	r1, r1, ip, lsr #7
801102dc:	e6ef0070 	uxtb	r0, r0
801102e0:	e6ef3073 	uxtb	r3, r3
801102e4:	e6ef2072 	uxtb	r2, r2
801102e8:	e6ef1071 	uxtb	r1, r1
801102ec:	ebffff38 	bl	8010ffd4 <argb>
801102f0:	e7850104 	str	r0, [r5, r4, lsl #2]
801102f4:	e89daff8 	ldm	sp, {r3, r4, r5, r6, r7, r8, r9, sl, fp, sp, pc}

801102f8 <graph_pixel_argb_safe>:
801102f8:	e1a0c00d 	mov	ip, sp
801102fc:	e92ddbf0 	push	{r4, r5, r6, r7, r8, r9, fp, ip, lr, pc}
80110300:	e24cb004 	sub	fp, ip, #4
80110304:	e16fcf10 	clz	ip, r0
80110308:	e1a0c2ac 	lsr	ip, ip, #5
8011030c:	e5dbe004 	ldrb	lr, [fp, #4]
80110310:	e19ccfa1 	orrs	ip, ip, r1, lsr #31
80110314:	e5db4008 	ldrb	r4, [fp, #8]
80110318:	e5db700c 	ldrb	r7, [fp, #12]
8011031c:	189dabf0 	ldmne	sp, {r4, r5, r6, r7, r8, r9, fp, sp, pc}
80110320:	e5905004 	ldr	r5, [r0, #4]
80110324:	e1a0cfa2 	lsr	ip, r2, #31
80110328:	e1550001 	cmp	r5, r1
8011032c:	d38cc001 	orrle	ip, ip, #1
80110330:	e35c0000 	cmp	ip, #0
80110334:	189dabf0 	ldmne	sp, {r4, r5, r6, r7, r8, r9, fp, sp, pc}
80110338:	e590c008 	ldr	ip, [r0, #8]
8011033c:	e15c0002 	cmp	ip, r2
80110340:	d89dabf0 	ldmle	sp, {r4, r5, r6, r7, r8, r9, fp, sp, pc}
80110344:	e0251592 	mla	r5, r2, r5, r1
80110348:	e5906000 	ldr	r6, [r0]
8011034c:	e1620483 	smulbb	r2, r3, r4
80110350:	e26380ff 	rsb	r8, r3, #255	; 0xff
80110354:	e16c0783 	smulbb	ip, r3, r7
80110358:	e3087081 	movw	r7, #32897	; 0x8081
8011035c:	e3487080 	movt	r7, #32896	; 0x8080
80110360:	e1610e83 	smulbb	r1, r3, lr
80110364:	e796e105 	ldr	lr, [r6, r5, lsl #2]
80110368:	e08c0c97 	umull	r0, ip, r7, ip
8011036c:	e0820297 	umull	r0, r2, r7, r2
80110370:	e0810197 	umull	r0, r1, r7, r1
80110374:	e1a00c2e 	lsr	r0, lr, #24
80110378:	e26000ff 	rsb	r0, r0, #255	; 0xff
8011037c:	e1a0c3ac 	lsr	ip, ip, #7
80110380:	e1a023a2 	lsr	r2, r2, #7
80110384:	e1a013a1 	lsr	r1, r1, #7
80110388:	e0030093 	mul	r3, r3, r0
8011038c:	e0803397 	umull	r3, r0, r7, r3
80110390:	e6ef307e 	uxtb	r3, lr
80110394:	e0030398 	mul	r3, r8, r3
80110398:	e1a003a0 	lsr	r0, r0, #7
8011039c:	e0800c2e 	add	r0, r0, lr, lsr #24
801103a0:	e6ef0070 	uxtb	r0, r0
801103a4:	e0834397 	umull	r4, r3, r7, r3
801103a8:	e08c33a3 	add	r3, ip, r3, lsr #7
801103ac:	e7e7c45e 	ubfx	ip, lr, #8, #8
801103b0:	e7e7e85e 	ubfx	lr, lr, #16, #8
801103b4:	e6ef3073 	uxtb	r3, r3
801103b8:	e00c0c98 	mul	ip, r8, ip
801103bc:	e00e0e98 	mul	lr, r8, lr
801103c0:	e08c4c97 	umull	r4, ip, r7, ip
801103c4:	e08e4e97 	umull	r4, lr, r7, lr
801103c8:	e08223ac 	add	r2, r2, ip, lsr #7
801103cc:	e08113ae 	add	r1, r1, lr, lsr #7
801103d0:	e6ef2072 	uxtb	r2, r2
801103d4:	e6ef1071 	uxtb	r1, r1
801103d8:	ebfffefd 	bl	8010ffd4 <argb>
801103dc:	e7860105 	str	r0, [r6, r5, lsl #2]
801103e0:	e89dabf0 	ldm	sp, {r4, r5, r6, r7, r8, r9, fp, sp, pc}

801103e4 <graph_draw_char>:
801103e4:	e1a0c00d 	mov	ip, sp
801103e8:	e92ddff0 	push	{r4, r5, r6, r7, r8, r9, sl, fp, ip, lr, pc}
801103ec:	e24cb004 	sub	fp, ip, #4
801103f0:	e24dd01c 	sub	sp, sp, #28
801103f4:	e2508000 	subs	r8, r0, #0
801103f8:	e59b6008 	ldr	r6, [fp, #8]
801103fc:	e50b1034 	str	r1, [fp, #-52]	; 0xffffffcc
80110400:	e50b203c 	str	r2, [fp, #-60]	; 0xffffffc4
80110404:	0a000005 	beq	80110420 <graph_draw_char+0x3c>
80110408:	e59b2004 	ldr	r2, [fp, #4]
8011040c:	e5922004 	ldr	r2, [r2, #4]
80110410:	e3520008 	cmp	r2, #8
80110414:	9a000003 	bls	80110428 <graph_draw_char+0x44>
80110418:	e3520010 	cmp	r2, #16
8011041c:	9a00002f 	bls	801104e0 <graph_draw_char+0xfc>
80110420:	e24bd028 	sub	sp, fp, #40	; 0x28
80110424:	e89daff0 	ldm	sp, {r4, r5, r6, r7, r8, r9, sl, fp, sp, pc}
80110428:	e59b2004 	ldr	r2, [fp, #4]
8011042c:	e592a008 	ldr	sl, [r2, #8]
80110430:	e35a0000 	cmp	sl, #0
80110434:	e003039a 	mul	r3, sl, r3
80110438:	e592a00c 	ldr	sl, [r2, #12]
8011043c:	0afffff7 	beq	80110420 <graph_draw_char+0x3c>
80110440:	e51b203c 	ldr	r2, [fp, #-60]	; 0xffffffc4
80110444:	e08a3003 	add	r3, sl, r3
80110448:	e2815008 	add	r5, r1, #8
8011044c:	e1a0a006 	mov	sl, r6
80110450:	e0422003 	sub	r2, r2, r3
80110454:	e50b3038 	str	r3, [fp, #-56]	; 0xffffffc8
80110458:	e50b203c 	str	r2, [fp, #-60]	; 0xffffffc4
8011045c:	e50b3030 	str	r3, [fp, #-48]	; 0xffffffd0
80110460:	e51b3030 	ldr	r3, [fp, #-48]	; 0xffffffd0
80110464:	e3a07080 	mov	r7, #128	; 0x80
80110468:	e51b203c 	ldr	r2, [fp, #-60]	; 0xffffffc4
8011046c:	e51b4034 	ldr	r4, [fp, #-52]	; 0xffffffcc
80110470:	e0826003 	add	r6, r2, r3
80110474:	e4d39001 	ldrb	r9, [r3], #1
80110478:	e50b3030 	str	r3, [fp, #-48]	; 0xffffffd0
8011047c:	ea000003 	b	80110490 <graph_draw_char+0xac>
80110480:	e2844001 	add	r4, r4, #1
80110484:	e1a070c7 	asr	r7, r7, #1
80110488:	e1540005 	cmp	r4, r5
8011048c:	0a00000a 	beq	801104bc <graph_draw_char+0xd8>
80110490:	e1190007 	tst	r9, r7
80110494:	0afffff9 	beq	80110480 <graph_draw_char+0x9c>
80110498:	e1a01004 	mov	r1, r4
8011049c:	e1a0300a 	mov	r3, sl
801104a0:	e1a02006 	mov	r2, r6
801104a4:	e1a00008 	mov	r0, r8
801104a8:	e2844001 	add	r4, r4, #1
801104ac:	ebffff51 	bl	801101f8 <graph_pixel_safe>
801104b0:	e1a070c7 	asr	r7, r7, #1
801104b4:	e1540005 	cmp	r4, r5
801104b8:	1afffff4 	bne	80110490 <graph_draw_char+0xac>
801104bc:	e59b3004 	ldr	r3, [fp, #4]
801104c0:	e51b2038 	ldr	r2, [fp, #-56]	; 0xffffffc8
801104c4:	e5931008 	ldr	r1, [r3, #8]
801104c8:	e51b3030 	ldr	r3, [fp, #-48]	; 0xffffffd0
801104cc:	e0432002 	sub	r2, r3, r2
801104d0:	e1510002 	cmp	r1, r2
801104d4:	8affffe1 	bhi	80110460 <graph_draw_char+0x7c>
801104d8:	e24bd028 	sub	sp, fp, #40	; 0x28
801104dc:	e89daff0 	ldm	sp, {r4, r5, r6, r7, r8, r9, sl, fp, sp, pc}
801104e0:	e59b2004 	ldr	r2, [fp, #4]
801104e4:	e5922008 	ldr	r2, [r2, #8]
801104e8:	e3520000 	cmp	r2, #0
801104ec:	e0030392 	mul	r3, r2, r3
801104f0:	e59b2004 	ldr	r2, [fp, #4]
801104f4:	e1a03083 	lsl	r3, r3, #1
801104f8:	e592900c 	ldr	r9, [r2, #12]
801104fc:	0affffc7 	beq	80110420 <graph_draw_char+0x3c>
80110500:	e2833001 	add	r3, r3, #1
80110504:	e1a0a006 	mov	sl, r6
80110508:	e0893003 	add	r3, r9, r3
8011050c:	e50b3030 	str	r3, [fp, #-48]	; 0xffffffd0
80110510:	e51b3034 	ldr	r3, [fp, #-52]	; 0xffffffcc
80110514:	e2835008 	add	r5, r3, #8
80110518:	e2833010 	add	r3, r3, #16
8011051c:	e50b3044 	str	r3, [fp, #-68]	; 0xffffffbc
80110520:	e3a03000 	mov	r3, #0
80110524:	e50b3038 	str	r3, [fp, #-56]	; 0xffffffc8
80110528:	e51b3030 	ldr	r3, [fp, #-48]	; 0xffffffd0
8011052c:	e3a04080 	mov	r4, #128	; 0x80
80110530:	e51b9034 	ldr	r9, [fp, #-52]	; 0xffffffcc
80110534:	e5537001 	ldrb	r7, [r3, #-1]
80110538:	e14b23dc 	ldrd	r2, [fp, #-60]	; 0xffffffc4
8011053c:	e0836002 	add	r6, r3, r2
80110540:	ea000003 	b	80110554 <graph_draw_char+0x170>
80110544:	e2899001 	add	r9, r9, #1
80110548:	e1a040c4 	asr	r4, r4, #1
8011054c:	e1550009 	cmp	r5, r9
80110550:	0a00000a 	beq	80110580 <graph_draw_char+0x19c>
80110554:	e1170004 	tst	r7, r4
80110558:	0afffff9 	beq	80110544 <graph_draw_char+0x160>
8011055c:	e1a01009 	mov	r1, r9
80110560:	e1a0300a 	mov	r3, sl
80110564:	e1a02006 	mov	r2, r6
80110568:	e1a00008 	mov	r0, r8
8011056c:	e2899001 	add	r9, r9, #1
80110570:	ebffff20 	bl	801101f8 <graph_pixel_safe>
80110574:	e1a040c4 	asr	r4, r4, #1
80110578:	e1550009 	cmp	r5, r9
8011057c:	1afffff4 	bne	80110554 <graph_draw_char+0x170>
80110580:	e51b3030 	ldr	r3, [fp, #-48]	; 0xffffffd0
80110584:	e1a04005 	mov	r4, r5
80110588:	e50b5040 	str	r5, [fp, #-64]	; 0xffffffc0
8011058c:	e3a07080 	mov	r7, #128	; 0x80
80110590:	e1a05006 	mov	r5, r6
80110594:	e51b6044 	ldr	r6, [fp, #-68]	; 0xffffffbc
80110598:	e5d39000 	ldrb	r9, [r3]
8011059c:	ea000003 	b	801105b0 <graph_draw_char+0x1cc>
801105a0:	e2844001 	add	r4, r4, #1
801105a4:	e1a070c7 	asr	r7, r7, #1
801105a8:	e1560004 	cmp	r6, r4
801105ac:	0a00000a 	beq	801105dc <graph_draw_char+0x1f8>
801105b0:	e1190007 	tst	r9, r7
801105b4:	0afffff9 	beq	801105a0 <graph_draw_char+0x1bc>
801105b8:	e1a01004 	mov	r1, r4
801105bc:	e1a0300a 	mov	r3, sl
801105c0:	e1a02005 	mov	r2, r5
801105c4:	e1a00008 	mov	r0, r8
801105c8:	e2844001 	add	r4, r4, #1
801105cc:	ebffff09 	bl	801101f8 <graph_pixel_safe>
801105d0:	e1a070c7 	asr	r7, r7, #1
801105d4:	e1560004 	cmp	r6, r4
801105d8:	1afffff4 	bne	801105b0 <graph_draw_char+0x1cc>
801105dc:	e51b2030 	ldr	r2, [fp, #-48]	; 0xffffffd0
801105e0:	e51b3038 	ldr	r3, [fp, #-56]	; 0xffffffc8
801105e4:	e2822002 	add	r2, r2, #2
801105e8:	e50b2030 	str	r2, [fp, #-48]	; 0xffffffd0
801105ec:	e59b2004 	ldr	r2, [fp, #4]
801105f0:	e2833001 	add	r3, r3, #1
801105f4:	e51b5040 	ldr	r5, [fp, #-64]	; 0xffffffc0
801105f8:	e50b3038 	str	r3, [fp, #-56]	; 0xffffffc8
801105fc:	e5922008 	ldr	r2, [r2, #8]
80110600:	e1520003 	cmp	r2, r3
80110604:	8affffc7 	bhi	80110528 <graph_draw_char+0x144>
80110608:	e24bd028 	sub	sp, fp, #40	; 0x28
8011060c:	e89daff0 	ldm	sp, {r4, r5, r6, r7, r8, r9, sl, fp, sp, pc}

80110610 <graph_draw_text>:
80110610:	e1a0c00d 	mov	ip, sp
80110614:	e92ddff0 	push	{r4, r5, r6, r7, r8, r9, sl, fp, ip, lr, pc}
80110618:	e24cb004 	sub	fp, ip, #4
8011061c:	e24dd00c 	sub	sp, sp, #12
80110620:	e1a09001 	mov	r9, r1
80110624:	e1a06002 	mov	r6, r2
80110628:	e99b0480 	ldmib	fp, {r7, sl}
8011062c:	e1a05003 	mov	r5, r3
80110630:	e2508000 	subs	r8, r0, #0
80110634:	0a000016 	beq	80110694 <graph_draw_text+0x84>
80110638:	e5d33000 	ldrb	r3, [r3]
8011063c:	e3530000 	cmp	r3, #0
80110640:	0a000013 	beq	80110694 <graph_draw_text+0x84>
80110644:	e1a04001 	mov	r4, r1
80110648:	ea000005 	b	80110664 <graph_draw_text+0x54>
8011064c:	e5973008 	ldr	r3, [r7, #8]
80110650:	e1a04009 	mov	r4, r9
80110654:	e0866003 	add	r6, r6, r3
80110658:	e5f53001 	ldrb	r3, [r5, #1]!
8011065c:	e3530000 	cmp	r3, #0
80110660:	0a00000b 	beq	80110694 <graph_draw_text+0x84>
80110664:	e1a01004 	mov	r1, r4
80110668:	e1a02006 	mov	r2, r6
8011066c:	e1a00008 	mov	r0, r8
80110670:	e353000a 	cmp	r3, #10
80110674:	0afffff4 	beq	8011064c <graph_draw_text+0x3c>
80110678:	e88d0480 	stm	sp, {r7, sl}
8011067c:	ebffff58 	bl	801103e4 <graph_draw_char>
80110680:	e5973004 	ldr	r3, [r7, #4]
80110684:	e0844003 	add	r4, r4, r3
80110688:	e5f53001 	ldrb	r3, [r5, #1]!
8011068c:	e3530000 	cmp	r3, #0
80110690:	1afffff3 	bne	80110664 <graph_draw_text+0x54>
80110694:	e24bd028 	sub	sp, fp, #40	; 0x28
80110698:	e89daff0 	ldm	sp, {r4, r5, r6, r7, r8, r9, sl, fp, sp, pc}

8011069c <get_text_size>:
8011069c:	e1a0c00d 	mov	ip, sp
801106a0:	e92dd8f0 	push	{r4, r5, r6, r7, fp, ip, lr, pc}
801106a4:	e24cb004 	sub	fp, ip, #4
801106a8:	e1a06002 	mov	r6, r2
801106ac:	e1a05003 	mov	r5, r3
801106b0:	e2514000 	subs	r4, r1, #0
801106b4:	0a00000d 	beq	801106f0 <get_text_size+0x54>
801106b8:	e3520000 	cmp	r2, #0
801106bc:	0a000003 	beq	801106d0 <get_text_size+0x34>
801106c0:	ebfffab4 	bl	8010f198 <strlen>
801106c4:	e5943004 	ldr	r3, [r4, #4]
801106c8:	e0030390 	mul	r3, r0, r3
801106cc:	e5863000 	str	r3, [r6]
801106d0:	e3550000 	cmp	r5, #0
801106d4:	0a000003 	beq	801106e8 <get_text_size+0x4c>
801106d8:	e5943008 	ldr	r3, [r4, #8]
801106dc:	e3a00000 	mov	r0, #0
801106e0:	e5853000 	str	r3, [r5]
801106e4:	e89da8f0 	ldm	sp, {r4, r5, r6, r7, fp, sp, pc}
801106e8:	e1a00005 	mov	r0, r5
801106ec:	e89da8f0 	ldm	sp, {r4, r5, r6, r7, fp, sp, pc}
801106f0:	e3e00000 	mvn	r0, #0
801106f4:	e89da8f0 	ldm	sp, {r4, r5, r6, r7, fp, sp, pc}

801106f8 <get_font>:
801106f8:	e59f300c 	ldr	r3, [pc, #12]	; 8011070c <get_font+0x14>
801106fc:	e59f200c 	ldr	r2, [pc, #12]	; 80110710 <get_font+0x18>
80110700:	e08f3003 	add	r3, pc, r3
80110704:	e7930002 	ldr	r0, [r3, r2]
80110708:	e12fff1e 	bx	lr
8011070c:	00007960 	andeq	r7, r0, r0, ror #18
80110710:	00000010 	andeq	r0, r0, r0, lsl r0

80110714 <console_init>:
80110714:	e1a0c00d 	mov	ip, sp
80110718:	e92dd830 	push	{r4, r5, fp, ip, lr, pc}
8011071c:	e1a05000 	mov	r5, r0
80110720:	e3a04000 	mov	r4, #0
80110724:	e24cb004 	sub	fp, ip, #4
80110728:	e1a03004 	mov	r3, r4
8011072c:	e1a02004 	mov	r2, r4
80110730:	e1a01004 	mov	r1, r4
80110734:	e5854000 	str	r4, [r5]
80110738:	e5854004 	str	r4, [r5, #4]
8011073c:	e3a000ff 	mov	r0, #255	; 0xff
80110740:	ebfffe23 	bl	8010ffd4 <argb>
80110744:	e3a030aa 	mov	r3, #170	; 0xaa
80110748:	e5850008 	str	r0, [r5, #8]
8011074c:	e1a02003 	mov	r2, r3
80110750:	e1a01003 	mov	r1, r3
80110754:	e3a000ff 	mov	r0, #255	; 0xff
80110758:	ebfffe1d 	bl	8010ffd4 <argb>
8011075c:	e1a01004 	mov	r1, r4
80110760:	e1a03000 	mov	r3, r0
80110764:	e5854010 	str	r4, [r5, #16]
80110768:	e2850014 	add	r0, r5, #20
8011076c:	e585300c 	str	r3, [r5, #12]
80110770:	e3a0200c 	mov	r2, #12
80110774:	ebfff98c 	bl	8010edac <memset>
80110778:	e1a00004 	mov	r0, r4
8011077c:	e89da830 	ldm	sp, {r4, r5, fp, sp, pc}

80110780 <console_close>:
80110780:	e1a0c00d 	mov	ip, sp
80110784:	e92dd830 	push	{r4, r5, fp, ip, lr, pc}
80110788:	e1a04000 	mov	r4, r0
8011078c:	e24cb004 	sub	fp, ip, #4
80110790:	e590001c 	ldr	r0, [r0, #28]
80110794:	eb0004c2 	bl	80111aa4 <kfree>
80110798:	e3a03000 	mov	r3, #0
8011079c:	e5843028 	str	r3, [r4, #40]	; 0x28
801107a0:	e584301c 	str	r3, [r4, #28]
801107a4:	e89da830 	ldm	sp, {r4, r5, fp, sp, pc}

801107a8 <console_refresh>:
801107a8:	e1a0c00d 	mov	ip, sp
801107ac:	e92dd9f0 	push	{r4, r5, r6, r7, r8, fp, ip, lr, pc}
801107b0:	e24cb004 	sub	fp, ip, #4
801107b4:	e24dd00c 	sub	sp, sp, #12
801107b8:	e5903010 	ldr	r3, [r0, #16]
801107bc:	e1a04000 	mov	r4, r0
801107c0:	e1a08001 	mov	r8, r1
801107c4:	e3530000 	cmp	r3, #0
801107c8:	0a000029 	beq	80110874 <console_refresh+0xcc>
801107cc:	e5901008 	ldr	r1, [r0, #8]
801107d0:	e1a00008 	mov	r0, r8
801107d4:	ebfffe34 	bl	801100ac <graph_clear>
801107d8:	e5940028 	ldr	r0, [r4, #40]	; 0x28
801107dc:	e3500000 	cmp	r0, #0
801107e0:	0a000023 	beq	80110874 <console_refresh+0xcc>
801107e4:	e3a07000 	mov	r7, #0
801107e8:	e5941014 	ldr	r1, [r4, #20]
801107ec:	e1a06007 	mov	r6, r7
801107f0:	e1a05007 	mov	r5, r7
801107f4:	ea000005 	b	80110810 <console_refresh+0x68>
801107f8:	e2866001 	add	r6, r6, #1
801107fc:	e1560001 	cmp	r6, r1
80110800:	22877001 	addcs	r7, r7, #1
80110804:	23a06000 	movcs	r6, #0
80110808:	e1500005 	cmp	r0, r5
8011080c:	9a000018 	bls	80110874 <console_refresh+0xcc>
80110810:	e5943020 	ldr	r3, [r4, #32]
80110814:	e5942018 	ldr	r2, [r4, #24]
80110818:	e0235193 	mla	r3, r3, r1, r5
8011081c:	e2855001 	add	r5, r5, #1
80110820:	e0020192 	mul	r2, r2, r1
80110824:	e1530002 	cmp	r3, r2
80110828:	20433002 	subcs	r3, r3, r2
8011082c:	e594201c 	ldr	r2, [r4, #28]
80110830:	e7d23003 	ldrb	r3, [r2, r3]
80110834:	e3530000 	cmp	r3, #0
80110838:	1353000a 	cmpne	r3, #10
8011083c:	0affffed 	beq	801107f8 <console_refresh+0x50>
80110840:	e5940010 	ldr	r0, [r4, #16]
80110844:	e5902008 	ldr	r2, [r0, #8]
80110848:	e5901004 	ldr	r1, [r0, #4]
8011084c:	e58d0000 	str	r0, [sp]
80110850:	e594000c 	ldr	r0, [r4, #12]
80110854:	e0020792 	mul	r2, r2, r7
80110858:	e0010691 	mul	r1, r1, r6
8011085c:	e58d0004 	str	r0, [sp, #4]
80110860:	e1a00008 	mov	r0, r8
80110864:	ebfffede 	bl	801103e4 <graph_draw_char>
80110868:	e5941014 	ldr	r1, [r4, #20]
8011086c:	e5940028 	ldr	r0, [r4, #40]	; 0x28
80110870:	eaffffe0 	b	801107f8 <console_refresh+0x50>
80110874:	e24bd020 	sub	sp, fp, #32
80110878:	e89da9f0 	ldm	sp, {r4, r5, r6, r7, r8, fp, sp, pc}

8011087c <console_clear>:
8011087c:	e3a03000 	mov	r3, #0
80110880:	e5803028 	str	r3, [r0, #40]	; 0x28
80110884:	e5803020 	str	r3, [r0, #32]
80110888:	e5803024 	str	r3, [r0, #36]	; 0x24
8011088c:	e12fff1e 	bx	lr

80110890 <console_put_char>:
80110890:	e1a0c00d 	mov	ip, sp
80110894:	e351000d 	cmp	r1, #13
80110898:	e92dd830 	push	{r4, r5, fp, ip, lr, pc}
8011089c:	e24cb004 	sub	fp, ip, #4
801108a0:	e1a04000 	mov	r4, r0
801108a4:	0a00001c 	beq	8011091c <console_put_char+0x8c>
801108a8:	e3510009 	cmp	r1, #9
801108ac:	0a000046 	beq	801109cc <console_put_char+0x13c>
801108b0:	e351000a 	cmp	r1, #10
801108b4:	0a000018 	beq	8011091c <console_put_char+0x8c>
801108b8:	e351001b 	cmp	r1, #27
801108bc:	989da830 	ldmls	sp, {r4, r5, fp, sp, pc}
801108c0:	e5942028 	ldr	r2, [r4, #40]	; 0x28
801108c4:	e5940024 	ldr	r0, [r4, #36]	; 0x24
801108c8:	e5943014 	ldr	r3, [r4, #20]
801108cc:	e282c001 	add	ip, r2, #1
801108d0:	e594e018 	ldr	lr, [r4, #24]
801108d4:	e06cc093 	mls	ip, r3, r0, ip
801108d8:	e153000c 	cmp	r3, ip
801108dc:	02800001 	addeq	r0, r0, #1
801108e0:	05840024 	streq	r0, [r4, #36]	; 0x24
801108e4:	e15e0000 	cmp	lr, r0
801108e8:	9240c001 	subls	ip, r0, #1
801108ec:	9a00002b 	bls	801109a0 <console_put_char+0x110>
801108f0:	e5940020 	ldr	r0, [r4, #32]
801108f4:	e00e0e93 	mul	lr, r3, lr
801108f8:	e0232390 	mla	r3, r0, r3, r2
801108fc:	e594201c 	ldr	r2, [r4, #28]
80110900:	e153000e 	cmp	r3, lr
80110904:	2043300e 	subcs	r3, r3, lr
80110908:	e7c21003 	strb	r1, [r2, r3]
8011090c:	e5943028 	ldr	r3, [r4, #40]	; 0x28
80110910:	e2833001 	add	r3, r3, #1
80110914:	e5843028 	str	r3, [r4, #40]	; 0x28
80110918:	e89da830 	ldm	sp, {r4, r5, fp, sp, pc}
8011091c:	e5942028 	ldr	r2, [r4, #40]	; 0x28
80110920:	e5943014 	ldr	r3, [r4, #20]
80110924:	e594c024 	ldr	ip, [r4, #36]	; 0x24
80110928:	e1a01002 	mov	r1, r2
8011092c:	e0602c93 	mls	r0, r3, ip, r2
80110930:	e1530000 	cmp	r3, r0
80110934:	9a000012 	bls	80110984 <console_put_char+0xf4>
80110938:	e3a0c00a 	mov	ip, #10
8011093c:	e5941018 	ldr	r1, [r4, #24]
80110940:	e2800001 	add	r0, r0, #1
80110944:	e594e020 	ldr	lr, [r4, #32]
80110948:	e022239e 	mla	r2, lr, r3, r2
8011094c:	e0030391 	mul	r3, r1, r3
80110950:	e1520003 	cmp	r2, r3
80110954:	20422003 	subcs	r2, r2, r3
80110958:	e594301c 	ldr	r3, [r4, #28]
8011095c:	e7c3c002 	strb	ip, [r3, r2]
80110960:	e3a0c000 	mov	ip, #0
80110964:	e5941028 	ldr	r1, [r4, #40]	; 0x28
80110968:	e5943014 	ldr	r3, [r4, #20]
8011096c:	e2811001 	add	r1, r1, #1
80110970:	e5841028 	str	r1, [r4, #40]	; 0x28
80110974:	e1530000 	cmp	r3, r0
80110978:	e1a02001 	mov	r2, r1
8011097c:	8affffee 	bhi	8011093c <console_put_char+0xac>
80110980:	e594c024 	ldr	ip, [r4, #36]	; 0x24
80110984:	e594e018 	ldr	lr, [r4, #24]
80110988:	e28c2001 	add	r2, ip, #1
8011098c:	e5842024 	str	r2, [r4, #36]	; 0x24
80110990:	e152000e 	cmp	r2, lr
80110994:	389da830 	ldmcc	sp, {r4, r5, fp, sp, pc}
80110998:	e1a02001 	mov	r2, r1
8011099c:	e3a0100a 	mov	r1, #10
801109a0:	e5940020 	ldr	r0, [r4, #32]
801109a4:	e0422003 	sub	r2, r2, r3
801109a8:	e584c024 	str	ip, [r4, #36]	; 0x24
801109ac:	e2800001 	add	r0, r0, #1
801109b0:	e5842028 	str	r2, [r4, #40]	; 0x28
801109b4:	e150000e 	cmp	r0, lr
801109b8:	23a00000 	movcs	r0, #0
801109bc:	e351000a 	cmp	r1, #10
801109c0:	e5840020 	str	r0, [r4, #32]
801109c4:	1affffc9 	bne	801108f0 <console_put_char+0x60>
801109c8:	e89da830 	ldm	sp, {r4, r5, fp, sp, pc}
801109cc:	e3a01020 	mov	r1, #32
801109d0:	ebffffae 	bl	80110890 <console_put_char>
801109d4:	e3a01020 	mov	r1, #32
801109d8:	eaffffb8 	b	801108c0 <console_put_char+0x30>

801109dc <console_reset>:
801109dc:	e1a0c00d 	mov	ip, sp
801109e0:	e92ddff0 	push	{r4, r5, r6, r7, r8, r9, sl, fp, ip, lr, pc}
801109e4:	e24cb004 	sub	fp, ip, #4
801109e8:	e24dd00c 	sub	sp, sp, #12
801109ec:	e590c010 	ldr	ip, [r0, #16]
801109f0:	e1a06000 	mov	r6, r0
801109f4:	e1a04001 	mov	r4, r1
801109f8:	e1a03002 	mov	r3, r2
801109fc:	e35c0000 	cmp	ip, #0
80110a00:	0a000061 	beq	80110b8c <console_reset+0x1b0>
80110a04:	e590a014 	ldr	sl, [r0, #20]
80110a08:	e5907018 	ldr	r7, [r0, #24]
80110a0c:	e5909028 	ldr	r9, [r0, #40]	; 0x28
80110a10:	e5905020 	ldr	r5, [r0, #32]
80110a14:	e0070a97 	mul	r7, r7, sl
80110a18:	e3570000 	cmp	r7, #0
80110a1c:	da000057 	ble	80110b80 <console_reset+0x1a4>
80110a20:	e590801c 	ldr	r8, [r0, #28]
80110a24:	e3580000 	cmp	r8, #0
80110a28:	0a00003d 	beq	80110b24 <console_reset+0x148>
80110a2c:	e1a00007 	mov	r0, r7
80110a30:	e50b2030 	str	r2, [fp, #-48]	; 0xffffffd0
80110a34:	eb0003fb 	bl	80111a28 <kmalloc>
80110a38:	e596101c 	ldr	r1, [r6, #28]
80110a3c:	e1a02007 	mov	r2, r7
80110a40:	e1a08000 	mov	r8, r0
80110a44:	ebfff8b8 	bl	8010ed2c <memcpy>
80110a48:	e596c010 	ldr	ip, [r6, #16]
80110a4c:	e596001c 	ldr	r0, [r6, #28]
80110a50:	e51b3030 	ldr	r3, [fp, #-48]	; 0xffffffd0
80110a54:	e59c2004 	ldr	r2, [ip, #4]
80110a58:	e3500000 	cmp	r0, #0
80110a5c:	e734f214 	udiv	r4, r4, r2
80110a60:	e59c2008 	ldr	r2, [ip, #8]
80110a64:	e733f213 	udiv	r3, r3, r2
80110a68:	e2444001 	sub	r4, r4, #1
80110a6c:	e5864014 	str	r4, [r6, #20]
80110a70:	e5863018 	str	r3, [r6, #24]
80110a74:	e0040493 	mul	r4, r3, r4
80110a78:	e3a03000 	mov	r3, #0
80110a7c:	e5863028 	str	r3, [r6, #40]	; 0x28
80110a80:	e5863020 	str	r3, [r6, #32]
80110a84:	e5863024 	str	r3, [r6, #36]	; 0x24
80110a88:	0a000002 	beq	80110a98 <console_reset+0xbc>
80110a8c:	eb000404 	bl	80111aa4 <kfree>
80110a90:	e3a03000 	mov	r3, #0
80110a94:	e586301c 	str	r3, [r6, #28]
80110a98:	e3540000 	cmp	r4, #0
80110a9c:	1a000030 	bne	80110b64 <console_reset+0x188>
80110aa0:	e3580000 	cmp	r8, #0
80110aa4:	0a00001b 	beq	80110b18 <console_reset+0x13c>
80110aa8:	e159000a 	cmp	r9, sl
80110aac:	c3550000 	cmpgt	r5, #0
80110ab0:	c2855001 	addgt	r5, r5, #1
80110ab4:	c049900a 	subgt	r9, r9, sl
80110ab8:	ca000001 	bgt	80110ac4 <console_reset+0xe8>
80110abc:	e3590000 	cmp	r9, #0
80110ac0:	da000012 	ble	80110b10 <console_reset+0x134>
80110ac4:	e00a0a95 	mul	sl, r5, sl
80110ac8:	e3a04000 	mov	r4, #0
80110acc:	e1a0500a 	mov	r5, sl
80110ad0:	ea000001 	b	80110adc <console_reset+0x100>
80110ad4:	e1540009 	cmp	r4, r9
80110ad8:	aa00000c 	bge	80110b10 <console_reset+0x134>
80110adc:	e1570005 	cmp	r7, r5
80110ae0:	e0443007 	sub	r3, r4, r7
80110ae4:	e1a02005 	mov	r2, r5
80110ae8:	d083200a 	addle	r2, r3, sl
80110aec:	e2844001 	add	r4, r4, #1
80110af0:	e2855001 	add	r5, r5, #1
80110af4:	e7d81002 	ldrb	r1, [r8, r2]
80110af8:	e3510000 	cmp	r1, #0
80110afc:	0afffff4 	beq	80110ad4 <console_reset+0xf8>
80110b00:	e1a00006 	mov	r0, r6
80110b04:	ebffff61 	bl	80110890 <console_put_char>
80110b08:	e1540009 	cmp	r4, r9
80110b0c:	bafffff2 	blt	80110adc <console_reset+0x100>
80110b10:	e1a00008 	mov	r0, r8
80110b14:	eb0003e2 	bl	80111aa4 <kfree>
80110b18:	e3a00000 	mov	r0, #0
80110b1c:	e24bd028 	sub	sp, fp, #40	; 0x28
80110b20:	e89daff0 	ldm	sp, {r4, r5, r6, r7, r8, r9, sl, fp, sp, pc}
80110b24:	e59c2004 	ldr	r2, [ip, #4]
80110b28:	e5808028 	str	r8, [r0, #40]	; 0x28
80110b2c:	e5808020 	str	r8, [r0, #32]
80110b30:	e5808024 	str	r8, [r0, #36]	; 0x24
80110b34:	e734f211 	udiv	r4, r1, r2
80110b38:	e59c2008 	ldr	r2, [ip, #8]
80110b3c:	e733f213 	udiv	r3, r3, r2
80110b40:	e2444001 	sub	r4, r4, #1
80110b44:	e5804014 	str	r4, [r0, #20]
80110b48:	e0040493 	mul	r4, r3, r4
80110b4c:	e5803018 	str	r3, [r0, #24]
80110b50:	e3540000 	cmp	r4, #0
80110b54:	1a000002 	bne	80110b64 <console_reset+0x188>
80110b58:	e1a00004 	mov	r0, r4
80110b5c:	e24bd028 	sub	sp, fp, #40	; 0x28
80110b60:	e89daff0 	ldm	sp, {r4, r5, r6, r7, r8, r9, sl, fp, sp, pc}
80110b64:	e1a00004 	mov	r0, r4
80110b68:	eb0003ae 	bl	80111a28 <kmalloc>
80110b6c:	e1a02004 	mov	r2, r4
80110b70:	e586001c 	str	r0, [r6, #28]
80110b74:	e3a01000 	mov	r1, #0
80110b78:	ebfff88b 	bl	8010edac <memset>
80110b7c:	eaffffc7 	b	80110aa0 <console_reset+0xc4>
80110b80:	e590001c 	ldr	r0, [r0, #28]
80110b84:	e3a08000 	mov	r8, #0
80110b88:	eaffffb1 	b	80110a54 <console_reset+0x78>
80110b8c:	e3e00000 	mvn	r0, #0
80110b90:	eaffffe1 	b	80110b1c <console_reset+0x140>

80110b94 <console_put_string>:
80110b94:	e1a0c00d 	mov	ip, sp
80110b98:	e92dd830 	push	{r4, r5, fp, ip, lr, pc}
80110b9c:	e1a04001 	mov	r4, r1
80110ba0:	e5d11000 	ldrb	r1, [r1]
80110ba4:	e24cb004 	sub	fp, ip, #4
80110ba8:	e1a05000 	mov	r5, r0
80110bac:	e3510000 	cmp	r1, #0
80110bb0:	089da830 	ldmeq	sp, {r4, r5, fp, sp, pc}
80110bb4:	e1a00005 	mov	r0, r5
80110bb8:	ebffff34 	bl	80110890 <console_put_char>
80110bbc:	e5f41001 	ldrb	r1, [r4, #1]!
80110bc0:	e3510000 	cmp	r1, #0
80110bc4:	1afffffa 	bne	80110bb4 <console_put_string+0x20>
80110bc8:	e89da830 	ldm	sp, {r4, r5, fp, sp, pc}

80110bcc <sd_read>:
80110bcc:	e59f3058 	ldr	r3, [pc, #88]	; 80110c2c <sd_read+0x60>
80110bd0:	e1a0c00d 	mov	ip, sp
80110bd4:	e92dd8f0 	push	{r4, r5, r6, r7, fp, ip, lr, pc}
80110bd8:	e24cb004 	sub	fp, ip, #4
80110bdc:	e08f3003 	add	r3, pc, r3
80110be0:	e1a04001 	mov	r4, r1
80110be4:	e2816b01 	add	r6, r1, #1024	; 0x400
80110be8:	e5935008 	ldr	r5, [r3, #8]
80110bec:	e0855080 	add	r5, r5, r0, lsl #1
80110bf0:	e1a00005 	mov	r0, r5
80110bf4:	ebfff0a1 	bl	8010ce80 <sd_dev_read>
80110bf8:	e3500000 	cmp	r0, #0
80110bfc:	1a000008 	bne	80110c24 <sd_read+0x58>
80110c00:	e1a00004 	mov	r0, r4
80110c04:	ebfff0a2 	bl	8010ce94 <sd_dev_read_done>
80110c08:	e3500000 	cmp	r0, #0
80110c0c:	1afffffb 	bne	80110c00 <sd_read+0x34>
80110c10:	e2844c02 	add	r4, r4, #512	; 0x200
80110c14:	e2855001 	add	r5, r5, #1
80110c18:	e1540006 	cmp	r4, r6
80110c1c:	089da8f0 	ldmeq	sp, {r4, r5, r6, r7, fp, sp, pc}
80110c20:	eafffff2 	b	80110bf0 <sd_read+0x24>
80110c24:	e3e00000 	mvn	r0, #0
80110c28:	e89da8f0 	ldm	sp, {r4, r5, r6, r7, fp, sp, pc}
80110c2c:	0000d64c 	andeq	sp, r0, ip, asr #12

80110c30 <read_partition>:
80110c30:	e1a0c00d 	mov	ip, sp
80110c34:	e92dd8f0 	push	{r4, r5, r6, r7, fp, ip, lr, pc}
80110c38:	e3a00000 	mov	r0, #0
80110c3c:	e24cb004 	sub	fp, ip, #4
80110c40:	e24ddc02 	sub	sp, sp, #512	; 0x200
80110c44:	ebfff08d 	bl	8010ce80 <sd_dev_read>
80110c48:	e3500000 	cmp	r0, #0
80110c4c:	1a00001a 	bne	80110cbc <read_partition+0x8c>
80110c50:	e24b5f87 	sub	r5, fp, #540	; 0x21c
80110c54:	e1a00005 	mov	r0, r5
80110c58:	ebfff08d 	bl	8010ce94 <sd_dev_read_done>
80110c5c:	e2504000 	subs	r4, r0, #0
80110c60:	1afffffb 	bne	80110c54 <read_partition+0x24>
80110c64:	e55b301e 	ldrb	r3, [fp, #-30]	; 0xffffffe2
80110c68:	e3530055 	cmp	r3, #85	; 0x55
80110c6c:	1a000012 	bne	80110cbc <read_partition+0x8c>
80110c70:	e55b301d 	ldrb	r3, [fp, #-29]	; 0xffffffe3
80110c74:	e35300aa 	cmp	r3, #170	; 0xaa
80110c78:	1a00000f 	bne	80110cbc <read_partition+0x8c>
80110c7c:	e59f6040 	ldr	r6, [pc, #64]	; 80110cc4 <read_partition+0x94>
80110c80:	e24b505e 	sub	r5, fp, #94	; 0x5e
80110c84:	e24b701e 	sub	r7, fp, #30
80110c88:	e08f6006 	add	r6, pc, r6
80110c8c:	e2866010 	add	r6, r6, #16
80110c90:	e1a01005 	mov	r1, r5
80110c94:	e1a00006 	mov	r0, r6
80110c98:	e2855010 	add	r5, r5, #16
80110c9c:	e3a02010 	mov	r2, #16
80110ca0:	ebfff821 	bl	8010ed2c <memcpy>
80110ca4:	e2866010 	add	r6, r6, #16
80110ca8:	e1550007 	cmp	r5, r7
80110cac:	1afffff7 	bne	80110c90 <read_partition+0x60>
80110cb0:	e1a00004 	mov	r0, r4
80110cb4:	e24bd01c 	sub	sp, fp, #28
80110cb8:	e89da8f0 	ldm	sp, {r4, r5, r6, r7, fp, sp, pc}
80110cbc:	e3e04000 	mvn	r4, #0
80110cc0:	eafffffa 	b	80110cb0 <read_partition+0x80>
80110cc4:	0000d5a0 	andeq	sp, r0, r0, lsr #11

80110cc8 <partition_get>:
80110cc8:	e1a0c00d 	mov	ip, sp
80110ccc:	e92dd800 	push	{fp, ip, lr, pc}
80110cd0:	e24cb004 	sub	fp, ip, #4
80110cd4:	e1a0c000 	mov	ip, r0
80110cd8:	e1a00001 	mov	r0, r1
80110cdc:	e35c0003 	cmp	ip, #3
80110ce0:	8a000007 	bhi	80110d04 <partition_get+0x3c>
80110ce4:	e59f3020 	ldr	r3, [pc, #32]	; 80110d0c <partition_get+0x44>
80110ce8:	e3a02010 	mov	r2, #16
80110cec:	e08f3003 	add	r3, pc, r3
80110cf0:	e0833002 	add	r3, r3, r2
80110cf4:	e083120c 	add	r1, r3, ip, lsl #4
80110cf8:	ebfff80b 	bl	8010ed2c <memcpy>
80110cfc:	e3a00000 	mov	r0, #0
80110d00:	e89da800 	ldm	sp, {fp, sp, pc}
80110d04:	e3e00000 	mvn	r0, #0
80110d08:	e89da800 	ldm	sp, {fp, sp, pc}
80110d0c:	0000d53c 	andeq	sp, r0, ip, lsr r5

80110d10 <sd_read_ext2>:
80110d10:	e1a0c00d 	mov	ip, sp
80110d14:	e92ddff0 	push	{r4, r5, r6, r7, r8, r9, sl, fp, ip, lr, pc}
80110d18:	e24cb004 	sub	fp, ip, #4
80110d1c:	e24ddecb 	sub	sp, sp, #3248	; 0xcb0
80110d20:	e1a04000 	mov	r4, r0
80110d24:	e24dd004 	sub	sp, sp, #4
80110d28:	e50b1cd8 	str	r1, [fp, #-3288]	; 0xfffff328
80110d2c:	ebffffbf 	bl	80110c30 <read_partition>
80110d30:	e3500000 	cmp	r0, #0
80110d34:	1a000065 	bne	80110ed0 <sd_read_ext2+0x1c0>
80110d38:	e59f15f8 	ldr	r1, [pc, #1528]	; 80111338 <sd_read_ext2+0x628>
80110d3c:	e3a00001 	mov	r0, #1
80110d40:	e08f1001 	add	r1, pc, r1
80110d44:	ebffffdf 	bl	80110cc8 <partition_get>
80110d48:	e3500000 	cmp	r0, #0
80110d4c:	1a00005f 	bne	80110ed0 <sd_read_ext2+0x1c0>
80110d50:	e59f35e4 	ldr	r3, [pc, #1508]	; 8011133c <sd_read_ext2+0x62c>
80110d54:	e24b5ec3 	sub	r5, fp, #3120	; 0xc30
80110d58:	e245500c 	sub	r5, r5, #12
80110d5c:	e3a00001 	mov	r0, #1
80110d60:	e08f3003 	add	r3, pc, r3
80110d64:	e50b3034 	str	r3, [fp, #-52]	; 0xffffffcc
80110d68:	e3a03000 	mov	r3, #0
80110d6c:	e50b3030 	str	r3, [fp, #-48]	; 0xffffffd0
80110d70:	e24b3e43 	sub	r3, fp, #1072	; 0x430
80110d74:	e1a01005 	mov	r1, r5
80110d78:	e243300c 	sub	r3, r3, #12
80110d7c:	e50b5cc8 	str	r5, [fp, #-3272]	; 0xfffff338
80110d80:	e1a06003 	mov	r6, r3
80110d84:	e50b3cc0 	str	r3, [fp, #-3264]	; 0xfffff340
80110d88:	ebffff8f 	bl	80110bcc <sd_read>
80110d8c:	e1a01005 	mov	r1, r5
80110d90:	e3a02b01 	mov	r2, #1024	; 0x400
80110d94:	e2860004 	add	r0, r6, #4
80110d98:	ebfff7e3 	bl	8010ed2c <memcpy>
80110d9c:	e51b2434 	ldr	r2, [fp, #-1076]	; 0xfffffbcc
80110da0:	e51b1418 	ldr	r1, [fp, #-1048]	; 0xfffffbe8
80110da4:	e24b7e83 	sub	r7, fp, #2096	; 0x830
80110da8:	e247700c 	sub	r7, r7, #12
80110dac:	e3a05000 	mov	r5, #0
80110db0:	e3a08002 	mov	r8, #2
80110db4:	e733f112 	udiv	r3, r2, r1
80110db8:	e0622391 	mls	r2, r1, r3, r2
80110dbc:	e3520000 	cmp	r2, #0
80110dc0:	12833001 	addne	r3, r3, #1
80110dc4:	e50b343c 	str	r3, [fp, #-1084]	; 0xfffffbc4
80110dc8:	e1a00283 	lsl	r0, r3, #5
80110dcc:	eb000315 	bl	80111a28 <kmalloc>
80110dd0:	e50b0038 	str	r0, [fp, #-56]	; 0xffffffc8
80110dd4:	e51b0418 	ldr	r0, [fp, #-1048]	; 0xfffffbe8
80110dd8:	e1a01007 	mov	r1, r7
80110ddc:	e51b3034 	ldr	r3, [fp, #-52]	; 0xffffffcc
80110de0:	e1a06007 	mov	r6, r7
80110de4:	e0880000 	add	r0, r8, r0
80110de8:	e2859020 	add	r9, r5, #32
80110dec:	e12fff33 	blx	r3
80110df0:	ea000001 	b	80110dfc <sd_read_ext2+0xec>
80110df4:	e1550009 	cmp	r5, r9
80110df8:	0a0000c0 	beq	80111100 <sd_read_ext2+0x3f0>
80110dfc:	e51b0038 	ldr	r0, [fp, #-56]	; 0xffffffc8
80110e00:	e1a01006 	mov	r1, r6
80110e04:	e3a02020 	mov	r2, #32
80110e08:	e0866002 	add	r6, r6, r2
80110e0c:	e0800285 	add	r0, r0, r5, lsl #5
80110e10:	e2855001 	add	r5, r5, #1
80110e14:	ebfff7c4 	bl	8010ed2c <memcpy>
80110e18:	e51b343c 	ldr	r3, [fp, #-1084]	; 0xfffffbc4
80110e1c:	e1550003 	cmp	r5, r3
80110e20:	bafffff3 	blt	80110df4 <sd_read_ext2+0xe4>
80110e24:	e51b3cd8 	ldr	r3, [fp, #-3288]	; 0xfffff328
80110e28:	e3530000 	cmp	r3, #0
80110e2c:	151b2cd8 	ldrne	r2, [fp, #-3288]	; 0xfffff328
80110e30:	13e03000 	mvnne	r3, #0
80110e34:	15823000 	strne	r3, [r2]
80110e38:	e59f1500 	ldr	r1, [pc, #1280]	; 80111340 <sd_read_ext2+0x630>
80110e3c:	e1a00004 	mov	r0, r4
80110e40:	e08f1001 	add	r1, pc, r1
80110e44:	ebfff83f 	bl	8010ef48 <strcmp>
80110e48:	e3500000 	cmp	r0, #0
80110e4c:	0a0000ad 	beq	80111108 <sd_read_ext2+0x3f8>
80110e50:	e24b8ecb 	sub	r8, fp, #3248	; 0xcb0
80110e54:	e3a05001 	mov	r5, #1
80110e58:	e248800c 	sub	r8, r8, #12
80110e5c:	e3a06000 	mov	r6, #0
80110e60:	e50b8cd4 	str	r8, [fp, #-3284]	; 0xfffff32c
80110e64:	e5d43000 	ldrb	r3, [r4]
80110e68:	e2471001 	sub	r1, r7, #1
80110e6c:	e3a00000 	mov	r0, #0
80110e70:	e353002f 	cmp	r3, #47	; 0x2f
80110e74:	05d43001 	ldrbeq	r3, [r4, #1]
80110e78:	02844001 	addeq	r4, r4, #1
80110e7c:	ea000007 	b	80110ea0 <sd_read_ext2+0x190>
80110e80:	e5e13001 	strb	r3, [r1, #1]!
80110e84:	e2802001 	add	r2, r0, #1
80110e88:	e5f43001 	ldrb	r3, [r4, #1]!
80110e8c:	e3530000 	cmp	r3, #0
80110e90:	0a000014 	beq	80110ee8 <sd_read_ext2+0x1d8>
80110e94:	e352003f 	cmp	r2, #63	; 0x3f
80110e98:	0a000096 	beq	801110f8 <sd_read_ext2+0x3e8>
80110e9c:	e1a00002 	mov	r0, r2
80110ea0:	e353002f 	cmp	r3, #47	; 0x2f
80110ea4:	1afffff5 	bne	80110e80 <sd_read_ext2+0x170>
80110ea8:	e240302c 	sub	r3, r0, #44	; 0x2c
80110eac:	e3500000 	cmp	r0, #0
80110eb0:	e083300b 	add	r3, r3, fp
80110eb4:	e5436810 	strb	r6, [r3, #-2064]	; 0xfffff7f0
80110eb8:	1a00011c 	bne	80111330 <sd_read_ext2+0x620>
80110ebc:	e3550020 	cmp	r5, #32
80110ec0:	0a000116 	beq	80111320 <sd_read_ext2+0x610>
80110ec4:	e2844001 	add	r4, r4, #1
80110ec8:	e2855001 	add	r5, r5, #1
80110ecc:	eaffffe4 	b	80110e64 <sd_read_ext2+0x154>
80110ed0:	e59f046c 	ldr	r0, [pc, #1132]	; 80111344 <sd_read_ext2+0x634>
80110ed4:	e3a02010 	mov	r2, #16
80110ed8:	e3a01000 	mov	r1, #0
80110edc:	e08f0000 	add	r0, pc, r0
80110ee0:	ebfff7b1 	bl	8010edac <memset>
80110ee4:	eaffff99 	b	80110d50 <sd_read_ext2+0x40>
80110ee8:	e2800002 	add	r0, r0, #2
80110eec:	e242302c 	sub	r3, r2, #44	; 0x2c
80110ef0:	e083200b 	add	r2, r3, fp
80110ef4:	e5426810 	strb	r6, [r2, #-2064]	; 0xfffff7f0
80110ef8:	eb0002ca 	bl	80111a28 <kmalloc>
80110efc:	e0883105 	add	r3, r8, r5, lsl #2
80110f00:	e1a01007 	mov	r1, r7
80110f04:	e5030004 	str	r0, [r3, #-4]
80110f08:	ebfff7e1 	bl	8010ee94 <strcpy>
80110f0c:	e1a02005 	mov	r2, r5
80110f10:	e3550020 	cmp	r5, #32
80110f14:	0a000101 	beq	80111320 <sd_read_ext2+0x610>
80110f18:	e5d43000 	ldrb	r3, [r4]
80110f1c:	e3530000 	cmp	r3, #0
80110f20:	1affffe7 	bne	80110ec4 <sd_read_ext2+0x1b4>
80110f24:	e51b343c 	ldr	r3, [fp, #-1084]	; 0xfffffbc4
80110f28:	e3530000 	cmp	r3, #0
80110f2c:	da0000f2 	ble	801112fc <sd_read_ext2+0x5ec>
80110f30:	e51b3cd4 	ldr	r3, [fp, #-3284]	; 0xfffff32c
80110f34:	e1a02102 	lsl	r2, r2, #2
80110f38:	e50b2cdc 	str	r2, [fp, #-3292]	; 0xfffff324
80110f3c:	e2433004 	sub	r3, r3, #4
80110f40:	e0833002 	add	r3, r3, r2
80110f44:	e50b3cd0 	str	r3, [fp, #-3280]	; 0xfffff330
80110f48:	e3a03000 	mov	r3, #0
80110f4c:	e1a08003 	mov	r8, r3
80110f50:	e50b3ccc 	str	r3, [fp, #-3276]	; 0xfffff334
80110f54:	ea000005 	b	80110f70 <sd_read_ext2+0x260>
80110f58:	e51b2ccc 	ldr	r2, [fp, #-3276]	; 0xfffff334
80110f5c:	e51b343c 	ldr	r3, [fp, #-1084]	; 0xfffffbc4
80110f60:	e2822001 	add	r2, r2, #1
80110f64:	e50b2ccc 	str	r2, [fp, #-3276]	; 0xfffff334
80110f68:	e1520003 	cmp	r2, r3
80110f6c:	aa0000e4 	bge	80111304 <sd_read_ext2+0x5f4>
80110f70:	e51b0ccc 	ldr	r0, [fp, #-3276]	; 0xfffff334
80110f74:	e51b3038 	ldr	r3, [fp, #-56]	; 0xffffffc8
80110f78:	e51b2034 	ldr	r2, [fp, #-52]	; 0xffffffcc
80110f7c:	e51b1cc8 	ldr	r1, [fp, #-3272]	; 0xfffff338
80110f80:	e0833280 	add	r3, r3, r0, lsl #5
80110f84:	e5930008 	ldr	r0, [r3, #8]
80110f88:	e12fff32 	blx	r2
80110f8c:	e3500000 	cmp	r0, #0
80110f90:	1afffff0 	bne	80110f58 <sd_read_ext2+0x248>
80110f94:	e51b3cd4 	ldr	r3, [fp, #-3284]	; 0xfffff32c
80110f98:	e24b4ebb 	sub	r4, fp, #2992	; 0xbb0
80110f9c:	e244400c 	sub	r4, r4, #12
80110fa0:	e2433004 	sub	r3, r3, #4
80110fa4:	e50b3cc4 	str	r3, [fp, #-3268]	; 0xfffff33c
80110fa8:	e51b3cc4 	ldr	r3, [fp, #-3268]	; 0xfffff33c
80110fac:	e284a024 	add	sl, r4, #36	; 0x24
80110fb0:	e2844054 	add	r4, r4, #84	; 0x54
80110fb4:	e5b36004 	ldr	r6, [r3, #4]!
80110fb8:	e50b3cc4 	str	r3, [fp, #-3268]	; 0xfffff33c
80110fbc:	ea000001 	b	80110fc8 <sd_read_ext2+0x2b8>
80110fc0:	e154000a 	cmp	r4, sl
80110fc4:	0affffe3 	beq	80110f58 <sd_read_ext2+0x248>
80110fc8:	e5ba0004 	ldr	r0, [sl, #4]!
80110fcc:	e3500000 	cmp	r0, #0
80110fd0:	0afffffa 	beq	80110fc0 <sd_read_ext2+0x2b0>
80110fd4:	e51b2034 	ldr	r2, [fp, #-52]	; 0xffffffcc
80110fd8:	e1a01007 	mov	r1, r7
80110fdc:	e12fff32 	blx	r2
80110fe0:	e1a03004 	mov	r3, r4
80110fe4:	e1a09007 	mov	r9, r7
80110fe8:	e1a04006 	mov	r4, r6
80110fec:	e1a06003 	mov	r6, r3
80110ff0:	e5d93006 	ldrb	r3, [r9, #6]
80110ff4:	e1a01004 	mov	r1, r4
80110ff8:	e2890008 	add	r0, r9, #8
80110ffc:	e089c003 	add	ip, r9, r3
80111000:	e3530000 	cmp	r3, #0
80111004:	0a00000c 	beq	8011103c <sd_read_ext2+0x32c>
80111008:	e5dc5008 	ldrb	r5, [ip, #8]
8011100c:	e5cc8008 	strb	r8, [ip, #8]
80111010:	ebfff7cc 	bl	8010ef48 <strcmp>
80111014:	e3500000 	cmp	r0, #0
80111018:	0a00000b 	beq	8011104c <sd_read_ext2+0x33c>
8011101c:	e5d93006 	ldrb	r3, [r9, #6]
80111020:	e0893003 	add	r3, r9, r3
80111024:	e5c35008 	strb	r5, [r3, #8]
80111028:	e1d930b4 	ldrh	r3, [r9, #4]
8011102c:	e0899003 	add	r9, r9, r3
80111030:	e51b3cc0 	ldr	r3, [fp, #-3264]	; 0xfffff340
80111034:	e1590003 	cmp	r9, r3
80111038:	3affffec 	bcc	80110ff0 <sd_read_ext2+0x2e0>
8011103c:	e1a03006 	mov	r3, r6
80111040:	e1a06004 	mov	r6, r4
80111044:	e1a04003 	mov	r4, r3
80111048:	eaffffdc 	b	80110fc0 <sd_read_ext2+0x2b0>
8011104c:	e5995000 	ldr	r5, [r9]
80111050:	e3550000 	cmp	r5, #0
80111054:	baffffbf 	blt	80110f58 <sd_read_ext2+0x248>
80111058:	e51b3410 	ldr	r3, [fp, #-1040]	; 0xfffffbf0
8011105c:	e51b2038 	ldr	r2, [fp, #-56]	; 0xffffffc8
80111060:	e51b6cc8 	ldr	r6, [fp, #-3272]	; 0xfffff338
80111064:	e731f315 	udiv	r1, r5, r3
80111068:	e0822281 	add	r2, r2, r1, lsl #5
8011106c:	e0635193 	mls	r3, r3, r1, r5
80111070:	e1a01006 	mov	r1, r6
80111074:	e2534001 	subs	r4, r3, #1
80111078:	e5922008 	ldr	r2, [r2, #8]
8011107c:	42830006 	addmi	r0, r3, #6
80111080:	51a00004 	movpl	r0, r4
80111084:	e51b3034 	ldr	r3, [fp, #-52]	; 0xffffffcc
80111088:	e08201c0 	add	r0, r2, r0, asr #3
8011108c:	e12fff33 	blx	r3
80111090:	e2743000 	rsbs	r3, r4, #0
80111094:	e2033007 	and	r3, r3, #7
80111098:	e2044007 	and	r4, r4, #7
8011109c:	e51b2cc4 	ldr	r2, [fp, #-3268]	; 0xfffff33c
801110a0:	52634000 	rsbpl	r4, r3, #0
801110a4:	e51b3cd0 	ldr	r3, [fp, #-3280]	; 0xfffff330
801110a8:	e0864384 	add	r4, r6, r4, lsl #7
801110ac:	e1530002 	cmp	r3, r2
801110b0:	1affffbc 	bne	80110fa8 <sd_read_ext2+0x298>
801110b4:	e51b3cd4 	ldr	r3, [fp, #-3284]	; 0xfffff32c
801110b8:	e2434004 	sub	r4, r3, #4
801110bc:	e51b3cdc 	ldr	r3, [fp, #-3292]	; 0xfffff324
801110c0:	e0836004 	add	r6, r3, r4
801110c4:	e5b40004 	ldr	r0, [r4, #4]!
801110c8:	eb000275 	bl	80111aa4 <kfree>
801110cc:	e1560004 	cmp	r6, r4
801110d0:	1afffffb 	bne	801110c4 <sd_read_ext2+0x3b4>
801110d4:	e3750001 	cmn	r5, #1
801110d8:	03a03000 	moveq	r3, #0
801110dc:	050b3ccc 	streq	r3, [fp, #-3276]	; 0xfffff334
801110e0:	1a000090 	bne	80111328 <sd_read_ext2+0x618>
801110e4:	e51b0038 	ldr	r0, [fp, #-56]	; 0xffffffc8
801110e8:	eb00026d 	bl	80111aa4 <kfree>
801110ec:	e51b0ccc 	ldr	r0, [fp, #-3276]	; 0xfffff334
801110f0:	e24bd028 	sub	sp, fp, #40	; 0x28
801110f4:	e89daff0 	ldm	sp, {r4, r5, r6, r7, r8, r9, sl, fp, sp, pc}
801110f8:	e3a00040 	mov	r0, #64	; 0x40
801110fc:	eaffff7a 	b	80110eec <sd_read_ext2+0x1dc>
80111100:	e2888001 	add	r8, r8, #1
80111104:	eaffff32 	b	80110dd4 <sd_read_ext2+0xc4>
80111108:	e24b3ecb 	sub	r3, fp, #3248	; 0xcb0
8011110c:	e243300c 	sub	r3, r3, #12
80111110:	e50b3cd4 	str	r3, [fp, #-3284]	; 0xfffff32c
80111114:	e3a03002 	mov	r3, #2
80111118:	e51bc410 	ldr	ip, [fp, #-1040]	; 0xfffffbf0
8011111c:	e1a01007 	mov	r1, r7
80111120:	e51b2038 	ldr	r2, [fp, #-56]	; 0xffffffc8
80111124:	e51b5034 	ldr	r5, [fp, #-52]	; 0xffffffcc
80111128:	e730fc13 	udiv	r0, r3, ip
8011112c:	e0822280 	add	r2, r2, r0, lsl #5
80111130:	e063309c 	mls	r3, ip, r0, r3
80111134:	e2534001 	subs	r4, r3, #1
80111138:	e5922008 	ldr	r2, [r2, #8]
8011113c:	42830006 	addmi	r0, r3, #6
80111140:	51a00004 	movpl	r0, r4
80111144:	e08201c0 	add	r0, r2, r0, asr #3
80111148:	e12fff35 	blx	r5
8011114c:	e2743000 	rsbs	r3, r4, #0
80111150:	e2033007 	and	r3, r3, #7
80111154:	e2041007 	and	r1, r4, #7
80111158:	52631000 	rsbpl	r1, r3, #0
8011115c:	e3a02080 	mov	r2, #128	; 0x80
80111160:	e51b0cd4 	ldr	r0, [fp, #-3284]	; 0xfffff32c
80111164:	e0871381 	add	r1, r7, r1, lsl #7
80111168:	ebfff6ef 	bl	8010ed2c <memcpy>
8011116c:	e51b0cb8 	ldr	r0, [fp, #-3256]	; 0xfffff348
80111170:	eb00022c 	bl	80111a28 <kmalloc>
80111174:	e2503000 	subs	r3, r0, #0
80111178:	e50b3ccc 	str	r3, [fp, #-3276]	; 0xfffff334
8011117c:	0affffd8 	beq	801110e4 <sd_read_ext2+0x3d4>
80111180:	e51b4cb8 	ldr	r4, [fp, #-3256]	; 0xfffff348
80111184:	e1a09003 	mov	r9, r3
80111188:	e50b7cc4 	str	r7, [fp, #-3268]	; 0xfffff33c
8011118c:	e3a03000 	mov	r3, #0
80111190:	e50b3cc0 	str	r3, [fp, #-3264]	; 0xfffff340
80111194:	e51b1cc0 	ldr	r1, [fp, #-3264]	; 0xfffff340
80111198:	e3510000 	cmp	r1, #0
8011119c:	e2813fff 	add	r3, r1, #1020	; 0x3fc
801111a0:	e2833003 	add	r3, r3, #3
801111a4:	a1a03001 	movge	r3, r1
801111a8:	e2712000 	rsbs	r2, r1, #0
801111ac:	e7e98051 	ubfx	r8, r1, #0, #10
801111b0:	e0444001 	sub	r4, r4, r1
801111b4:	e1a03543 	asr	r3, r3, #10
801111b8:	e7e92052 	ubfx	r2, r2, #0, #10
801111bc:	52628000 	rsbpl	r8, r2, #0
801111c0:	e2686b01 	rsb	r6, r8, #1024	; 0x400
801111c4:	e3560b01 	cmp	r6, #1024	; 0x400
801111c8:	b1a05006 	movlt	r5, r6
801111cc:	a3a05b01 	movge	r5, #1024	; 0x400
801111d0:	e3510a03 	cmp	r1, #12288	; 0x3000
801111d4:	aa000024 	bge	8011126c <sd_read_ext2+0x55c>
801111d8:	e24b202c 	sub	r2, fp, #44	; 0x2c
801111dc:	e0823103 	add	r3, r2, r3, lsl #2
801111e0:	e5130c68 	ldr	r0, [r3, #-3176]	; 0xfffff398
801111e4:	e51b1cc4 	ldr	r1, [fp, #-3268]	; 0xfffff33c
801111e8:	e3a07000 	mov	r7, #0
801111ec:	e51b2034 	ldr	r2, [fp, #-52]	; 0xffffffcc
801111f0:	e0818008 	add	r8, r1, r8
801111f4:	e12fff32 	blx	r2
801111f8:	e1550004 	cmp	r5, r4
801111fc:	e1a01008 	mov	r1, r8
80111200:	b1a0a005 	movlt	sl, r5
80111204:	a1a0a004 	movge	sl, r4
80111208:	e1a0200a 	mov	r2, sl
8011120c:	e1a00009 	mov	r0, r9
80111210:	ebfff6c5 	bl	8010ed2c <memcpy>
80111214:	e055500a 	subs	r5, r5, sl
80111218:	e087700a 	add	r7, r7, sl
8011121c:	03a03001 	moveq	r3, #1
80111220:	13a03000 	movne	r3, #0
80111224:	e054400a 	subs	r4, r4, sl
80111228:	03833001 	orreq	r3, r3, #1
8011122c:	e056600a 	subs	r6, r6, sl
80111230:	e2233001 	eor	r3, r3, #1
80111234:	12033001 	andne	r3, r3, #1
80111238:	03a03000 	moveq	r3, #0
8011123c:	e3530000 	cmp	r3, #0
80111240:	1affffec 	bne	801111f8 <sd_read_ext2+0x4e8>
80111244:	e3570000 	cmp	r7, #0
80111248:	da00002f 	ble	8011130c <sd_read_ext2+0x5fc>
8011124c:	e51b4cb8 	ldr	r4, [fp, #-3256]	; 0xfffff348
80111250:	e51b3cc0 	ldr	r3, [fp, #-3264]	; 0xfffff340
80111254:	e1530004 	cmp	r3, r4
80111258:	2a00002b 	bcs	8011130c <sd_read_ext2+0x5fc>
8011125c:	e0833007 	add	r3, r3, r7
80111260:	e0899007 	add	r9, r9, r7
80111264:	e50b3cc0 	str	r3, [fp, #-3264]	; 0xfffff340
80111268:	eaffffc9 	b	80111194 <sd_read_ext2+0x484>
8011126c:	e243700c 	sub	r7, r3, #12
80111270:	e35700ff 	cmp	r7, #255	; 0xff
80111274:	8a000007 	bhi	80111298 <sd_read_ext2+0x588>
80111278:	e51b3034 	ldr	r3, [fp, #-52]	; 0xffffffcc
8011127c:	e51b0c64 	ldr	r0, [fp, #-3172]	; 0xfffff39c
80111280:	e51b1cc4 	ldr	r1, [fp, #-3268]	; 0xfffff33c
80111284:	e12fff33 	blx	r3
80111288:	e24b302c 	sub	r3, fp, #44	; 0x2c
8011128c:	e0832107 	add	r2, r3, r7, lsl #2
80111290:	e5120810 	ldr	r0, [r2, #-2064]	; 0xfffff7f0
80111294:	eaffffd2 	b	801111e4 <sd_read_ext2+0x4d4>
80111298:	e51b1cc8 	ldr	r1, [fp, #-3272]	; 0xfffff338
8011129c:	e2437f43 	sub	r7, r3, #268	; 0x10c
801112a0:	e51b2034 	ldr	r2, [fp, #-52]	; 0xffffffcc
801112a4:	e51b0c60 	ldr	r0, [fp, #-3168]	; 0xfffff3a0
801112a8:	e50b3cd0 	str	r3, [fp, #-3280]	; 0xfffff330
801112ac:	e12fff32 	blx	r2
801112b0:	e51b3cd0 	ldr	r3, [fp, #-3280]	; 0xfffff330
801112b4:	e3570000 	cmp	r7, #0
801112b8:	e51b1cc4 	ldr	r1, [fp, #-3268]	; 0xfffff33c
801112bc:	b243200d 	sublt	r2, r3, #13
801112c0:	a1a02007 	movge	r2, r7
801112c4:	e1a03442 	asr	r3, r2, #8
801112c8:	e24b202c 	sub	r2, fp, #44	; 0x2c
801112cc:	e0823103 	add	r3, r2, r3, lsl #2
801112d0:	e5130c10 	ldr	r0, [r3, #-3088]	; 0xfffff3f0
801112d4:	e51b3034 	ldr	r3, [fp, #-52]	; 0xffffffcc
801112d8:	e12fff33 	blx	r3
801112dc:	e2772000 	rsbs	r2, r7, #0
801112e0:	e6ef3077 	uxtb	r3, r7
801112e4:	e6ef2072 	uxtb	r2, r2
801112e8:	52623000 	rsbpl	r3, r2, #0
801112ec:	e24b202c 	sub	r2, fp, #44	; 0x2c
801112f0:	e0823103 	add	r3, r2, r3, lsl #2
801112f4:	e5130810 	ldr	r0, [r3, #-2064]	; 0xfffff7f0
801112f8:	eaffffb9 	b	801111e4 <sd_read_ext2+0x4d4>
801112fc:	e1a03102 	lsl	r3, r2, #2
80111300:	e50b3cdc 	str	r3, [fp, #-3292]	; 0xfffff324
80111304:	e3e05000 	mvn	r5, #0
80111308:	eaffff69 	b	801110b4 <sd_read_ext2+0x3a4>
8011130c:	e51b3cd8 	ldr	r3, [fp, #-3288]	; 0xfffff328
80111310:	e3530000 	cmp	r3, #0
80111314:	151b2cc0 	ldrne	r2, [fp, #-3264]	; 0xfffff340
80111318:	15832000 	strne	r2, [r3]
8011131c:	eaffff70 	b	801110e4 <sd_read_ext2+0x3d4>
80111320:	e3a02020 	mov	r2, #32
80111324:	eafffefe 	b	80110f24 <sd_read_ext2+0x214>
80111328:	e1a03005 	mov	r3, r5
8011132c:	eaffff79 	b	80111118 <sd_read_ext2+0x408>
80111330:	e2800001 	add	r0, r0, #1
80111334:	eafffeef 	b	80110ef8 <sd_read_ext2+0x1e8>
80111338:	0000d4e8 	andeq	sp, r0, r8, ror #9
8011133c:	fffffe64 			; <UNDEFINED> instruction: 0xfffffe64
80111340:	000059cc 	andeq	r5, r0, ip, asr #19
80111344:	0000d34c 	andeq	sp, r0, ip, asr #6

80111348 <load_init_proc>:
80111348:	e1a0c00d 	mov	ip, sp
8011134c:	e59f00c0 	ldr	r0, [pc, #192]	; 80111414 <load_init_proc+0xcc>
80111350:	e92dd8f0 	push	{r4, r5, r6, r7, fp, ip, lr, pc}
80111354:	e24cb004 	sub	fp, ip, #4
80111358:	e08f0000 	add	r0, pc, r0
8011135c:	e24dd008 	sub	sp, sp, #8
80111360:	ebfffb06 	bl	8010ff80 <printf>
80111364:	ebffeec4 	bl	8010ce7c <sd_init>
80111368:	e2505000 	subs	r5, r0, #0
8011136c:	1a000023 	bne	80111400 <load_init_proc+0xb8>
80111370:	e59f60a0 	ldr	r6, [pc, #160]	; 80111418 <load_init_proc+0xd0>
80111374:	e59f70a0 	ldr	r7, [pc, #160]	; 8011141c <load_init_proc+0xd4>
80111378:	e08f6006 	add	r6, pc, r6
8011137c:	e1a00006 	mov	r0, r6
80111380:	e08f7007 	add	r7, pc, r7
80111384:	ebfffafd 	bl	8010ff80 <printf>
80111388:	e59f0090 	ldr	r0, [pc, #144]	; 80111420 <load_init_proc+0xd8>
8011138c:	e08f0000 	add	r0, pc, r0
80111390:	ebfffafa 	bl	8010ff80 <printf>
80111394:	e24b1020 	sub	r1, fp, #32
80111398:	e1a00007 	mov	r0, r7
8011139c:	ebfffe5b 	bl	80110d10 <sd_read_ext2>
801113a0:	e2504000 	subs	r4, r0, #0
801113a4:	0a000015 	beq	80111400 <load_init_proc+0xb8>
801113a8:	e1a01005 	mov	r1, r5
801113ac:	e1a00005 	mov	r0, r5
801113b0:	eb000d21 	bl	8011483c <proc_create>
801113b4:	e1a05000 	mov	r5, r0
801113b8:	e1a01007 	mov	r1, r7
801113bc:	e2800034 	add	r0, r0, #52	; 0x34
801113c0:	ebfff6b3 	bl	8010ee94 <strcpy>
801113c4:	e1a01004 	mov	r1, r4
801113c8:	e3e03000 	mvn	r3, #0
801113cc:	e51b2020 	ldr	r2, [fp, #-32]	; 0xffffffe0
801113d0:	e5853014 	str	r3, [r5, #20]
801113d4:	e1a00005 	mov	r0, r5
801113d8:	eb000dbc 	bl	80114ad0 <proc_load_elf>
801113dc:	e1a03000 	mov	r3, r0
801113e0:	e1a00004 	mov	r0, r4
801113e4:	e1a04003 	mov	r4, r3
801113e8:	eb0001ad 	bl	80111aa4 <kfree>
801113ec:	e1a00006 	mov	r0, r6
801113f0:	ebfffae2 	bl	8010ff80 <printf>
801113f4:	e1a00004 	mov	r0, r4
801113f8:	e24bd01c 	sub	sp, fp, #28
801113fc:	e89da8f0 	ldm	sp, {r4, r5, r6, r7, fp, sp, pc}
80111400:	e59f001c 	ldr	r0, [pc, #28]	; 80111424 <load_init_proc+0xdc>
80111404:	e3e04000 	mvn	r4, #0
80111408:	e08f0000 	add	r0, pc, r0
8011140c:	ebfffadb 	bl	8010ff80 <printf>
80111410:	eafffff7 	b	801113f4 <load_init_proc+0xac>
80111414:	000054b8 			; <UNDEFINED> instruction: 0x000054b8
80111418:	000054b8 			; <UNDEFINED> instruction: 0x000054b8
8011141c:	000054dc 	ldrdeq	r5, [r0], -ip
80111420:	000054ac 	andeq	r5, r0, ip, lsr #9
80111424:	0000541c 	andeq	r5, r0, ip, lsl r4

80111428 <page_ref_index>:
80111428:	e59f3018 	ldr	r3, [pc, #24]	; 80111448 <page_ref_index+0x20>
8011142c:	e59f2018 	ldr	r2, [pc, #24]	; 8011144c <page_ref_index+0x24>
80111430:	e08f3003 	add	r3, pc, r3
80111434:	e7933002 	ldr	r3, [r3, r2]
80111438:	e5933008 	ldr	r3, [r3, #8]
8011143c:	e0400003 	sub	r0, r0, r3
80111440:	e1a00620 	lsr	r0, r0, #12
80111444:	e12fff1e 	bx	lr
80111448:	00006c30 	andeq	r6, r0, r0, lsr ip
8011144c:	0000001c 	andeq	r0, r0, ip, lsl r0

80111450 <kalloc_init>:
80111450:	e280ceff 	add	ip, r0, #4080	; 0xff0
80111454:	e59f3068 	ldr	r3, [pc, #104]	; 801114c4 <kalloc_init+0x74>
80111458:	e28cc00f 	add	ip, ip, #15
8011145c:	e3a02a0f 	mov	r2, #61440	; 0xf000
80111460:	e34f2fff 	movt	r2, #65535	; 0xffff
80111464:	e08f3003 	add	r3, pc, r3
80111468:	e00cc002 	and	ip, ip, r2
8011146c:	e0011002 	and	r1, r1, r2
80111470:	e15c0001 	cmp	ip, r1
80111474:	e3a00000 	mov	r0, #0
80111478:	e5830000 	str	r0, [r3]
8011147c:	e5830400 	str	r0, [r3, #1024]	; 0x400
80111480:	012fff1e 	bxeq	lr
80111484:	e1a0300c 	mov	r3, ip
80111488:	ea000000 	b	80111490 <kalloc_init+0x40>
8011148c:	e1a03002 	mov	r3, r2
80111490:	e2832a01 	add	r2, r3, #4096	; 0x1000
80111494:	e5830000 	str	r0, [r3]
80111498:	e1510002 	cmp	r1, r2
8011149c:	e1a00003 	mov	r0, r3
801114a0:	1afffff9 	bne	8011148c <kalloc_init+0x3c>
801114a4:	e59f201c 	ldr	r2, [pc, #28]	; 801114c8 <kalloc_init+0x78>
801114a8:	e043300c 	sub	r3, r3, ip
801114ac:	e08cc003 	add	ip, ip, r3
801114b0:	e08f2002 	add	r2, pc, r2
801114b4:	e1a03623 	lsr	r3, r3, #12
801114b8:	e2830001 	add	r0, r3, #1
801114bc:	e582c000 	str	ip, [r2]
801114c0:	e12fff1e 	bx	lr
801114c4:	0000eb94 	muleq	r0, r4, fp
801114c8:	0000eb48 	andeq	lr, r0, r8, asr #22

801114cc <kalloc4k>:
801114cc:	e59f3014 	ldr	r3, [pc, #20]	; 801114e8 <kalloc4k+0x1c>
801114d0:	e08f3003 	add	r3, pc, r3
801114d4:	e5930000 	ldr	r0, [r3]
801114d8:	e3500000 	cmp	r0, #0
801114dc:	15902000 	ldrne	r2, [r0]
801114e0:	15832000 	strne	r2, [r3]
801114e4:	e12fff1e 	bx	lr
801114e8:	0000eb28 	andeq	lr, r0, r8, lsr #22

801114ec <kfree4k>:
801114ec:	e59f3010 	ldr	r3, [pc, #16]	; 80111504 <kfree4k+0x18>
801114f0:	e08f3003 	add	r3, pc, r3
801114f4:	e5932000 	ldr	r2, [r3]
801114f8:	e5802000 	str	r2, [r0]
801114fc:	e5830000 	str	r0, [r3]
80111500:	e12fff1e 	bx	lr
80111504:	0000eb08 	andeq	lr, r0, r8, lsl #22

80111508 <kalloc1k>:
80111508:	e59f2058 	ldr	r2, [pc, #88]	; 80111568 <kalloc1k+0x60>
8011150c:	e52de004 	push	{lr}		; (str lr, [sp, #-4]!)
80111510:	e08f2002 	add	r2, pc, r2
80111514:	e5920400 	ldr	r0, [r2, #1024]	; 0x400
80111518:	e3500000 	cmp	r0, #0
8011151c:	15901000 	ldrne	r1, [r0]
80111520:	0a000003 	beq	80111534 <kalloc1k+0x2c>
80111524:	e59f3040 	ldr	r3, [pc, #64]	; 8011156c <kalloc1k+0x64>
80111528:	e08f3003 	add	r3, pc, r3
8011152c:	e5831400 	str	r1, [r3, #1024]	; 0x400
80111530:	e49df004 	pop	{pc}		; (ldr pc, [sp], #4)
80111534:	e5923000 	ldr	r3, [r2]
80111538:	e3530000 	cmp	r3, #0
8011153c:	049df004 	popeq	{pc}		; (ldreq pc, [sp], #4)
80111540:	e593e000 	ldr	lr, [r3]
80111544:	e2831b02 	add	r1, r3, #2048	; 0x800
80111548:	e283cb01 	add	ip, r3, #1024	; 0x400
8011154c:	e5830000 	str	r0, [r3]
80111550:	e582e000 	str	lr, [r2]
80111554:	e2830b03 	add	r0, r3, #3072	; 0xc00
80111558:	e5833400 	str	r3, [r3, #1024]	; 0x400
8011155c:	e583c800 	str	ip, [r3, #2048]	; 0x800
80111560:	e5831c00 	str	r1, [r3, #3072]	; 0xc00
80111564:	eaffffee 	b	80111524 <kalloc1k+0x1c>
80111568:	0000eae8 	andeq	lr, r0, r8, ror #21
8011156c:	0000ead0 	ldrdeq	lr, [r0], -r0

80111570 <kfree1k>:
80111570:	e59f3010 	ldr	r3, [pc, #16]	; 80111588 <kfree1k+0x18>
80111574:	e08f3003 	add	r3, pc, r3
80111578:	e5932400 	ldr	r2, [r3, #1024]	; 0x400
8011157c:	e5802000 	str	r2, [r0]
80111580:	e5830400 	str	r0, [r3, #1024]	; 0x400
80111584:	e12fff1e 	bx	lr
80111588:	0000ea84 	andeq	lr, r0, r4, lsl #21

8011158c <get_free_mem_size>:
8011158c:	e59f302c 	ldr	r3, [pc, #44]	; 801115c0 <get_free_mem_size+0x34>
80111590:	e08f3003 	add	r3, pc, r3
80111594:	e5933000 	ldr	r3, [r3]
80111598:	e3530000 	cmp	r3, #0
8011159c:	0a000005 	beq	801115b8 <get_free_mem_size+0x2c>
801115a0:	e3a00000 	mov	r0, #0
801115a4:	e5933000 	ldr	r3, [r3]
801115a8:	e2800a01 	add	r0, r0, #4096	; 0x1000
801115ac:	e3530000 	cmp	r3, #0
801115b0:	1afffffb 	bne	801115a4 <get_free_mem_size+0x18>
801115b4:	e12fff1e 	bx	lr
801115b8:	e1a00003 	mov	r0, r3
801115bc:	e12fff1e 	bx	lr
801115c0:	0000ea68 	andeq	lr, r0, r8, ror #20

801115c4 <try_break>:
801115c4:	e5913008 	ldr	r3, [r1, #8]
801115c8:	e282c010 	add	ip, r2, #16
801115cc:	e92d4030 	push	{r4, r5, lr}
801115d0:	e7fe3053 	ubfx	r3, r3, #0, #31
801115d4:	e15c00a3 	cmp	ip, r3, lsr #1
801115d8:	88bd8030 	pophi	{r4, r5, pc}
801115dc:	e591e00c 	ldr	lr, [r1, #12]
801115e0:	e2433010 	sub	r3, r3, #16
801115e4:	e0433002 	sub	r3, r3, r2
801115e8:	e3a05000 	mov	r5, #0
801115ec:	e08ec002 	add	ip, lr, r2
801115f0:	e3c33102 	bic	r3, r3, #-2147483648	; 0x80000000
801115f4:	e78e5002 	str	r5, [lr, r2]
801115f8:	e28c4010 	add	r4, ip, #16
801115fc:	e58c3008 	str	r3, [ip, #8]
80111600:	e58c400c 	str	r4, [ip, #12]
80111604:	e5913008 	ldr	r3, [r1, #8]
80111608:	e7de3012 	bfi	r3, r2, #0, #31
8011160c:	e5813008 	str	r3, [r1, #8]
80111610:	e5913000 	ldr	r3, [r1]
80111614:	e78e3002 	str	r3, [lr, r2]
80111618:	e1530005 	cmp	r3, r5
8011161c:	1583c004 	strne	ip, [r3, #4]
80111620:	e5903014 	ldr	r3, [r0, #20]
80111624:	e58c1004 	str	r1, [ip, #4]
80111628:	e1530001 	cmp	r3, r1
8011162c:	e581c000 	str	ip, [r1]
80111630:	0580c014 	streq	ip, [r0, #20]
80111634:	e8bd8030 	pop	{r4, r5, pc}

80111638 <trunk_malloc>:
80111638:	e2811007 	add	r1, r1, #7
8011163c:	e1a0c00d 	mov	ip, sp
80111640:	e92dd8f0 	push	{r4, r5, r6, r7, fp, ip, lr, pc}
80111644:	e3c14007 	bic	r4, r1, #7
80111648:	e5901018 	ldr	r1, [r0, #24]
8011164c:	e24cb004 	sub	fp, ip, #4
80111650:	e1a05000 	mov	r5, r0
80111654:	e3510000 	cmp	r1, #0
80111658:	0a00003e 	beq	80111758 <trunk_malloc+0x120>
8011165c:	e1d130db 	ldrsb	r3, [r1, #11]
80111660:	e3530000 	cmp	r3, #0
80111664:	ba000003 	blt	80111678 <trunk_malloc+0x40>
80111668:	e5913008 	ldr	r3, [r1, #8]
8011166c:	e7fe3053 	ubfx	r3, r3, #0, #31
80111670:	e1530004 	cmp	r3, r4
80111674:	2a00002c 	bcs	8011172c <trunk_malloc+0xf4>
80111678:	e5911000 	ldr	r1, [r1]
8011167c:	e3510000 	cmp	r1, #0
80111680:	1afffff5 	bne	8011165c <trunk_malloc+0x24>
80111684:	e2846010 	add	r6, r4, #16
80111688:	e5950000 	ldr	r0, [r5]
8011168c:	e7eb3056 	ubfx	r3, r6, #0, #12
80111690:	e1a06626 	lsr	r6, r6, #12
80111694:	e3530000 	cmp	r3, #0
80111698:	e595300c 	ldr	r3, [r5, #12]
8011169c:	12866001 	addne	r6, r6, #1
801116a0:	e12fff33 	blx	r3
801116a4:	e5953004 	ldr	r3, [r5, #4]
801116a8:	e1a01006 	mov	r1, r6
801116ac:	e1a07000 	mov	r7, r0
801116b0:	e5950000 	ldr	r0, [r5]
801116b4:	e12fff33 	blx	r3
801116b8:	e3500000 	cmp	r0, #0
801116bc:	13a03000 	movne	r3, #0
801116c0:	1a000022 	bne	80111750 <trunk_malloc+0x118>
801116c4:	e1a03606 	lsl	r3, r6, #12
801116c8:	e2872010 	add	r2, r7, #16
801116cc:	e2433010 	sub	r3, r3, #16
801116d0:	e587200c 	str	r2, [r7, #12]
801116d4:	e3c33102 	bic	r3, r3, #-2147483648	; 0x80000000
801116d8:	e5952010 	ldr	r2, [r5, #16]
801116dc:	e3833102 	orr	r3, r3, #-2147483648	; 0x80000000
801116e0:	e5873008 	str	r3, [r7, #8]
801116e4:	e5953014 	ldr	r3, [r5, #20]
801116e8:	e3520000 	cmp	r2, #0
801116ec:	e5870004 	str	r0, [r7, #4]
801116f0:	e1a02004 	mov	r2, r4
801116f4:	e5870000 	str	r0, [r7]
801116f8:	e1a01007 	mov	r1, r7
801116fc:	e1a00005 	mov	r0, r5
80111700:	05857010 	streq	r7, [r5, #16]
80111704:	e3530000 	cmp	r3, #0
80111708:	15837000 	strne	r7, [r3]
8011170c:	15873004 	strne	r3, [r7, #4]
80111710:	e5857014 	str	r7, [r5, #20]
80111714:	ebffffaa 	bl	801115c4 <try_break>
80111718:	e597300c 	ldr	r3, [r7, #12]
8011171c:	e5972000 	ldr	r2, [r7]
80111720:	e1a00003 	mov	r0, r3
80111724:	e5852018 	str	r2, [r5, #24]
80111728:	e89da8f0 	ldm	sp, {r4, r5, r6, r7, fp, sp, pc}
8011172c:	e5d1300b 	ldrb	r3, [r1, #11]
80111730:	e1a02004 	mov	r2, r4
80111734:	e1a00005 	mov	r0, r5
80111738:	e3833080 	orr	r3, r3, #128	; 0x80
8011173c:	e5c1300b 	strb	r3, [r1, #11]
80111740:	ebffff9f 	bl	801115c4 <try_break>
80111744:	e5912000 	ldr	r2, [r1]
80111748:	e591300c 	ldr	r3, [r1, #12]
8011174c:	e5852018 	str	r2, [r5, #24]
80111750:	e1a00003 	mov	r0, r3
80111754:	e89da8f0 	ldm	sp, {r4, r5, r6, r7, fp, sp, pc}
80111758:	e5901010 	ldr	r1, [r0, #16]
8011175c:	e3510000 	cmp	r1, #0
80111760:	1affffbd 	bne	8011165c <trunk_malloc+0x24>
80111764:	eaffffc6 	b	80111684 <trunk_malloc+0x4c>

80111768 <trunk_free>:
80111768:	e3510000 	cmp	r1, #0
8011176c:	e92d4010 	push	{r4, lr}
80111770:	08bd8010 	popeq	{r4, pc}
80111774:	e351000f 	cmp	r1, #15
80111778:	98bd8010 	popls	{r4, pc}
8011177c:	e551c005 	ldrb	ip, [r1, #-5]
80111780:	e2412010 	sub	r2, r1, #16
80111784:	e5113010 	ldr	r3, [r1, #-16]
80111788:	e7c7c39f 	bfc	ip, #7, #1
8011178c:	e3530000 	cmp	r3, #0
80111790:	e541c005 	strb	ip, [r1, #-5]
80111794:	0a00000f 	beq	801117d8 <trunk_free+0x70>
80111798:	e1d3c0db 	ldrsb	ip, [r3, #11]
8011179c:	e35c0000 	cmp	ip, #0
801117a0:	ba00000c 	blt	801117d8 <trunk_free+0x70>
801117a4:	e511c008 	ldr	ip, [r1, #-8]
801117a8:	e5934008 	ldr	r4, [r3, #8]
801117ac:	e7fee05c 	ubfx	lr, ip, #0, #31
801117b0:	e28ee010 	add	lr, lr, #16
801117b4:	e7fe4054 	ubfx	r4, r4, #0, #31
801117b8:	e08ee004 	add	lr, lr, r4
801117bc:	e7dec01e 	bfi	ip, lr, #0, #31
801117c0:	e501c008 	str	ip, [r1, #-8]
801117c4:	e5933000 	ldr	r3, [r3]
801117c8:	e5013010 	str	r3, [r1, #-16]
801117cc:	e3530000 	cmp	r3, #0
801117d0:	05802014 	streq	r2, [r0, #20]
801117d4:	15832004 	strne	r2, [r3, #4]
801117d8:	e511300c 	ldr	r3, [r1, #-12]
801117dc:	e3530000 	cmp	r3, #0
801117e0:	0a000010 	beq	80111828 <trunk_free+0xc0>
801117e4:	e1d3c0db 	ldrsb	ip, [r3, #11]
801117e8:	e35c0000 	cmp	ip, #0
801117ec:	ba00000d 	blt	80111828 <trunk_free+0xc0>
801117f0:	e5112008 	ldr	r2, [r1, #-8]
801117f4:	e593c008 	ldr	ip, [r3, #8]
801117f8:	e7fe2052 	ubfx	r2, r2, #0, #31
801117fc:	e7fee05c 	ubfx	lr, ip, #0, #31
80111800:	e2822010 	add	r2, r2, #16
80111804:	e082200e 	add	r2, r2, lr
80111808:	e7dec012 	bfi	ip, r2, #0, #31
8011180c:	e583c008 	str	ip, [r3, #8]
80111810:	e1a02003 	mov	r2, r3
80111814:	e5111010 	ldr	r1, [r1, #-16]
80111818:	e5831000 	str	r1, [r3]
8011181c:	e3510000 	cmp	r1, #0
80111820:	05803014 	streq	r3, [r0, #20]
80111824:	15813004 	strne	r3, [r1, #4]
80111828:	e5903018 	ldr	r3, [r0, #24]
8011182c:	e3530000 	cmp	r3, #0
80111830:	11530002 	cmpne	r3, r2
80111834:	25923004 	ldrcs	r3, [r2, #4]
80111838:	e5902008 	ldr	r2, [r0, #8]
8011183c:	25803018 	strcs	r3, [r0, #24]
80111840:	e3520000 	cmp	r2, #0
80111844:	08bd8010 	popeq	{r4, pc}
80111848:	e5903014 	ldr	r3, [r0, #20]
8011184c:	e3530000 	cmp	r3, #0
80111850:	08bd8010 	popeq	{r4, pc}
80111854:	e1d310db 	ldrsb	r1, [r3, #11]
80111858:	e3510000 	cmp	r1, #0
8011185c:	b8bd8010 	poplt	{r4, pc}
80111860:	e7ebc053 	ubfx	ip, r3, #0, #12
80111864:	e35c0000 	cmp	ip, #0
80111868:	18bd8010 	popne	{r4, pc}
8011186c:	e5931008 	ldr	r1, [r3, #8]
80111870:	e5933004 	ldr	r3, [r3, #4]
80111874:	e5803014 	str	r3, [r0, #20]
80111878:	e7fe1051 	ubfx	r1, r1, #0, #31
8011187c:	e3530000 	cmp	r3, #0
80111880:	e2811010 	add	r1, r1, #16
80111884:	05803010 	streq	r3, [r0, #16]
80111888:	e8bd4010 	pop	{r4, lr}
8011188c:	e1a01621 	lsr	r1, r1, #12
80111890:	e5900000 	ldr	r0, [r0]
80111894:	1583c000 	strne	ip, [r3]
80111898:	e12fff12 	bx	r2

8011189c <trunk_realloc>:
8011189c:	e1a0c00d 	mov	ip, sp
801118a0:	e92dd8f0 	push	{r4, r5, r6, r7, fp, ip, lr, pc}
801118a4:	e24cb004 	sub	fp, ip, #4
801118a8:	e1a07000 	mov	r7, r0
801118ac:	e1a05001 	mov	r5, r1
801118b0:	e2524000 	subs	r4, r2, #0
801118b4:	0a000010 	beq	801118fc <trunk_realloc+0x60>
801118b8:	e1a01004 	mov	r1, r4
801118bc:	ebffff5d 	bl	80111638 <trunk_malloc>
801118c0:	e2506000 	subs	r6, r0, #0
801118c4:	0a00000c 	beq	801118fc <trunk_realloc+0x60>
801118c8:	e3550000 	cmp	r5, #0
801118cc:	0a000008 	beq	801118f4 <trunk_realloc+0x58>
801118d0:	e5152008 	ldr	r2, [r5, #-8]
801118d4:	e5151004 	ldr	r1, [r5, #-4]
801118d8:	e7fe2052 	ubfx	r2, r2, #0, #31
801118dc:	e1520004 	cmp	r2, r4
801118e0:	21a02004 	movcs	r2, r4
801118e4:	ebfff510 	bl	8010ed2c <memcpy>
801118e8:	e1a01005 	mov	r1, r5
801118ec:	e1a00007 	mov	r0, r7
801118f0:	ebffff9c 	bl	80111768 <trunk_free>
801118f4:	e1a00006 	mov	r0, r6
801118f8:	e89da8f0 	ldm	sp, {r4, r5, r6, r7, fp, sp, pc}
801118fc:	e1a00007 	mov	r0, r7
80111900:	e1a01005 	mov	r1, r5
80111904:	e3a06000 	mov	r6, #0
80111908:	ebffff96 	bl	80111768 <trunk_free>
8011190c:	e1a00006 	mov	r0, r6
80111910:	e89da8f0 	ldm	sp, {r4, r5, r6, r7, fp, sp, pc}

80111914 <km_shrink>:
80111914:	e59f2010 	ldr	r2, [pc, #16]	; 8011192c <km_shrink+0x18>
80111918:	e08f2002 	add	r2, pc, r2
8011191c:	e5923000 	ldr	r3, [r2]
80111920:	e0433601 	sub	r3, r3, r1, lsl #12
80111924:	e5823000 	str	r3, [r2]
80111928:	e12fff1e 	bx	lr
8011192c:	0000eaf0 	strdeq	lr, [r0], -r0

80111930 <km_expand>:
80111930:	e59f3040 	ldr	r3, [pc, #64]	; 80111978 <km_expand+0x48>
80111934:	e59f2040 	ldr	r2, [pc, #64]	; 8011197c <km_expand+0x4c>
80111938:	e08f3003 	add	r3, pc, r3
8011193c:	e59f003c 	ldr	r0, [pc, #60]	; 80111980 <km_expand+0x50>
80111940:	e08f0000 	add	r0, pc, r0
80111944:	e7933002 	ldr	r3, [r3, r2]
80111948:	e2833dff 	add	r3, r3, #16320	; 0x3fc0
8011194c:	e5902000 	ldr	r2, [r0]
80111950:	e283303f 	add	r3, r3, #63	; 0x3f
80111954:	e3c33dff 	bic	r3, r3, #16320	; 0x3fc0
80111958:	e3c3303f 	bic	r3, r3, #63	; 0x3f
8011195c:	e0821601 	add	r1, r2, r1, lsl #12
80111960:	e2833882 	add	r3, r3, #8519680	; 0x820000
80111964:	e1530001 	cmp	r3, r1
80111968:	25801000 	strcs	r1, [r0]
8011196c:	23a00000 	movcs	r0, #0
80111970:	33e00000 	mvncc	r0, #0
80111974:	e12fff1e 	bx	lr
80111978:	00006728 	andeq	r6, r0, r8, lsr #14
8011197c:	00000020 	andeq	r0, r0, r0, lsr #32
80111980:	0000eac8 	andeq	lr, r0, r8, asr #21

80111984 <km_get_mem_tail>:
80111984:	e59f3004 	ldr	r3, [pc, #4]	; 80111990 <km_get_mem_tail+0xc>
80111988:	e79f0003 	ldr	r0, [pc, r3]
8011198c:	e12fff1e 	bx	lr
80111990:	0000ea80 	andeq	lr, r0, r0, lsl #21

80111994 <kmalloc_init>:
80111994:	e1a0c00d 	mov	ip, sp
80111998:	e92dd830 	push	{r4, r5, fp, ip, lr, pc}
8011199c:	e59f406c 	ldr	r4, [pc, #108]	; 80111a10 <kmalloc_init+0x7c>
801119a0:	e3a0201c 	mov	r2, #28
801119a4:	e3a01000 	mov	r1, #0
801119a8:	e08f4004 	add	r4, pc, r4
801119ac:	e59f5060 	ldr	r5, [pc, #96]	; 80111a14 <kmalloc_init+0x80>
801119b0:	e24cb004 	sub	fp, ip, #4
801119b4:	e2840004 	add	r0, r4, #4
801119b8:	ebfff4fb 	bl	8010edac <memset>
801119bc:	e59f3054 	ldr	r3, [pc, #84]	; 80111a18 <kmalloc_init+0x84>
801119c0:	e08f5005 	add	r5, pc, r5
801119c4:	e59f0050 	ldr	r0, [pc, #80]	; 80111a1c <kmalloc_init+0x88>
801119c8:	e59f1050 	ldr	r1, [pc, #80]	; 80111a20 <kmalloc_init+0x8c>
801119cc:	e59f2050 	ldr	r2, [pc, #80]	; 80111a24 <kmalloc_init+0x90>
801119d0:	e08f0000 	add	r0, pc, r0
801119d4:	e7953003 	ldr	r3, [r5, r3]
801119d8:	e08f1001 	add	r1, pc, r1
801119dc:	e08f2002 	add	r2, pc, r2
801119e0:	e5840008 	str	r0, [r4, #8]
801119e4:	e2833dff 	add	r3, r3, #16320	; 0x3fc0
801119e8:	e3a00000 	mov	r0, #0
801119ec:	e283303f 	add	r3, r3, #63	; 0x3f
801119f0:	e584100c 	str	r1, [r4, #12]
801119f4:	e3c33dff 	bic	r3, r3, #16320	; 0x3fc0
801119f8:	e5842010 	str	r2, [r4, #16]
801119fc:	e3c3303f 	bic	r3, r3, #63	; 0x3f
80111a00:	e5840004 	str	r0, [r4, #4]
80111a04:	e2833802 	add	r3, r3, #131072	; 0x20000
80111a08:	e5843000 	str	r3, [r4]
80111a0c:	e89da830 	ldm	sp, {r4, r5, fp, sp, pc}
80111a10:	0000ea60 	andeq	lr, r0, r0, ror #20
80111a14:	000066a0 	andeq	r6, r0, r0, lsr #13
80111a18:	00000020 	andeq	r0, r0, r0, lsr #32
80111a1c:	ffffff58 			; <UNDEFINED> instruction: 0xffffff58
80111a20:	ffffff34 			; <UNDEFINED> instruction: 0xffffff34
80111a24:	ffffffa0 			; <UNDEFINED> instruction: 0xffffffa0

80111a28 <kmalloc>:
80111a28:	e59f303c 	ldr	r3, [pc, #60]	; 80111a6c <kmalloc+0x44>
80111a2c:	e1a0c00d 	mov	ip, sp
80111a30:	e1a01000 	mov	r1, r0
80111a34:	e92dd830 	push	{r4, r5, fp, ip, lr, pc}
80111a38:	e08f3003 	add	r3, pc, r3
80111a3c:	e24cb004 	sub	fp, ip, #4
80111a40:	e2830004 	add	r0, r3, #4
80111a44:	ebfffefb 	bl	80111638 <trunk_malloc>
80111a48:	e2504000 	subs	r4, r0, #0
80111a4c:	0a000001 	beq	80111a58 <kmalloc+0x30>
80111a50:	e1a00004 	mov	r0, r4
80111a54:	e89da830 	ldm	sp, {r4, r5, fp, sp, pc}
80111a58:	e59f0010 	ldr	r0, [pc, #16]	; 80111a70 <kmalloc+0x48>
80111a5c:	e08f0000 	add	r0, pc, r0
80111a60:	ebfff946 	bl	8010ff80 <printf>
80111a64:	e1a00004 	mov	r0, r4
80111a68:	e89da830 	ldm	sp, {r4, r5, fp, sp, pc}
80111a6c:	0000e9d0 	ldrdeq	lr, [r0], -r0
80111a70:	00004e0c 	andeq	r4, r0, ip, lsl #28

80111a74 <kcalloc>:
80111a74:	e1a0c00d 	mov	ip, sp
80111a78:	e92dd830 	push	{r4, r5, fp, ip, lr, pc}
80111a7c:	e0040091 	mul	r4, r1, r0
80111a80:	e24cb004 	sub	fp, ip, #4
80111a84:	e1a00004 	mov	r0, r4
80111a88:	ebffffe6 	bl	80111a28 <kmalloc>
80111a8c:	e1a02004 	mov	r2, r4
80111a90:	e1a05000 	mov	r5, r0
80111a94:	e3a01000 	mov	r1, #0
80111a98:	ebfff4c3 	bl	8010edac <memset>
80111a9c:	e1a00005 	mov	r0, r5
80111aa0:	e89da830 	ldm	sp, {r4, r5, fp, sp, pc}

80111aa4 <kfree>:
80111aa4:	e2501000 	subs	r1, r0, #0
80111aa8:	012fff1e 	bxeq	lr
80111aac:	e59f0008 	ldr	r0, [pc, #8]	; 80111abc <kfree+0x18>
80111ab0:	e08f0000 	add	r0, pc, r0
80111ab4:	e2800004 	add	r0, r0, #4
80111ab8:	eaffff2a 	b	80111768 <trunk_free>
80111abc:	0000e958 	andeq	lr, r0, r8, asr r9

80111ac0 <dma_init>:
80111ac0:	e59f3040 	ldr	r3, [pc, #64]	; 80111b08 <dma_init+0x48>
80111ac4:	e1a0c00d 	mov	ip, sp
80111ac8:	e59f203c 	ldr	r2, [pc, #60]	; 80111b0c <dma_init+0x4c>
80111acc:	e3a01014 	mov	r1, #20
80111ad0:	e08f3003 	add	r3, pc, r3
80111ad4:	e92dd830 	push	{r4, r5, fp, ip, lr, pc}
80111ad8:	e24cb004 	sub	fp, ip, #4
80111adc:	e3a00001 	mov	r0, #1
80111ae0:	e7933002 	ldr	r3, [r3, r2]
80111ae4:	e5934040 	ldr	r4, [r3, #64]	; 0x40
80111ae8:	e593503c 	ldr	r5, [r3, #60]	; 0x3c
80111aec:	ebffffe0 	bl	80111a74 <kcalloc>
80111af0:	e59f3018 	ldr	r3, [pc, #24]	; 80111b10 <dma_init+0x50>
80111af4:	e5805004 	str	r5, [r0, #4]
80111af8:	e08f3003 	add	r3, pc, r3
80111afc:	e5804008 	str	r4, [r0, #8]
80111b00:	e5830000 	str	r0, [r3]
80111b04:	e89da830 	ldm	sp, {r4, r5, fp, sp, pc}
80111b08:	00006590 	muleq	r0, r0, r5
80111b0c:	00000058 	andeq	r0, r0, r8, asr r0
80111b10:	0000e930 	andeq	lr, r0, r0, lsr r9

80111b14 <dma_release>:
80111b14:	e59f3080 	ldr	r3, [pc, #128]	; 80111b9c <dma_release+0x88>
80111b18:	e1a0c00d 	mov	ip, sp
80111b1c:	e92dd8f0 	push	{r4, r5, r6, r7, fp, ip, lr, pc}
80111b20:	e24cb004 	sub	fp, ip, #4
80111b24:	e08f3003 	add	r3, pc, r3
80111b28:	e1a06000 	mov	r6, r0
80111b2c:	e5934000 	ldr	r4, [r3]
80111b30:	e3540000 	cmp	r4, #0
80111b34:	089da8f0 	ldmeq	sp, {r4, r5, r6, r7, fp, sp, pc}
80111b38:	e3a05000 	mov	r5, #0
80111b3c:	e1a03004 	mov	r3, r4
80111b40:	e594400c 	ldr	r4, [r4, #12]
80111b44:	e5932000 	ldr	r2, [r3]
80111b48:	e1520006 	cmp	r2, r6
80111b4c:	e5932010 	ldr	r2, [r3, #16]
80111b50:	05835000 	streq	r5, [r3]
80111b54:	e3520000 	cmp	r2, #0
80111b58:	0a00000c 	beq	80111b90 <dma_release+0x7c>
80111b5c:	e5921000 	ldr	r1, [r2]
80111b60:	e1a00003 	mov	r0, r3
80111b64:	e3510000 	cmp	r1, #0
80111b68:	1a000008 	bne	80111b90 <dma_release+0x7c>
80111b6c:	e3540000 	cmp	r4, #0
80111b70:	e582400c 	str	r4, [r2, #12]
80111b74:	15842010 	strne	r2, [r4, #16]
80111b78:	e5931004 	ldr	r1, [r3, #4]
80111b7c:	15932010 	ldrne	r2, [r3, #16]
80111b80:	e5923004 	ldr	r3, [r2, #4]
80111b84:	e0833001 	add	r3, r3, r1
80111b88:	e5823004 	str	r3, [r2, #4]
80111b8c:	ebffffc4 	bl	80111aa4 <kfree>
80111b90:	e3540000 	cmp	r4, #0
80111b94:	1affffe8 	bne	80111b3c <dma_release+0x28>
80111b98:	e89da8f0 	ldm	sp, {r4, r5, r6, r7, fp, sp, pc}
80111b9c:	0000e904 	andeq	lr, r0, r4, lsl #18

80111ba0 <dma_alloc>:
80111ba0:	e59f30a8 	ldr	r3, [pc, #168]	; 80111c50 <dma_alloc+0xb0>
80111ba4:	e1a0c00d 	mov	ip, sp
80111ba8:	e92dd8f0 	push	{r4, r5, r6, r7, fp, ip, lr, pc}
80111bac:	e2815eff 	add	r5, r1, #4080	; 0xff0
80111bb0:	e08f3003 	add	r3, pc, r3
80111bb4:	e285500f 	add	r5, r5, #15
80111bb8:	e24cb004 	sub	fp, ip, #4
80111bbc:	e3c55eff 	bic	r5, r5, #4080	; 0xff0
80111bc0:	e5934000 	ldr	r4, [r3]
80111bc4:	e3c5500f 	bic	r5, r5, #15
80111bc8:	e3540000 	cmp	r4, #0
80111bcc:	0a00000c 	beq	80111c04 <dma_alloc+0x64>
80111bd0:	e5943000 	ldr	r3, [r4]
80111bd4:	e3530000 	cmp	r3, #0
80111bd8:	1a000006 	bne	80111bf8 <dma_alloc+0x58>
80111bdc:	e5943004 	ldr	r3, [r4, #4]
80111be0:	e1530005 	cmp	r3, r5
80111be4:	3a000003 	bcc	80111bf8 <dma_alloc+0x58>
80111be8:	e5840000 	str	r0, [r4]
80111bec:	8a000006 	bhi	80111c0c <dma_alloc+0x6c>
80111bf0:	e5940008 	ldr	r0, [r4, #8]
80111bf4:	e89da8f0 	ldm	sp, {r4, r5, r6, r7, fp, sp, pc}
80111bf8:	e594400c 	ldr	r4, [r4, #12]
80111bfc:	e3540000 	cmp	r4, #0
80111c00:	1afffff2 	bne	80111bd0 <dma_alloc+0x30>
80111c04:	e1a00004 	mov	r0, r4
80111c08:	e89da8f0 	ldm	sp, {r4, r5, r6, r7, fp, sp, pc}
80111c0c:	e5947008 	ldr	r7, [r4, #8]
80111c10:	e3a01014 	mov	r1, #20
80111c14:	e3a00001 	mov	r0, #1
80111c18:	e0436005 	sub	r6, r3, r5
80111c1c:	ebffff94 	bl	80111a74 <kcalloc>
80111c20:	e594300c 	ldr	r3, [r4, #12]
80111c24:	e0857007 	add	r7, r5, r7
80111c28:	e1c060f4 	strd	r6, [r0, #4]
80111c2c:	e5845004 	str	r5, [r4, #4]
80111c30:	e580300c 	str	r3, [r0, #12]
80111c34:	e5804010 	str	r4, [r0, #16]
80111c38:	e594300c 	ldr	r3, [r4, #12]
80111c3c:	e3530000 	cmp	r3, #0
80111c40:	15830010 	strne	r0, [r3, #16]
80111c44:	e584000c 	str	r0, [r4, #12]
80111c48:	e5940008 	ldr	r0, [r4, #8]
80111c4c:	e89da8f0 	ldm	sp, {r4, r5, r6, r7, fp, sp, pc}
80111c50:	0000e878 	andeq	lr, r0, r8, ror r8

80111c54 <shm_init>:
80111c54:	e59f3028 	ldr	r3, [pc, #40]	; 80111c84 <shm_init+0x30>
80111c58:	e3a01000 	mov	r1, #0
80111c5c:	e59f2024 	ldr	r2, [pc, #36]	; 80111c88 <shm_init+0x34>
80111c60:	e3a0c101 	mov	ip, #1073741824	; 0x40000000
80111c64:	e08f3003 	add	r3, pc, r3
80111c68:	e3a00001 	mov	r0, #1
80111c6c:	e08f2002 	add	r2, pc, r2
80111c70:	e583c000 	str	ip, [r3]
80111c74:	e5831004 	str	r1, [r3, #4]
80111c78:	e5831008 	str	r1, [r3, #8]
80111c7c:	e5820000 	str	r0, [r2]
80111c80:	e12fff1e 	bx	lr
80111c84:	0000e7c8 	andeq	lr, r0, r8, asr #15
80111c88:	000063ec 	andeq	r6, r0, ip, ror #7

80111c8c <shm_alloc>:
80111c8c:	e7eb3050 	ubfx	r3, r0, #0, #12
80111c90:	e1a0c00d 	mov	ip, sp
80111c94:	e3530000 	cmp	r3, #0
80111c98:	e59f32b4 	ldr	r3, [pc, #692]	; 80111f54 <shm_alloc+0x2c8>
80111c9c:	e92ddff0 	push	{r4, r5, r6, r7, r8, r9, sl, fp, ip, lr, pc}
80111ca0:	e24cb004 	sub	fp, ip, #4
80111ca4:	e08f3003 	add	r3, pc, r3
80111ca8:	e59fa2a8 	ldr	sl, [pc, #680]	; 80111f58 <shm_alloc+0x2cc>
80111cac:	e24dd014 	sub	sp, sp, #20
80111cb0:	e1a06620 	lsr	r6, r0, #12
80111cb4:	e5934004 	ldr	r4, [r3, #4]
80111cb8:	e08fa00a 	add	sl, pc, sl
80111cbc:	12866001 	addne	r6, r6, #1
80111cc0:	e50b1030 	str	r1, [fp, #-48]	; 0xffffffd0
80111cc4:	e3540000 	cmp	r4, #0
80111cc8:	0a000008 	beq	80111cf0 <shm_alloc+0x64>
80111ccc:	e594700c 	ldr	r7, [r4, #12]
80111cd0:	e3570000 	cmp	r7, #0
80111cd4:	1a000002 	bne	80111ce4 <shm_alloc+0x58>
80111cd8:	e5945008 	ldr	r5, [r4, #8]
80111cdc:	e1550006 	cmp	r5, r6
80111ce0:	2a000058 	bcs	80111e48 <shm_alloc+0x1bc>
80111ce4:	e594401c 	ldr	r4, [r4, #28]
80111ce8:	e3540000 	cmp	r4, #0
80111cec:	1afffff6 	bne	80111ccc <shm_alloc+0x40>
80111cf0:	e59f5264 	ldr	r5, [pc, #612]	; 80111f5c <shm_alloc+0x2d0>
80111cf4:	e3a00024 	mov	r0, #36	; 0x24
80111cf8:	e08f5005 	add	r5, pc, r5
80111cfc:	e5958000 	ldr	r8, [r5]
80111d00:	ebffff48 	bl	80111a28 <kmalloc>
80111d04:	e2504000 	subs	r4, r0, #0
80111d08:	0a00008f 	beq	80111f4c <shm_alloc+0x2c0>
80111d0c:	e3a02024 	mov	r2, #36	; 0x24
80111d10:	e3a01000 	mov	r1, #0
80111d14:	ebfff424 	bl	8010edac <memset>
80111d18:	e59f2240 	ldr	r2, [pc, #576]	; 80111f60 <shm_alloc+0x2d4>
80111d1c:	e5953004 	ldr	r3, [r5, #4]
80111d20:	e08f2002 	add	r2, pc, r2
80111d24:	e5848004 	str	r8, [r4, #4]
80111d28:	e3530000 	cmp	r3, #0
80111d2c:	e3e03000 	mvn	r3, #0
80111d30:	e5843014 	str	r3, [r4, #20]
80111d34:	e5923000 	ldr	r3, [r2]
80111d38:	e5843000 	str	r3, [r4]
80111d3c:	e2833001 	add	r3, r3, #1
80111d40:	e5823000 	str	r3, [r2]
80111d44:	0a00007c 	beq	80111f3c <shm_alloc+0x2b0>
80111d48:	e5953008 	ldr	r3, [r5, #8]
80111d4c:	e5854008 	str	r4, [r5, #8]
80111d50:	e5945008 	ldr	r5, [r4, #8]
80111d54:	e583401c 	str	r4, [r3, #28]
80111d58:	e3550000 	cmp	r5, #0
80111d5c:	e5843020 	str	r3, [r4, #32]
80111d60:	1a00003c 	bne	80111e58 <shm_alloc+0x1cc>
80111d64:	e3560000 	cmp	r6, #0
80111d68:	150b4034 	strne	r4, [fp, #-52]	; 0xffffffcc
80111d6c:	11a07005 	movne	r7, r5
80111d70:	11a09008 	movne	r9, r8
80111d74:	1a000012 	bne	80111dc4 <shm_alloc+0x138>
80111d78:	ea000047 	b	80111e9c <shm_alloc+0x210>
80111d7c:	ebfff40a 	bl	8010edac <memset>
80111d80:	e59f01dc 	ldr	r0, [pc, #476]	; 80111f64 <shm_alloc+0x2d8>
80111d84:	e59f21dc 	ldr	r2, [pc, #476]	; 80111f68 <shm_alloc+0x2dc>
80111d88:	e1a01009 	mov	r1, r9
80111d8c:	e2877001 	add	r7, r7, #1
80111d90:	e3a03001 	mov	r3, #1
80111d94:	e2899a01 	add	r9, r9, #4096	; 0x1000
80111d98:	e79ac000 	ldr	ip, [sl, r0]
80111d9c:	e79a0002 	ldr	r0, [sl, r2]
80111da0:	e59c2024 	ldr	r2, [ip, #36]	; 0x24
80111da4:	e3a0c000 	mov	ip, #0
80111da8:	e5900000 	ldr	r0, [r0]
80111dac:	e2822102 	add	r2, r2, #-2147483648	; 0x80000000
80111db0:	e58dc000 	str	ip, [sp]
80111db4:	e0842002 	add	r2, r4, r2
80111db8:	ebffed4d 	bl	8010d2f4 <map_page>
80111dbc:	e1560007 	cmp	r6, r7
80111dc0:	0a000034 	beq	80111e98 <shm_alloc+0x20c>
80111dc4:	ebfffdc0 	bl	801114cc <kalloc4k>
80111dc8:	e3a02a01 	mov	r2, #4096	; 0x1000
80111dcc:	e2504000 	subs	r4, r0, #0
80111dd0:	e3a01000 	mov	r1, #0
80111dd4:	1affffe8 	bne	80111d7c <shm_alloc+0xf0>
80111dd8:	e59f018c 	ldr	r0, [pc, #396]	; 80111f6c <shm_alloc+0x2e0>
80111ddc:	e1a01004 	mov	r1, r4
80111de0:	e08f0000 	add	r0, pc, r0
80111de4:	ebfff865 	bl	8010ff80 <printf>
80111de8:	e3570000 	cmp	r7, #0
80111dec:	0a000011 	beq	80111e38 <shm_alloc+0x1ac>
80111df0:	e59f2170 	ldr	r2, [pc, #368]	; 80111f68 <shm_alloc+0x2dc>
80111df4:	e59f3168 	ldr	r3, [pc, #360]	; 80111f64 <shm_alloc+0x2d8>
80111df8:	e79a4002 	ldr	r4, [sl, r2]
80111dfc:	e79a6003 	ldr	r6, [sl, r3]
80111e00:	e1a01008 	mov	r1, r8
80111e04:	e5940000 	ldr	r0, [r4]
80111e08:	ebffed8a 	bl	8010d438 <resolve_phy_address>
80111e0c:	e5963024 	ldr	r3, [r6, #36]	; 0x24
80111e10:	e2855001 	add	r5, r5, #1
80111e14:	e2633102 	rsb	r3, r3, #-2147483648	; 0x80000000
80111e18:	e0830000 	add	r0, r3, r0
80111e1c:	ebfffdb2 	bl	801114ec <kfree4k>
80111e20:	e1a01008 	mov	r1, r8
80111e24:	e5940000 	ldr	r0, [r4]
80111e28:	e2888a01 	add	r8, r8, #4096	; 0x1000
80111e2c:	ebffed6f 	bl	8010d3f0 <unmap_page>
80111e30:	e1550007 	cmp	r5, r7
80111e34:	1afffff1 	bne	80111e00 <shm_alloc+0x174>
80111e38:	eb001068 	bl	80115fe0 <flush_tlb>
80111e3c:	e3e00000 	mvn	r0, #0
80111e40:	e24bd028 	sub	sp, fp, #40	; 0x28
80111e44:	e89daff0 	ldm	sp, {r4, r5, r6, r7, r8, r9, sl, fp, sp, pc}
80111e48:	e5948004 	ldr	r8, [r4, #4]
80111e4c:	8a000015 	bhi	80111ea8 <shm_alloc+0x21c>
80111e50:	e3550000 	cmp	r5, #0
80111e54:	0affffc2 	beq	80111d64 <shm_alloc+0xd8>
80111e58:	e59f3110 	ldr	r3, [pc, #272]	; 80111f70 <shm_alloc+0x2e4>
80111e5c:	e08f3003 	add	r3, pc, r3
80111e60:	e5932000 	ldr	r2, [r3]
80111e64:	e1520008 	cmp	r2, r8
80111e68:	00886606 	addeq	r6, r8, r6, lsl #12
80111e6c:	05836000 	streq	r6, [r3]
80111e70:	e3a03001 	mov	r3, #1
80111e74:	e584300c 	str	r3, [r4, #12]
80111e78:	eb00084e 	bl	80113fb8 <get_current_proc>
80111e7c:	e1a03000 	mov	r3, r0
80111e80:	e5940000 	ldr	r0, [r4]
80111e84:	e51b2030 	ldr	r2, [fp, #-48]	; 0xffffffd0
80111e88:	e593300c 	ldr	r3, [r3, #12]
80111e8c:	e1c421f0 	strd	r2, [r4, #16]
80111e90:	e24bd028 	sub	sp, fp, #40	; 0x28
80111e94:	e89daff0 	ldm	sp, {r4, r5, r6, r7, r8, r9, sl, fp, sp, pc}
80111e98:	e51b4034 	ldr	r4, [fp, #-52]	; 0xffffffcc
80111e9c:	eb00104f 	bl	80115fe0 <flush_tlb>
80111ea0:	e5846008 	str	r6, [r4, #8]
80111ea4:	eaffffeb 	b	80111e58 <shm_alloc+0x1cc>
80111ea8:	e3a00024 	mov	r0, #36	; 0x24
80111eac:	ebfffedd 	bl	80111a28 <kmalloc>
80111eb0:	e2505000 	subs	r5, r0, #0
80111eb4:	0a000022 	beq	80111f44 <shm_alloc+0x2b8>
80111eb8:	e1a01007 	mov	r1, r7
80111ebc:	e3a02024 	mov	r2, #36	; 0x24
80111ec0:	ebfff3b9 	bl	8010edac <memset>
80111ec4:	e59f10a8 	ldr	r1, [pc, #168]	; 80111f74 <shm_alloc+0x2e8>
80111ec8:	e5943008 	ldr	r3, [r4, #8]
80111ecc:	e08f1001 	add	r1, pc, r1
80111ed0:	e5942004 	ldr	r2, [r4, #4]
80111ed4:	e0433006 	sub	r3, r3, r6
80111ed8:	e5853008 	str	r3, [r5, #8]
80111edc:	e5913000 	ldr	r3, [r1]
80111ee0:	e0822606 	add	r2, r2, r6, lsl #12
80111ee4:	e5853000 	str	r3, [r5]
80111ee8:	e2833001 	add	r3, r3, #1
80111eec:	e5813000 	str	r3, [r1]
80111ef0:	e594301c 	ldr	r3, [r4, #28]
80111ef4:	e5852004 	str	r2, [r5, #4]
80111ef8:	e3e02000 	mvn	r2, #0
80111efc:	e5852014 	str	r2, [r5, #20]
80111f00:	e5846008 	str	r6, [r4, #8]
80111f04:	e585301c 	str	r3, [r5, #28]
80111f08:	e5854020 	str	r4, [r5, #32]
80111f0c:	e594301c 	ldr	r3, [r4, #28]
80111f10:	e3530000 	cmp	r3, #0
80111f14:	15835020 	strne	r5, [r3, #32]
80111f18:	e59f3058 	ldr	r3, [pc, #88]	; 80111f78 <shm_alloc+0x2ec>
80111f1c:	e584501c 	str	r5, [r4, #28]
80111f20:	e08f3003 	add	r3, pc, r3
80111f24:	e5932008 	ldr	r2, [r3, #8]
80111f28:	e1520004 	cmp	r2, r4
80111f2c:	05835008 	streq	r5, [r3, #8]
80111f30:	01a05006 	moveq	r5, r6
80111f34:	11a05006 	movne	r5, r6
80111f38:	eaffffc4 	b	80111e50 <shm_alloc+0x1c4>
80111f3c:	e5854008 	str	r4, [r5, #8]
80111f40:	e5854004 	str	r4, [r5, #4]
80111f44:	e5945008 	ldr	r5, [r4, #8]
80111f48:	eaffffc0 	b	80111e50 <shm_alloc+0x1c4>
80111f4c:	e3e00000 	mvn	r0, #0
80111f50:	eaffffce 	b	80111e90 <shm_alloc+0x204>
80111f54:	0000e788 	andeq	lr, r0, r8, lsl #15
80111f58:	000063a8 	andeq	r6, r0, r8, lsr #7
80111f5c:	0000e734 	andeq	lr, r0, r4, lsr r7
80111f60:	00006338 	andeq	r6, r0, r8, lsr r3
80111f64:	00000058 	andeq	r0, r0, r8, asr r0
80111f68:	00000018 	andeq	r0, r0, r8, lsl r0
80111f6c:	00004aa4 	andeq	r4, r0, r4, lsr #21
80111f70:	0000e5d0 	ldrdeq	lr, [r0], -r0
80111f74:	0000618c 	andeq	r6, r0, ip, lsl #3
80111f78:	0000e50c 	andeq	lr, r0, ip, lsl #10

80111f7c <shm_alloced_size>:
80111f7c:	e59f3038 	ldr	r3, [pc, #56]	; 80111fbc <shm_alloced_size+0x40>
80111f80:	e08f3003 	add	r3, pc, r3
80111f84:	e5933004 	ldr	r3, [r3, #4]
80111f88:	e3530000 	cmp	r3, #0
80111f8c:	0a000008 	beq	80111fb4 <shm_alloced_size+0x38>
80111f90:	e3a00000 	mov	r0, #0
80111f94:	e593200c 	ldr	r2, [r3, #12]
80111f98:	e3520000 	cmp	r2, #0
80111f9c:	15932008 	ldrne	r2, [r3, #8]
80111fa0:	e593301c 	ldr	r3, [r3, #28]
80111fa4:	10800602 	addne	r0, r0, r2, lsl #12
80111fa8:	e3530000 	cmp	r3, #0
80111fac:	1afffff8 	bne	80111f94 <shm_alloced_size+0x18>
80111fb0:	e12fff1e 	bx	lr
80111fb4:	e1a00003 	mov	r0, r3
80111fb8:	e12fff1e 	bx	lr
80111fbc:	0000e4ac 	andeq	lr, r0, ip, lsr #9

80111fc0 <shm_raw>:
80111fc0:	e59f3040 	ldr	r3, [pc, #64]	; 80112008 <shm_raw+0x48>
80111fc4:	e1a02000 	mov	r2, r0
80111fc8:	e08f3003 	add	r3, pc, r3
80111fcc:	e5930004 	ldr	r0, [r3, #4]
80111fd0:	e3500000 	cmp	r0, #0
80111fd4:	1a000003 	bne	80111fe8 <shm_raw+0x28>
80111fd8:	e12fff1e 	bx	lr
80111fdc:	e590001c 	ldr	r0, [r0, #28]
80111fe0:	e3500000 	cmp	r0, #0
80111fe4:	012fff1e 	bxeq	lr
80111fe8:	e590300c 	ldr	r3, [r0, #12]
80111fec:	e3530000 	cmp	r3, #0
80111ff0:	0afffff9 	beq	80111fdc <shm_raw+0x1c>
80111ff4:	e5903000 	ldr	r3, [r0]
80111ff8:	e1530002 	cmp	r3, r2
80111ffc:	1afffff6 	bne	80111fdc <shm_raw+0x1c>
80112000:	e5900004 	ldr	r0, [r0, #4]
80112004:	e12fff1e 	bx	lr
80112008:	0000e464 	andeq	lr, r0, r4, ror #8

8011200c <shm_proc_ref>:
8011200c:	e59f3098 	ldr	r3, [pc, #152]	; 801120ac <shm_proc_ref+0xa0>
80112010:	e1a0c00d 	mov	ip, sp
80112014:	e92dd830 	push	{r4, r5, fp, ip, lr, pc}
80112018:	e24cb004 	sub	fp, ip, #4
8011201c:	e08f3003 	add	r3, pc, r3
80112020:	e5934004 	ldr	r4, [r3, #4]
80112024:	e3540000 	cmp	r4, #0
80112028:	0a000008 	beq	80112050 <shm_proc_ref+0x44>
8011202c:	e594300c 	ldr	r3, [r4, #12]
80112030:	e3530000 	cmp	r3, #0
80112034:	0a000002 	beq	80112044 <shm_proc_ref+0x38>
80112038:	e5943000 	ldr	r3, [r4]
8011203c:	e1530001 	cmp	r3, r1
80112040:	0a000005 	beq	8011205c <shm_proc_ref+0x50>
80112044:	e594401c 	ldr	r4, [r4, #28]
80112048:	e3540000 	cmp	r4, #0
8011204c:	1afffff6 	bne	8011202c <shm_proc_ref+0x20>
80112050:	eb0007b3 	bl	80113f24 <proc_get>
80112054:	e3e00000 	mvn	r0, #0
80112058:	e89da830 	ldm	sp, {r4, r5, fp, sp, pc}
8011205c:	eb0007b0 	bl	80113f24 <proc_get>
80112060:	e3500000 	cmp	r0, #0
80112064:	0afffffa 	beq	80112054 <shm_proc_ref+0x48>
80112068:	e5943010 	ldr	r3, [r4, #16]
8011206c:	e3530000 	cmp	r3, #0
80112070:	1a00000b 	bne	801120a4 <shm_proc_ref+0x98>
80112074:	e590200c 	ldr	r2, [r0, #12]
80112078:	e5943014 	ldr	r3, [r4, #20]
8011207c:	e1520003 	cmp	r2, r3
80112080:	0a000007 	beq	801120a4 <shm_proc_ref+0x98>
80112084:	e5900010 	ldr	r0, [r0, #16]
80112088:	eb0007a5 	bl	80113f24 <proc_get>
8011208c:	e3500000 	cmp	r0, #0
80112090:	0affffef 	beq	80112054 <shm_proc_ref+0x48>
80112094:	e590200c 	ldr	r2, [r0, #12]
80112098:	e5943014 	ldr	r3, [r4, #20]
8011209c:	e1520003 	cmp	r2, r3
801120a0:	1afffff7 	bne	80112084 <shm_proc_ref+0x78>
801120a4:	e5940018 	ldr	r0, [r4, #24]
801120a8:	e89da830 	ldm	sp, {r4, r5, fp, sp, pc}
801120ac:	0000e410 	andeq	lr, r0, r0, lsl r4

801120b0 <shm_proc_map>:
801120b0:	e59f3160 	ldr	r3, [pc, #352]	; 80112218 <shm_proc_map+0x168>
801120b4:	e1a0c00d 	mov	ip, sp
801120b8:	e92ddbf0 	push	{r4, r5, r6, r7, r8, r9, fp, ip, lr, pc}
801120bc:	e24cb004 	sub	fp, ip, #4
801120c0:	e08f3003 	add	r3, pc, r3
801120c4:	e59f7150 	ldr	r7, [pc, #336]	; 8011221c <shm_proc_map+0x16c>
801120c8:	e24dd008 	sub	sp, sp, #8
801120cc:	e1a06001 	mov	r6, r1
801120d0:	e5934004 	ldr	r4, [r3, #4]
801120d4:	e08f7007 	add	r7, pc, r7
801120d8:	e3540000 	cmp	r4, #0
801120dc:	0a000008 	beq	80112104 <shm_proc_map+0x54>
801120e0:	e594300c 	ldr	r3, [r4, #12]
801120e4:	e3530000 	cmp	r3, #0
801120e8:	0a000002 	beq	801120f8 <shm_proc_map+0x48>
801120ec:	e5943000 	ldr	r3, [r4]
801120f0:	e1530006 	cmp	r3, r6
801120f4:	0a000006 	beq	80112114 <shm_proc_map+0x64>
801120f8:	e594401c 	ldr	r4, [r4, #28]
801120fc:	e3540000 	cmp	r4, #0
80112100:	1afffff6 	bne	801120e0 <shm_proc_map+0x30>
80112104:	eb000786 	bl	80113f24 <proc_get>
80112108:	e3a00000 	mov	r0, #0
8011210c:	e24bd024 	sub	sp, fp, #36	; 0x24
80112110:	e89dabf0 	ldm	sp, {r4, r5, r6, r7, r8, r9, fp, sp, pc}
80112114:	eb000782 	bl	80113f24 <proc_get>
80112118:	e2505000 	subs	r5, r0, #0
8011211c:	0afffff9 	beq	80112108 <shm_proc_map+0x58>
80112120:	e5943010 	ldr	r3, [r4, #16]
80112124:	e3530000 	cmp	r3, #0
80112128:	1a00000c 	bne	80112160 <shm_proc_map+0xb0>
8011212c:	e1a00005 	mov	r0, r5
80112130:	e5943014 	ldr	r3, [r4, #20]
80112134:	e590200c 	ldr	r2, [r0, #12]
80112138:	e1520003 	cmp	r2, r3
8011213c:	0a000007 	beq	80112160 <shm_proc_map+0xb0>
80112140:	e5900010 	ldr	r0, [r0, #16]
80112144:	eb000776 	bl	80113f24 <proc_get>
80112148:	e3500000 	cmp	r0, #0
8011214c:	0affffed 	beq	80112108 <shm_proc_map+0x58>
80112150:	e590200c 	ldr	r2, [r0, #12]
80112154:	e5943014 	ldr	r3, [r4, #20]
80112158:	e1520003 	cmp	r2, r3
8011215c:	1afffff7 	bne	80112140 <shm_proc_map+0x90>
80112160:	e5950144 	ldr	r0, [r5, #324]	; 0x144
80112164:	e3a03000 	mov	r3, #0
80112168:	e2802024 	add	r2, r0, #36	; 0x24
8011216c:	ea000002 	b	8011217c <shm_proc_map+0xcc>
80112170:	e2833001 	add	r3, r3, #1
80112174:	e3530080 	cmp	r3, #128	; 0x80
80112178:	0affffe2 	beq	80112108 <shm_proc_map+0x58>
8011217c:	e5b21004 	ldr	r1, [r2, #4]!
80112180:	e3510000 	cmp	r1, #0
80112184:	1afffff9 	bne	80112170 <shm_proc_map+0xc0>
80112188:	e283300a 	add	r3, r3, #10
8011218c:	e5948004 	ldr	r8, [r4, #4]
80112190:	e7806103 	str	r6, [r0, r3, lsl #2]
80112194:	e5943008 	ldr	r3, [r4, #8]
80112198:	e3530000 	cmp	r3, #0
8011219c:	0a000012 	beq	801121ec <shm_proc_map+0x13c>
801121a0:	e59f3078 	ldr	r3, [pc, #120]	; 80112220 <shm_proc_map+0x170>
801121a4:	e1a06001 	mov	r6, r1
801121a8:	e7979003 	ldr	r9, [r7, r3]
801121ac:	e1a07001 	mov	r7, r1
801121b0:	e1a01008 	mov	r1, r8
801121b4:	e5990000 	ldr	r0, [r9]
801121b8:	ebffec9e 	bl	8010d438 <resolve_phy_address>
801121bc:	e595c144 	ldr	ip, [r5, #324]	; 0x144
801121c0:	e1a02000 	mov	r2, r0
801121c4:	e1a01008 	mov	r1, r8
801121c8:	e3a03003 	mov	r3, #3
801121cc:	e2866001 	add	r6, r6, #1
801121d0:	e59c0000 	ldr	r0, [ip]
801121d4:	e2888a01 	add	r8, r8, #4096	; 0x1000
801121d8:	e58d7000 	str	r7, [sp]
801121dc:	ebffec44 	bl	8010d2f4 <map_page>
801121e0:	e5943008 	ldr	r3, [r4, #8]
801121e4:	e1530006 	cmp	r3, r6
801121e8:	8afffff0 	bhi	801121b0 <shm_proc_map+0x100>
801121ec:	eb000f7b 	bl	80115fe0 <flush_tlb>
801121f0:	e5952030 	ldr	r2, [r5, #48]	; 0x30
801121f4:	e5941008 	ldr	r1, [r4, #8]
801121f8:	e5943018 	ldr	r3, [r4, #24]
801121fc:	e5940004 	ldr	r0, [r4, #4]
80112200:	e2833001 	add	r3, r3, #1
80112204:	e0822601 	add	r2, r2, r1, lsl #12
80112208:	e5852030 	str	r2, [r5, #48]	; 0x30
8011220c:	e5843018 	str	r3, [r4, #24]
80112210:	e24bd024 	sub	sp, fp, #36	; 0x24
80112214:	e89dabf0 	ldm	sp, {r4, r5, r6, r7, r8, r9, fp, sp, pc}
80112218:	0000e36c 	andeq	lr, r0, ip, ror #6
8011221c:	00005f8c 	andeq	r5, r0, ip, lsl #31
80112220:	00000018 	andeq	r0, r0, r8, lsl r0

80112224 <shm_proc_unmap>:
80112224:	e1a0c00d 	mov	ip, sp
80112228:	e92dd8f0 	push	{r4, r5, r6, r7, fp, ip, lr, pc}
8011222c:	e24cb004 	sub	fp, ip, #4
80112230:	e1a05001 	mov	r5, r1
80112234:	eb00073a 	bl	80113f24 <proc_get>
80112238:	e59f319c 	ldr	r3, [pc, #412]	; 801123dc <shm_proc_unmap+0x1b8>
8011223c:	e1a06000 	mov	r6, r0
80112240:	e08f3003 	add	r3, pc, r3
80112244:	e5934004 	ldr	r4, [r3, #4]
80112248:	e3540000 	cmp	r4, #0
8011224c:	0a000008 	beq	80112274 <shm_proc_unmap+0x50>
80112250:	e594300c 	ldr	r3, [r4, #12]
80112254:	e3530000 	cmp	r3, #0
80112258:	0a000002 	beq	80112268 <shm_proc_unmap+0x44>
8011225c:	e5943000 	ldr	r3, [r4]
80112260:	e1530005 	cmp	r3, r5
80112264:	0a000004 	beq	8011227c <shm_proc_unmap+0x58>
80112268:	e594401c 	ldr	r4, [r4, #28]
8011226c:	e3540000 	cmp	r4, #0
80112270:	1afffff6 	bne	80112250 <shm_proc_unmap+0x2c>
80112274:	e3e00000 	mvn	r0, #0
80112278:	e89da8f0 	ldm	sp, {r4, r5, r6, r7, fp, sp, pc}
8011227c:	e3560000 	cmp	r6, #0
80112280:	0afffffb 	beq	80112274 <shm_proc_unmap+0x50>
80112284:	e5961144 	ldr	r1, [r6, #324]	; 0x144
80112288:	e3a03000 	mov	r3, #0
8011228c:	e2812024 	add	r2, r1, #36	; 0x24
80112290:	ea000002 	b	801122a0 <shm_proc_unmap+0x7c>
80112294:	e2833001 	add	r3, r3, #1
80112298:	e3530080 	cmp	r3, #128	; 0x80
8011229c:	0afffff4 	beq	80112274 <shm_proc_unmap+0x50>
801122a0:	e5b2c004 	ldr	ip, [r2, #4]!
801122a4:	e15c0005 	cmp	ip, r5
801122a8:	1afffff9 	bne	80112294 <shm_proc_unmap+0x70>
801122ac:	e283300a 	add	r3, r3, #10
801122b0:	e5942008 	ldr	r2, [r4, #8]
801122b4:	e3a05000 	mov	r5, #0
801122b8:	e5947004 	ldr	r7, [r4, #4]
801122bc:	e1520005 	cmp	r2, r5
801122c0:	e7815103 	str	r5, [r1, r3, lsl #2]
801122c4:	1a000001 	bne	801122d0 <shm_proc_unmap+0xac>
801122c8:	ea000008 	b	801122f0 <shm_proc_unmap+0xcc>
801122cc:	e5961144 	ldr	r1, [r6, #324]	; 0x144
801122d0:	e5910000 	ldr	r0, [r1]
801122d4:	e1a01007 	mov	r1, r7
801122d8:	ebffec44 	bl	8010d3f0 <unmap_page>
801122dc:	e5943008 	ldr	r3, [r4, #8]
801122e0:	e2855001 	add	r5, r5, #1
801122e4:	e2877a01 	add	r7, r7, #4096	; 0x1000
801122e8:	e1530005 	cmp	r3, r5
801122ec:	8afffff6 	bhi	801122cc <shm_proc_unmap+0xa8>
801122f0:	eb000f3a 	bl	80115fe0 <flush_tlb>
801122f4:	e5941008 	ldr	r1, [r4, #8]
801122f8:	e5963030 	ldr	r3, [r6, #48]	; 0x30
801122fc:	e1a02601 	lsl	r2, r1, #12
80112300:	e1530002 	cmp	r3, r2
80112304:	80432002 	subhi	r2, r3, r2
80112308:	e5943018 	ldr	r3, [r4, #24]
8011230c:	93a02000 	movls	r2, #0
80112310:	e5862030 	str	r2, [r6, #48]	; 0x30
80112314:	e2433001 	sub	r3, r3, #1
80112318:	e5843018 	str	r3, [r4, #24]
8011231c:	e3530000 	cmp	r3, #0
80112320:	da000001 	ble	8011232c <shm_proc_unmap+0x108>
80112324:	e3a00000 	mov	r0, #0
80112328:	e89da8f0 	ldm	sp, {r4, r5, r6, r7, fp, sp, pc}
8011232c:	e594001c 	ldr	r0, [r4, #28]
80112330:	e3a03000 	mov	r3, #0
80112334:	e584300c 	str	r3, [r4, #12]
80112338:	e1500003 	cmp	r0, r3
8011233c:	0a00000c 	beq	80112374 <shm_proc_unmap+0x150>
80112340:	e590300c 	ldr	r3, [r0, #12]
80112344:	e3530000 	cmp	r3, #0
80112348:	1a000009 	bne	80112374 <shm_proc_unmap+0x150>
8011234c:	e590301c 	ldr	r3, [r0, #28]
80112350:	e584301c 	str	r3, [r4, #28]
80112354:	e590301c 	ldr	r3, [r0, #28]
80112358:	e3530000 	cmp	r3, #0
8011235c:	15834020 	strne	r4, [r3, #32]
80112360:	0a000019 	beq	801123cc <shm_proc_unmap+0x1a8>
80112364:	e5903008 	ldr	r3, [r0, #8]
80112368:	e0833001 	add	r3, r3, r1
8011236c:	e5843008 	str	r3, [r4, #8]
80112370:	ebfffdcb 	bl	80111aa4 <kfree>
80112374:	e5943020 	ldr	r3, [r4, #32]
80112378:	e3530000 	cmp	r3, #0
8011237c:	0affffe8 	beq	80112324 <shm_proc_unmap+0x100>
80112380:	e593200c 	ldr	r2, [r3, #12]
80112384:	e3520000 	cmp	r2, #0
80112388:	1affffe5 	bne	80112324 <shm_proc_unmap+0x100>
8011238c:	e594201c 	ldr	r2, [r4, #28]
80112390:	e583201c 	str	r2, [r3, #28]
80112394:	e3520000 	cmp	r2, #0
80112398:	15823020 	strne	r3, [r2, #32]
8011239c:	0a000006 	beq	801123bc <shm_proc_unmap+0x198>
801123a0:	e5932008 	ldr	r2, [r3, #8]
801123a4:	e1a00004 	mov	r0, r4
801123a8:	e5941008 	ldr	r1, [r4, #8]
801123ac:	e0822001 	add	r2, r2, r1
801123b0:	e5832008 	str	r2, [r3, #8]
801123b4:	ebfffdba 	bl	80111aa4 <kfree>
801123b8:	eaffffd9 	b	80112324 <shm_proc_unmap+0x100>
801123bc:	e59f201c 	ldr	r2, [pc, #28]	; 801123e0 <shm_proc_unmap+0x1bc>
801123c0:	e08f2002 	add	r2, pc, r2
801123c4:	e5823008 	str	r3, [r2, #8]
801123c8:	eafffff4 	b	801123a0 <shm_proc_unmap+0x17c>
801123cc:	e59f3010 	ldr	r3, [pc, #16]	; 801123e4 <shm_proc_unmap+0x1c0>
801123d0:	e08f3003 	add	r3, pc, r3
801123d4:	e5834008 	str	r4, [r3, #8]
801123d8:	eaffffe1 	b	80112364 <shm_proc_unmap+0x140>
801123dc:	0000e1ec 	andeq	lr, r0, ip, ror #3
801123e0:	0000e06c 	andeq	lr, r0, ip, rrx
801123e4:	0000e05c 	andeq	lr, r0, ip, asr r0

801123e8 <map_pages>:
801123e8:	e1a0c00d 	mov	ip, sp
801123ec:	e92ddbf0 	push	{r4, r5, r6, r7, r8, r9, fp, ip, lr, pc}
801123f0:	e24cb004 	sub	fp, ip, #4
801123f4:	e2835eff 	add	r5, r3, #4080	; 0xff0
801123f8:	e3a09a0f 	mov	r9, #61440	; 0xf000
801123fc:	e34f9fff 	movt	r9, #65535	; 0xffff
80112400:	e285500f 	add	r5, r5, #15
80112404:	e0024009 	and	r4, r2, r9
80112408:	e0055009 	and	r5, r5, r9
8011240c:	e24dd008 	sub	sp, sp, #8
80112410:	e1a06000 	mov	r6, r0
80112414:	e0011009 	and	r1, r1, r9
80112418:	e99b0180 	ldmib	fp, {r7, r8}
8011241c:	e1540005 	cmp	r4, r5
80112420:	2a000009 	bcs	8011244c <map_pages+0x64>
80112424:	e0419004 	sub	r9, r1, r4
80112428:	e1a02004 	mov	r2, r4
8011242c:	e0891004 	add	r1, r9, r4
80112430:	e1a03007 	mov	r3, r7
80112434:	e1a00006 	mov	r0, r6
80112438:	e2844a01 	add	r4, r4, #4096	; 0x1000
8011243c:	e58d8000 	str	r8, [sp]
80112440:	ebffebab 	bl	8010d2f4 <map_page>
80112444:	e1550004 	cmp	r5, r4
80112448:	8afffff6 	bhi	80112428 <map_pages+0x40>
8011244c:	e24bd024 	sub	sp, fp, #36	; 0x24
80112450:	e89dabf0 	ldm	sp, {r4, r5, r6, r7, r8, r9, fp, sp, pc}

80112454 <map_pages_size>:
80112454:	e0823003 	add	r3, r2, r3
80112458:	eaffffe2 	b	801123e8 <map_pages>

8011245c <unmap_pages>:
8011245c:	e1a0c00d 	mov	ip, sp
80112460:	e92dd8f0 	push	{r4, r5, r6, r7, fp, ip, lr, pc}
80112464:	e2526000 	subs	r6, r2, #0
80112468:	e24cb004 	sub	fp, ip, #4
8011246c:	e1a07000 	mov	r7, r0
80112470:	e1a04001 	mov	r4, r1
80112474:	089da8f0 	ldmeq	sp, {r4, r5, r6, r7, fp, sp, pc}
80112478:	e3a05000 	mov	r5, #0
8011247c:	e1a01004 	mov	r1, r4
80112480:	e1a00007 	mov	r0, r7
80112484:	e2855001 	add	r5, r5, #1
80112488:	ebffebd8 	bl	8010d3f0 <unmap_page>
8011248c:	e2844a01 	add	r4, r4, #4096	; 0x1000
80112490:	e1560005 	cmp	r6, r5
80112494:	1afffff8 	bne	8011247c <unmap_pages+0x20>
80112498:	e89da8f0 	ldm	sp, {r4, r5, r6, r7, fp, sp, pc}

8011249c <resolve_kernel_address>:
8011249c:	e1a0c00d 	mov	ip, sp
801124a0:	e92dd800 	push	{fp, ip, lr, pc}
801124a4:	e24cb004 	sub	fp, ip, #4
801124a8:	ebffebe2 	bl	8010d438 <resolve_phy_address>
801124ac:	e59f3018 	ldr	r3, [pc, #24]	; 801124cc <resolve_kernel_address+0x30>
801124b0:	e59f2018 	ldr	r2, [pc, #24]	; 801124d0 <resolve_kernel_address+0x34>
801124b4:	e08f3003 	add	r3, pc, r3
801124b8:	e7933002 	ldr	r3, [r3, r2]
801124bc:	e5933024 	ldr	r3, [r3, #36]	; 0x24
801124c0:	e2633102 	rsb	r3, r3, #-2147483648	; 0x80000000
801124c4:	e0830000 	add	r0, r3, r0
801124c8:	e89da800 	ldm	sp, {fp, sp, pc}
801124cc:	00005bac 	andeq	r5, r0, ip, lsr #23
801124d0:	00000058 	andeq	r0, r0, r8, asr r0

801124d4 <free_page_tables>:
801124d4:	e1a0c00d 	mov	ip, sp
801124d8:	e92dd8f0 	push	{r4, r5, r6, r7, fp, ip, lr, pc}
801124dc:	e24cb004 	sub	fp, ip, #4
801124e0:	e1a04000 	mov	r4, r0
801124e4:	e2805901 	add	r5, r0, #16384	; 0x4000
801124e8:	e59f6048 	ldr	r6, [pc, #72]	; 80112538 <free_page_tables+0x64>
801124ec:	e08f6006 	add	r6, pc, r6
801124f0:	e5d43000 	ldrb	r3, [r4]
801124f4:	e59f2040 	ldr	r2, [pc, #64]	; 8011253c <free_page_tables+0x68>
801124f8:	e3130003 	tst	r3, #3
801124fc:	0a000009 	beq	80112528 <free_page_tables+0x54>
80112500:	e7962002 	ldr	r2, [r6, r2]
80112504:	e5943000 	ldr	r3, [r4]
80112508:	e5922024 	ldr	r2, [r2, #36]	; 0x24
8011250c:	e3c33fff 	bic	r3, r3, #1020	; 0x3fc
80112510:	e3c33003 	bic	r3, r3, #3
80112514:	e0433002 	sub	r3, r3, r2
80112518:	e2830102 	add	r0, r3, #-2147483648	; 0x80000000
8011251c:	e3530102 	cmp	r3, #-2147483648	; 0x80000000
80112520:	0a000000 	beq	80112528 <free_page_tables+0x54>
80112524:	ebfffc11 	bl	80111570 <kfree1k>
80112528:	e2844004 	add	r4, r4, #4
8011252c:	e1540005 	cmp	r4, r5
80112530:	1affffee 	bne	801124f0 <free_page_tables+0x1c>
80112534:	e89da8f0 	ldm	sp, {r4, r5, r6, r7, fp, sp, pc}
80112538:	00005b74 	andeq	r5, r0, r4, ror fp
8011253c:	00000058 	andeq	r0, r0, r8, asr r0

80112540 <map_page_ref>:
80112540:	e1a0c00d 	mov	ip, sp
80112544:	e92dd810 	push	{r4, fp, ip, lr, pc}
80112548:	e24cb004 	sub	fp, ip, #4
8011254c:	e24dd00c 	sub	sp, sp, #12
80112550:	e1a04002 	mov	r4, r2
80112554:	e59bc004 	ldr	ip, [fp, #4]
80112558:	e58dc000 	str	ip, [sp]
8011255c:	ebffeb64 	bl	8010d2f4 <map_page>
80112560:	e1a00004 	mov	r0, r4
80112564:	ebfffbaf 	bl	80111428 <page_ref_index>
80112568:	e59f2028 	ldr	r2, [pc, #40]	; 80112598 <map_page_ref+0x58>
8011256c:	e59f3028 	ldr	r3, [pc, #40]	; 8011259c <map_page_ref+0x5c>
80112570:	e08f2002 	add	r2, pc, r2
80112574:	e7923003 	ldr	r3, [r2, r3]
80112578:	e5932004 	ldr	r2, [r3, #4]
8011257c:	e1520000 	cmp	r2, r0
80112580:	85932000 	ldrhi	r2, [r3]
80112584:	87923100 	ldrhi	r3, [r2, r0, lsl #2]
80112588:	82833001 	addhi	r3, r3, #1
8011258c:	87823100 	strhi	r3, [r2, r0, lsl #2]
80112590:	e24bd010 	sub	sp, fp, #16
80112594:	e89da810 	ldm	sp, {r4, fp, sp, pc}
80112598:	00005af0 	strdeq	r5, [r0], -r0
8011259c:	0000001c 	andeq	r0, r0, ip, lsl r0

801125a0 <unmap_page_ref>:
801125a0:	e1a0c00d 	mov	ip, sp
801125a4:	e92dd8f0 	push	{r4, r5, r6, r7, fp, ip, lr, pc}
801125a8:	e24cb004 	sub	fp, ip, #4
801125ac:	e1a05001 	mov	r5, r1
801125b0:	e59f7074 	ldr	r7, [pc, #116]	; 8011262c <unmap_page_ref+0x8c>
801125b4:	e1a04000 	mov	r4, r0
801125b8:	ebffeb9e 	bl	8010d438 <resolve_phy_address>
801125bc:	e1a06000 	mov	r6, r0
801125c0:	ebfffb98 	bl	80111428 <page_ref_index>
801125c4:	e59f3064 	ldr	r3, [pc, #100]	; 80112630 <unmap_page_ref+0x90>
801125c8:	e08f7007 	add	r7, pc, r7
801125cc:	e7973003 	ldr	r3, [r7, r3]
801125d0:	e5932004 	ldr	r2, [r3, #4]
801125d4:	e1520000 	cmp	r2, r0
801125d8:	9a000007 	bls	801125fc <unmap_page_ref+0x5c>
801125dc:	e5932000 	ldr	r2, [r3]
801125e0:	e7923100 	ldr	r3, [r2, r0, lsl #2]
801125e4:	e3530000 	cmp	r3, #0
801125e8:	0a000008 	beq	80112610 <unmap_page_ref+0x70>
801125ec:	e2433001 	sub	r3, r3, #1
801125f0:	e7823100 	str	r3, [r2, r0, lsl #2]
801125f4:	e3530000 	cmp	r3, #0
801125f8:	0a000004 	beq	80112610 <unmap_page_ref+0x70>
801125fc:	e1a01005 	mov	r1, r5
80112600:	e1a00004 	mov	r0, r4
80112604:	e24bd01c 	sub	sp, fp, #28
80112608:	e89d68f0 	ldm	sp, {r4, r5, r6, r7, fp, sp, lr}
8011260c:	eaffeb77 	b	8010d3f0 <unmap_page>
80112610:	e59f301c 	ldr	r3, [pc, #28]	; 80112634 <unmap_page_ref+0x94>
80112614:	e7973003 	ldr	r3, [r7, r3]
80112618:	e5930024 	ldr	r0, [r3, #36]	; 0x24
8011261c:	e2600102 	rsb	r0, r0, #-2147483648	; 0x80000000
80112620:	e0800006 	add	r0, r0, r6
80112624:	ebfffbb0 	bl	801114ec <kfree4k>
80112628:	eafffff3 	b	801125fc <unmap_page_ref+0x5c>
8011262c:	00005a98 	muleq	r0, r8, sl
80112630:	0000001c 	andeq	r0, r0, ip, lsl r0
80112634:	00000058 	andeq	r0, r0, r8, asr r0

80112638 <get_core_id>:
80112638:	eaffe835 	b	8010c714 <__core_id>

8011263c <mcore_lock>:
8011263c:	eaffe89d 	b	8010c8b8 <__smp_lock>

80112640 <mcore_unlock>:
80112640:	eaffe8a6 	b	8010c8e0 <__smp_unlock>

80112644 <kconsole_init>:
80112644:	e1a0c00d 	mov	ip, sp
80112648:	e92dd810 	push	{r4, fp, ip, lr, pc}
8011264c:	e59f408c 	ldr	r4, [pc, #140]	; 801126e0 <kconsole_init+0x9c>
80112650:	e24cb004 	sub	fp, ip, #4
80112654:	e24dd034 	sub	sp, sp, #52	; 0x34
80112658:	e08f4004 	add	r4, pc, r4
8011265c:	e3a03000 	mov	r3, #0
80112660:	e1a00004 	mov	r0, r4
80112664:	e4803004 	str	r3, [r0], #4
80112668:	ebfff829 	bl	80110714 <console_init>
8011266c:	e24b2040 	sub	r2, fp, #64	; 0x40
80112670:	e3a01e1e 	mov	r1, #480	; 0x1e0
80112674:	e3a00d0a 	mov	r0, #640	; 0x280
80112678:	ebffea13 	bl	8010cecc <fb_init>
8011267c:	e3500000 	cmp	r0, #0
80112680:	1a000014 	bne	801126d8 <kconsole_init+0x94>
80112684:	e51b302c 	ldr	r3, [fp, #-44]	; 0xffffffd4
80112688:	e51b203c 	ldr	r2, [fp, #-60]	; 0xffffffc4
8011268c:	e3530020 	cmp	r3, #32
80112690:	e51b1040 	ldr	r1, [fp, #-64]	; 0xffffffc0
80112694:	051b0020 	ldreq	r0, [fp, #-32]	; 0xffffffe0
80112698:	ebfff651 	bl	8010ffe4 <graph_new>
8011269c:	e5840000 	str	r0, [r4]
801126a0:	ebfff814 	bl	801106f8 <get_font>
801126a4:	e59f3038 	ldr	r3, [pc, #56]	; 801126e4 <kconsole_init+0xa0>
801126a8:	e3a014ff 	mov	r1, #-16777216	; 0xff000000
801126ac:	e308c888 	movw	ip, #34952	; 0x8888
801126b0:	e34fcf88 	movt	ip, #65416	; 0xff88
801126b4:	e08f3003 	add	r3, pc, r3
801126b8:	e1a02003 	mov	r2, r3
801126bc:	e5831010 	str	r1, [r3, #16]
801126c0:	e4921004 	ldr	r1, [r2], #4
801126c4:	e5830014 	str	r0, [r3, #20]
801126c8:	e1a00002 	mov	r0, r2
801126cc:	e583c00c 	str	ip, [r3, #12]
801126d0:	e9910006 	ldmib	r1, {r1, r2}
801126d4:	ebfff8c0 	bl	801109dc <console_reset>
801126d8:	e24bd010 	sub	sp, fp, #16
801126dc:	e89da810 	ldm	sp, {r4, fp, sp, pc}
801126e0:	0000de60 	andeq	sp, r0, r0, ror #28
801126e4:	0000de04 	andeq	sp, r0, r4, lsl #28

801126e8 <kconsole_input>:
801126e8:	e1a0c00d 	mov	ip, sp
801126ec:	e92dd830 	push	{r4, r5, fp, ip, lr, pc}
801126f0:	e59f4040 	ldr	r4, [pc, #64]	; 80112738 <kconsole_input+0x50>
801126f4:	e24cb004 	sub	fp, ip, #4
801126f8:	e1a01000 	mov	r1, r0
801126fc:	e08f4004 	add	r4, pc, r4
80112700:	e5943000 	ldr	r3, [r4]
80112704:	e3530000 	cmp	r3, #0
80112708:	089da830 	ldmeq	sp, {r4, r5, fp, sp, pc}
8011270c:	e2845004 	add	r5, r4, #4
80112710:	e1a00005 	mov	r0, r5
80112714:	ebfff91e 	bl	80110b94 <console_put_string>
80112718:	e5941000 	ldr	r1, [r4]
8011271c:	e1a00005 	mov	r0, r5
80112720:	ebfff820 	bl	801107a8 <console_refresh>
80112724:	e5943000 	ldr	r3, [r4]
80112728:	e8930007 	ldm	r3, {r0, r1, r2}
8011272c:	e24bd014 	sub	sp, fp, #20
80112730:	e89d6830 	ldm	sp, {r4, r5, fp, sp, lr}
80112734:	eaffe9f2 	b	8010cf04 <fb_flush32>
80112738:	0000ddbc 			; <UNDEFINED> instruction: 0x0000ddbc

8011273c <kconsole_close>:
8011273c:	e1a0c00d 	mov	ip, sp
80112740:	e92dd830 	push	{r4, r5, fp, ip, lr, pc}
80112744:	e59f4030 	ldr	r4, [pc, #48]	; 8011277c <kconsole_close+0x40>
80112748:	e24cb004 	sub	fp, ip, #4
8011274c:	e08f4004 	add	r4, pc, r4
80112750:	e2840004 	add	r0, r4, #4
80112754:	ebfff809 	bl	80110780 <console_close>
80112758:	e5940000 	ldr	r0, [r4]
8011275c:	e3500000 	cmp	r0, #0
80112760:	0a000000 	beq	80112768 <kconsole_close+0x2c>
80112764:	ebfff63c 	bl	8011005c <graph_free>
80112768:	e59f3010 	ldr	r3, [pc, #16]	; 80112780 <kconsole_close+0x44>
8011276c:	e3a02000 	mov	r2, #0
80112770:	e08f3003 	add	r3, pc, r3
80112774:	e5832000 	str	r2, [r3]
80112778:	e89da830 	ldm	sp, {r4, r5, fp, sp, pc}
8011277c:	0000dd6c 	andeq	sp, r0, ip, ror #26
80112780:	0000dd48 	andeq	sp, r0, r8, asr #26

80112784 <dump_ctx>:
80112784:	e1a0c00d 	mov	ip, sp
80112788:	e92dd870 	push	{r4, r5, r6, fp, ip, lr, pc}
8011278c:	e1a01000 	mov	r1, r0
80112790:	e24dd00c 	sub	sp, sp, #12
80112794:	e24cb004 	sub	fp, ip, #4
80112798:	e2805004 	add	r5, r0, #4
8011279c:	e5913040 	ldr	r3, [r1, #64]	; 0x40
801127a0:	e3a04000 	mov	r4, #0
801127a4:	e58d3000 	str	r3, [sp]
801127a8:	e59f0038 	ldr	r0, [pc, #56]	; 801127e8 <dump_ctx+0x64>
801127ac:	e59f6038 	ldr	r6, [pc, #56]	; 801127ec <dump_ctx+0x68>
801127b0:	e591303c 	ldr	r3, [r1, #60]	; 0x3c
801127b4:	e08f0000 	add	r0, pc, r0
801127b8:	e8910006 	ldm	r1, {r1, r2}
801127bc:	e08f6006 	add	r6, pc, r6
801127c0:	ebfff5ee 	bl	8010ff80 <printf>
801127c4:	e1a01004 	mov	r1, r4
801127c8:	e5b52004 	ldr	r2, [r5, #4]!
801127cc:	e1a00006 	mov	r0, r6
801127d0:	e2844001 	add	r4, r4, #1
801127d4:	ebfff5e9 	bl	8010ff80 <printf>
801127d8:	e354000d 	cmp	r4, #13
801127dc:	1afffff8 	bne	801127c4 <dump_ctx+0x40>
801127e0:	e24bd018 	sub	sp, fp, #24
801127e4:	e89da870 	ldm	sp, {r4, r5, r6, fp, sp, pc}
801127e8:	000040ec 	andeq	r4, r0, ip, ror #1
801127ec:	0000411c 	andeq	r4, r0, ip, lsl r1

801127f0 <copy_on_write>:
801127f0:	e1a0c00d 	mov	ip, sp
801127f4:	e92ddbf0 	push	{r4, r5, r6, r7, r8, r9, fp, ip, lr, pc}
801127f8:	e24cb004 	sub	fp, ip, #4
801127fc:	e24dd008 	sub	sp, sp, #8
80112800:	e5903144 	ldr	r3, [r0, #324]	; 0x144
80112804:	e3c14eff 	bic	r4, r1, #4080	; 0xff0
80112808:	e59f7090 	ldr	r7, [pc, #144]	; 801128a0 <copy_on_write+0xb0>
8011280c:	e3c4400f 	bic	r4, r4, #15
80112810:	e1a01004 	mov	r1, r4
80112814:	e1a05000 	mov	r5, r0
80112818:	e5930000 	ldr	r0, [r3]
8011281c:	e08f7007 	add	r7, pc, r7
80112820:	ebffeb04 	bl	8010d438 <resolve_phy_address>
80112824:	e1a08000 	mov	r8, r0
80112828:	ebfffb27 	bl	801114cc <kalloc4k>
8011282c:	e2506000 	subs	r6, r0, #0
80112830:	0a000018 	beq	80112898 <copy_on_write+0xa8>
80112834:	e59f3068 	ldr	r3, [pc, #104]	; 801128a4 <copy_on_write+0xb4>
80112838:	e3a02a01 	mov	r2, #4096	; 0x1000
8011283c:	e7979003 	ldr	r9, [r7, r3]
80112840:	e3a07000 	mov	r7, #0
80112844:	e5991024 	ldr	r1, [r9, #36]	; 0x24
80112848:	e2611102 	rsb	r1, r1, #-2147483648	; 0x80000000
8011284c:	e0811008 	add	r1, r1, r8
80112850:	ebfff135 	bl	8010ed2c <memcpy>
80112854:	e5953144 	ldr	r3, [r5, #324]	; 0x144
80112858:	e1a01004 	mov	r1, r4
8011285c:	e5930000 	ldr	r0, [r3]
80112860:	ebffff4e 	bl	801125a0 <unmap_page_ref>
80112864:	e5950144 	ldr	r0, [r5, #324]	; 0x144
80112868:	e5992024 	ldr	r2, [r9, #36]	; 0x24
8011286c:	e1a01004 	mov	r1, r4
80112870:	e3a03003 	mov	r3, #3
80112874:	e2822102 	add	r2, r2, #-2147483648	; 0x80000000
80112878:	e5900000 	ldr	r0, [r0]
8011287c:	e0862002 	add	r2, r6, r2
80112880:	e58d7000 	str	r7, [sp]
80112884:	ebffff2d 	bl	80112540 <map_page_ref>
80112888:	eb000dd4 	bl	80115fe0 <flush_tlb>
8011288c:	e1a00007 	mov	r0, r7
80112890:	e24bd024 	sub	sp, fp, #36	; 0x24
80112894:	e89dabf0 	ldm	sp, {r4, r5, r6, r7, r8, r9, fp, sp, pc}
80112898:	e3e00000 	mvn	r0, #0
8011289c:	eafffffb 	b	80112890 <copy_on_write+0xa0>
801128a0:	00005844 	andeq	r5, r0, r4, asr #16
801128a4:	00000058 	andeq	r0, r0, r8, asr r0

801128a8 <ipi_enable_all>:
801128a8:	e59f3040 	ldr	r3, [pc, #64]	; 801128f0 <ipi_enable_all+0x48>
801128ac:	e1a0c00d 	mov	ip, sp
801128b0:	e59f203c 	ldr	r2, [pc, #60]	; 801128f4 <ipi_enable_all+0x4c>
801128b4:	e08f3003 	add	r3, pc, r3
801128b8:	e92dd830 	push	{r4, r5, fp, ip, lr, pc}
801128bc:	e24cb004 	sub	fp, ip, #4
801128c0:	e7935002 	ldr	r5, [r3, r2]
801128c4:	e5953050 	ldr	r3, [r5, #80]	; 0x50
801128c8:	e3530000 	cmp	r3, #0
801128cc:	089da830 	ldmeq	sp, {r4, r5, fp, sp, pc}
801128d0:	e3a04000 	mov	r4, #0
801128d4:	e1a00004 	mov	r0, r4
801128d8:	e2844001 	add	r4, r4, #1
801128dc:	ebfff095 	bl	8010eb38 <ipi_enable>
801128e0:	e5953050 	ldr	r3, [r5, #80]	; 0x50
801128e4:	e1530004 	cmp	r3, r4
801128e8:	8afffff9 	bhi	801128d4 <ipi_enable_all+0x2c>
801128ec:	e89da830 	ldm	sp, {r4, r5, fp, sp, pc}
801128f0:	000057ac 	andeq	r5, r0, ip, lsr #15
801128f4:	00000058 	andeq	r0, r0, r8, asr r0

801128f8 <irq_handler>:
801128f8:	e1a0c00d 	mov	ip, sp
801128fc:	e92ddbf0 	push	{r4, r5, r6, r7, r8, r9, fp, ip, lr, pc}
80112900:	e24cb004 	sub	fp, ip, #4
80112904:	e1a05000 	mov	r5, r0
80112908:	ebffe7e6 	bl	8010c8a8 <__irq_disable>
8011290c:	eb000dc9 	bl	80116038 <kernel_lock_check>
80112910:	e3500000 	cmp	r0, #0
80112914:	e59f61a4 	ldr	r6, [pc, #420]	; 80112ac0 <irq_handler+0x1c8>
80112918:	e08f6006 	add	r6, pc, r6
8011291c:	c89dabf0 	ldmgt	sp, {r4, r5, r6, r7, r8, r9, fp, sp, pc}
80112920:	ebffff44 	bl	80112638 <get_core_id>
80112924:	e1a04000 	mov	r4, r0
80112928:	eb000dc6 	bl	80116048 <kernel_lock>
8011292c:	ebffe8f8 	bl	8010cd14 <irq_gets>
80112930:	e3100010 	tst	r0, #16
80112934:	1a000053 	bne	80112a88 <irq_handler+0x190>
80112938:	e3540000 	cmp	r4, #0
8011293c:	1a000045 	bne	80112a58 <irq_handler+0x160>
80112940:	e3100001 	tst	r0, #1
80112944:	0a000043 	beq	80112a58 <irq_handler+0x160>
80112948:	ebffe936 	bl	8010ce28 <timer_read_sys_usec>
8011294c:	e59f3170 	ldr	r3, [pc, #368]	; 80112ac4 <irq_handler+0x1cc>
80112950:	e1a02000 	mov	r2, r0
80112954:	e7963003 	ldr	r3, [r6, r3]
80112958:	e8930081 	ldm	r3, {r0, r7}
8011295c:	e190c007 	orrs	ip, r0, r7
80112960:	05832000 	streq	r2, [r3]
80112964:	05831004 	streq	r1, [r3, #4]
80112968:	0a000012 	beq	801129b8 <irq_handler+0xc0>
8011296c:	e5831004 	str	r1, [r3, #4]
80112970:	e0528000 	subs	r8, r2, r0
80112974:	e5832000 	str	r2, [r3]
80112978:	e0c17007 	sbc	r7, r1, r7
8011297c:	e59f3144 	ldr	r3, [pc, #324]	; 80112ac8 <irq_handler+0x1d0>
80112980:	e3041240 	movw	r1, #16960	; 0x4240
80112984:	e340100f 	movt	r1, #15
80112988:	e08f3003 	add	r3, pc, r3
8011298c:	e5932000 	ldr	r2, [r3]
80112990:	e0882002 	add	r2, r8, r2
80112994:	e5832000 	str	r2, [r3]
80112998:	e1520001 	cmp	r2, r1
8011299c:	e5932004 	ldr	r2, [r3, #4]
801129a0:	e0822008 	add	r2, r2, r8
801129a4:	e5832004 	str	r2, [r3, #4]
801129a8:	2a00003c 	bcs	80112aa0 <irq_handler+0x1a8>
801129ac:	e1a00008 	mov	r0, r8
801129b0:	e1a01007 	mov	r1, r7
801129b4:	eb000ab3 	bl	80115488 <renew_kernel_tic>
801129b8:	e59f710c 	ldr	r7, [pc, #268]	; 80112acc <irq_handler+0x1d4>
801129bc:	e3a00000 	mov	r0, #0
801129c0:	ebffe90f 	bl	8010ce04 <timer_clear_interrupt>
801129c4:	e3013387 	movw	r3, #4999	; 0x1387
801129c8:	e08f7007 	add	r7, pc, r7
801129cc:	e5972004 	ldr	r2, [r7, #4]
801129d0:	e1520003 	cmp	r2, r3
801129d4:	9a000025 	bls	80112a70 <irq_handler+0x178>
801129d8:	e5973008 	ldr	r3, [r7, #8]
801129dc:	e3a02000 	mov	r2, #0
801129e0:	e5872004 	str	r2, [r7, #4]
801129e4:	e3530002 	cmp	r3, #2
801129e8:	9a000006 	bls	80112a08 <irq_handler+0x110>
801129ec:	e1a00005 	mov	r0, r5
801129f0:	e3a01002 	mov	r1, #2
801129f4:	e5872008 	str	r2, [r7, #8]
801129f8:	eb000cd2 	bl	80115d48 <interrupt_send>
801129fc:	e3500000 	cmp	r0, #0
80112a00:	0a00001a 	beq	80112a70 <irq_handler+0x178>
80112a04:	e5973008 	ldr	r3, [r7, #8]
80112a08:	e59f10c0 	ldr	r1, [pc, #192]	; 80112ad0 <irq_handler+0x1d8>
80112a0c:	e2833001 	add	r3, r3, #1
80112a10:	e59f20bc 	ldr	r2, [pc, #188]	; 80112ad4 <irq_handler+0x1dc>
80112a14:	e08f1001 	add	r1, pc, r1
80112a18:	e5813008 	str	r3, [r1, #8]
80112a1c:	e7963002 	ldr	r3, [r6, r2]
80112a20:	e5935050 	ldr	r5, [r3, #80]	; 0x50
80112a24:	e3550000 	cmp	r5, #0
80112a28:	1a000003 	bne	80112a3c <irq_handler+0x144>
80112a2c:	ea00000f 	b	80112a70 <irq_handler+0x178>
80112a30:	e2844001 	add	r4, r4, #1
80112a34:	e1550004 	cmp	r5, r4
80112a38:	0a00000c 	beq	80112a70 <irq_handler+0x178>
80112a3c:	e1a00004 	mov	r0, r4
80112a40:	eb000695 	bl	8011449c <proc_have_ready_task>
80112a44:	e3500000 	cmp	r0, #0
80112a48:	0afffff8 	beq	80112a30 <irq_handler+0x138>
80112a4c:	e1a00004 	mov	r0, r4
80112a50:	ebfff03a 	bl	8010eb40 <ipi_send>
80112a54:	eafffff5 	b	80112a30 <irq_handler+0x138>
80112a58:	e1a00004 	mov	r0, r4
80112a5c:	ebfff039 	bl	8010eb48 <ipi_clear>
80112a60:	e1a00004 	mov	r0, r4
80112a64:	eb00068c 	bl	8011449c <proc_have_ready_task>
80112a68:	e3500000 	cmp	r0, #0
80112a6c:	1a000002 	bne	80112a7c <irq_handler+0x184>
80112a70:	e24bd024 	sub	sp, fp, #36	; 0x24
80112a74:	e89d6bf0 	ldm	sp, {r4, r5, r6, r7, r8, r9, fp, sp, lr}
80112a78:	ea000d7d 	b	80116074 <kernel_unlock>
80112a7c:	e1a00005 	mov	r0, r5
80112a80:	eb000d07 	bl	80115ea4 <schedule>
80112a84:	eafffff9 	b	80112a70 <irq_handler+0x178>
80112a88:	e1a00005 	mov	r0, r5
80112a8c:	e3a01000 	mov	r1, #0
80112a90:	eb000cac 	bl	80115d48 <interrupt_send>
80112a94:	e24bd024 	sub	sp, fp, #36	; 0x24
80112a98:	e89d6bf0 	ldm	sp, {r4, r5, r6, r7, r8, r9, fp, sp, lr}
80112a9c:	ea000d74 	b	80116074 <kernel_unlock>
80112aa0:	e59f2030 	ldr	r2, [pc, #48]	; 80112ad8 <irq_handler+0x1e0>
80112aa4:	e7962002 	ldr	r2, [r6, r2]
80112aa8:	e5834000 	str	r4, [r3]
80112aac:	e5923000 	ldr	r3, [r2]
80112ab0:	e2833001 	add	r3, r3, #1
80112ab4:	e5823000 	str	r3, [r2]
80112ab8:	eb000ab0 	bl	80115580 <renew_kernel_sec>
80112abc:	eaffffba 	b	801129ac <irq_handler+0xb4>
80112ac0:	00005748 	andeq	r5, r0, r8, asr #14
80112ac4:	0000003c 	andeq	r0, r0, ip, lsr r0
80112ac8:	0000db60 	andeq	sp, r0, r0, ror #22
80112acc:	0000db20 	andeq	sp, r0, r0, lsr #22
80112ad0:	0000dad4 	ldrdeq	sp, [r0], -r4
80112ad4:	00000058 	andeq	r0, r0, r8, asr r0
80112ad8:	00000048 	andeq	r0, r0, r8, asr #32

80112adc <undef_abort_handler>:
80112adc:	e1a0c00d 	mov	ip, sp
80112ae0:	e92dd8f0 	push	{r4, r5, r6, r7, fp, ip, lr, pc}
80112ae4:	e24cb004 	sub	fp, ip, #4
80112ae8:	e1a05000 	mov	r5, r0
80112aec:	ebffe76d 	bl	8010c8a8 <__irq_disable>
80112af0:	ebfffed0 	bl	80112638 <get_core_id>
80112af4:	e1a06000 	mov	r6, r0
80112af8:	eb00052e 	bl	80113fb8 <get_current_proc>
80112afc:	e2504000 	subs	r4, r0, #0
80112b00:	0a00000d 	beq	80112b3c <undef_abort_handler+0x60>
80112b04:	e59f0050 	ldr	r0, [pc, #80]	; 80112b5c <undef_abort_handler+0x80>
80112b08:	e2842034 	add	r2, r4, #52	; 0x34
80112b0c:	e594100c 	ldr	r1, [r4, #12]
80112b10:	e1a03006 	mov	r3, r6
80112b14:	e08f0000 	add	r0, pc, r0
80112b18:	ebfff518 	bl	8010ff80 <printf>
80112b1c:	e2840f72 	add	r0, r4, #456	; 0x1c8
80112b20:	ebffff17 	bl	80112784 <dump_ctx>
80112b24:	e1a01004 	mov	r1, r4
80112b28:	e1a00005 	mov	r0, r5
80112b2c:	e3e02000 	mvn	r2, #0
80112b30:	e24bd01c 	sub	sp, fp, #28
80112b34:	e89d68f0 	ldm	sp, {r4, r5, r6, r7, fp, sp, lr}
80112b38:	ea0006b6 	b	80114618 <proc_exit>
80112b3c:	e59f001c 	ldr	r0, [pc, #28]	; 80112b60 <undef_abort_handler+0x84>
80112b40:	e1a01006 	mov	r1, r6
80112b44:	e08f0000 	add	r0, pc, r0
80112b48:	ebfff50c 	bl	8010ff80 <printf>
80112b4c:	e1a00005 	mov	r0, r5
80112b50:	ebffff0b 	bl	80112784 <dump_ctx>
80112b54:	eb000d4c 	bl	8011608c <halt>
80112b58:	eaffffe9 	b	80112b04 <undef_abort_handler+0x28>
80112b5c:	00003e04 	andeq	r3, r0, r4, lsl #28
80112b60:	00003da4 	andeq	r3, r0, r4, lsr #27

80112b64 <prefetch_abort_handler>:
80112b64:	e1a0c00d 	mov	ip, sp
80112b68:	e92dd9f0 	push	{r4, r5, r6, r7, r8, fp, ip, lr, pc}
80112b6c:	e24cb004 	sub	fp, ip, #4
80112b70:	e24dd00c 	sub	sp, sp, #12
80112b74:	e1a05001 	mov	r5, r1
80112b78:	e1a06000 	mov	r6, r0
80112b7c:	ebffe749 	bl	8010c8a8 <__irq_disable>
80112b80:	ebfffeac 	bl	80112638 <get_core_id>
80112b84:	e1a07000 	mov	r7, r0
80112b88:	eb00050a 	bl	80113fb8 <get_current_proc>
80112b8c:	e2504000 	subs	r4, r0, #0
80112b90:	0a00001e 	beq	80112c10 <prefetch_abort_handler+0xac>
80112b94:	e205301d 	and	r3, r5, #29
80112b98:	e353000d 	cmp	r3, #13
80112b9c:	0a000011 	beq	80112be8 <prefetch_abort_handler+0x84>
80112ba0:	e205301f 	and	r3, r5, #31
80112ba4:	e3530006 	cmp	r3, #6
80112ba8:	0a00000e 	beq	80112be8 <prefetch_abort_handler+0x84>
80112bac:	e59f00a0 	ldr	r0, [pc, #160]	; 80112c54 <prefetch_abort_handler+0xf0>
80112bb0:	e2842034 	add	r2, r4, #52	; 0x34
80112bb4:	e594100c 	ldr	r1, [r4, #12]
80112bb8:	e1a03007 	mov	r3, r7
80112bbc:	e08f0000 	add	r0, pc, r0
80112bc0:	e58d5000 	str	r5, [sp]
80112bc4:	ebfff4ed 	bl	8010ff80 <printf>
80112bc8:	e2840f72 	add	r0, r4, #456	; 0x1c8
80112bcc:	ebfffeec 	bl	80112784 <dump_ctx>
80112bd0:	e1a01004 	mov	r1, r4
80112bd4:	e1a00006 	mov	r0, r6
80112bd8:	e3e02000 	mvn	r2, #0
80112bdc:	e24bd020 	sub	sp, fp, #32
80112be0:	e89d69f0 	ldm	sp, {r4, r5, r6, r7, r8, fp, sp, lr}
80112be4:	ea00068b 	b	80114618 <proc_exit>
80112be8:	e5943144 	ldr	r3, [r4, #324]	; 0x144
80112bec:	e5962004 	ldr	r2, [r6, #4]
80112bf0:	e5933020 	ldr	r3, [r3, #32]
80112bf4:	e1520003 	cmp	r2, r3
80112bf8:	2affffeb 	bcs	80112bac <prefetch_abort_handler+0x48>
80112bfc:	eb000d0d 	bl	80116038 <kernel_lock_check>
80112c00:	e3500000 	cmp	r0, #0
80112c04:	da000009 	ble	80112c30 <prefetch_abort_handler+0xcc>
80112c08:	e24bd020 	sub	sp, fp, #32
80112c0c:	e89da9f0 	ldm	sp, {r4, r5, r6, r7, r8, fp, sp, pc}
80112c10:	e59f0040 	ldr	r0, [pc, #64]	; 80112c58 <prefetch_abort_handler+0xf4>
80112c14:	e1a01007 	mov	r1, r7
80112c18:	e08f0000 	add	r0, pc, r0
80112c1c:	ebfff4d7 	bl	8010ff80 <printf>
80112c20:	e1a00006 	mov	r0, r6
80112c24:	ebfffed6 	bl	80112784 <dump_ctx>
80112c28:	eb000d17 	bl	8011608c <halt>
80112c2c:	eaffffd8 	b	80112b94 <prefetch_abort_handler+0x30>
80112c30:	eb000d04 	bl	80116048 <kernel_lock>
80112c34:	e5961004 	ldr	r1, [r6, #4]
80112c38:	e1a00004 	mov	r0, r4
80112c3c:	ebfffeeb 	bl	801127f0 <copy_on_write>
80112c40:	e1a08000 	mov	r8, r0
80112c44:	eb000d0a 	bl	80116074 <kernel_unlock>
80112c48:	e3580000 	cmp	r8, #0
80112c4c:	1affffd6 	bne	80112bac <prefetch_abort_handler+0x48>
80112c50:	eaffffec 	b	80112c08 <prefetch_abort_handler+0xa4>
80112c54:	00003db8 			; <UNDEFINED> instruction: 0x00003db8
80112c58:	00003d34 	andeq	r3, r0, r4, lsr sp

80112c5c <data_abort_handler>:
80112c5c:	e1a0c00d 	mov	ip, sp
80112c60:	e92dd9f0 	push	{r4, r5, r6, r7, r8, fp, ip, lr, pc}
80112c64:	e24cb004 	sub	fp, ip, #4
80112c68:	e24dd00c 	sub	sp, sp, #12
80112c6c:	e1a06000 	mov	r6, r0
80112c70:	e1a07001 	mov	r7, r1
80112c74:	e1a05002 	mov	r5, r2
80112c78:	ebffe70a 	bl	8010c8a8 <__irq_disable>
80112c7c:	eb0004cd 	bl	80113fb8 <get_current_proc>
80112c80:	e2504000 	subs	r4, r0, #0
80112c84:	0a000020 	beq	80112d0c <data_abort_handler+0xb0>
80112c88:	e205301d 	and	r3, r5, #29
80112c8c:	e353000d 	cmp	r3, #13
80112c90:	0a000014 	beq	80112ce8 <data_abort_handler+0x8c>
80112c94:	e205301f 	and	r3, r5, #31
80112c98:	e3530006 	cmp	r3, #6
80112c9c:	0a000011 	beq	80112ce8 <data_abort_handler+0x8c>
80112ca0:	e59f00b4 	ldr	r0, [pc, #180]	; 80112d5c <data_abort_handler+0x100>
80112ca4:	e2842034 	add	r2, r4, #52	; 0x34
80112ca8:	e5943008 	ldr	r3, [r4, #8]
80112cac:	e594100c 	ldr	r1, [r4, #12]
80112cb0:	e08f0000 	add	r0, pc, r0
80112cb4:	e58d5004 	str	r5, [sp, #4]
80112cb8:	e58d7000 	str	r7, [sp]
80112cbc:	ebfff4af 	bl	8010ff80 <printf>
80112cc0:	e2840f72 	add	r0, r4, #456	; 0x1c8
80112cc4:	ebfffeae 	bl	80112784 <dump_ctx>
80112cc8:	e1a00006 	mov	r0, r6
80112ccc:	e1a01004 	mov	r1, r4
80112cd0:	e3e02000 	mvn	r2, #0
80112cd4:	eb00064f 	bl	80114618 <proc_exit>
80112cd8:	e1a00006 	mov	r0, r6
80112cdc:	e24bd020 	sub	sp, fp, #32
80112ce0:	e89d69f0 	ldm	sp, {r4, r5, r6, r7, r8, fp, sp, lr}
80112ce4:	ea000c6e 	b	80115ea4 <schedule>
80112ce8:	e5943144 	ldr	r3, [r4, #324]	; 0x144
80112cec:	e5933020 	ldr	r3, [r3, #32]
80112cf0:	e1530007 	cmp	r3, r7
80112cf4:	9affffe9 	bls	80112ca0 <data_abort_handler+0x44>
80112cf8:	eb000cce 	bl	80116038 <kernel_lock_check>
80112cfc:	e3500000 	cmp	r0, #0
80112d00:	da00000c 	ble	80112d38 <data_abort_handler+0xdc>
80112d04:	e24bd020 	sub	sp, fp, #32
80112d08:	e89da9f0 	ldm	sp, {r4, r5, r6, r7, r8, fp, sp, pc}
80112d0c:	ebfffe49 	bl	80112638 <get_core_id>
80112d10:	e1a01000 	mov	r1, r0
80112d14:	e59f0044 	ldr	r0, [pc, #68]	; 80112d60 <data_abort_handler+0x104>
80112d18:	e1a03005 	mov	r3, r5
80112d1c:	e1a02007 	mov	r2, r7
80112d20:	e08f0000 	add	r0, pc, r0
80112d24:	ebfff495 	bl	8010ff80 <printf>
80112d28:	e1a00006 	mov	r0, r6
80112d2c:	ebfffe94 	bl	80112784 <dump_ctx>
80112d30:	eb000cd5 	bl	8011608c <halt>
80112d34:	eaffffd3 	b	80112c88 <data_abort_handler+0x2c>
80112d38:	eb000cc2 	bl	80116048 <kernel_lock>
80112d3c:	e1a01007 	mov	r1, r7
80112d40:	e1a00004 	mov	r0, r4
80112d44:	ebfffea9 	bl	801127f0 <copy_on_write>
80112d48:	e1a08000 	mov	r8, r0
80112d4c:	eb000cc8 	bl	80116074 <kernel_unlock>
80112d50:	e3580000 	cmp	r8, #0
80112d54:	1affffd1 	bne	80112ca0 <data_abort_handler+0x44>
80112d58:	eaffffe9 	b	80112d04 <data_abort_handler+0xa8>
80112d5c:	00003d30 	andeq	r3, r0, r0, lsr sp
80112d60:	00003c88 	andeq	r3, r0, r8, lsl #25

80112d64 <irq_init>:
80112d64:	e1a0c00d 	mov	ip, sp
80112d68:	e92dd8f0 	push	{r4, r5, r6, r7, fp, ip, lr, pc}
80112d6c:	e24cb004 	sub	fp, ip, #4
80112d70:	e59f4058 	ldr	r4, [pc, #88]	; 80112dd0 <irq_init+0x6c>
80112d74:	ebffe7e3 	bl	8010cd08 <irq_arch_init>
80112d78:	eb000ba6 	bl	80115c18 <interrupt_init>
80112d7c:	e59f3050 	ldr	r3, [pc, #80]	; 80112dd4 <irq_init+0x70>
80112d80:	e08f4004 	add	r4, pc, r4
80112d84:	e59f004c 	ldr	r0, [pc, #76]	; 80112dd8 <irq_init+0x74>
80112d88:	e3a01000 	mov	r1, #0
80112d8c:	e1a02004 	mov	r2, r4
80112d90:	e3a06000 	mov	r6, #0
80112d94:	e3a07000 	mov	r7, #0
80112d98:	e7943003 	ldr	r3, [r4, r3]
80112d9c:	e5831000 	str	r1, [r3]
80112da0:	e59f3034 	ldr	r3, [pc, #52]	; 80112ddc <irq_init+0x78>
80112da4:	e7942000 	ldr	r2, [r4, r0]
80112da8:	e3a00011 	mov	r0, #17
80112dac:	e08f3003 	add	r3, pc, r3
80112db0:	e1c260f0 	strd	r6, [r2]
80112db4:	e5831008 	str	r1, [r3, #8]
80112db8:	e5831004 	str	r1, [r3, #4]
80112dbc:	e5831000 	str	r1, [r3]
80112dc0:	ebffe7e0 	bl	8010cd48 <irq_enable>
80112dc4:	e24bd01c 	sub	sp, fp, #28
80112dc8:	e89d68f0 	ldm	sp, {r4, r5, r6, r7, fp, sp, lr}
80112dcc:	eafffeb5 	b	801128a8 <ipi_enable_all>
80112dd0:	000052e0 	andeq	r5, r0, r0, ror #5
80112dd4:	00000048 	andeq	r0, r0, r8, asr #32
80112dd8:	0000003c 	andeq	r0, r0, ip, lsr r0
80112ddc:	0000d73c 	andeq	sp, r0, ip, lsr r7

80112de0 <svc_handler>:
80112de0:	e1a0c00d 	mov	ip, sp
80112de4:	e92ddbf0 	push	{r4, r5, r6, r7, r8, r9, fp, ip, lr, pc}
80112de8:	e24cb004 	sub	fp, ip, #4
80112dec:	e24dd008 	sub	sp, sp, #8
80112df0:	e1a04000 	mov	r4, r0
80112df4:	e1a05001 	mov	r5, r1
80112df8:	e1a06002 	mov	r6, r2
80112dfc:	e1a07003 	mov	r7, r3
80112e00:	e59b8004 	ldr	r8, [fp, #4]
80112e04:	ebffe6a7 	bl	8010c8a8 <__irq_disable>
80112e08:	eb000c8e 	bl	80116048 <kernel_lock>
80112e0c:	e59f3c88 	ldr	r3, [pc, #3208]	; 80113a9c <svc_handler+0xcbc>
80112e10:	e2441001 	sub	r1, r4, #1
80112e14:	e59f9c84 	ldr	r9, [pc, #3204]	; 80113aa0 <svc_handler+0xcc0>
80112e18:	e08f3003 	add	r3, pc, r3
80112e1c:	e0834104 	add	r4, r3, r4, lsl #2
80112e20:	e08f9009 	add	r9, pc, r9
80112e24:	e5932000 	ldr	r2, [r3]
80112e28:	e594c004 	ldr	ip, [r4, #4]
80112e2c:	e2822001 	add	r2, r2, #1
80112e30:	e5832000 	str	r2, [r3]
80112e34:	e28cc001 	add	ip, ip, #1
80112e38:	e584c004 	str	ip, [r4, #4]
80112e3c:	e3510034 	cmp	r1, #52	; 0x34
80112e40:	908ff101 	addls	pc, pc, r1, lsl #2
80112e44:	ea000042 	b	80112f54 <svc_handler+0x174>
80112e48:	ea0000a4 	b	801130e0 <svc_handler+0x300>
80112e4c:	ea00009e 	b	801130cc <svc_handler+0x2ec>
80112e50:	ea000097 	b	801130b4 <svc_handler+0x2d4>
80112e54:	ea000090 	b	8011309c <svc_handler+0x2bc>
80112e58:	ea00007c 	b	80113050 <svc_handler+0x270>
80112e5c:	ea000054 	b	80112fb4 <svc_handler+0x1d4>
80112e60:	ea000045 	b	80112f7c <svc_handler+0x19c>
80112e64:	ea000041 	b	80112f70 <svc_handler+0x190>
80112e68:	ea0001ce 	b	801135a8 <svc_handler+0x7c8>
80112e6c:	ea0001c5 	b	80113588 <svc_handler+0x7a8>
80112e70:	ea0001ba 	b	80113560 <svc_handler+0x780>
80112e74:	ea0001b5 	b	80113550 <svc_handler+0x770>
80112e78:	ea0001a9 	b	80113524 <svc_handler+0x744>
80112e7c:	ea0001a2 	b	8011350c <svc_handler+0x72c>
80112e80:	ea00019e 	b	80113500 <svc_handler+0x720>
80112e84:	ea00018b 	b	801134b8 <svc_handler+0x6d8>
80112e88:	ea000187 	b	801134ac <svc_handler+0x6cc>
80112e8c:	ea000173 	b	80113460 <svc_handler+0x680>
80112e90:	ea00016d 	b	8011344c <svc_handler+0x66c>
80112e94:	ea000163 	b	80113428 <svc_handler+0x648>
80112e98:	ea00015d 	b	80113414 <svc_handler+0x634>
80112e9c:	ea000152 	b	801133ec <svc_handler+0x60c>
80112ea0:	ea00014b 	b	801133d4 <svc_handler+0x5f4>
80112ea4:	ea000147 	b	801133c8 <svc_handler+0x5e8>
80112ea8:	ea0001f7 	b	8011368c <svc_handler+0x8ac>
80112eac:	ea0001f1 	b	80113678 <svc_handler+0x898>
80112eb0:	ea0001ea 	b	80113660 <svc_handler+0x880>
80112eb4:	ea0001e3 	b	80113648 <svc_handler+0x868>
80112eb8:	ea0001dc 	b	80113630 <svc_handler+0x850>
80112ebc:	ea0001d3 	b	80113610 <svc_handler+0x830>
80112ec0:	ea0001c0 	b	801135c8 <svc_handler+0x7e8>
80112ec4:	ea0001bb 	b	801135b8 <svc_handler+0x7d8>
80112ec8:	ea000214 	b	80113720 <svc_handler+0x940>
80112ecc:	ea00020c 	b	80113704 <svc_handler+0x924>
80112ed0:	ea000204 	b	801136e8 <svc_handler+0x908>
80112ed4:	ea0001f3 	b	801136a8 <svc_handler+0x8c8>
80112ed8:	ea000251 	b	80113824 <svc_handler+0xa44>
80112edc:	ea00022b 	b	80113790 <svc_handler+0x9b0>
80112ee0:	ea000276 	b	801138c0 <svc_handler+0xae0>
80112ee4:	ea00011a 	b	80113354 <svc_handler+0x574>
80112ee8:	ea0000f7 	b	801132cc <svc_handler+0x4ec>
80112eec:	ea00000a 	b	80112f1c <svc_handler+0x13c>
80112ef0:	ea0000ea 	b	801132a0 <svc_handler+0x4c0>
80112ef4:	ea0000dc 	b	8011326c <svc_handler+0x48c>
80112ef8:	ea0000d6 	b	80113258 <svc_handler+0x478>
80112efc:	ea0000bb 	b	801131f0 <svc_handler+0x410>
80112f00:	ea0000a8 	b	801131a8 <svc_handler+0x3c8>
80112f04:	ea00009e 	b	80113184 <svc_handler+0x3a4>
80112f08:	ea00009a 	b	80113178 <svc_handler+0x398>
80112f0c:	ea000089 	b	80113138 <svc_handler+0x358>
80112f10:	ea00007d 	b	8011310c <svc_handler+0x32c>
80112f14:	ea000076 	b	801130f4 <svc_handler+0x314>
80112f18:	ea000073 	b	801130ec <svc_handler+0x30c>
80112f1c:	eb000425 	bl	80113fb8 <get_current_proc>
80112f20:	eb0009a5 	bl	801155bc <proc_get_proc>
80112f24:	e1a04000 	mov	r4, r0
80112f28:	eb000a42 	bl	80115838 <proc_ipc_get_task>
80112f2c:	e3500000 	cmp	r0, #0
80112f30:	0a000002 	beq	80112f40 <svc_handler+0x160>
80112f34:	e5903010 	ldr	r3, [r0, #16]
80112f38:	e3530000 	cmp	r3, #0
80112f3c:	1a000158 	bne	801134a4 <svc_handler+0x6c4>
80112f40:	e5942144 	ldr	r2, [r4, #324]	; 0x144
80112f44:	e3a01001 	mov	r1, #1
80112f48:	e3a03000 	mov	r3, #0
80112f4c:	e5c21228 	strb	r1, [r2, #552]	; 0x228
80112f50:	e5883008 	str	r3, [r8, #8]
80112f54:	e24bd024 	sub	sp, fp, #36	; 0x24
80112f58:	e89d6bf0 	ldm	sp, {r4, r5, r6, r7, r8, r9, fp, sp, lr}
80112f5c:	ea000c44 	b	80116074 <kernel_unlock>
80112f60:	e59f3b3c 	ldr	r3, [pc, #2876]	; 80113aa4 <svc_handler+0xcc4>
80112f64:	e3e00000 	mvn	r0, #0
80112f68:	e7991003 	ldr	r1, [r9, r3]
80112f6c:	eb000774 	bl	80114d44 <proc_block_on>
80112f70:	e1a00008 	mov	r0, r8
80112f74:	eb000bca 	bl	80115ea4 <schedule>
80112f78:	eafffff5 	b	80112f54 <svc_handler+0x174>
80112f7c:	e3e03000 	mvn	r3, #0
80112f80:	e1a00008 	mov	r0, r8
80112f84:	e5883008 	str	r3, [r8, #8]
80112f88:	e3a01001 	mov	r1, #1
80112f8c:	eb000888 	bl	801151b4 <kfork>
80112f90:	e3500000 	cmp	r0, #0
80112f94:	0affffee 	beq	80112f54 <svc_handler+0x174>
80112f98:	e590300c 	ldr	r3, [r0, #12]
80112f9c:	e5883008 	str	r3, [r8, #8]
80112fa0:	e58051cc 	str	r5, [r0, #460]	; 0x1cc
80112fa4:	e5805208 	str	r5, [r0, #520]	; 0x208
80112fa8:	e58061d0 	str	r6, [r0, #464]	; 0x1d0
80112fac:	e58071d4 	str	r7, [r0, #468]	; 0x1d4
80112fb0:	eaffffe7 	b	80112f54 <svc_handler+0x174>
80112fb4:	e1a00008 	mov	r0, r8
80112fb8:	e3a01000 	mov	r1, #0
80112fbc:	eb00087c 	bl	801151b4 <kfork>
80112fc0:	e2504000 	subs	r4, r0, #0
80112fc4:	0a000265 	beq	80113960 <svc_handler+0xb80>
80112fc8:	e1a01008 	mov	r1, r8
80112fcc:	e3a02044 	mov	r2, #68	; 0x44
80112fd0:	e2840f72 	add	r0, r4, #456	; 0x1c8
80112fd4:	ebffef54 	bl	8010ed2c <memcpy>
80112fd8:	e5941018 	ldr	r1, [r4, #24]
80112fdc:	e594300c 	ldr	r3, [r4, #12]
80112fe0:	e3a02000 	mov	r2, #0
80112fe4:	e3510001 	cmp	r1, #1
80112fe8:	e58421d0 	str	r2, [r4, #464]	; 0x1d0
80112fec:	e5883008 	str	r3, [r8, #8]
80112ff0:	1affffd7 	bne	80112f54 <svc_handler+0x174>
80112ff4:	e59f2aac 	ldr	r2, [pc, #2732]	; 80113aa8 <svc_handler+0xcc8>
80112ff8:	e7992002 	ldr	r2, [r9, r2]
80112ffc:	e5d22000 	ldrb	r2, [r2]
80113000:	e3520000 	cmp	r2, #0
80113004:	0affffd2 	beq	80112f54 <svc_handler+0x174>
80113008:	e59f2a9c 	ldr	r2, [pc, #2716]	; 80113aac <svc_handler+0xccc>
8011300c:	e3a05004 	mov	r5, #4
80113010:	e5845018 	str	r5, [r4, #24]
80113014:	e7996002 	ldr	r6, [r9, r2]
80113018:	e5843134 	str	r3, [r4, #308]	; 0x134
8011301c:	e5963000 	ldr	r3, [r6]
80113020:	e584301c 	str	r3, [r4, #28]
80113024:	eb0003e3 	bl	80113fb8 <get_current_proc>
80113028:	e1a03000 	mov	r3, r0
8011302c:	e594200c 	ldr	r2, [r4, #12]
80113030:	e1a00008 	mov	r0, r8
80113034:	e5961000 	ldr	r1, [r6]
80113038:	e5835018 	str	r5, [r3, #24]
8011303c:	e5832134 	str	r2, [r3, #308]	; 0x134
80113040:	e58321d0 	str	r2, [r3, #464]	; 0x1d0
80113044:	e583101c 	str	r1, [r3, #28]
80113048:	eb000b95 	bl	80115ea4 <schedule>
8011304c:	eaffffc0 	b	80112f54 <svc_handler+0x174>
80113050:	e3560000 	cmp	r6, #0
80113054:	0a000241 	beq	80113960 <svc_handler+0xb80>
80113058:	eb0003d6 	bl	80113fb8 <get_current_proc>
8011305c:	e1a01005 	mov	r1, r5
80113060:	e1a04000 	mov	r4, r0
80113064:	e2800034 	add	r0, r0, #52	; 0x34
80113068:	ebffef89 	bl	8010ee94 <strcpy>
8011306c:	e1a02007 	mov	r2, r7
80113070:	e1a01006 	mov	r1, r6
80113074:	e1a00004 	mov	r0, r4
80113078:	eb000694 	bl	80114ad0 <proc_load_elf>
8011307c:	e2503000 	subs	r3, r0, #0
80113080:	1a000236 	bne	80113960 <svc_handler+0xb80>
80113084:	e2841f72 	add	r1, r4, #456	; 0x1c8
80113088:	e1a00008 	mov	r0, r8
8011308c:	e5883008 	str	r3, [r8, #8]
80113090:	e3a02044 	mov	r2, #68	; 0x44
80113094:	ebffef24 	bl	8010ed2c <memcpy>
80113098:	eaffffad 	b	80112f54 <svc_handler+0x174>
8011309c:	e3550000 	cmp	r5, #0
801130a0:	0affffab 	beq	80112f54 <svc_handler+0x174>
801130a4:	eb0003c3 	bl	80113fb8 <get_current_proc>
801130a8:	e1a01005 	mov	r1, r5
801130ac:	eb0005dd 	bl	80114828 <proc_free>
801130b0:	eaffffa7 	b	80112f54 <svc_handler+0x174>
801130b4:	eb0003bf 	bl	80113fb8 <get_current_proc>
801130b8:	e1a02006 	mov	r2, r6
801130bc:	e1a01005 	mov	r1, r5
801130c0:	eb0005c7 	bl	801147e4 <proc_realloc>
801130c4:	e5880008 	str	r0, [r8, #8]
801130c8:	eaffffa1 	b	80112f54 <svc_handler+0x174>
801130cc:	eb0003b9 	bl	80113fb8 <get_current_proc>
801130d0:	e1a01005 	mov	r1, r5
801130d4:	eb0005bc 	bl	801147cc <proc_malloc>
801130d8:	e5880008 	str	r0, [r8, #8]
801130dc:	eaffff9c 	b	80112f54 <svc_handler+0x174>
801130e0:	e1a00005 	mov	r0, r5
801130e4:	ebfff399 	bl	8010ff50 <kout>
801130e8:	eaffff99 	b	80112f54 <svc_handler+0x174>
801130ec:	ebfffd92 	bl	8011273c <kconsole_close>
801130f0:	eaffff97 	b	80112f54 <svc_handler+0x174>
801130f4:	e1a00005 	mov	r0, r5
801130f8:	eb000389 	bl	80113f24 <proc_get>
801130fc:	e3500000 	cmp	r0, #0
80113100:	15900000 	ldrne	r0, [r0]
80113104:	e5880008 	str	r0, [r8, #8]
80113108:	eaffff91 	b	80112f54 <svc_handler+0x174>
8011310c:	eb0003a9 	bl	80113fb8 <get_current_proc>
80113110:	eb000929 	bl	801155bc <proc_get_proc>
80113114:	e5903014 	ldr	r3, [r0, #20]
80113118:	e3530000 	cmp	r3, #0
8011311c:	caffff8c 	bgt	80112f54 <svc_handler+0x174>
80113120:	e1a03007 	mov	r3, r7
80113124:	e1a02006 	mov	r2, r6
80113128:	e1a01005 	mov	r1, r5
8011312c:	e1a00008 	mov	r0, r8
80113130:	eb000b13 	bl	80115d84 <interrupt_soft_send>
80113134:	eaffff86 	b	80112f54 <svc_handler+0x174>
80113138:	e3e03000 	mvn	r3, #0
8011313c:	e5883008 	str	r3, [r8, #8]
80113140:	eb00039c 	bl	80113fb8 <get_current_proc>
80113144:	eb00091c 	bl	801155bc <proc_get_proc>
80113148:	e5953000 	ldr	r3, [r5]
8011314c:	e3530000 	cmp	r3, #0
80113150:	13560000 	cmpne	r6, #0
80113154:	13a03001 	movne	r3, #1
80113158:	03a03000 	moveq	r3, #0
8011315c:	1a000226 	bne	801139fc <svc_handler+0xc1c>
80113160:	e5856000 	str	r6, [r5]
80113164:	e1a01005 	mov	r1, r5
80113168:	e5883008 	str	r3, [r8, #8]
8011316c:	e590000c 	ldr	r0, [r0, #12]
80113170:	eb000746 	bl	80114e90 <proc_wakeup>
80113174:	eaffff76 	b	80112f54 <svc_handler+0x174>
80113178:	e1a00008 	mov	r0, r8
8011317c:	eb000b14 	bl	80115dd4 <interrupt_end>
80113180:	eaffff73 	b	80112f54 <svc_handler+0x174>
80113184:	eb00038b 	bl	80113fb8 <get_current_proc>
80113188:	e5903014 	ldr	r3, [r0, #20]
8011318c:	e3530000 	cmp	r3, #0
80113190:	ca000239 	bgt	80113a7c <svc_handler+0xc9c>
80113194:	e1a03007 	mov	r3, r7
80113198:	e1a02006 	mov	r2, r6
8011319c:	e1a01005 	mov	r1, r5
801131a0:	eb000aa2 	bl	80115c30 <interrupt_setup>
801131a4:	eaffffd6 	b	80113104 <svc_handler+0x324>
801131a8:	e3550000 	cmp	r5, #0
801131ac:	159f38fc 	ldrne	r3, [pc, #2300]	; 80113ab0 <svc_handler+0xcd0>
801131b0:	17993003 	ldrne	r3, [r9, r3]
801131b4:	15933000 	ldrne	r3, [r3]
801131b8:	15853000 	strne	r3, [r5]
801131bc:	e3560000 	cmp	r6, #0
801131c0:	159f38ec 	ldrne	r3, [pc, #2284]	; 80113ab4 <svc_handler+0xcd4>
801131c4:	17993003 	ldrne	r3, [r9, r3]
801131c8:	15933004 	ldrne	r3, [r3, #4]
801131cc:	15863000 	strne	r3, [r6]
801131d0:	e3570000 	cmp	r7, #0
801131d4:	159f38d8 	ldrne	r3, [pc, #2264]	; 80113ab4 <svc_handler+0xcd4>
801131d8:	17993003 	ldrne	r3, [r9, r3]
801131dc:	15933000 	ldrne	r3, [r3]
801131e0:	15873000 	strne	r3, [r7]
801131e4:	e3a03000 	mov	r3, #0
801131e8:	e5883008 	str	r3, [r8, #8]
801131ec:	eaffff58 	b	80112f54 <svc_handler+0x174>
801131f0:	e3a03000 	mov	r3, #0
801131f4:	e5883008 	str	r3, [r8, #8]
801131f8:	eb00036e 	bl	80113fb8 <get_current_proc>
801131fc:	e59f38a8 	ldr	r3, [pc, #2216]	; 80113aac <svc_handler+0xccc>
80113200:	e590200c 	ldr	r2, [r0, #12]
80113204:	e1a04000 	mov	r4, r0
80113208:	e7993003 	ldr	r3, [r9, r3]
8011320c:	e5933000 	ldr	r3, [r3]
80113210:	e1520003 	cmp	r2, r3
80113214:	1affff51 	bne	80112f60 <svc_handler+0x180>
80113218:	eb000bbf 	bl	8011611c <kev_pop>
8011321c:	e2505000 	subs	r5, r0, #0
80113220:	0affff4e 	beq	80112f60 <svc_handler+0x180>
80113224:	e1a00004 	mov	r0, r4
80113228:	e3a01010 	mov	r1, #16
8011322c:	eb000566 	bl	801147cc <proc_malloc>
80113230:	e1a04000 	mov	r4, r0
80113234:	e895000a 	ldm	r5, {r1, r3}
80113238:	e5952008 	ldr	r2, [r5, #8]
8011323c:	e880000a 	stm	r0, {r1, r3}
80113240:	e1a00005 	mov	r0, r5
80113244:	e595300c 	ldr	r3, [r5, #12]
80113248:	e1c420f8 	strd	r2, [r4, #8]
8011324c:	ebfffa14 	bl	80111aa4 <kfree>
80113250:	e5884008 	str	r4, [r8, #8]
80113254:	eaffff3e 	b	80112f54 <svc_handler+0x174>
80113258:	e59f384c 	ldr	r3, [pc, #2124]	; 80113aac <svc_handler+0xccc>
8011325c:	e7993003 	ldr	r3, [r9, r3]
80113260:	e5933000 	ldr	r3, [r3]
80113264:	e5883008 	str	r3, [r8, #8]
80113268:	eaffff39 	b	80112f54 <svc_handler+0x174>
8011326c:	eb000351 	bl	80113fb8 <get_current_proc>
80113270:	e5903014 	ldr	r3, [r0, #20]
80113274:	e3530000 	cmp	r3, #0
80113278:	caffff35 	bgt	80112f54 <svc_handler+0x174>
8011327c:	e59f2824 	ldr	r2, [pc, #2084]	; 80113aa8 <svc_handler+0xcc8>
80113280:	e3a0c001 	mov	ip, #1
80113284:	e59f3820 	ldr	r3, [pc, #2080]	; 80113aac <svc_handler+0xccc>
80113288:	e590100c 	ldr	r1, [r0, #12]
8011328c:	e7992002 	ldr	r2, [r9, r2]
80113290:	e5c2c000 	strb	ip, [r2]
80113294:	e7993003 	ldr	r3, [r9, r3]
80113298:	e5831000 	str	r1, [r3]
8011329c:	eaffff2c 	b	80112f54 <svc_handler+0x174>
801132a0:	eb000344 	bl	80113fb8 <get_current_proc>
801132a4:	eb0008c4 	bl	801155bc <proc_get_proc>
801132a8:	e5901144 	ldr	r1, [r0, #324]	; 0x144
801132ac:	e5d13228 	ldrb	r3, [r1, #552]	; 0x228
801132b0:	e3530000 	cmp	r3, #0
801132b4:	0affff26 	beq	80112f54 <svc_handler+0x174>
801132b8:	e590000c 	ldr	r0, [r0, #12]
801132bc:	e3a03000 	mov	r3, #0
801132c0:	e5e13228 	strb	r3, [r1, #552]!	; 0x228
801132c4:	eb0006f1 	bl	80114e90 <proc_wakeup>
801132c8:	eaffff21 	b	80112f54 <svc_handler+0x174>
801132cc:	eb000339 	bl	80113fb8 <get_current_proc>
801132d0:	e1a04000 	mov	r4, r0
801132d4:	eb000957 	bl	80115838 <proc_ipc_get_task>
801132d8:	e3540000 	cmp	r4, #0
801132dc:	e1a05000 	mov	r5, r0
801132e0:	0affff1b 	beq	80112f54 <svc_handler+0x174>
801132e4:	e5942144 	ldr	r2, [r4, #324]	; 0x144
801132e8:	e592322c 	ldr	r3, [r2, #556]	; 0x22c
801132ec:	e3500000 	cmp	r0, #0
801132f0:	13530000 	cmpne	r3, #0
801132f4:	0affff16 	beq	80112f54 <svc_handler+0x174>
801132f8:	e2822f93 	add	r2, r2, #588	; 0x24c
801132fc:	e1a01004 	mov	r1, r4
80113300:	e1a00008 	mov	r0, r8
80113304:	eb00034e 	bl	80114044 <proc_restore_state>
80113308:	e5943018 	ldr	r3, [r4, #24]
8011330c:	e3530005 	cmp	r3, #5
80113310:	0a0001d4 	beq	80113a68 <svc_handler+0xc88>
80113314:	e1a01005 	mov	r1, r5
80113318:	e1a00004 	mov	r0, r4
8011331c:	eb000996 	bl	8011597c <proc_ipc_close>
80113320:	e5941144 	ldr	r1, [r4, #324]	; 0x144
80113324:	e594000c 	ldr	r0, [r4, #12]
80113328:	e2811f8a 	add	r1, r1, #552	; 0x228
8011332c:	eb0006d7 	bl	80114e90 <proc_wakeup>
80113330:	e1a00004 	mov	r0, r4
80113334:	eb000932 	bl	80115804 <proc_ipc_fetch>
80113338:	e3500000 	cmp	r0, #0
8011333c:	0affff0b 	beq	80112f70 <svc_handler+0x190>
80113340:	e5942008 	ldr	r2, [r4, #8]
80113344:	e1a01004 	mov	r1, r4
80113348:	e1a00008 	mov	r0, r8
8011334c:	eb00093c 	bl	80115844 <proc_ipc_do_task>
80113350:	eafffeff 	b	80112f54 <svc_handler+0x174>
80113354:	e3a03000 	mov	r3, #0
80113358:	e5883008 	str	r3, [r8, #8]
8011335c:	eb000315 	bl	80113fb8 <get_current_proc>
80113360:	e3500000 	cmp	r0, #0
80113364:	13560000 	cmpne	r6, #0
80113368:	e1a04000 	mov	r4, r0
8011336c:	0a000180 	beq	80113974 <svc_handler+0xb94>
80113370:	e5903210 	ldr	r3, [r0, #528]	; 0x210
80113374:	e3530002 	cmp	r3, #2
80113378:	0a000184 	beq	80113990 <svc_handler+0xbb0>
8011337c:	e1a00005 	mov	r0, r5
80113380:	eb0002e7 	bl	80113f24 <proc_get>
80113384:	eb00092b 	bl	80115838 <proc_ipc_get_task>
80113388:	e3500000 	cmp	r0, #0
8011338c:	0a000178 	beq	80113974 <svc_handler+0xb94>
80113390:	e59030ac 	ldr	r3, [r0, #172]	; 0xac
80113394:	e3530000 	cmp	r3, #0
80113398:	aa000002 	bge	801133a8 <svc_handler+0x5c8>
8011339c:	e5903000 	ldr	r3, [r0]
801133a0:	e1560003 	cmp	r6, r3
801133a4:	0afffeea 	beq	80112f54 <svc_handler+0x174>
801133a8:	e2841f83 	add	r1, r4, #524	; 0x20c
801133ac:	e1a00005 	mov	r0, r5
801133b0:	e3e03000 	mvn	r3, #0
801133b4:	e5883008 	str	r3, [r8, #8]
801133b8:	eb000661 	bl	80114d44 <proc_block_on>
801133bc:	e1a00008 	mov	r0, r8
801133c0:	eb000ab7 	bl	80115ea4 <schedule>
801133c4:	eafffee2 	b	80112f54 <svc_handler+0x174>
801133c8:	eb0002fa 	bl	80113fb8 <get_current_proc>
801133cc:	e5903014 	ldr	r3, [r0, #20]
801133d0:	eafffede 	b	80112f50 <svc_handler+0x170>
801133d4:	eb0002f7 	bl	80113fb8 <get_current_proc>
801133d8:	e1a01005 	mov	r1, r5
801133dc:	e3a020ff 	mov	r2, #255	; 0xff
801133e0:	e2800034 	add	r0, r0, #52	; 0x34
801133e4:	ebffeeb7 	bl	8010eec8 <strncpy>
801133e8:	eafffed9 	b	80112f54 <svc_handler+0x174>
801133ec:	e1a00005 	mov	r0, r5
801133f0:	eb0002cb 	bl	80113f24 <proc_get>
801133f4:	e2501000 	subs	r1, r0, #0
801133f8:	0a000029 	beq	801134a4 <svc_handler+0x6c4>
801133fc:	e1a02007 	mov	r2, r7
80113400:	e2811034 	add	r1, r1, #52	; 0x34
80113404:	e1a00006 	mov	r0, r6
80113408:	ebffeeae 	bl	8010eec8 <strncpy>
8011340c:	e3a03000 	mov	r3, #0
80113410:	eafffece 	b	80112f50 <svc_handler+0x170>
80113414:	eb0002e7 	bl	80113fb8 <get_current_proc>
80113418:	e5903144 	ldr	r3, [r0, #324]	; 0x144
8011341c:	e3a02001 	mov	r2, #1
80113420:	e5c32024 	strb	r2, [r3, #36]	; 0x24
80113424:	eafffeca 	b	80112f54 <svc_handler+0x174>
80113428:	e1a00005 	mov	r0, r5
8011342c:	eb0002bc 	bl	80113f24 <proc_get>
80113430:	e3500000 	cmp	r0, #0
80113434:	0a00001a 	beq	801134a4 <svc_handler+0x6c4>
80113438:	e5903144 	ldr	r3, [r0, #324]	; 0x144
8011343c:	e5d33024 	ldrb	r3, [r3, #36]	; 0x24
80113440:	e2233001 	eor	r3, r3, #1
80113444:	e2633000 	rsb	r3, r3, #0
80113448:	eafffec0 	b	80112f50 <svc_handler+0x170>
8011344c:	eb0002d9 	bl	80113fb8 <get_current_proc>
80113450:	e3500000 	cmp	r0, #0
80113454:	0a000012 	beq	801134a4 <svc_handler+0x6c4>
80113458:	e590300c 	ldr	r3, [r0, #12]
8011345c:	eafffebb 	b	80112f50 <svc_handler+0x170>
80113460:	eb0002d4 	bl	80113fb8 <get_current_proc>
80113464:	e3550000 	cmp	r5, #0
80113468:	e1a04000 	mov	r4, r0
8011346c:	ba000001 	blt	80113478 <svc_handler+0x698>
80113470:	e1a00005 	mov	r0, r5
80113474:	eb0002aa 	bl	80113f24 <proc_get>
80113478:	e3500000 	cmp	r0, #0
8011347c:	0a000008 	beq	801134a4 <svc_handler+0x6c4>
80113480:	e5943014 	ldr	r3, [r4, #20]
80113484:	e3530000 	cmp	r3, #0
80113488:	da000002 	ble	80113498 <svc_handler+0x6b8>
8011348c:	e5902014 	ldr	r2, [r0, #20]
80113490:	e1530002 	cmp	r3, r2
80113494:	1a000002 	bne	801134a4 <svc_handler+0x6c4>
80113498:	eb000847 	bl	801155bc <proc_get_proc>
8011349c:	e3500000 	cmp	r0, #0
801134a0:	1affffec 	bne	80113458 <svc_handler+0x678>
801134a4:	e3e03000 	mvn	r3, #0
801134a8:	eafffea8 	b	80112f50 <svc_handler+0x170>
801134ac:	e1a00008 	mov	r0, r8
801134b0:	eb000985 	bl	80115acc <proc_signal_end>
801134b4:	eafffea6 	b	80112f54 <svc_handler+0x174>
801134b8:	e3e03000 	mvn	r3, #0
801134bc:	e1a00005 	mov	r0, r5
801134c0:	e5883008 	str	r3, [r8, #8]
801134c4:	eb000296 	bl	80113f24 <proc_get>
801134c8:	e1a04000 	mov	r4, r0
801134cc:	eb0002b9 	bl	80113fb8 <get_current_proc>
801134d0:	e5903014 	ldr	r3, [r0, #20]
801134d4:	e3530000 	cmp	r3, #0
801134d8:	da000128 	ble	80113980 <svc_handler+0xba0>
801134dc:	e5942014 	ldr	r2, [r4, #20]
801134e0:	e1530002 	cmp	r3, r2
801134e4:	1afffe9a 	bne	80112f54 <svc_handler+0x174>
801134e8:	e1a02006 	mov	r2, r6
801134ec:	e1a01004 	mov	r1, r4
801134f0:	e1a00008 	mov	r0, r8
801134f4:	e3a03001 	mov	r3, #1
801134f8:	eb00094d 	bl	80115a34 <proc_signal_send>
801134fc:	eafffe94 	b	80112f54 <svc_handler+0x174>
80113500:	e1a00005 	mov	r0, r5
80113504:	eb00093e 	bl	80115a04 <proc_signal_setup>
80113508:	eafffe91 	b	80112f54 <svc_handler+0x174>
8011350c:	eb0002a9 	bl	80113fb8 <get_current_proc>
80113510:	eb000829 	bl	801155bc <proc_get_proc>
80113514:	e1a01005 	mov	r1, r5
80113518:	e590000c 	ldr	r0, [r0, #12]
8011351c:	eb00065b 	bl	80114e90 <proc_wakeup>
80113520:	eafffe8b 	b	80112f54 <svc_handler+0x174>
80113524:	e1a00005 	mov	r0, r5
80113528:	eb00027d 	bl	80113f24 <proc_get>
8011352c:	eb000822 	bl	801155bc <proc_get_proc>
80113530:	e3500000 	cmp	r0, #0
80113534:	0afffe86 	beq	80112f54 <svc_handler+0x174>
80113538:	e590000c 	ldr	r0, [r0, #12]
8011353c:	e1a01006 	mov	r1, r6
80113540:	eb0005ff 	bl	80114d44 <proc_block_on>
80113544:	e1a00008 	mov	r0, r8
80113548:	eb000a55 	bl	80115ea4 <schedule>
8011354c:	eafffe80 	b	80112f54 <svc_handler+0x174>
80113550:	eb000298 	bl	80113fb8 <get_current_proc>
80113554:	e3a03000 	mov	r3, #0
80113558:	e5803010 	str	r3, [r0, #16]
8011355c:	eafffe7c 	b	80112f54 <svc_handler+0x174>
80113560:	e3a03000 	mov	r3, #0
80113564:	e5883008 	str	r3, [r8, #8]
80113568:	eb000292 	bl	80113fb8 <get_current_proc>
8011356c:	e1a02005 	mov	r2, r5
80113570:	e1a01000 	mov	r1, r0
80113574:	e1a00008 	mov	r0, r8
80113578:	eb000426 	bl	80114618 <proc_exit>
8011357c:	e1a00008 	mov	r0, r8
80113580:	eb000a47 	bl	80115ea4 <schedule>
80113584:	eafffe72 	b	80112f54 <svc_handler+0x174>
80113588:	eb00028a 	bl	80113fb8 <get_current_proc>
8011358c:	eb0008a9 	bl	80115838 <proc_ipc_get_task>
80113590:	e3500000 	cmp	r0, #0
80113594:	1afffe6e 	bne	80112f54 <svc_handler+0x174>
80113598:	e1a01005 	mov	r1, r5
8011359c:	e1a00008 	mov	r0, r8
801135a0:	eb0005c7 	bl	80114cc4 <proc_usleep>
801135a4:	eafffe6a 	b	80112f54 <svc_handler+0x174>
801135a8:	e1a01005 	mov	r1, r5
801135ac:	e1a00008 	mov	r0, r8
801135b0:	eb000610 	bl	80114df8 <proc_waitpid>
801135b4:	eafffe66 	b	80112f54 <svc_handler+0x174>
801135b8:	e1a00005 	mov	r0, r5
801135bc:	eb00075b 	bl	80115330 <get_procs>
801135c0:	e5880008 	str	r0, [r8, #8]
801135c4:	eafffe62 	b	80112f54 <svc_handler+0x174>
801135c8:	e3550000 	cmp	r5, #0
801135cc:	0afffe60 	beq	80112f54 <svc_handler+0x174>
801135d0:	ebfff7ed 	bl	8011158c <get_free_mem_size>
801135d4:	e5850000 	str	r0, [r5]
801135d8:	ebfffa67 	bl	80111f7c <shm_alloced_size>
801135dc:	e59f34cc 	ldr	r3, [pc, #1228]	; 80113ab0 <svc_handler+0xcd0>
801135e0:	e5850004 	str	r0, [r5, #4]
801135e4:	e2850010 	add	r0, r5, #16
801135e8:	e59f14c8 	ldr	r1, [pc, #1224]	; 80113ab8 <svc_handler+0xcd8>
801135ec:	e7993003 	ldr	r3, [r9, r3]
801135f0:	e08f1001 	add	r1, pc, r1
801135f4:	e5933000 	ldr	r3, [r3]
801135f8:	e4912004 	ldr	r2, [r1], #4
801135fc:	e585200c 	str	r2, [r5, #12]
80113600:	e3a020d8 	mov	r2, #216	; 0xd8
80113604:	e5853008 	str	r3, [r5, #8]
80113608:	ebffedc7 	bl	8010ed2c <memcpy>
8011360c:	eafffe50 	b	80112f54 <svc_handler+0x174>
80113610:	e3550000 	cmp	r5, #0
80113614:	0afffe4e 	beq	80112f54 <svc_handler+0x174>
80113618:	e59f349c 	ldr	r3, [pc, #1180]	; 80113abc <svc_handler+0xcdc>
8011361c:	e1a00005 	mov	r0, r5
80113620:	e3a02054 	mov	r2, #84	; 0x54
80113624:	e7991003 	ldr	r1, [r9, r3]
80113628:	ebffedbf 	bl	8010ed2c <memcpy>
8011362c:	eafffe48 	b	80112f54 <svc_handler+0x174>
80113630:	eb000260 	bl	80113fb8 <get_current_proc>
80113634:	e1a01005 	mov	r1, r5
80113638:	e590000c 	ldr	r0, [r0, #12]
8011363c:	ebfffa72 	bl	8011200c <shm_proc_ref>
80113640:	e5880008 	str	r0, [r8, #8]
80113644:	eafffe42 	b	80112f54 <svc_handler+0x174>
80113648:	eb00025a 	bl	80113fb8 <get_current_proc>
8011364c:	e1a01005 	mov	r1, r5
80113650:	e590000c 	ldr	r0, [r0, #12]
80113654:	ebfffaf2 	bl	80112224 <shm_proc_unmap>
80113658:	e5880008 	str	r0, [r8, #8]
8011365c:	eafffe3c 	b	80112f54 <svc_handler+0x174>
80113660:	eb000254 	bl	80113fb8 <get_current_proc>
80113664:	e1a01005 	mov	r1, r5
80113668:	e590000c 	ldr	r0, [r0, #12]
8011366c:	ebfffa8f 	bl	801120b0 <shm_proc_map>
80113670:	e5880008 	str	r0, [r8, #8]
80113674:	eafffe36 	b	80112f54 <svc_handler+0x174>
80113678:	e1a01006 	mov	r1, r6
8011367c:	e1a00005 	mov	r0, r5
80113680:	ebfff981 	bl	80111c8c <shm_alloc>
80113684:	e5880008 	str	r0, [r8, #8]
80113688:	eafffe31 	b	80112f54 <svc_handler+0x174>
8011368c:	eb000249 	bl	80113fb8 <get_current_proc>
80113690:	e5903014 	ldr	r3, [r0, #20]
80113694:	e3530000 	cmp	r3, #0
80113698:	caffff81 	bgt	801134a4 <svc_handler+0x6c4>
8011369c:	e5805014 	str	r5, [r0, #20]
801136a0:	e3a03000 	mov	r3, #0
801136a4:	eafffe29 	b	80112f50 <svc_handler+0x170>
801136a8:	eb000242 	bl	80113fb8 <get_current_proc>
801136ac:	e1a03007 	mov	r3, r7
801136b0:	e1a02006 	mov	r2, r6
801136b4:	e1a01005 	mov	r1, r5
801136b8:	e1a04000 	mov	r4, r0
801136bc:	e1a00008 	mov	r0, r8
801136c0:	eb00083f 	bl	801157c4 <proc_ipc_setup>
801136c4:	e3170001 	tst	r7, #1
801136c8:	e5880008 	str	r0, [r8, #8]
801136cc:	1afffe20 	bne	80112f54 <svc_handler+0x174>
801136d0:	e594300c 	ldr	r3, [r4, #12]
801136d4:	e3a02004 	mov	r2, #4
801136d8:	e1a00008 	mov	r0, r8
801136dc:	e1c421f8 	strd	r2, [r4, #24]
801136e0:	eb0009ef 	bl	80115ea4 <schedule>
801136e4:	eafffe1a 	b	80112f54 <svc_handler+0x174>
801136e8:	e59f33cc 	ldr	r3, [pc, #972]	; 80113abc <svc_handler+0xcdc>
801136ec:	e7993003 	ldr	r3, [r9, r3]
801136f0:	e5933024 	ldr	r3, [r3, #36]	; 0x24
801136f4:	e2633102 	rsb	r3, r3, #-2147483648	; 0x80000000
801136f8:	e0835005 	add	r5, r3, r5
801136fc:	e5885008 	str	r5, [r8, #8]
80113700:	eafffe13 	b	80112f54 <svc_handler+0x174>
80113704:	e59f33b0 	ldr	r3, [pc, #944]	; 80113abc <svc_handler+0xcdc>
80113708:	e7993003 	ldr	r3, [r9, r3]
8011370c:	e5933024 	ldr	r3, [r3, #36]	; 0x24
80113710:	e2833102 	add	r3, r3, #-2147483648	; 0x80000000
80113714:	e0835005 	add	r5, r3, r5
80113718:	e5885008 	str	r5, [r8, #8]
8011371c:	eafffe0c 	b	80112f54 <svc_handler+0x174>
80113720:	eb000224 	bl	80113fb8 <get_current_proc>
80113724:	e5903014 	ldr	r3, [r0, #20]
80113728:	e3530000 	cmp	r3, #0
8011372c:	ca00008e 	bgt	8011396c <svc_handler+0xb8c>
80113730:	e3560000 	cmp	r6, #0
80113734:	0a0000b6 	beq	80113a14 <svc_handler+0xc34>
80113738:	e59f3380 	ldr	r3, [pc, #896]	; 80113ac0 <svc_handler+0xce0>
8011373c:	e7993003 	ldr	r3, [r9, r3]
80113740:	e5933000 	ldr	r3, [r3]
80113744:	e1560003 	cmp	r6, r3
80113748:	9a000004 	bls	80113760 <svc_handler+0x980>
8011374c:	e59f3370 	ldr	r3, [pc, #880]	; 80113ac4 <svc_handler+0xce4>
80113750:	e7993003 	ldr	r3, [r9, r3]
80113754:	e5933000 	ldr	r3, [r3]
80113758:	e1560003 	cmp	r6, r3
8011375c:	3a000082 	bcc	8011396c <svc_handler+0xb8c>
80113760:	e5900144 	ldr	r0, [r0, #324]	; 0x144
80113764:	e1a03007 	mov	r3, r7
80113768:	e1a02006 	mov	r2, r6
8011376c:	e3a01001 	mov	r1, #1
80113770:	e5900000 	ldr	r0, [r0]
80113774:	e58d1004 	str	r1, [sp, #4]
80113778:	e3a01003 	mov	r1, #3
8011377c:	e58d1000 	str	r1, [sp]
80113780:	e1a01005 	mov	r1, r5
80113784:	ebfffb32 	bl	80112454 <map_pages_size>
80113788:	eb000a14 	bl	80115fe0 <flush_tlb>
8011378c:	eaffffda 	b	801136fc <svc_handler+0x91c>
80113790:	eb000208 	bl	80113fb8 <get_current_proc>
80113794:	e1a09000 	mov	r9, r0
80113798:	eb000826 	bl	80115838 <proc_ipc_get_task>
8011379c:	e3500000 	cmp	r0, #0
801137a0:	13550000 	cmpne	r5, #0
801137a4:	e1a04000 	mov	r4, r0
801137a8:	0a0000b1 	beq	80113a74 <svc_handler+0xc94>
801137ac:	e5903000 	ldr	r3, [r0]
801137b0:	e1550003 	cmp	r5, r3
801137b4:	1a0000ae 	bne	80113a74 <svc_handler+0xc94>
801137b8:	e5903010 	ldr	r3, [r0, #16]
801137bc:	e3530001 	cmp	r3, #1
801137c0:	1a0000ab 	bne	80113a74 <svc_handler+0xc94>
801137c4:	e5993144 	ldr	r3, [r9, #324]	; 0x144
801137c8:	e593322c 	ldr	r3, [r3, #556]	; 0x22c
801137cc:	e3530000 	cmp	r3, #0
801137d0:	0a0000a7 	beq	80113a74 <svc_handler+0xc94>
801137d4:	e59030a8 	ldr	r3, [r0, #168]	; 0xa8
801137d8:	e5863000 	str	r3, [r6]
801137dc:	e59030ac 	ldr	r3, [r0, #172]	; 0xac
801137e0:	e5863004 	str	r3, [r6, #4]
801137e4:	e5901098 	ldr	r1, [r0, #152]	; 0x98
801137e8:	e3510000 	cmp	r1, #0
801137ec:	0a00000a 	beq	8011381c <svc_handler+0xa3c>
801137f0:	e5973088 	ldr	r3, [r7, #136]	; 0x88
801137f4:	e5871084 	str	r1, [r7, #132]	; 0x84
801137f8:	e1510003 	cmp	r1, r3
801137fc:	8a000078 	bhi	801139e4 <svc_handler+0xc04>
80113800:	e5970080 	ldr	r0, [r7, #128]	; 0x80
80113804:	e5942098 	ldr	r2, [r4, #152]	; 0x98
80113808:	e5941094 	ldr	r1, [r4, #148]	; 0x94
8011380c:	ebffed46 	bl	8010ed2c <memcpy>
80113810:	e2840014 	add	r0, r4, #20
80113814:	ebfff019 	bl	8010f880 <proto_clear>
80113818:	e3a01000 	mov	r1, #0
8011381c:	e5881008 	str	r1, [r8, #8]
80113820:	eafffdcb 	b	80112f54 <svc_handler+0x174>
80113824:	e3a03000 	mov	r3, #0
80113828:	e5883008 	str	r3, [r8, #8]
8011382c:	eb0001e1 	bl	80113fb8 <get_current_proc>
80113830:	e1a04000 	mov	r4, r0
80113834:	e1a00005 	mov	r0, r5
80113838:	eb0001b9 	bl	80113f24 <proc_get>
8011383c:	e2509000 	subs	r9, r0, #0
80113840:	0afffdc3 	beq	80112f54 <svc_handler+0x174>
80113844:	e594100c 	ldr	r1, [r4, #12]
80113848:	e1550001 	cmp	r5, r1
8011384c:	0afffdc0 	beq	80112f54 <svc_handler+0x174>
80113850:	e5993144 	ldr	r3, [r9, #324]	; 0x144
80113854:	e593222c 	ldr	r2, [r3, #556]	; 0x22c
80113858:	e3520000 	cmp	r2, #0
8011385c:	0afffdbc 	beq	80112f54 <svc_handler+0x174>
80113860:	e5d32228 	ldrb	r2, [r3, #552]	; 0x228
80113864:	e3520000 	cmp	r2, #0
80113868:	12831f8a 	addne	r1, r3, #552	; 0x228
8011386c:	1afffece 	bne	801133ac <svc_handler+0x5cc>
80113870:	e5932310 	ldr	r2, [r3, #784]	; 0x310
80113874:	e3520000 	cmp	r2, #0
80113878:	12831fc1 	addne	r1, r3, #772	; 0x304
8011387c:	1afffeca 	bne	801133ac <svc_handler+0x5cc>
80113880:	e1a03007 	mov	r3, r7
80113884:	e1a02006 	mov	r2, r6
80113888:	eb00080b 	bl	801158bc <proc_ipc_req>
8011388c:	e2505000 	subs	r5, r0, #0
80113890:	0afffdaf 	beq	80112f54 <svc_handler+0x174>
80113894:	e5953000 	ldr	r3, [r5]
80113898:	e1a00009 	mov	r0, r9
8011389c:	e5883008 	str	r3, [r8, #8]
801138a0:	eb0007e4 	bl	80115838 <proc_ipc_get_task>
801138a4:	e1550000 	cmp	r5, r0
801138a8:	1afffda9 	bne	80112f54 <svc_handler+0x174>
801138ac:	e5942008 	ldr	r2, [r4, #8]
801138b0:	e1a01009 	mov	r1, r9
801138b4:	e1a00008 	mov	r0, r8
801138b8:	eb0007e1 	bl	80115844 <proc_ipc_do_task>
801138bc:	eafffda4 	b	80112f54 <svc_handler+0x174>
801138c0:	eb0001bc 	bl	80113fb8 <get_current_proc>
801138c4:	e1a04000 	mov	r4, r0
801138c8:	eb0007da 	bl	80115838 <proc_ipc_get_task>
801138cc:	e3500000 	cmp	r0, #0
801138d0:	13550000 	cmpne	r5, #0
801138d4:	0afffd9e 	beq	80112f54 <svc_handler+0x174>
801138d8:	e5903000 	ldr	r3, [r0]
801138dc:	e1550003 	cmp	r5, r3
801138e0:	1afffd9b 	bne	80112f54 <svc_handler+0x174>
801138e4:	e5943144 	ldr	r3, [r4, #324]	; 0x144
801138e8:	e593322c 	ldr	r3, [r3, #556]	; 0x22c
801138ec:	e3530000 	cmp	r3, #0
801138f0:	0afffd97 	beq	80112f54 <svc_handler+0x174>
801138f4:	e5903010 	ldr	r3, [r0, #16]
801138f8:	e3530001 	cmp	r3, #1
801138fc:	1afffd94 	bne	80112f54 <svc_handler+0x174>
80113900:	e59030ac 	ldr	r3, [r0, #172]	; 0xac
80113904:	e3530000 	cmp	r3, #0
80113908:	bafffd91 	blt	80112f54 <svc_handler+0x174>
8011390c:	e59000a8 	ldr	r0, [r0, #168]	; 0xa8
80113910:	eb000183 	bl	80113f24 <proc_get>
80113914:	e2507000 	subs	r7, r0, #0
80113918:	0afffd8d 	beq	80112f54 <svc_handler+0x174>
8011391c:	e3a03002 	mov	r3, #2
80113920:	e3560000 	cmp	r6, #0
80113924:	e5873210 	str	r3, [r7, #528]	; 0x210
80113928:	e587520c 	str	r5, [r7, #524]	; 0x20c
8011392c:	0a000003 	beq	80113940 <svc_handler+0xb60>
80113930:	e5962084 	ldr	r2, [r6, #132]	; 0x84
80113934:	e2870f85 	add	r0, r7, #532	; 0x214
80113938:	e5961080 	ldr	r1, [r6, #128]	; 0x80
8011393c:	ebffefb4 	bl	8010f814 <proto_copy>
80113940:	e594000c 	ldr	r0, [r4, #12]
80113944:	e2871f83 	add	r1, r7, #524	; 0x20c
80113948:	eb000550 	bl	80114e90 <proc_wakeup>
8011394c:	e5942008 	ldr	r2, [r4, #8]
80113950:	e1a01007 	mov	r1, r7
80113954:	e1a00008 	mov	r0, r8
80113958:	eb00028a 	bl	80114388 <proc_switch_multi_core>
8011395c:	eafffd7c 	b	80112f54 <svc_handler+0x174>
80113960:	e3e03000 	mvn	r3, #0
80113964:	e5883008 	str	r3, [r8, #8]
80113968:	eafffd79 	b	80112f54 <svc_handler+0x174>
8011396c:	e3a05000 	mov	r5, #0
80113970:	eaffff61 	b	801136fc <svc_handler+0x91c>
80113974:	e3e03001 	mvn	r3, #1
80113978:	e5883008 	str	r3, [r8, #8]
8011397c:	eafffd74 	b	80112f54 <svc_handler+0x174>
80113980:	e5943014 	ldr	r3, [r4, #20]
80113984:	e3530000 	cmp	r3, #0
80113988:	bafffd71 	blt	80112f54 <svc_handler+0x174>
8011398c:	eafffed5 	b	801134e8 <svc_handler+0x708>
80113990:	e590320c 	ldr	r3, [r0, #524]	; 0x20c
80113994:	e1560003 	cmp	r6, r3
80113998:	1afffff5 	bne	80113974 <svc_handler+0xb94>
8011399c:	e3570000 	cmp	r7, #0
801139a0:	0a000009 	beq	801139cc <svc_handler+0xbec>
801139a4:	e5902298 	ldr	r2, [r0, #664]	; 0x298
801139a8:	e3520000 	cmp	r2, #0
801139ac:	0a000006 	beq	801139cc <svc_handler+0xbec>
801139b0:	e5973088 	ldr	r3, [r7, #136]	; 0x88
801139b4:	e1520003 	cmp	r2, r3
801139b8:	8a000031 	bhi	80113a84 <svc_handler+0xca4>
801139bc:	e5941294 	ldr	r1, [r4, #660]	; 0x294
801139c0:	e5970080 	ldr	r0, [r7, #128]	; 0x80
801139c4:	e5872084 	str	r2, [r7, #132]	; 0x84
801139c8:	ebffecd7 	bl	8010ed2c <memcpy>
801139cc:	e3a03000 	mov	r3, #0
801139d0:	e2840f85 	add	r0, r4, #532	; 0x214
801139d4:	e584320c 	str	r3, [r4, #524]	; 0x20c
801139d8:	e5843210 	str	r3, [r4, #528]	; 0x210
801139dc:	ebffefa7 	bl	8010f880 <proto_clear>
801139e0:	eafffd5b 	b	80112f54 <svc_handler+0x174>
801139e4:	e1a00009 	mov	r0, r9
801139e8:	eb000377 	bl	801147cc <proc_malloc>
801139ec:	e5942098 	ldr	r2, [r4, #152]	; 0x98
801139f0:	e5872088 	str	r2, [r7, #136]	; 0x88
801139f4:	e5870080 	str	r0, [r7, #128]	; 0x80
801139f8:	eaffff82 	b	80113808 <svc_handler+0xa28>
801139fc:	e590000c 	ldr	r0, [r0, #12]
80113a00:	e1a01005 	mov	r1, r5
80113a04:	eb0004ce 	bl	80114d44 <proc_block_on>
80113a08:	e1a00008 	mov	r0, r8
80113a0c:	eb000924 	bl	80115ea4 <schedule>
80113a10:	eafffd4f 	b	80112f54 <svc_handler+0x174>
80113a14:	eb000167 	bl	80113fb8 <get_current_proc>
80113a18:	e5903014 	ldr	r3, [r0, #20]
80113a1c:	e1a04000 	mov	r4, r0
80113a20:	e3530000 	cmp	r3, #0
80113a24:	caffffd0 	bgt	8011396c <svc_handler+0xb8c>
80113a28:	e590000c 	ldr	r0, [r0, #12]
80113a2c:	e1a01007 	mov	r1, r7
80113a30:	ebfff85a 	bl	80111ba0 <dma_alloc>
80113a34:	e2505000 	subs	r5, r0, #0
80113a38:	0affff2f 	beq	801136fc <svc_handler+0x91c>
80113a3c:	e5940144 	ldr	r0, [r4, #324]	; 0x144
80113a40:	e3a02003 	mov	r2, #3
80113a44:	e3a03001 	mov	r3, #1
80113a48:	e1cd20f0 	strd	r2, [sp]
80113a4c:	e1a01005 	mov	r1, r5
80113a50:	e1a03007 	mov	r3, r7
80113a54:	e5900000 	ldr	r0, [r0]
80113a58:	e1a02005 	mov	r2, r5
80113a5c:	ebfffa7c 	bl	80112454 <map_pages_size>
80113a60:	eb00095e 	bl	80115fe0 <flush_tlb>
80113a64:	eaffff24 	b	801136fc <svc_handler+0x91c>
80113a68:	e1a00004 	mov	r0, r4
80113a6c:	eb000269 	bl	80114418 <proc_ready>
80113a70:	eafffe27 	b	80113314 <svc_handler+0x534>
80113a74:	e3e01000 	mvn	r1, #0
80113a78:	eaffff67 	b	8011381c <svc_handler+0xa3c>
80113a7c:	e3e00000 	mvn	r0, #0
80113a80:	eafffd9f 	b	80113104 <svc_handler+0x324>
80113a84:	e1a01002 	mov	r1, r2
80113a88:	eb00034f 	bl	801147cc <proc_malloc>
80113a8c:	e5942298 	ldr	r2, [r4, #664]	; 0x298
80113a90:	e5872088 	str	r2, [r7, #136]	; 0x88
80113a94:	e5870080 	str	r0, [r7, #128]	; 0x80
80113a98:	eaffffc7 	b	801139bc <svc_handler+0xbdc>
80113a9c:	0000d6ec 	andeq	sp, r0, ip, ror #13
80113aa0:	00005240 	andeq	r5, r0, r0, asr #4
80113aa4:	00000060 	andeq	r0, r0, r0, rrx
80113aa8:	00000004 	andeq	r0, r0, r4
80113aac:	0000005c 	andeq	r0, r0, ip, asr r0
80113ab0:	00000048 	andeq	r0, r0, r8, asr #32
80113ab4:	0000003c 	andeq	r0, r0, ip, lsr r0
80113ab8:	0000cf14 	andeq	ip, r0, r4, lsl pc
80113abc:	00000058 	andeq	r0, r0, r8, asr r0
80113ac0:	0000004c 	andeq	r0, r0, ip, asr #32
80113ac4:	00000040 	andeq	r0, r0, r0, asr #32

80113ac8 <proc_get_mem_tail>:
80113ac8:	e5903144 	ldr	r3, [r0, #324]	; 0x144
80113acc:	e5930020 	ldr	r0, [r3, #32]
80113ad0:	e12fff1e 	bx	lr

80113ad4 <proc_funeral.part.0>:
80113ad4:	e1a0c00d 	mov	ip, sp
80113ad8:	e92ddbf0 	push	{r4, r5, r6, r7, r8, r9, fp, ip, lr, pc}
80113adc:	e1a07000 	mov	r7, r0
80113ae0:	e24cb004 	sub	fp, ip, #4
80113ae4:	e590000c 	ldr	r0, [r0, #12]
80113ae8:	e59f51e0 	ldr	r5, [pc, #480]	; 80113cd0 <proc_funeral.part.0+0x1fc>
80113aec:	ebfff808 	bl	80111b14 <dma_release>
80113af0:	e59f31dc 	ldr	r3, [pc, #476]	; 80113cd4 <proc_funeral.part.0+0x200>
80113af4:	e3a02000 	mov	r2, #0
80113af8:	e08f5005 	add	r5, pc, r5
80113afc:	e5872018 	str	r2, [r7, #24]
80113b00:	e5972144 	ldr	r2, [r7, #324]	; 0x144
80113b04:	e7956003 	ldr	r6, [r5, r3]
80113b08:	e5920000 	ldr	r0, [r2]
80113b0c:	e5963024 	ldr	r3, [r6, #36]	; 0x24
80113b10:	e2833102 	add	r3, r3, #-2147483648	; 0x80000000
80113b14:	e0800003 	add	r0, r0, r3
80113b18:	eb000937 	bl	80115ffc <set_translation_table_base>
80113b1c:	e5973004 	ldr	r3, [r7, #4]
80113b20:	e3530001 	cmp	r3, #1
80113b24:	0a00004f 	beq	80113c68 <proc_funeral.part.0+0x194>
80113b28:	e3530000 	cmp	r3, #0
80113b2c:	e2878f51 	add	r8, r7, #324	; 0x144
80113b30:	03a04a0f 	moveq	r4, #61440	; 0xf000
80113b34:	13a09010 	movne	r9, #16
80113b38:	15974148 	ldrne	r4, [r7, #328]	; 0x148
80113b3c:	03474ffd 	movteq	r4, #32765	; 0x7ffd
80113b40:	03a09020 	moveq	r9, #32
80113b44:	e0849609 	add	r9, r4, r9, lsl #12
80113b48:	e5b80004 	ldr	r0, [r8, #4]!
80113b4c:	ebfff666 	bl	801114ec <kfree4k>
80113b50:	e5973144 	ldr	r3, [r7, #324]	; 0x144
80113b54:	e1a01004 	mov	r1, r4
80113b58:	e2844a01 	add	r4, r4, #4096	; 0x1000
80113b5c:	e5930000 	ldr	r0, [r3]
80113b60:	ebffe622 	bl	8010d3f0 <unmap_page>
80113b64:	e1590004 	cmp	r9, r4
80113b68:	1afffff6 	bne	80113b48 <proc_funeral.part.0+0x74>
80113b6c:	eb00091b 	bl	80115fe0 <flush_tlb>
80113b70:	e5973004 	ldr	r3, [r7, #4]
80113b74:	e3530000 	cmp	r3, #0
80113b78:	1a000034 	bne	80113c50 <proc_funeral.part.0+0x17c>
80113b7c:	e5970144 	ldr	r0, [r7, #324]	; 0x144
80113b80:	e5901314 	ldr	r1, [r0, #788]	; 0x314
80113b84:	e3510000 	cmp	r1, #0
80113b88:	1a000043 	bne	80113c9c <proc_funeral.part.0+0x1c8>
80113b8c:	e59012ac 	ldr	r1, [r0, #684]	; 0x2ac
80113b90:	e3510000 	cmp	r1, #0
80113b94:	1a000046 	bne	80113cb4 <proc_funeral.part.0+0x1e0>
80113b98:	e5901248 	ldr	r1, [r0, #584]	; 0x248
80113b9c:	e3510000 	cmp	r1, #0
80113ba0:	1a000037 	bne	80113c84 <proc_funeral.part.0+0x1b0>
80113ba4:	e5974004 	ldr	r4, [r7, #4]
80113ba8:	e3540000 	cmp	r4, #0
80113bac:	1a000027 	bne	80113c50 <proc_funeral.part.0+0x17c>
80113bb0:	e5972144 	ldr	r2, [r7, #324]	; 0x144
80113bb4:	e5921020 	ldr	r1, [r2, #32]
80113bb8:	e1b08621 	lsrs	r8, r1, #12
80113bbc:	0a00000e 	beq	80113bfc <proc_funeral.part.0+0x128>
80113bc0:	e1a09004 	mov	r9, r4
80113bc4:	e5920000 	ldr	r0, [r2]
80113bc8:	e2411a01 	sub	r1, r1, #4096	; 0x1000
80113bcc:	ebfffa73 	bl	801125a0 <unmap_page_ref>
80113bd0:	e5972144 	ldr	r2, [r7, #324]	; 0x144
80113bd4:	e2899001 	add	r9, r9, #1
80113bd8:	e5921020 	ldr	r1, [r2, #32]
80113bdc:	e2411a01 	sub	r1, r1, #4096	; 0x1000
80113be0:	e5821020 	str	r1, [r2, #32]
80113be4:	e3510000 	cmp	r1, #0
80113be8:	0a000001 	beq	80113bf4 <proc_funeral.part.0+0x120>
80113bec:	e1580009 	cmp	r8, r9
80113bf0:	cafffff3 	bgt	80113bc4 <proc_funeral.part.0+0xf0>
80113bf4:	eb0008f9 	bl	80115fe0 <flush_tlb>
80113bf8:	e5972144 	ldr	r2, [r7, #324]	; 0x144
80113bfc:	e284300a 	add	r3, r4, #10
80113c00:	e2844001 	add	r4, r4, #1
80113c04:	e7921103 	ldr	r1, [r2, r3, lsl #2]
80113c08:	e3510000 	cmp	r1, #0
80113c0c:	da000001 	ble	80113c18 <proc_funeral.part.0+0x144>
80113c10:	e597000c 	ldr	r0, [r7, #12]
80113c14:	ebfff982 	bl	80112224 <shm_proc_unmap>
80113c18:	e3540080 	cmp	r4, #128	; 0x80
80113c1c:	1afffff5 	bne	80113bf8 <proc_funeral.part.0+0x124>
80113c20:	e59f20b0 	ldr	r2, [pc, #176]	; 80113cd8 <proc_funeral.part.0+0x204>
80113c24:	e5963024 	ldr	r3, [r6, #36]	; 0x24
80113c28:	e2833102 	add	r3, r3, #-2147483648	; 0x80000000
80113c2c:	e7952002 	ldr	r2, [r5, r2]
80113c30:	e5920000 	ldr	r0, [r2]
80113c34:	e0800003 	add	r0, r0, r3
80113c38:	eb0008ef 	bl	80115ffc <set_translation_table_base>
80113c3c:	e5973144 	ldr	r3, [r7, #324]	; 0x144
80113c40:	e5930000 	ldr	r0, [r3]
80113c44:	ebfffa22 	bl	801124d4 <free_page_tables>
80113c48:	e5970144 	ldr	r0, [r7, #324]	; 0x144
80113c4c:	ebfff794 	bl	80111aa4 <kfree>
80113c50:	e1a00007 	mov	r0, r7
80113c54:	e3a02faa 	mov	r2, #680	; 0x2a8
80113c58:	e3a01000 	mov	r1, #0
80113c5c:	e24bd024 	sub	sp, fp, #36	; 0x24
80113c60:	e89d6bf0 	ldm	sp, {r4, r5, r6, r7, r8, r9, fp, sp, lr}
80113c64:	eaffec50 	b	8010edac <memset>
80113c68:	e5971148 	ldr	r1, [r7, #328]	; 0x148
80113c6c:	e3510000 	cmp	r1, #0
80113c70:	0afffff6 	beq	80113c50 <proc_funeral.part.0+0x17c>
80113c74:	e5970144 	ldr	r0, [r7, #324]	; 0x144
80113c78:	e2800004 	add	r0, r0, #4
80113c7c:	ebfff6b9 	bl	80111768 <trunk_free>
80113c80:	eaffffba 	b	80113b70 <proc_funeral.part.0+0x9c>
80113c84:	e2800004 	add	r0, r0, #4
80113c88:	ebfff6b6 	bl	80111768 <trunk_free>
80113c8c:	e5974004 	ldr	r4, [r7, #4]
80113c90:	e3540000 	cmp	r4, #0
80113c94:	0affffc5 	beq	80113bb0 <proc_funeral.part.0+0xdc>
80113c98:	eaffffec 	b	80113c50 <proc_funeral.part.0+0x17c>
80113c9c:	e2800004 	add	r0, r0, #4
80113ca0:	ebfff6b0 	bl	80111768 <trunk_free>
80113ca4:	e5970144 	ldr	r0, [r7, #324]	; 0x144
80113ca8:	e59012ac 	ldr	r1, [r0, #684]	; 0x2ac
80113cac:	e3510000 	cmp	r1, #0
80113cb0:	0affffb8 	beq	80113b98 <proc_funeral.part.0+0xc4>
80113cb4:	e2800004 	add	r0, r0, #4
80113cb8:	ebfff6aa 	bl	80111768 <trunk_free>
80113cbc:	e5970144 	ldr	r0, [r7, #324]	; 0x144
80113cc0:	e5901248 	ldr	r1, [r0, #584]	; 0x248
80113cc4:	e3510000 	cmp	r1, #0
80113cc8:	0affffb5 	beq	80113ba4 <proc_funeral.part.0+0xd0>
80113ccc:	eaffffec 	b	80113c84 <proc_funeral.part.0+0x1b0>
80113cd0:	00004568 	andeq	r4, r0, r8, ror #10
80113cd4:	00000058 	andeq	r0, r0, r8, asr r0
80113cd8:	00000018 	andeq	r0, r0, r8, lsl r0

80113cdc <proc_shrink>:
80113cdc:	e1a0c00d 	mov	ip, sp
80113ce0:	e92dd8f0 	push	{r4, r5, r6, r7, fp, ip, lr, pc}
80113ce4:	e2516000 	subs	r6, r1, #0
80113ce8:	e24cb004 	sub	fp, ip, #4
80113cec:	e1a05000 	mov	r5, r0
80113cf0:	d89da8f0 	ldmle	sp, {r4, r5, r6, r7, fp, sp, pc}
80113cf4:	e5903144 	ldr	r3, [r0, #324]	; 0x144
80113cf8:	e3a04000 	mov	r4, #0
80113cfc:	e5931020 	ldr	r1, [r3, #32]
80113d00:	e5930000 	ldr	r0, [r3]
80113d04:	e2411a01 	sub	r1, r1, #4096	; 0x1000
80113d08:	ebfffa24 	bl	801125a0 <unmap_page_ref>
80113d0c:	e5953144 	ldr	r3, [r5, #324]	; 0x144
80113d10:	e2844001 	add	r4, r4, #1
80113d14:	e5931020 	ldr	r1, [r3, #32]
80113d18:	e2411a01 	sub	r1, r1, #4096	; 0x1000
80113d1c:	e5831020 	str	r1, [r3, #32]
80113d20:	e3510000 	cmp	r1, #0
80113d24:	0a000001 	beq	80113d30 <proc_shrink+0x54>
80113d28:	e1560004 	cmp	r6, r4
80113d2c:	1afffff3 	bne	80113d00 <proc_shrink+0x24>
80113d30:	e24bd01c 	sub	sp, fp, #28
80113d34:	e89d68f0 	ldm	sp, {r4, r5, r6, r7, fp, sp, lr}
80113d38:	ea0008a8 	b	80115fe0 <flush_tlb>

80113d3c <proc_expand_mem>:
80113d3c:	e1a0c00d 	mov	ip, sp
80113d40:	e92ddbf0 	push	{r4, r5, r6, r7, r8, r9, fp, ip, lr, pc}
80113d44:	e2517000 	subs	r7, r1, #0
80113d48:	e59f8108 	ldr	r8, [pc, #264]	; 80113e58 <proc_expand_mem+0x11c>
80113d4c:	e24cb004 	sub	fp, ip, #4
80113d50:	e24dd008 	sub	sp, sp, #8
80113d54:	c3a05000 	movgt	r5, #0
80113d58:	e08f8008 	add	r8, pc, r8
80113d5c:	e1a06000 	mov	r6, r0
80113d60:	c1a09005 	movgt	r9, r5
80113d64:	ca000013 	bgt	80113db8 <proc_expand_mem+0x7c>
80113d68:	ea000035 	b	80113e44 <proc_expand_mem+0x108>
80113d6c:	ebffec0e 	bl	8010edac <memset>
80113d70:	e59f20e4 	ldr	r2, [pc, #228]	; 80113e5c <proc_expand_mem+0x120>
80113d74:	e5960144 	ldr	r0, [r6, #324]	; 0x144
80113d78:	e3a03003 	mov	r3, #3
80113d7c:	e2855001 	add	r5, r5, #1
80113d80:	e7982002 	ldr	r2, [r8, r2]
80113d84:	e5901020 	ldr	r1, [r0, #32]
80113d88:	e5900000 	ldr	r0, [r0]
80113d8c:	e58d9000 	str	r9, [sp]
80113d90:	e5922024 	ldr	r2, [r2, #36]	; 0x24
80113d94:	e2822102 	add	r2, r2, #-2147483648	; 0x80000000
80113d98:	e0842002 	add	r2, r4, r2
80113d9c:	ebfff9e7 	bl	80112540 <map_page_ref>
80113da0:	e5962144 	ldr	r2, [r6, #324]	; 0x144
80113da4:	e1570005 	cmp	r7, r5
80113da8:	e5923020 	ldr	r3, [r2, #32]
80113dac:	e2833a01 	add	r3, r3, #4096	; 0x1000
80113db0:	e5823020 	str	r3, [r2, #32]
80113db4:	0a000022 	beq	80113e44 <proc_expand_mem+0x108>
80113db8:	ebfff5c3 	bl	801114cc <kalloc4k>
80113dbc:	e3a02a01 	mov	r2, #4096	; 0x1000
80113dc0:	e2504000 	subs	r4, r0, #0
80113dc4:	e3a01000 	mov	r1, #0
80113dc8:	1affffe7 	bne	80113d6c <proc_expand_mem+0x30>
80113dcc:	ebfff5ee 	bl	8011158c <get_free_mem_size>
80113dd0:	e1a01000 	mov	r1, r0
80113dd4:	e59f0084 	ldr	r0, [pc, #132]	; 80113e60 <proc_expand_mem+0x124>
80113dd8:	e1a03007 	mov	r3, r7
80113ddc:	e596200c 	ldr	r2, [r6, #12]
80113de0:	e08f0000 	add	r0, pc, r0
80113de4:	ebfff065 	bl	8010ff80 <printf>
80113de8:	e3550000 	cmp	r5, #0
80113dec:	03e04000 	mvneq	r4, #0
80113df0:	0a000014 	beq	80113e48 <proc_expand_mem+0x10c>
80113df4:	e5963144 	ldr	r3, [r6, #324]	; 0x144
80113df8:	e5931020 	ldr	r1, [r3, #32]
80113dfc:	e5930000 	ldr	r0, [r3]
80113e00:	e2411a01 	sub	r1, r1, #4096	; 0x1000
80113e04:	ebfff9e5 	bl	801125a0 <unmap_page_ref>
80113e08:	e5963144 	ldr	r3, [r6, #324]	; 0x144
80113e0c:	e2844001 	add	r4, r4, #1
80113e10:	e5931020 	ldr	r1, [r3, #32]
80113e14:	e2411a01 	sub	r1, r1, #4096	; 0x1000
80113e18:	e5831020 	str	r1, [r3, #32]
80113e1c:	e3510000 	cmp	r1, #0
80113e20:	0a000001 	beq	80113e2c <proc_expand_mem+0xf0>
80113e24:	e1540005 	cmp	r4, r5
80113e28:	1afffff3 	bne	80113dfc <proc_expand_mem+0xc0>
80113e2c:	eb00086b 	bl	80115fe0 <flush_tlb>
80113e30:	e3e04000 	mvn	r4, #0
80113e34:	eb000869 	bl	80115fe0 <flush_tlb>
80113e38:	e1a00004 	mov	r0, r4
80113e3c:	e24bd024 	sub	sp, fp, #36	; 0x24
80113e40:	e89dabf0 	ldm	sp, {r4, r5, r6, r7, r8, r9, fp, sp, pc}
80113e44:	e3a04000 	mov	r4, #0
80113e48:	eb000864 	bl	80115fe0 <flush_tlb>
80113e4c:	e1a00004 	mov	r0, r4
80113e50:	e24bd024 	sub	sp, fp, #36	; 0x24
80113e54:	e89dabf0 	ldm	sp, {r4, r5, r6, r7, r8, r9, fp, sp, pc}
80113e58:	00004308 	andeq	r4, r0, r8, lsl #6
80113e5c:	00000058 	andeq	r0, r0, r8, asr r0
80113e60:	00002c3c 	andeq	r2, r0, ip, lsr ip

80113e64 <proc_expand>:
80113e64:	eaffffb4 	b	80113d3c <proc_expand_mem>

80113e68 <procs_init>:
80113e68:	e1a0c00d 	mov	ip, sp
80113e6c:	e92dd8f0 	push	{r4, r5, r6, r7, fp, ip, lr, pc}
80113e70:	e24cb004 	sub	fp, ip, #4
80113e74:	e59fc08c 	ldr	ip, [pc, #140]	; 80113f08 <procs_init+0xa0>
80113e78:	e3a02000 	mov	r2, #0
80113e7c:	e59fe088 	ldr	lr, [pc, #136]	; 80113f0c <procs_init+0xa4>
80113e80:	e08fc00c 	add	ip, pc, ip
80113e84:	e59f0084 	ldr	r0, [pc, #132]	; 80113f10 <procs_init+0xa8>
80113e88:	e59f1084 	ldr	r1, [pc, #132]	; 80113f14 <procs_init+0xac>
80113e8c:	e08f0000 	add	r0, pc, r0
80113e90:	e59f3080 	ldr	r3, [pc, #128]	; 80113f18 <procs_init+0xb0>
80113e94:	e79ce00e 	ldr	lr, [ip, lr]
80113e98:	e08f3003 	add	r3, pc, r3
80113e9c:	e5802000 	str	r2, [r0]
80113ea0:	e2830b55 	add	r0, r3, #87040	; 0x15400
80113ea4:	e58e2000 	str	r2, [lr]
80113ea8:	e79c1001 	ldr	r1, [ip, r1]
80113eac:	e5c12000 	strb	r2, [r1]
80113eb0:	e3e01000 	mvn	r1, #0
80113eb4:	e5832018 	str	r2, [r3, #24]
80113eb8:	e2833faa 	add	r3, r3, #680	; 0x2a8
80113ebc:	e5031288 	str	r1, [r3, #-648]	; 0xfffffd78
80113ec0:	e1530000 	cmp	r3, r0
80113ec4:	1afffffa 	bne	80113eb4 <procs_init+0x4c>
80113ec8:	e59f304c 	ldr	r3, [pc, #76]	; 80113f1c <procs_init+0xb4>
80113ecc:	e3a06000 	mov	r6, #0
80113ed0:	e59f4048 	ldr	r4, [pc, #72]	; 80113f20 <procs_init+0xb8>
80113ed4:	e08f4004 	add	r4, pc, r4
80113ed8:	e79c3003 	ldr	r3, [ip, r3]
80113edc:	e2845044 	add	r5, r4, #68	; 0x44
80113ee0:	e1a07005 	mov	r7, r5
80113ee4:	e2844004 	add	r4, r4, #4
80113ee8:	e5831000 	str	r1, [r3]
80113eec:	e4846004 	str	r6, [r4], #4
80113ef0:	e1a00005 	mov	r0, r5
80113ef4:	ebffef91 	bl	8010fd40 <queue_init>
80113ef8:	e2855008 	add	r5, r5, #8
80113efc:	e1540007 	cmp	r4, r7
80113f00:	1afffff9 	bne	80113eec <procs_init+0x84>
80113f04:	e89da8f0 	ldm	sp, {r4, r5, r6, r7, fp, sp, pc}
80113f08:	000041e0 	andeq	r4, r0, r0, ror #3
80113f0c:	00000038 	andeq	r0, r0, r8, lsr r0
80113f10:	0001016c 	andeq	r0, r1, ip, ror #2
80113f14:	00000004 	andeq	r0, r0, r4
80113f18:	00214160 	eoreq	r4, r1, r0, ror #2
80113f1c:	0000005c 	andeq	r0, r0, ip, asr r0
80113f20:	00010124 	andeq	r0, r1, r4, lsr #2

80113f24 <proc_get>:
80113f24:	e350007f 	cmp	r0, #127	; 0x7f
80113f28:	8a000008 	bhi	80113f50 <proc_get+0x2c>
80113f2c:	e59f3024 	ldr	r3, [pc, #36]	; 80113f58 <proc_get+0x34>
80113f30:	e3a02faa 	mov	r2, #680	; 0x2a8
80113f34:	e08f3003 	add	r3, pc, r3
80113f38:	e0203092 	mla	r0, r2, r0, r3
80113f3c:	e5903018 	ldr	r3, [r0, #24]
80113f40:	e3530000 	cmp	r3, #0
80113f44:	13530007 	cmpne	r3, #7
80113f48:	03a00000 	moveq	r0, #0
80113f4c:	e12fff1e 	bx	lr
80113f50:	e3a00000 	mov	r0, #0
80113f54:	e12fff1e 	bx	lr
80113f58:	002140c4 	eoreq	r4, r1, r4, asr #1

80113f5c <proc_get_by_uuid>:
80113f5c:	e59fc050 	ldr	ip, [pc, #80]	; 80113fb4 <proc_get_by_uuid+0x58>
80113f60:	e3a03000 	mov	r3, #0
80113f64:	e1a02003 	mov	r2, r3
80113f68:	e08fc00c 	add	ip, pc, ip
80113f6c:	ea000003 	b	80113f80 <proc_get_by_uuid+0x24>
80113f70:	e2822001 	add	r2, r2, #1
80113f74:	e28330aa 	add	r3, r3, #170	; 0xaa
80113f78:	e3520080 	cmp	r2, #128	; 0x80
80113f7c:	0a000009 	beq	80113fa8 <proc_get_by_uuid+0x4c>
80113f80:	e79c1103 	ldr	r1, [ip, r3, lsl #2]
80113f84:	e1510000 	cmp	r1, r0
80113f88:	1afffff8 	bne	80113f70 <proc_get_by_uuid+0x14>
80113f8c:	e3a00faa 	mov	r0, #680	; 0x2a8
80113f90:	e020c290 	mla	r0, r0, r2, ip
80113f94:	e5903018 	ldr	r3, [r0, #24]
80113f98:	e3530007 	cmp	r3, #7
80113f9c:	13530000 	cmpne	r3, #0
80113fa0:	03a00000 	moveq	r0, #0
80113fa4:	e12fff1e 	bx	lr
80113fa8:	e3a03000 	mov	r3, #0
80113fac:	e5933018 	ldr	r3, [r3, #24]
80113fb0:	e7f000f0 	udf	#0
80113fb4:	00214090 	mlaeq	r1, r0, r0, r4

80113fb8 <get_current_proc>:
80113fb8:	e1a0c00d 	mov	ip, sp
80113fbc:	e92dd800 	push	{fp, ip, lr, pc}
80113fc0:	e24cb004 	sub	fp, ip, #4
80113fc4:	ebfff99b 	bl	80112638 <get_core_id>
80113fc8:	e59f300c 	ldr	r3, [pc, #12]	; 80113fdc <get_current_proc+0x24>
80113fcc:	e08f3003 	add	r3, pc, r3
80113fd0:	e0833100 	add	r3, r3, r0, lsl #2
80113fd4:	e5930004 	ldr	r0, [r3, #4]
80113fd8:	e89da800 	ldm	sp, {fp, sp, pc}
80113fdc:	0001002c 	andeq	r0, r1, ip, lsr #32

80113fe0 <set_current_proc>:
80113fe0:	e1a0c00d 	mov	ip, sp
80113fe4:	e92dd830 	push	{r4, r5, fp, ip, lr, pc}
80113fe8:	e1a04000 	mov	r4, r0
80113fec:	e24cb004 	sub	fp, ip, #4
80113ff0:	ebfff990 	bl	80112638 <get_core_id>
80113ff4:	e3540000 	cmp	r4, #0
80113ff8:	0a000002 	beq	80114008 <set_current_proc+0x28>
80113ffc:	e5943008 	ldr	r3, [r4, #8]
80114000:	e1530000 	cmp	r3, r0
80114004:	189da830 	ldmne	sp, {r4, r5, fp, sp, pc}
80114008:	e59f300c 	ldr	r3, [pc, #12]	; 8011401c <set_current_proc+0x3c>
8011400c:	e08f3003 	add	r3, pc, r3
80114010:	e0830100 	add	r0, r3, r0, lsl #2
80114014:	e5804004 	str	r4, [r0, #4]
80114018:	e89da830 	ldm	sp, {r4, r5, fp, sp, pc}
8011401c:	0000ffec 	andeq	pc, r0, ip, ror #31

80114020 <proc_save_state>:
80114020:	e590c01c 	ldr	ip, [r0, #28]
80114024:	e5902134 	ldr	r2, [r0, #308]	; 0x134
80114028:	e5903138 	ldr	r3, [r0, #312]	; 0x138
8011402c:	e52de004 	push	{lr}		; (str lr, [sp, #-4]!)
80114030:	e590e018 	ldr	lr, [r0, #24]
80114034:	e581e000 	str	lr, [r1]
80114038:	e581c004 	str	ip, [r1, #4]
8011403c:	e1c120f8 	strd	r2, [r1, #8]
80114040:	e49df004 	pop	{pc}		; (ldr pc, [sp], #4)

80114044 <proc_restore_state>:
80114044:	e1a0c00d 	mov	ip, sp
80114048:	e92dd830 	push	{r4, r5, fp, ip, lr, pc}
8011404c:	e1a04002 	mov	r4, r2
80114050:	e24cb004 	sub	fp, ip, #4
80114054:	e2813d05 	add	r3, r1, #320	; 0x140
80114058:	e3a05000 	mov	r5, #0
8011405c:	e3a02044 	mov	r2, #68	; 0x44
80114060:	e594c000 	ldr	ip, [r4]
80114064:	e581c018 	str	ip, [r1, #24]
80114068:	e594c004 	ldr	ip, [r4, #4]
8011406c:	e581c01c 	str	ip, [r1, #28]
80114070:	e594c008 	ldr	ip, [r4, #8]
80114074:	e581c134 	str	ip, [r1, #308]	; 0x134
80114078:	e594100c 	ldr	r1, [r4, #12]
8011407c:	e5031008 	str	r1, [r3, #-8]
80114080:	e2841010 	add	r1, r4, #16
80114084:	e5035004 	str	r5, [r3, #-4]
80114088:	ebffeb27 	bl	8010ed2c <memcpy>
8011408c:	e1a01005 	mov	r1, r5
80114090:	e1a00004 	mov	r0, r4
80114094:	e3a02054 	mov	r2, #84	; 0x54
80114098:	e24bd014 	sub	sp, fp, #20
8011409c:	e89d6830 	ldm	sp, {r4, r5, fp, sp, lr}
801140a0:	eaffeb41 	b	8010edac <memset>

801140a4 <proc_switch>:
801140a4:	e1a0c00d 	mov	ip, sp
801140a8:	e92ddff0 	push	{r4, r5, r6, r7, r8, r9, sl, fp, ip, lr, pc}
801140ac:	e59f82b8 	ldr	r8, [pc, #696]	; 8011436c <proc_switch+0x2c8>
801140b0:	e24cb004 	sub	fp, ip, #4
801140b4:	e24dd00c 	sub	sp, sp, #12
801140b8:	e1a04001 	mov	r4, r1
801140bc:	e1a06000 	mov	r6, r0
801140c0:	e1a07002 	mov	r7, r2
801140c4:	e08f8008 	add	r8, pc, r8
801140c8:	ebfff95a 	bl	80112638 <get_core_id>
801140cc:	e3540000 	cmp	r4, #0
801140d0:	0a00006c 	beq	80114288 <proc_switch+0x1e4>
801140d4:	e59f3294 	ldr	r3, [pc, #660]	; 80114370 <proc_switch+0x2cc>
801140d8:	e08f3003 	add	r3, pc, r3
801140dc:	e0830100 	add	r0, r3, r0, lsl #2
801140e0:	e5905004 	ldr	r5, [r0, #4]
801140e4:	e3550000 	cmp	r5, #0
801140e8:	0a000030 	beq	801141b0 <proc_switch+0x10c>
801140ec:	e5953018 	ldr	r3, [r5, #24]
801140f0:	e3530000 	cmp	r3, #0
801140f4:	1a000059 	bne	80114260 <proc_switch+0x1bc>
801140f8:	e5943004 	ldr	r3, [r4, #4]
801140fc:	e3530000 	cmp	r3, #0
80114100:	0a00002d 	beq	801141bc <proc_switch+0x118>
80114104:	e2849f72 	add	r9, r4, #456	; 0x1c8
80114108:	e1540005 	cmp	r4, r5
8011410c:	13550000 	cmpne	r5, #0
80114110:	0a00004b 	beq	80114244 <proc_switch+0x1a0>
80114114:	e5953018 	ldr	r3, [r5, #24]
80114118:	e3530000 	cmp	r3, #0
8011411c:	0a00000b 	beq	80114150 <proc_switch+0xac>
80114120:	e59f224c 	ldr	r2, [pc, #588]	; 80114374 <proc_switch+0x2d0>
80114124:	e7981002 	ldr	r1, [r8, r2]
80114128:	e5952008 	ldr	r2, [r5, #8]
8011412c:	e1a02182 	lsl	r2, r2, #3
80114130:	e0811002 	add	r1, r1, r2
80114134:	e5911004 	ldr	r1, [r1, #4]
80114138:	e0511005 	subs	r1, r1, r5
8011413c:	13a01001 	movne	r1, #1
80114140:	e3530006 	cmp	r3, #6
80114144:	13a01000 	movne	r1, #0
80114148:	e3510000 	cmp	r1, #0
8011414c:	1a000075 	bne	80114328 <proc_switch+0x284>
80114150:	e3a02006 	mov	r2, #6
80114154:	e3e03000 	mvn	r3, #0
80114158:	e1c421f8 	strd	r2, [r4, #24]
8011415c:	e59f3214 	ldr	r3, [pc, #532]	; 80114378 <proc_switch+0x2d4>
80114160:	e5942144 	ldr	r2, [r4, #324]	; 0x144
80114164:	e7983003 	ldr	r3, [r8, r3]
80114168:	e5920000 	ldr	r0, [r2]
8011416c:	e5933024 	ldr	r3, [r3, #36]	; 0x24
80114170:	e2833102 	add	r3, r3, #-2147483648	; 0x80000000
80114174:	e0800003 	add	r0, r0, r3
80114178:	eb00079f 	bl	80115ffc <set_translation_table_base>
8011417c:	ebfff92d 	bl	80112638 <get_core_id>
80114180:	e5943008 	ldr	r3, [r4, #8]
80114184:	e1500003 	cmp	r0, r3
80114188:	059f31ec 	ldreq	r3, [pc, #492]	; 8011437c <proc_switch+0x2d8>
8011418c:	008f3003 	addeq	r3, pc, r3
80114190:	00830100 	addeq	r0, r3, r0, lsl #2
80114194:	05804004 	streq	r4, [r0, #4]
80114198:	e1a01009 	mov	r1, r9
8011419c:	e1a00006 	mov	r0, r6
801141a0:	e3a02044 	mov	r2, #68	; 0x44
801141a4:	e24bd028 	sub	sp, fp, #40	; 0x28
801141a8:	e89d6ff0 	ldm	sp, {r4, r5, r6, r7, r8, r9, sl, fp, sp, lr}
801141ac:	eaffeade 	b	8010ed2c <memcpy>
801141b0:	e5943004 	ldr	r3, [r4, #4]
801141b4:	e3530000 	cmp	r3, #0
801141b8:	1a000030 	bne	80114280 <proc_switch+0x1dc>
801141bc:	e5943144 	ldr	r3, [r4, #324]	; 0x144
801141c0:	e5932310 	ldr	r2, [r3, #784]	; 0x310
801141c4:	e3520001 	cmp	r2, #1
801141c8:	0a000042 	beq	801142d8 <proc_switch+0x234>
801141cc:	e5d3a2a8 	ldrb	sl, [r3, #680]	; 0x2a8
801141d0:	e35a0000 	cmp	sl, #0
801141d4:	1a00002d 	bne	80114290 <proc_switch+0x1ec>
801141d8:	e5d33244 	ldrb	r3, [r3, #580]	; 0x244
801141dc:	e3530000 	cmp	r3, #0
801141e0:	0affffc7 	beq	80114104 <proc_switch+0x60>
801141e4:	e1a00004 	mov	r0, r4
801141e8:	e2849f72 	add	r9, r4, #456	; 0x1c8
801141ec:	eb000591 	bl	80115838 <proc_ipc_get_task>
801141f0:	e50b0030 	str	r0, [fp, #-48]	; 0xffffffd0
801141f4:	e5940144 	ldr	r0, [r4, #324]	; 0x144
801141f8:	e1a01009 	mov	r1, r9
801141fc:	e3a02044 	mov	r2, #68	; 0x44
80114200:	e2800f97 	add	r0, r0, #604	; 0x25c
80114204:	ebffeac8 	bl	8010ed2c <memcpy>
80114208:	e51b3030 	ldr	r3, [fp, #-48]	; 0xffffffd0
8011420c:	e5942144 	ldr	r2, [r4, #324]	; 0x144
80114210:	e5933000 	ldr	r3, [r3]
80114214:	e58431d0 	str	r3, [r4, #464]	; 0x1d0
80114218:	e5923248 	ldr	r3, [r2, #584]	; 0x248
8011421c:	e5921234 	ldr	r1, [r2, #564]	; 0x234
80114220:	e58411d4 	str	r1, [r4, #468]	; 0x1d4
80114224:	e2833801 	add	r3, r3, #65536	; 0x10000
80114228:	e592122c 	ldr	r1, [r2, #556]	; 0x22c
8011422c:	e3c33007 	bic	r3, r3, #7
80114230:	e5841208 	str	r1, [r4, #520]	; 0x208
80114234:	e5843204 	str	r3, [r4, #516]	; 0x204
80114238:	e58411cc 	str	r1, [r4, #460]	; 0x1cc
8011423c:	e5c2a244 	strb	sl, [r2, #580]	; 0x244
80114240:	eaffffb0 	b	80114108 <proc_switch+0x64>
80114244:	e3a03006 	mov	r3, #6
80114248:	e1540005 	cmp	r4, r5
8011424c:	e5843018 	str	r3, [r4, #24]
80114250:	e3e03000 	mvn	r3, #0
80114254:	e584301c 	str	r3, [r4, #28]
80114258:	0affffce 	beq	80114198 <proc_switch+0xf4>
8011425c:	eaffffbe 	b	8011415c <proc_switch+0xb8>
80114260:	e1a01006 	mov	r1, r6
80114264:	e2850f72 	add	r0, r5, #456	; 0x1c8
80114268:	e3a02044 	mov	r2, #68	; 0x44
8011426c:	ebffeaae 	bl	8010ed2c <memcpy>
80114270:	e5943004 	ldr	r3, [r4, #4]
80114274:	e3530000 	cmp	r3, #0
80114278:	0affffcf 	beq	801141bc <proc_switch+0x118>
8011427c:	eaffffa0 	b	80114104 <proc_switch+0x60>
80114280:	e2849f72 	add	r9, r4, #456	; 0x1c8
80114284:	eaffffb1 	b	80114150 <proc_switch+0xac>
80114288:	e24bd028 	sub	sp, fp, #40	; 0x28
8011428c:	e89daff0 	ldm	sp, {r4, r5, r6, r7, r8, r9, sl, fp, sp, pc}
80114290:	e2849f72 	add	r9, r4, #456	; 0x1c8
80114294:	e2830d0b 	add	r0, r3, #704	; 0x2c0
80114298:	e1a01009 	mov	r1, r9
8011429c:	e3a02044 	mov	r2, #68	; 0x44
801142a0:	ebffeaa1 	bl	8010ed2c <memcpy>
801142a4:	e5942144 	ldr	r2, [r4, #324]	; 0x144
801142a8:	e3a00000 	mov	r0, #0
801142ac:	e59232ac 	ldr	r3, [r2, #684]	; 0x2ac
801142b0:	e59212a4 	ldr	r1, [r2, #676]	; 0x2a4
801142b4:	e58411d0 	str	r1, [r4, #464]	; 0x1d0
801142b8:	e2833801 	add	r3, r3, #65536	; 0x10000
801142bc:	e59212a0 	ldr	r1, [r2, #672]	; 0x2a0
801142c0:	e3c33007 	bic	r3, r3, #7
801142c4:	e5841208 	str	r1, [r4, #520]	; 0x208
801142c8:	e5843204 	str	r3, [r4, #516]	; 0x204
801142cc:	e58411cc 	str	r1, [r4, #460]	; 0x1cc
801142d0:	e5c202a8 	strb	r0, [r2, #680]	; 0x2a8
801142d4:	eaffff8b 	b	80114108 <proc_switch+0x64>
801142d8:	e2849f72 	add	r9, r4, #456	; 0x1c8
801142dc:	e2830fca 	add	r0, r3, #808	; 0x328
801142e0:	e1a01009 	mov	r1, r9
801142e4:	e3a02002 	mov	r2, #2
801142e8:	e5832310 	str	r2, [r3, #784]	; 0x310
801142ec:	e3a02044 	mov	r2, #68	; 0x44
801142f0:	ebffea8d 	bl	8010ed2c <memcpy>
801142f4:	e5942144 	ldr	r2, [r4, #324]	; 0x144
801142f8:	e5923314 	ldr	r3, [r2, #788]	; 0x314
801142fc:	e5921308 	ldr	r1, [r2, #776]	; 0x308
80114300:	e2833801 	add	r3, r3, #65536	; 0x10000
80114304:	e58411d0 	str	r1, [r4, #464]	; 0x1d0
80114308:	e592130c 	ldr	r1, [r2, #780]	; 0x30c
8011430c:	e3c33007 	bic	r3, r3, #7
80114310:	e5922304 	ldr	r2, [r2, #772]	; 0x304
80114314:	e58411d4 	str	r1, [r4, #468]	; 0x1d4
80114318:	e5843204 	str	r3, [r4, #516]	; 0x204
8011431c:	e5842208 	str	r2, [r4, #520]	; 0x208
80114320:	e58421cc 	str	r2, [r4, #460]	; 0x1cc
80114324:	eaffff77 	b	80114108 <proc_switch+0x64>
80114328:	e3a03005 	mov	r3, #5
8011432c:	e1a01005 	mov	r1, r5
80114330:	e3570000 	cmp	r7, #0
80114334:	e5853018 	str	r3, [r5, #24]
80114338:	0a000005 	beq	80114354 <proc_switch+0x2b0>
8011433c:	e59f003c 	ldr	r0, [pc, #60]	; 80114380 <proc_switch+0x2dc>
80114340:	e08f0000 	add	r0, pc, r0
80114344:	e2800044 	add	r0, r0, #68	; 0x44
80114348:	e0800002 	add	r0, r0, r2
8011434c:	ebffee93 	bl	8010fda0 <queue_push_head>
80114350:	eaffff7e 	b	80114150 <proc_switch+0xac>
80114354:	e59f0028 	ldr	r0, [pc, #40]	; 80114384 <proc_switch+0x2e0>
80114358:	e08f0000 	add	r0, pc, r0
8011435c:	e2800044 	add	r0, r0, #68	; 0x44
80114360:	e0800002 	add	r0, r0, r2
80114364:	ebffee79 	bl	8010fd50 <queue_push>
80114368:	eaffff78 	b	80114150 <proc_switch+0xac>
8011436c:	00003f9c 	muleq	r0, ip, pc	; <UNPREDICTABLE>
80114370:	0000ff20 	andeq	pc, r0, r0, lsr #30
80114374:	00000064 	andeq	r0, r0, r4, rrx
80114378:	00000058 	andeq	r0, r0, r8, asr r0
8011437c:	0000fe6c 	andeq	pc, r0, ip, ror #28
80114380:	0000fcb8 			; <UNDEFINED> instruction: 0x0000fcb8
80114384:	0000fca0 	andeq	pc, r0, r0, lsr #25

80114388 <proc_switch_multi_core>:
80114388:	e5913008 	ldr	r3, [r1, #8]
8011438c:	e1a0c00d 	mov	ip, sp
80114390:	e92dd830 	push	{r4, r5, fp, ip, lr, pc}
80114394:	e24cb004 	sub	fp, ip, #4
80114398:	e1a04001 	mov	r4, r1
8011439c:	e1530002 	cmp	r3, r2
801143a0:	0a000010 	beq	801143e8 <proc_switch_multi_core+0x60>
801143a4:	e59f5068 	ldr	r5, [pc, #104]	; 80114414 <proc_switch_multi_core+0x8c>
801143a8:	e3a00005 	mov	r0, #5
801143ac:	e3a02000 	mov	r2, #0
801143b0:	e5810018 	str	r0, [r1, #24]
801143b4:	e08f5005 	add	r5, pc, r5
801143b8:	e5812134 	str	r2, [r1, #308]	; 0x134
801143bc:	e2855044 	add	r5, r5, #68	; 0x44
801143c0:	e0850183 	add	r0, r5, r3, lsl #3
801143c4:	e3e03000 	mvn	r3, #0
801143c8:	e581301c 	str	r3, [r1, #28]
801143cc:	ebffee99 	bl	8010fe38 <queue_in>
801143d0:	e3500000 	cmp	r0, #0
801143d4:	0a000009 	beq	80114400 <proc_switch_multi_core+0x78>
801143d8:	e5940008 	ldr	r0, [r4, #8]
801143dc:	e24bd014 	sub	sp, fp, #20
801143e0:	e89d6830 	ldm	sp, {r4, r5, fp, sp, lr}
801143e4:	eaffe9d5 	b	8010eb40 <ipi_send>
801143e8:	e3a03006 	mov	r3, #6
801143ec:	e3a02001 	mov	r2, #1
801143f0:	e5813018 	str	r3, [r1, #24]
801143f4:	e24bd014 	sub	sp, fp, #20
801143f8:	e89d6830 	ldm	sp, {r4, r5, fp, sp, lr}
801143fc:	eaffff28 	b	801140a4 <proc_switch>
80114400:	e5940008 	ldr	r0, [r4, #8]
80114404:	e1a01004 	mov	r1, r4
80114408:	e0850180 	add	r0, r5, r0, lsl #3
8011440c:	ebffee63 	bl	8010fda0 <queue_push_head>
80114410:	eafffff0 	b	801143d8 <proc_switch_multi_core+0x50>
80114414:	0000fc44 	andeq	pc, r0, r4, asr #24

80114418 <proc_ready>:
80114418:	e1a0c00d 	mov	ip, sp
8011441c:	e92dd830 	push	{r4, r5, fp, ip, lr, pc}
80114420:	e2504000 	subs	r4, r0, #0
80114424:	e24cb004 	sub	fp, ip, #4
80114428:	089da830 	ldmeq	sp, {r4, r5, fp, sp, pc}
8011442c:	e59f504c 	ldr	r5, [pc, #76]	; 80114480 <proc_ready+0x68>
80114430:	e3a03005 	mov	r3, #5
80114434:	e5940008 	ldr	r0, [r4, #8]
80114438:	e3a02000 	mov	r2, #0
8011443c:	e08f5005 	add	r5, pc, r5
80114440:	e5843018 	str	r3, [r4, #24]
80114444:	e2855044 	add	r5, r5, #68	; 0x44
80114448:	e3e03000 	mvn	r3, #0
8011444c:	e1a01004 	mov	r1, r4
80114450:	e0850180 	add	r0, r5, r0, lsl #3
80114454:	e5842134 	str	r2, [r4, #308]	; 0x134
80114458:	e584301c 	str	r3, [r4, #28]
8011445c:	ebffee75 	bl	8010fe38 <queue_in>
80114460:	e3500000 	cmp	r0, #0
80114464:	189da830 	ldmne	sp, {r4, r5, fp, sp, pc}
80114468:	e5940008 	ldr	r0, [r4, #8]
8011446c:	e1a01004 	mov	r1, r4
80114470:	e0850180 	add	r0, r5, r0, lsl #3
80114474:	e24bd014 	sub	sp, fp, #20
80114478:	e89d6830 	ldm	sp, {r4, r5, fp, sp, lr}
8011447c:	eaffee47 	b	8010fda0 <queue_push_head>
80114480:	0000fbbc 			; <UNDEFINED> instruction: 0x0000fbbc

80114484 <proc_get_core_ready>:
80114484:	e59f300c 	ldr	r3, [pc, #12]	; 80114498 <proc_get_core_ready+0x14>
80114488:	e08f3003 	add	r3, pc, r3
8011448c:	e0833180 	add	r3, r3, r0, lsl #3
80114490:	e5930044 	ldr	r0, [r3, #68]	; 0x44
80114494:	e12fff1e 	bx	lr
80114498:	0000fb70 	andeq	pc, r0, r0, ror fp	; <UNPREDICTABLE>

8011449c <proc_have_ready_task>:
8011449c:	e1a0c00d 	mov	ip, sp
801144a0:	e92dd830 	push	{r4, r5, fp, ip, lr, pc}
801144a4:	e59f5038 	ldr	r5, [pc, #56]	; 801144e4 <proc_have_ready_task+0x48>
801144a8:	e1a04000 	mov	r4, r0
801144ac:	e24cb004 	sub	fp, ip, #4
801144b0:	e08f5005 	add	r5, pc, r5
801144b4:	e2850044 	add	r0, r5, #68	; 0x44
801144b8:	e0800184 	add	r0, r0, r4, lsl #3
801144bc:	ebffee91 	bl	8010ff08 <queue_is_empty>
801144c0:	e3500000 	cmp	r0, #0
801144c4:	0a000004 	beq	801144dc <proc_have_ready_task+0x40>
801144c8:	e0854104 	add	r4, r5, r4, lsl #2
801144cc:	e5940004 	ldr	r0, [r4, #4]
801144d0:	e2500000 	subs	r0, r0, #0
801144d4:	13a00001 	movne	r0, #1
801144d8:	e89da830 	ldm	sp, {r4, r5, fp, sp, pc}
801144dc:	e3a00001 	mov	r0, #1
801144e0:	e89da830 	ldm	sp, {r4, r5, fp, sp, pc}
801144e4:	0000fb48 	andeq	pc, r0, r8, asr #22

801144e8 <proc_get_next_ready>:
801144e8:	e1a0c00d 	mov	ip, sp
801144ec:	e92dd830 	push	{r4, r5, fp, ip, lr, pc}
801144f0:	e59f40a0 	ldr	r4, [pc, #160]	; 80114598 <proc_get_next_ready+0xb0>
801144f4:	e24cb004 	sub	fp, ip, #4
801144f8:	e59f509c 	ldr	r5, [pc, #156]	; 8011459c <proc_get_next_ready+0xb4>
801144fc:	e08f4004 	add	r4, pc, r4
80114500:	ebfff84c 	bl	80112638 <get_core_id>
80114504:	e2844044 	add	r4, r4, #68	; 0x44
80114508:	e08f5005 	add	r5, pc, r5
8011450c:	e0844180 	add	r4, r4, r0, lsl #3
80114510:	e1a00004 	mov	r0, r4
80114514:	ebffee34 	bl	8010fdec <queue_pop>
80114518:	e2503000 	subs	r3, r0, #0
8011451c:	1a000003 	bne	80114530 <proc_get_next_ready+0x48>
80114520:	ea000009 	b	8011454c <proc_get_next_ready+0x64>
80114524:	ebffee30 	bl	8010fdec <queue_pop>
80114528:	e2503000 	subs	r3, r0, #0
8011452c:	0a000006 	beq	8011454c <proc_get_next_ready+0x64>
80114530:	e5932018 	ldr	r2, [r3, #24]
80114534:	e1a00004 	mov	r0, r4
80114538:	e2422005 	sub	r2, r2, #5
8011453c:	e3520001 	cmp	r2, #1
80114540:	8afffff7 	bhi	80114524 <proc_get_next_ready+0x3c>
80114544:	e1a00003 	mov	r0, r3
80114548:	e89da830 	ldm	sp, {r4, r5, fp, sp, pc}
8011454c:	ebfff839 	bl	80112638 <get_core_id>
80114550:	e59f3048 	ldr	r3, [pc, #72]	; 801145a0 <proc_get_next_ready+0xb8>
80114554:	e08f3003 	add	r3, pc, r3
80114558:	e0833100 	add	r3, r3, r0, lsl #2
8011455c:	e5933004 	ldr	r3, [r3, #4]
80114560:	e3530000 	cmp	r3, #0
80114564:	0afffff6 	beq	80114544 <proc_get_next_ready+0x5c>
80114568:	e5932018 	ldr	r2, [r3, #24]
8011456c:	e3520006 	cmp	r2, #6
80114570:	13a03000 	movne	r3, #0
80114574:	1afffff2 	bne	80114544 <proc_get_next_ready+0x5c>
80114578:	e59f2024 	ldr	r2, [pc, #36]	; 801145a4 <proc_get_next_ready+0xbc>
8011457c:	e5931008 	ldr	r1, [r3, #8]
80114580:	e7952002 	ldr	r2, [r5, r2]
80114584:	e0822181 	add	r2, r2, r1, lsl #3
80114588:	e5922004 	ldr	r2, [r2, #4]
8011458c:	e1520003 	cmp	r2, r3
80114590:	03a03000 	moveq	r3, #0
80114594:	eaffffea 	b	80114544 <proc_get_next_ready+0x5c>
80114598:	0000fafc 	strdeq	pc, [r0], -ip
8011459c:	00003b58 	andeq	r3, r0, r8, asr fp
801145a0:	0000faa4 	andeq	pc, r0, r4, lsr #21
801145a4:	00000064 	andeq	r0, r0, r4, rrx

801145a8 <proc_stack_alloc>:
801145a8:	e5900144 	ldr	r0, [r0, #324]	; 0x144
801145ac:	e3a01801 	mov	r1, #65536	; 0x10000
801145b0:	e2800004 	add	r0, r0, #4
801145b4:	eafff41f 	b	80111638 <trunk_malloc>

801145b8 <proc_stack_free>:
801145b8:	e3510000 	cmp	r1, #0
801145bc:	012fff1e 	bxeq	lr
801145c0:	e5900144 	ldr	r0, [r0, #324]	; 0x144
801145c4:	e2800004 	add	r0, r0, #4
801145c8:	eafff466 	b	80111768 <trunk_free>

801145cc <proc_zombie_funeral>:
801145cc:	e1a0c00d 	mov	ip, sp
801145d0:	e92dd800 	push	{fp, ip, lr, pc}
801145d4:	e24cb004 	sub	fp, ip, #4
801145d8:	ebfff816 	bl	80112638 <get_core_id>
801145dc:	e59f3030 	ldr	r3, [pc, #48]	; 80114614 <proc_zombie_funeral+0x48>
801145e0:	e08f3003 	add	r3, pc, r3
801145e4:	e0833100 	add	r3, r3, r0, lsl #2
801145e8:	e5930004 	ldr	r0, [r3, #4]
801145ec:	e3500000 	cmp	r0, #0
801145f0:	0a000005 	beq	8011460c <proc_zombie_funeral+0x40>
801145f4:	e5903018 	ldr	r3, [r0, #24]
801145f8:	e3530007 	cmp	r3, #7
801145fc:	1a000002 	bne	8011460c <proc_zombie_funeral+0x40>
80114600:	ebfffd33 	bl	80113ad4 <proc_funeral.part.0>
80114604:	e3a00000 	mov	r0, #0
80114608:	e89da800 	ldm	sp, {fp, sp, pc}
8011460c:	e3e00000 	mvn	r0, #0
80114610:	e89da800 	ldm	sp, {fp, sp, pc}
80114614:	0000fa18 	andeq	pc, r0, r8, lsl sl	; <UNPREDICTABLE>

80114618 <proc_exit>:
80114618:	e1a0c00d 	mov	ip, sp
8011461c:	e92ddff8 	push	{r3, r4, r5, r6, r7, r8, r9, sl, fp, ip, lr, pc}
80114620:	e5913018 	ldr	r3, [r1, #24]
80114624:	e24cb004 	sub	fp, ip, #4
80114628:	e1a07001 	mov	r7, r1
8011462c:	e3530007 	cmp	r3, #7
80114630:	13530000 	cmpne	r3, #0
80114634:	e1a09000 	mov	r9, r0
80114638:	089daff8 	ldmeq	sp, {r3, r4, r5, r6, r7, r8, r9, sl, fp, sp, pc}
8011463c:	e9910108 	ldmib	r1, {r3, r8}
80114640:	e3530000 	cmp	r3, #0
80114644:	11a00008 	movne	r0, r8
80114648:	0a000055 	beq	801147a4 <proc_exit+0x18c>
8011464c:	e59f4168 	ldr	r4, [pc, #360]	; 801147bc <proc_exit+0x1a4>
80114650:	e1a01007 	mov	r1, r7
80114654:	e08f4004 	add	r4, pc, r4
80114658:	e2844044 	add	r4, r4, #68	; 0x44
8011465c:	e0840180 	add	r0, r4, r0, lsl #3
80114660:	ebffedf4 	bl	8010fe38 <queue_in>
80114664:	e2501000 	subs	r1, r0, #0
80114668:	0a000002 	beq	80114678 <proc_exit+0x60>
8011466c:	e5970008 	ldr	r0, [r7, #8]
80114670:	e0840180 	add	r0, r4, r0, lsl #3
80114674:	ebffedf9 	bl	8010fe60 <queue_remove>
80114678:	e59f4140 	ldr	r4, [pc, #320]	; 801147c0 <proc_exit+0x1a8>
8011467c:	e3a03007 	mov	r3, #7
80114680:	e597a00c 	ldr	sl, [r7, #12]
80114684:	e08f4004 	add	r4, pc, r4
80114688:	e5873018 	str	r3, [r7, #24]
8011468c:	e2846b55 	add	r6, r4, #87040	; 0x15400
80114690:	e1a05004 	mov	r5, r4
80114694:	ea000002 	b	801146a4 <proc_exit+0x8c>
80114698:	e2855faa 	add	r5, r5, #680	; 0x2a8
8011469c:	e1550006 	cmp	r5, r6
801146a0:	0a00000b 	beq	801146d4 <proc_exit+0xbc>
801146a4:	e5953010 	ldr	r3, [r5, #16]
801146a8:	e153000a 	cmp	r3, sl
801146ac:	1afffff9 	bne	80114698 <proc_exit+0x80>
801146b0:	e1a01005 	mov	r1, r5
801146b4:	e3a03000 	mov	r3, #0
801146b8:	e1a00009 	mov	r0, r9
801146bc:	e1a02003 	mov	r2, r3
801146c0:	e2855faa 	add	r5, r5, #680	; 0x2a8
801146c4:	eb0004da 	bl	80115a34 <proc_signal_send>
801146c8:	e597a00c 	ldr	sl, [r7, #12]
801146cc:	e1550006 	cmp	r5, r6
801146d0:	1afffff3 	bne	801146a4 <proc_exit+0x8c>
801146d4:	e59f50e8 	ldr	r5, [pc, #232]	; 801147c4 <proc_exit+0x1ac>
801146d8:	e08f5005 	add	r5, pc, r5
801146dc:	e2855044 	add	r5, r5, #68	; 0x44
801146e0:	ea000002 	b	801146f0 <proc_exit+0xd8>
801146e4:	e2844faa 	add	r4, r4, #680	; 0x2a8
801146e8:	e1540006 	cmp	r4, r6
801146ec:	0a000018 	beq	80114754 <proc_exit+0x13c>
801146f0:	e5943018 	ldr	r3, [r4, #24]
801146f4:	e3530003 	cmp	r3, #3
801146f8:	1afffff9 	bne	801146e4 <proc_exit+0xcc>
801146fc:	e5943020 	ldr	r3, [r4, #32]
80114700:	e153000a 	cmp	r3, sl
80114704:	1afffff6 	bne	801146e4 <proc_exit+0xcc>
80114708:	e5940008 	ldr	r0, [r4, #8]
8011470c:	e3e03000 	mvn	r3, #0
80114710:	e3a02005 	mov	r2, #5
80114714:	e5843020 	str	r3, [r4, #32]
80114718:	e1c421f8 	strd	r2, [r4, #24]
8011471c:	e1a01004 	mov	r1, r4
80114720:	e3a03000 	mov	r3, #0
80114724:	e0850180 	add	r0, r5, r0, lsl #3
80114728:	e5843134 	str	r3, [r4, #308]	; 0x134
8011472c:	ebffedc1 	bl	8010fe38 <queue_in>
80114730:	e3500000 	cmp	r0, #0
80114734:	1affffea 	bne	801146e4 <proc_exit+0xcc>
80114738:	e5940008 	ldr	r0, [r4, #8]
8011473c:	e1a01004 	mov	r1, r4
80114740:	e2844faa 	add	r4, r4, #680	; 0x2a8
80114744:	e0850180 	add	r0, r5, r0, lsl #3
80114748:	ebffed94 	bl	8010fda0 <queue_push_head>
8011474c:	e1540006 	cmp	r4, r6
80114750:	1affffe6 	bne	801146f0 <proc_exit+0xd8>
80114754:	e3a03000 	mov	r3, #0
80114758:	e1a00007 	mov	r0, r7
8011475c:	e5873010 	str	r3, [r7, #16]
80114760:	eb000496 	bl	801159c0 <proc_ipc_clear>
80114764:	ebfff7b3 	bl	80112638 <get_core_id>
80114768:	e1500008 	cmp	r0, r8
8011476c:	0a000005 	beq	80114788 <proc_exit+0x170>
80114770:	e59f3050 	ldr	r3, [pc, #80]	; 801147c8 <proc_exit+0x1b0>
80114774:	e08f3003 	add	r3, pc, r3
80114778:	e0838108 	add	r8, r3, r8, lsl #2
8011477c:	e5983004 	ldr	r3, [r8, #4]
80114780:	e1530007 	cmp	r3, r7
80114784:	089daff8 	ldmeq	sp, {r3, r4, r5, r6, r7, r8, r9, sl, fp, sp, pc}
80114788:	e5973018 	ldr	r3, [r7, #24]
8011478c:	e3530000 	cmp	r3, #0
80114790:	089daff8 	ldmeq	sp, {r3, r4, r5, r6, r7, r8, r9, sl, fp, sp, pc}
80114794:	e1a00007 	mov	r0, r7
80114798:	e24bd02c 	sub	sp, fp, #44	; 0x2c
8011479c:	e89d6ff8 	ldm	sp, {r3, r4, r5, r6, r7, r8, r9, sl, fp, sp, lr}
801147a0:	eafffccb 	b	80113ad4 <proc_funeral.part.0>
801147a4:	e591100c 	ldr	r1, [r1, #12]
801147a8:	e1a02003 	mov	r2, r3
801147ac:	e3a00001 	mov	r0, #1
801147b0:	eb00063b 	bl	801160a4 <kev_push>
801147b4:	e5970008 	ldr	r0, [r7, #8]
801147b8:	eaffffa3 	b	8011464c <proc_exit+0x34>
801147bc:	0000f9a4 	andeq	pc, r0, r4, lsr #19
801147c0:	00213974 	eoreq	r3, r1, r4, ror r9
801147c4:	0000f920 	andeq	pc, r0, r0, lsr #18
801147c8:	0000f884 	andeq	pc, r0, r4, lsl #17

801147cc <proc_malloc>:
801147cc:	e1a03000 	mov	r3, r0
801147d0:	e2510000 	subs	r0, r1, #0
801147d4:	012fff1e 	bxeq	lr
801147d8:	e5930144 	ldr	r0, [r3, #324]	; 0x144
801147dc:	e2800004 	add	r0, r0, #4
801147e0:	eafff394 	b	80111638 <trunk_malloc>

801147e4 <proc_realloc>:
801147e4:	e1a0c00d 	mov	ip, sp
801147e8:	e3520000 	cmp	r2, #0
801147ec:	e92dd800 	push	{fp, ip, lr, pc}
801147f0:	e24cb004 	sub	fp, ip, #4
801147f4:	0a000004 	beq	8011480c <proc_realloc+0x28>
801147f8:	e5900144 	ldr	r0, [r0, #324]	; 0x144
801147fc:	e2800004 	add	r0, r0, #4
80114800:	e24bd00c 	sub	sp, fp, #12
80114804:	e89d6800 	ldm	sp, {fp, sp, lr}
80114808:	eafff423 	b	8011189c <trunk_realloc>
8011480c:	e3510000 	cmp	r1, #0
80114810:	0a000002 	beq	80114820 <proc_realloc+0x3c>
80114814:	e5900144 	ldr	r0, [r0, #324]	; 0x144
80114818:	e2800004 	add	r0, r0, #4
8011481c:	ebfff3d1 	bl	80111768 <trunk_free>
80114820:	e3a00000 	mov	r0, #0
80114824:	e89da800 	ldm	sp, {fp, sp, pc}

80114828 <proc_free>:
80114828:	e3510000 	cmp	r1, #0
8011482c:	012fff1e 	bxeq	lr
80114830:	e5900144 	ldr	r0, [r0, #324]	; 0x144
80114834:	e2800004 	add	r0, r0, #4
80114838:	eafff3ca 	b	80111768 <trunk_free>

8011483c <proc_create>:
8011483c:	e1a0c00d 	mov	ip, sp
80114840:	e92ddff0 	push	{r4, r5, r6, r7, r8, r9, sl, fp, ip, lr, pc}
80114844:	e24cb004 	sub	fp, ip, #4
80114848:	e59f3248 	ldr	r3, [pc, #584]	; 80114a98 <proc_create+0x25c>
8011484c:	e24dd014 	sub	sp, sp, #20
80114850:	e59f2244 	ldr	r2, [pc, #580]	; 80114a9c <proc_create+0x260>
80114854:	e08f3003 	add	r3, pc, r3
80114858:	e1a05000 	mov	r5, r0
8011485c:	e08f2002 	add	r2, pc, r2
80114860:	e1a07001 	mov	r7, r1
80114864:	e3a04000 	mov	r4, #0
80114868:	e50b2030 	str	r2, [fp, #-48]	; 0xffffffd0
8011486c:	ea000002 	b	8011487c <proc_create+0x40>
80114870:	e2844001 	add	r4, r4, #1
80114874:	e3540080 	cmp	r4, #128	; 0x80
80114878:	0a000082 	beq	80114a88 <proc_create+0x24c>
8011487c:	e5931018 	ldr	r1, [r3, #24]
80114880:	e2833faa 	add	r3, r3, #680	; 0x2a8
80114884:	e3510000 	cmp	r1, #0
80114888:	1afffff8 	bne	80114870 <proc_create+0x34>
8011488c:	e3a02faa 	mov	r2, #680	; 0x2a8
80114890:	e59f9208 	ldr	r9, [pc, #520]	; 80114aa0 <proc_create+0x264>
80114894:	e0060492 	mul	r6, r2, r4
80114898:	e08f9009 	add	r9, pc, r9
8011489c:	e0868009 	add	r8, r6, r9
801148a0:	e1a00008 	mov	r0, r8
801148a4:	ebffe940 	bl	8010edac <memset>
801148a8:	e59f21f4 	ldr	r2, [pc, #500]	; 80114aa4 <proc_create+0x268>
801148ac:	e3e03000 	mvn	r3, #0
801148b0:	e5883010 	str	r3, [r8, #16]
801148b4:	e08f2002 	add	r2, pc, r2
801148b8:	e3a03001 	mov	r3, #1
801148bc:	e5883018 	str	r3, [r8, #24]
801148c0:	e2860f85 	add	r0, r6, #532	; 0x214
801148c4:	e0890000 	add	r0, r9, r0
801148c8:	e588400c 	str	r4, [r8, #12]
801148cc:	e5923000 	ldr	r3, [r2]
801148d0:	e5885004 	str	r5, [r8, #4]
801148d4:	e2833001 	add	r3, r3, #1
801148d8:	e7863009 	str	r3, [r6, r9]
801148dc:	e5823000 	str	r3, [r2]
801148e0:	ebffebc3 	bl	8010f7f4 <proto_init>
801148e4:	e3550000 	cmp	r5, #0
801148e8:	15973144 	ldrne	r3, [r7, #324]	; 0x144
801148ec:	15883144 	strne	r3, [r8, #324]	; 0x144
801148f0:	0a000042 	beq	80114a00 <proc_create+0x1c4>
801148f4:	e59f01ac 	ldr	r0, [pc, #428]	; 80114aa8 <proc_create+0x26c>
801148f8:	e2863034 	add	r3, r6, #52	; 0x34
801148fc:	e2871034 	add	r1, r7, #52	; 0x34
80114900:	e08f0000 	add	r0, pc, r0
80114904:	e0800003 	add	r0, r0, r3
80114908:	ebffe961 	bl	8010ee94 <strcpy>
8011490c:	e59f5198 	ldr	r5, [pc, #408]	; 80114aac <proc_create+0x270>
80114910:	e3a03faa 	mov	r3, #680	; 0x2a8
80114914:	e08f5005 	add	r5, pc, r5
80114918:	e0255493 	mla	r5, r3, r4, r5
8011491c:	e5953004 	ldr	r3, [r5, #4]
80114920:	e3530001 	cmp	r3, #1
80114924:	0a000051 	beq	80114a70 <proc_create+0x234>
80114928:	e3530000 	cmp	r3, #0
8011492c:	e59f717c 	ldr	r7, [pc, #380]	; 80114ab0 <proc_create+0x274>
80114930:	e51b2030 	ldr	r2, [fp, #-48]	; 0xffffffd0
80114934:	e2866f52 	add	r6, r6, #328	; 0x148
80114938:	03a03a0f 	moveq	r3, #61440	; 0xf000
8011493c:	03473fff 	movteq	r3, #32767	; 0x7fff
80114940:	15955148 	ldrne	r5, [r5, #328]	; 0x148
80114944:	e08f7007 	add	r7, pc, r7
80114948:	050b3034 	streq	r3, [fp, #-52]	; 0xffffffcc
8011494c:	03a05a0f 	moveq	r5, #61440	; 0xf000
80114950:	12853801 	addne	r3, r5, #65536	; 0x10000
80114954:	150b3034 	strne	r3, [fp, #-52]	; 0xffffffcc
80114958:	e59f3154 	ldr	r3, [pc, #340]	; 80114ab4 <proc_create+0x278>
8011495c:	03475ffd 	movteq	r5, #32765	; 0x7ffd
80114960:	e0866007 	add	r6, r6, r7
80114964:	13a09010 	movne	r9, #16
80114968:	03a09020 	moveq	r9, #32
8011496c:	e0859609 	add	r9, r5, r9, lsl #12
80114970:	e792a003 	ldr	sl, [r2, r3]
80114974:	e3a03faa 	mov	r3, #680	; 0x2a8
80114978:	e0277493 	mla	r7, r3, r4, r7
8011497c:	ebfff2d2 	bl	801114cc <kalloc4k>
80114980:	e4860004 	str	r0, [r6], #4
80114984:	e59a2024 	ldr	r2, [sl, #36]	; 0x24
80114988:	e1a01005 	mov	r1, r5
8011498c:	e5973144 	ldr	r3, [r7, #324]	; 0x144
80114990:	e2855a01 	add	r5, r5, #4096	; 0x1000
80114994:	e2822102 	add	r2, r2, #-2147483648	; 0x80000000
80114998:	e0802002 	add	r2, r0, r2
8011499c:	e5930000 	ldr	r0, [r3]
801149a0:	e3a03000 	mov	r3, #0
801149a4:	e58d3000 	str	r3, [sp]
801149a8:	e3a03003 	mov	r3, #3
801149ac:	ebffe250 	bl	8010d2f4 <map_page>
801149b0:	e1550009 	cmp	r5, r9
801149b4:	1afffff0 	bne	8011497c <proc_create+0x140>
801149b8:	e51b3034 	ldr	r3, [fp, #-52]	; 0xffffffcc
801149bc:	e5873204 	str	r3, [r7, #516]	; 0x204
801149c0:	eb000586 	bl	80115fe0 <flush_tlb>
801149c4:	e59f30ec 	ldr	r3, [pc, #236]	; 80114ab8 <proc_create+0x27c>
801149c8:	e3a00faa 	mov	r0, #680	; 0x2a8
801149cc:	e59f20e8 	ldr	r2, [pc, #232]	; 80114abc <proc_create+0x280>
801149d0:	e08f3003 	add	r3, pc, r3
801149d4:	e3a01050 	mov	r1, #80	; 0x50
801149d8:	e0243490 	mla	r4, r0, r4, r3
801149dc:	e1a03002 	mov	r3, r2
801149e0:	e51b2030 	ldr	r2, [fp, #-48]	; 0xffffffd0
801149e4:	e1a00008 	mov	r0, r8
801149e8:	e58411c8 	str	r1, [r4, #456]	; 0x1c8
801149ec:	e7923003 	ldr	r3, [r2, r3]
801149f0:	e5933000 	ldr	r3, [r3]
801149f4:	e5843024 	str	r3, [r4, #36]	; 0x24
801149f8:	e24bd028 	sub	sp, fp, #40	; 0x28
801149fc:	e89daff0 	ldm	sp, {r4, r5, r6, r7, r8, r9, sl, fp, sp, pc}
80114a00:	e598300c 	ldr	r3, [r8, #12]
80114a04:	e59f90b4 	ldr	r9, [pc, #180]	; 80114ac0 <proc_create+0x284>
80114a08:	e08f9009 	add	r9, pc, r9
80114a0c:	e0899703 	add	r9, r9, r3, lsl #14
80114a10:	e1a00009 	mov	r0, r9
80114a14:	eb00065b 	bl	80116388 <set_kernel_vm>
80114a18:	e3a00fdb 	mov	r0, #876	; 0x36c
80114a1c:	ebfff401 	bl	80111a28 <kmalloc>
80114a20:	e3a02fdb 	mov	r2, #876	; 0x36c
80114a24:	e1a01005 	mov	r1, r5
80114a28:	e5880144 	str	r0, [r8, #324]	; 0x144
80114a2c:	ebffe8de 	bl	8010edac <memset>
80114a30:	e5983144 	ldr	r3, [r8, #324]	; 0x144
80114a34:	e59f2088 	ldr	r2, [pc, #136]	; 80114ac4 <proc_create+0x288>
80114a38:	e3570000 	cmp	r7, #0
80114a3c:	e08f2002 	add	r2, pc, r2
80114a40:	e5832008 	str	r2, [r3, #8]
80114a44:	e59f207c 	ldr	r2, [pc, #124]	; 80114ac8 <proc_create+0x28c>
80114a48:	e5839000 	str	r9, [r3]
80114a4c:	e08f2002 	add	r2, pc, r2
80114a50:	e583200c 	str	r2, [r3, #12]
80114a54:	e59f2070 	ldr	r2, [pc, #112]	; 80114acc <proc_create+0x290>
80114a58:	e5835020 	str	r5, [r3, #32]
80114a5c:	e08f2002 	add	r2, pc, r2
80114a60:	e5838004 	str	r8, [r3, #4]
80114a64:	e5832010 	str	r2, [r3, #16]
80114a68:	0affffa7 	beq	8011490c <proc_create+0xd0>
80114a6c:	eaffffa0 	b	801148f4 <proc_create+0xb8>
80114a70:	e5950144 	ldr	r0, [r5, #324]	; 0x144
80114a74:	e3a01801 	mov	r1, #65536	; 0x10000
80114a78:	e2800004 	add	r0, r0, #4
80114a7c:	ebfff2ed 	bl	80111638 <trunk_malloc>
80114a80:	e5850148 	str	r0, [r5, #328]	; 0x148
80114a84:	eaffffcd 	b	801149c0 <proc_create+0x184>
80114a88:	e3a08000 	mov	r8, #0
80114a8c:	e1a00008 	mov	r0, r8
80114a90:	e24bd028 	sub	sp, fp, #40	; 0x28
80114a94:	e89daff0 	ldm	sp, {r4, r5, r6, r7, r8, r9, sl, fp, sp, pc}
80114a98:	002137a4 	eoreq	r3, r1, r4, lsr #15
80114a9c:	00003804 	andeq	r3, r0, r4, lsl #16
80114aa0:	00213760 	eoreq	r3, r1, r0, ror #14
80114aa4:	0000f744 	andeq	pc, r0, r4, asr #14
80114aa8:	002136f8 	strdeq	r3, [r1], -r8	; <UNPREDICTABLE>
80114aac:	002136e4 	eoreq	r3, r1, r4, ror #13
80114ab0:	002136b4 	strhteq	r3, [r1], -r4
80114ab4:	00000058 	andeq	r0, r0, r8, asr r0
80114ab8:	00213628 	eoreq	r3, r1, r8, lsr #12
80114abc:	00000048 	andeq	r0, r0, r8, asr #32
80114ac0:	000135f0 	strdeq	r3, [r1], -r0
80114ac4:	fffff420 			; <UNDEFINED> instruction: 0xfffff420
80114ac8:	fffff288 			; <UNDEFINED> instruction: 0xfffff288
80114acc:	fffff064 			; <UNDEFINED> instruction: 0xfffff064

80114ad0 <proc_load_elf>:
80114ad0:	e1a0c00d 	mov	ip, sp
80114ad4:	e92ddff0 	push	{r4, r5, r6, r7, r8, r9, sl, fp, ip, lr, pc}
80114ad8:	e1a04000 	mov	r4, r0
80114adc:	e24cb004 	sub	fp, ip, #4
80114ae0:	e24dd00c 	sub	sp, sp, #12
80114ae4:	e1a06001 	mov	r6, r1
80114ae8:	e1a05002 	mov	r5, r2
80114aec:	e1a00002 	mov	r0, r2
80114af0:	ebfff3cc 	bl	80111a28 <kmalloc>
80114af4:	e1a01006 	mov	r1, r6
80114af8:	e1a02005 	mov	r2, r5
80114afc:	e1a07000 	mov	r7, r0
80114b00:	ebffe889 	bl	8010ed2c <memcpy>
80114b04:	e5943144 	ldr	r3, [r4, #324]	; 0x144
80114b08:	e5931020 	ldr	r1, [r3, #32]
80114b0c:	e1b06621 	lsrs	r6, r1, #12
80114b10:	0a00000e 	beq	80114b50 <proc_load_elf+0x80>
80114b14:	e3a05000 	mov	r5, #0
80114b18:	e5930000 	ldr	r0, [r3]
80114b1c:	e2411a01 	sub	r1, r1, #4096	; 0x1000
80114b20:	ebfff69e 	bl	801125a0 <unmap_page_ref>
80114b24:	e5943144 	ldr	r3, [r4, #324]	; 0x144
80114b28:	e2855001 	add	r5, r5, #1
80114b2c:	e5931020 	ldr	r1, [r3, #32]
80114b30:	e2411a01 	sub	r1, r1, #4096	; 0x1000
80114b34:	e5831020 	str	r1, [r3, #32]
80114b38:	e3510000 	cmp	r1, #0
80114b3c:	0a000001 	beq	80114b48 <proc_load_elf+0x78>
80114b40:	e1560005 	cmp	r6, r5
80114b44:	cafffff3 	bgt	80114b18 <proc_load_elf+0x48>
80114b48:	eb000524 	bl	80115fe0 <flush_tlb>
80114b4c:	e5943144 	ldr	r3, [r4, #324]	; 0x144
80114b50:	e1d721b0 	ldrh	r2, [r7, #16]
80114b54:	e3a08000 	mov	r8, #0
80114b58:	e5838014 	str	r8, [r3, #20]
80114b5c:	e3520002 	cmp	r2, #2
80114b60:	e5838018 	str	r8, [r3, #24]
80114b64:	e583801c 	str	r8, [r3, #28]
80114b68:	1a00004d 	bne	80114ca4 <proc_load_elf+0x1d4>
80114b6c:	e1d722bc 	ldrh	r2, [r7, #44]	; 0x2c
80114b70:	e597a01c 	ldr	sl, [r7, #28]
80114b74:	e1520008 	cmp	r2, r8
80114b78:	e50b2030 	str	r2, [fp, #-48]	; 0xffffffd0
80114b7c:	0a000023 	beq	80114c10 <proc_load_elf+0x140>
80114b80:	e087a00a 	add	sl, r7, sl
80114b84:	ea000005 	b	80114ba0 <proc_load_elf+0xd0>
80114b88:	e1a00004 	mov	r0, r4
80114b8c:	e3a01001 	mov	r1, #1
80114b90:	ebfffc69 	bl	80113d3c <proc_expand_mem>
80114b94:	e3500000 	cmp	r0, #0
80114b98:	1a000039 	bne	80114c84 <proc_load_elf+0x1b4>
80114b9c:	e5943144 	ldr	r3, [r4, #324]	; 0x144
80114ba0:	e59a5008 	ldr	r5, [sl, #8]
80114ba4:	e59a2014 	ldr	r2, [sl, #20]
80114ba8:	e5930020 	ldr	r0, [r3, #32]
80114bac:	e0851002 	add	r1, r5, r2
80114bb0:	e1500001 	cmp	r0, r1
80114bb4:	3afffff3 	bcc	80114b88 <proc_load_elf+0xb8>
80114bb8:	e59a6004 	ldr	r6, [sl, #4]
80114bbc:	e3520000 	cmp	r2, #0
80114bc0:	0a00000d 	beq	80114bfc <proc_load_elf+0x12c>
80114bc4:	e0876006 	add	r6, r7, r6
80114bc8:	e0455006 	sub	r5, r5, r6
80114bcc:	e1a09006 	mov	r9, r6
80114bd0:	ea000000 	b	80114bd8 <proc_load_elf+0x108>
80114bd4:	e5943144 	ldr	r3, [r4, #324]	; 0x144
80114bd8:	e0851009 	add	r1, r5, r9
80114bdc:	e5930000 	ldr	r0, [r3]
80114be0:	ebfff62d 	bl	8011249c <resolve_kernel_address>
80114be4:	e4d93001 	ldrb	r3, [r9], #1
80114be8:	e5c03000 	strb	r3, [r0]
80114bec:	e0493006 	sub	r3, r9, r6
80114bf0:	e59a1014 	ldr	r1, [sl, #20]
80114bf4:	e1510003 	cmp	r1, r3
80114bf8:	8afffff5 	bhi	80114bd4 <proc_load_elf+0x104>
80114bfc:	e51b3030 	ldr	r3, [fp, #-48]	; 0xffffffd0
80114c00:	e2888001 	add	r8, r8, #1
80114c04:	e28aa020 	add	sl, sl, #32
80114c08:	e1530008 	cmp	r3, r8
80114c0c:	1affffe2 	bne	80114b9c <proc_load_elf+0xcc>
80114c10:	e5943004 	ldr	r3, [r4, #4]
80114c14:	e3530000 	cmp	r3, #0
80114c18:	0a00001e 	beq	80114c98 <proc_load_elf+0x1c8>
80114c1c:	e5943148 	ldr	r3, [r4, #328]	; 0x148
80114c20:	e2833801 	add	r3, r3, #65536	; 0x10000
80114c24:	e59f5094 	ldr	r5, [pc, #148]	; 80114cc0 <proc_load_elf+0x1f0>
80114c28:	e1a01004 	mov	r1, r4
80114c2c:	e5940008 	ldr	r0, [r4, #8]
80114c30:	e08f5005 	add	r5, pc, r5
80114c34:	e5972018 	ldr	r2, [r7, #24]
80114c38:	e2855044 	add	r5, r5, #68	; 0x44
80114c3c:	e5843204 	str	r3, [r4, #516]	; 0x204
80114c40:	e0850180 	add	r0, r5, r0, lsl #3
80114c44:	e3a03005 	mov	r3, #5
80114c48:	e58421cc 	str	r2, [r4, #460]	; 0x1cc
80114c4c:	e5843018 	str	r3, [r4, #24]
80114c50:	e3a03000 	mov	r3, #0
80114c54:	e5842208 	str	r2, [r4, #520]	; 0x208
80114c58:	e5843134 	str	r3, [r4, #308]	; 0x134
80114c5c:	e3e03000 	mvn	r3, #0
80114c60:	e584301c 	str	r3, [r4, #28]
80114c64:	ebffec73 	bl	8010fe38 <queue_in>
80114c68:	e3500000 	cmp	r0, #0
80114c6c:	0a00000e 	beq	80114cac <proc_load_elf+0x1dc>
80114c70:	e1a00007 	mov	r0, r7
80114c74:	ebfff38a 	bl	80111aa4 <kfree>
80114c78:	e3a00000 	mov	r0, #0
80114c7c:	e24bd028 	sub	sp, fp, #40	; 0x28
80114c80:	e89daff0 	ldm	sp, {r4, r5, r6, r7, r8, r9, sl, fp, sp, pc}
80114c84:	e1a00007 	mov	r0, r7
80114c88:	ebfff385 	bl	80111aa4 <kfree>
80114c8c:	e3e00000 	mvn	r0, #0
80114c90:	e24bd028 	sub	sp, fp, #40	; 0x28
80114c94:	e89daff0 	ldm	sp, {r4, r5, r6, r7, r8, r9, sl, fp, sp, pc}
80114c98:	e3a03a0f 	mov	r3, #61440	; 0xf000
80114c9c:	e3473fff 	movt	r3, #32767	; 0x7fff
80114ca0:	eaffffdf 	b	80114c24 <proc_load_elf+0x154>
80114ca4:	e3e00000 	mvn	r0, #0
80114ca8:	eafffff8 	b	80114c90 <proc_load_elf+0x1c0>
80114cac:	e5940008 	ldr	r0, [r4, #8]
80114cb0:	e1a01004 	mov	r1, r4
80114cb4:	e0850180 	add	r0, r5, r0, lsl #3
80114cb8:	ebffec38 	bl	8010fda0 <queue_push_head>
80114cbc:	eaffffeb 	b	80114c70 <proc_load_elf+0x1a0>
80114cc0:	0000f3c8 	andeq	pc, r0, r8, asr #7

80114cc4 <proc_usleep>:
80114cc4:	e1a0c00d 	mov	ip, sp
80114cc8:	e92dd8f0 	push	{r4, r5, r6, r7, fp, ip, lr, pc}
80114ccc:	e24cb004 	sub	fp, ip, #4
80114cd0:	e1a06000 	mov	r6, r0
80114cd4:	e1a07001 	mov	r7, r1
80114cd8:	ebfff656 	bl	80112638 <get_core_id>
80114cdc:	e59f305c 	ldr	r3, [pc, #92]	; 80114d40 <proc_usleep+0x7c>
80114ce0:	e08f3003 	add	r3, pc, r3
80114ce4:	e0832100 	add	r2, r3, r0, lsl #2
80114ce8:	e5924004 	ldr	r4, [r2, #4]
80114cec:	e3540000 	cmp	r4, #0
80114cf0:	089da8f0 	ldmeq	sp, {r4, r5, r6, r7, fp, sp, pc}
80114cf4:	e5940008 	ldr	r0, [r4, #8]
80114cf8:	e2835044 	add	r5, r3, #68	; 0x44
80114cfc:	e1a01004 	mov	r1, r4
80114d00:	e3a03000 	mov	r3, #0
80114d04:	e5847138 	str	r7, [r4, #312]	; 0x138
80114d08:	e0850180 	add	r0, r5, r0, lsl #3
80114d0c:	e584313c 	str	r3, [r4, #316]	; 0x13c
80114d10:	ebffec48 	bl	8010fe38 <queue_in>
80114d14:	e2501000 	subs	r1, r0, #0
80114d18:	0a000002 	beq	80114d28 <proc_usleep+0x64>
80114d1c:	e5940008 	ldr	r0, [r4, #8]
80114d20:	e0850180 	add	r0, r5, r0, lsl #3
80114d24:	ebffec4d 	bl	8010fe60 <queue_remove>
80114d28:	e3a03002 	mov	r3, #2
80114d2c:	e1a00006 	mov	r0, r6
80114d30:	e5843018 	str	r3, [r4, #24]
80114d34:	e24bd01c 	sub	sp, fp, #28
80114d38:	e89d68f0 	ldm	sp, {r4, r5, r6, r7, fp, sp, lr}
80114d3c:	ea000458 	b	80115ea4 <schedule>
80114d40:	0000f318 	andeq	pc, r0, r8, lsl r3	; <UNPREDICTABLE>

80114d44 <proc_block_on>:
80114d44:	e1a0c00d 	mov	ip, sp
80114d48:	e92dd8f0 	push	{r4, r5, r6, r7, fp, ip, lr, pc}
80114d4c:	e24cb004 	sub	fp, ip, #4
80114d50:	e1a07000 	mov	r7, r0
80114d54:	e1a06001 	mov	r6, r1
80114d58:	ebfff636 	bl	80112638 <get_core_id>
80114d5c:	e59f3090 	ldr	r3, [pc, #144]	; 80114df4 <proc_block_on+0xb0>
80114d60:	e08f3003 	add	r3, pc, r3
80114d64:	e0830100 	add	r0, r3, r0, lsl #2
80114d68:	e5904004 	ldr	r4, [r0, #4]
80114d6c:	e3540000 	cmp	r4, #0
80114d70:	089da8f0 	ldmeq	sp, {r4, r5, r6, r7, fp, sp, pc}
80114d74:	e5940008 	ldr	r0, [r4, #8]
80114d78:	e2835044 	add	r5, r3, #68	; 0x44
80114d7c:	e1a01004 	mov	r1, r4
80114d80:	e5846134 	str	r6, [r4, #308]	; 0x134
80114d84:	e584701c 	str	r7, [r4, #28]
80114d88:	e0850180 	add	r0, r5, r0, lsl #3
80114d8c:	ebffec29 	bl	8010fe38 <queue_in>
80114d90:	e2501000 	subs	r1, r0, #0
80114d94:	0a000002 	beq	80114da4 <proc_block_on+0x60>
80114d98:	e5940008 	ldr	r0, [r4, #8]
80114d9c:	e0850180 	add	r0, r5, r0, lsl #3
80114da0:	ebffec2e 	bl	8010fe60 <queue_remove>
80114da4:	e1a00004 	mov	r0, r4
80114da8:	e3a05004 	mov	r5, #4
80114dac:	e5845018 	str	r5, [r4, #24]
80114db0:	eb0002a0 	bl	80115838 <proc_ipc_get_task>
80114db4:	e3500000 	cmp	r0, #0
80114db8:	05943144 	ldreq	r3, [r4, #324]	; 0x144
80114dbc:	0a000005 	beq	80114dd8 <proc_block_on+0x94>
80114dc0:	e5903010 	ldr	r3, [r0, #16]
80114dc4:	e3530000 	cmp	r3, #0
80114dc8:	e5943144 	ldr	r3, [r4, #324]	; 0x144
80114dcc:	1583524c 	strne	r5, [r3, #588]	; 0x24c
80114dd0:	15837250 	strne	r7, [r3, #592]	; 0x250
80114dd4:	15836254 	strne	r6, [r3, #596]	; 0x254
80114dd8:	e5932310 	ldr	r2, [r3, #784]	; 0x310
80114ddc:	e3520000 	cmp	r2, #0
80114de0:	1583731c 	strne	r7, [r3, #796]	; 0x31c
80114de4:	15836320 	strne	r6, [r3, #800]	; 0x320
80114de8:	13a02004 	movne	r2, #4
80114dec:	15832318 	strne	r2, [r3, #792]	; 0x318
80114df0:	e89da8f0 	ldm	sp, {r4, r5, r6, r7, fp, sp, pc}
80114df4:	0000f298 	muleq	r0, r8, r2

80114df8 <proc_waitpid>:
80114df8:	e1a0c00d 	mov	ip, sp
80114dfc:	e92dd8f0 	push	{r4, r5, r6, r7, fp, ip, lr, pc}
80114e00:	e24cb004 	sub	fp, ip, #4
80114e04:	e1a05000 	mov	r5, r0
80114e08:	e1a04001 	mov	r4, r1
80114e0c:	ebfff609 	bl	80112638 <get_core_id>
80114e10:	e59f2070 	ldr	r2, [pc, #112]	; 80114e88 <proc_waitpid+0x90>
80114e14:	e08f2002 	add	r2, pc, r2
80114e18:	e0823100 	add	r3, r2, r0, lsl #2
80114e1c:	e5936004 	ldr	r6, [r3, #4]
80114e20:	e3560000 	cmp	r6, #0
80114e24:	089da8f0 	ldmeq	sp, {r4, r5, r6, r7, fp, sp, pc}
80114e28:	e59f305c 	ldr	r3, [pc, #92]	; 80114e8c <proc_waitpid+0x94>
80114e2c:	e3a01faa 	mov	r1, #680	; 0x2a8
80114e30:	e08f3003 	add	r3, pc, r3
80114e34:	e0233491 	mla	r3, r1, r4, r3
80114e38:	e5933018 	ldr	r3, [r3, #24]
80114e3c:	e3530000 	cmp	r3, #0
80114e40:	089da8f0 	ldmeq	sp, {r4, r5, r6, r7, fp, sp, pc}
80114e44:	e5960008 	ldr	r0, [r6, #8]
80114e48:	e2827044 	add	r7, r2, #68	; 0x44
80114e4c:	e1a01006 	mov	r1, r6
80114e50:	e5864020 	str	r4, [r6, #32]
80114e54:	e0870180 	add	r0, r7, r0, lsl #3
80114e58:	ebffebf6 	bl	8010fe38 <queue_in>
80114e5c:	e2501000 	subs	r1, r0, #0
80114e60:	0a000002 	beq	80114e70 <proc_waitpid+0x78>
80114e64:	e5960008 	ldr	r0, [r6, #8]
80114e68:	e0870180 	add	r0, r7, r0, lsl #3
80114e6c:	ebffebfb 	bl	8010fe60 <queue_remove>
80114e70:	e3a03003 	mov	r3, #3
80114e74:	e1a00005 	mov	r0, r5
80114e78:	e5863018 	str	r3, [r6, #24]
80114e7c:	e24bd01c 	sub	sp, fp, #28
80114e80:	e89d68f0 	ldm	sp, {r4, r5, r6, r7, fp, sp, lr}
80114e84:	ea000406 	b	80115ea4 <schedule>
80114e88:	0000f1e4 	andeq	pc, r0, r4, ror #3
80114e8c:	002131c8 	eoreq	r3, r1, r8, asr #3

80114e90 <proc_wakeup>:
80114e90:	e1a0c00d 	mov	ip, sp
80114e94:	e92ddbf0 	push	{r4, r5, r6, r7, r8, r9, fp, ip, lr, pc}
80114e98:	e59f4184 	ldr	r4, [pc, #388]	; 80115024 <proc_wakeup+0x194>
80114e9c:	e59f6184 	ldr	r6, [pc, #388]	; 80115028 <proc_wakeup+0x198>
80114ea0:	e24cb004 	sub	fp, ip, #4
80114ea4:	e08f4004 	add	r4, pc, r4
80114ea8:	e1a05000 	mov	r5, r0
80114eac:	e08f6006 	add	r6, pc, r6
80114eb0:	e1a08001 	mov	r8, r1
80114eb4:	e2847b55 	add	r7, r4, #87040	; 0x15400
80114eb8:	e2866044 	add	r6, r6, #68	; 0x44
80114ebc:	ea000005 	b	80114ed8 <proc_wakeup+0x48>
80114ec0:	e3530000 	cmp	r3, #0
80114ec4:	13530007 	cmpne	r3, #7
80114ec8:	1a00000c 	bne	80114f00 <proc_wakeup+0x70>
80114ecc:	e2844faa 	add	r4, r4, #680	; 0x2a8
80114ed0:	e1540007 	cmp	r4, r7
80114ed4:	089dabf0 	ldmeq	sp, {r4, r5, r6, r7, r8, r9, fp, sp, pc}
80114ed8:	e5943018 	ldr	r3, [r4, #24]
80114edc:	e3530004 	cmp	r3, #4
80114ee0:	1afffff6 	bne	80114ec0 <proc_wakeup+0x30>
80114ee4:	e5943134 	ldr	r3, [r4, #308]	; 0x134
80114ee8:	e3580000 	cmp	r8, #0
80114eec:	11530008 	cmpne	r3, r8
80114ef0:	1a000002 	bne	80114f00 <proc_wakeup+0x70>
80114ef4:	e594301c 	ldr	r3, [r4, #28]
80114ef8:	e1530005 	cmp	r3, r5
80114efc:	0a000035 	beq	80114fd8 <proc_wakeup+0x148>
80114f00:	e1a00004 	mov	r0, r4
80114f04:	eb00024b 	bl	80115838 <proc_ipc_get_task>
80114f08:	e3500000 	cmp	r0, #0
80114f0c:	0a000023 	beq	80114fa0 <proc_wakeup+0x110>
80114f10:	e5903010 	ldr	r3, [r0, #16]
80114f14:	e3530000 	cmp	r3, #0
80114f18:	e5943144 	ldr	r3, [r4, #324]	; 0x144
80114f1c:	0a000002 	beq	80114f2c <proc_wakeup+0x9c>
80114f20:	e5932250 	ldr	r2, [r3, #592]	; 0x250
80114f24:	e1550002 	cmp	r5, r2
80114f28:	0a00001e 	beq	80114fa8 <proc_wakeup+0x118>
80114f2c:	e59322b4 	ldr	r2, [r3, #692]	; 0x2b4
80114f30:	e1550002 	cmp	r5, r2
80114f34:	0a00000f 	beq	80114f78 <proc_wakeup+0xe8>
80114f38:	e593231c 	ldr	r2, [r3, #796]	; 0x31c
80114f3c:	e1550002 	cmp	r5, r2
80114f40:	1affffe1 	bne	80114ecc <proc_wakeup+0x3c>
80114f44:	e5932310 	ldr	r2, [r3, #784]	; 0x310
80114f48:	e3520000 	cmp	r2, #0
80114f4c:	0affffde 	beq	80114ecc <proc_wakeup+0x3c>
80114f50:	e5932320 	ldr	r2, [r3, #800]	; 0x320
80114f54:	e1580002 	cmp	r8, r2
80114f58:	1affffdb 	bne	80114ecc <proc_wakeup+0x3c>
80114f5c:	e3a00005 	mov	r0, #5
80114f60:	e3e01000 	mvn	r1, #0
80114f64:	e3a02000 	mov	r2, #0
80114f68:	e5830318 	str	r0, [r3, #792]	; 0x318
80114f6c:	e583131c 	str	r1, [r3, #796]	; 0x31c
80114f70:	e5832320 	str	r2, [r3, #800]	; 0x320
80114f74:	eaffffd4 	b	80114ecc <proc_wakeup+0x3c>
80114f78:	e59322b8 	ldr	r2, [r3, #696]	; 0x2b8
80114f7c:	e1580002 	cmp	r8, r2
80114f80:	1affffec 	bne	80114f38 <proc_wakeup+0xa8>
80114f84:	e3a00005 	mov	r0, #5
80114f88:	e3e01000 	mvn	r1, #0
80114f8c:	e3a02000 	mov	r2, #0
80114f90:	e58302b0 	str	r0, [r3, #688]	; 0x2b0
80114f94:	e58312b4 	str	r1, [r3, #692]	; 0x2b4
80114f98:	e58322b8 	str	r2, [r3, #696]	; 0x2b8
80114f9c:	eaffffe5 	b	80114f38 <proc_wakeup+0xa8>
80114fa0:	e5943144 	ldr	r3, [r4, #324]	; 0x144
80114fa4:	eaffffe0 	b	80114f2c <proc_wakeup+0x9c>
80114fa8:	e3580000 	cmp	r8, #0
80114fac:	0a000002 	beq	80114fbc <proc_wakeup+0x12c>
80114fb0:	e5932254 	ldr	r2, [r3, #596]	; 0x254
80114fb4:	e1580002 	cmp	r8, r2
80114fb8:	1affffdb 	bne	80114f2c <proc_wakeup+0x9c>
80114fbc:	e3a00005 	mov	r0, #5
80114fc0:	e3e01000 	mvn	r1, #0
80114fc4:	e3a02000 	mov	r2, #0
80114fc8:	e583024c 	str	r0, [r3, #588]	; 0x24c
80114fcc:	e5831250 	str	r1, [r3, #592]	; 0x250
80114fd0:	e5832254 	str	r2, [r3, #596]	; 0x254
80114fd4:	eaffffd4 	b	80114f2c <proc_wakeup+0x9c>
80114fd8:	e5940008 	ldr	r0, [r4, #8]
80114fdc:	e3a02005 	mov	r2, #5
80114fe0:	e3a03000 	mov	r3, #0
80114fe4:	e1a01004 	mov	r1, r4
80114fe8:	e5843134 	str	r3, [r4, #308]	; 0x134
80114fec:	e3e03000 	mvn	r3, #0
80114ff0:	e0860180 	add	r0, r6, r0, lsl #3
80114ff4:	e5842018 	str	r2, [r4, #24]
80114ff8:	e584301c 	str	r3, [r4, #28]
80114ffc:	ebffeb8d 	bl	8010fe38 <queue_in>
80115000:	e3500000 	cmp	r0, #0
80115004:	0a000001 	beq	80115010 <proc_wakeup+0x180>
80115008:	e5943018 	ldr	r3, [r4, #24]
8011500c:	eaffffab 	b	80114ec0 <proc_wakeup+0x30>
80115010:	e5940008 	ldr	r0, [r4, #8]
80115014:	e1a01004 	mov	r1, r4
80115018:	e0860180 	add	r0, r6, r0, lsl #3
8011501c:	ebffeb5f 	bl	8010fda0 <queue_push_head>
80115020:	eafffff8 	b	80115008 <proc_wakeup+0x178>
80115024:	00213154 	eoreq	r3, r1, r4, asr r1
80115028:	0000f14c 	andeq	pc, r0, ip, asr #2

8011502c <kfork_raw>:
8011502c:	e1a0c00d 	mov	ip, sp
80115030:	e92ddff0 	push	{r4, r5, r6, r7, r8, r9, sl, fp, ip, lr, pc}
80115034:	e1a04001 	mov	r4, r1
80115038:	e24cb004 	sub	fp, ip, #4
8011503c:	e24dd00c 	sub	sp, sp, #12
80115040:	e1a01002 	mov	r1, r2
80115044:	e1a00004 	mov	r0, r4
80115048:	e1a06002 	mov	r6, r2
8011504c:	ebfffdfa 	bl	8011483c <proc_create>
80115050:	e2507000 	subs	r7, r0, #0
80115054:	0a000050 	beq	8011519c <kfork_raw+0x170>
80115058:	e596200c 	ldr	r2, [r6, #12]
8011505c:	e2861f72 	add	r1, r6, #456	; 0x1c8
80115060:	e5963014 	ldr	r3, [r6, #20]
80115064:	e2870f72 	add	r0, r7, #456	; 0x1c8
80115068:	e1c721f0 	strd	r2, [r7, #16]
8011506c:	e3a02044 	mov	r2, #68	; 0x44
80115070:	ebffe72d 	bl	8010ed2c <memcpy>
80115074:	e3540000 	cmp	r4, #0
80115078:	0a000006 	beq	80115098 <kfork_raw+0x6c>
8011507c:	e5973148 	ldr	r3, [r7, #328]	; 0x148
80115080:	e2833801 	add	r3, r3, #65536	; 0x10000
80115084:	e3c33007 	bic	r3, r3, #7
80115088:	e5873204 	str	r3, [r7, #516]	; 0x204
8011508c:	e1a00007 	mov	r0, r7
80115090:	e24bd028 	sub	sp, fp, #40	; 0x28
80115094:	e89daff0 	ldm	sp, {r4, r5, r6, r7, r8, r9, sl, fp, sp, pc}
80115098:	e5963144 	ldr	r3, [r6, #324]	; 0x144
8011509c:	e5938020 	ldr	r8, [r3, #32]
801150a0:	e7eb2058 	ubfx	r2, r8, #0, #12
801150a4:	e1a08628 	lsr	r8, r8, #12
801150a8:	e3520000 	cmp	r2, #0
801150ac:	12888001 	addne	r8, r8, #1
801150b0:	0a000036 	beq	80115190 <kfork_raw+0x164>
801150b4:	e3a05000 	mov	r5, #0
801150b8:	e1a0a005 	mov	sl, r5
801150bc:	ea000000 	b	801150c4 <kfork_raw+0x98>
801150c0:	e5963144 	ldr	r3, [r6, #324]	; 0x144
801150c4:	e1a09605 	lsl	r9, r5, #12
801150c8:	e5930000 	ldr	r0, [r3]
801150cc:	e1a01009 	mov	r1, r9
801150d0:	e2855001 	add	r5, r5, #1
801150d4:	ebffe0d7 	bl	8010d438 <resolve_phy_address>
801150d8:	e597c144 	ldr	ip, [r7, #324]	; 0x144
801150dc:	e1a02000 	mov	r2, r0
801150e0:	e1a04000 	mov	r4, r0
801150e4:	e1a01009 	mov	r1, r9
801150e8:	e3a03002 	mov	r3, #2
801150ec:	e59c0000 	ldr	r0, [ip]
801150f0:	e58da000 	str	sl, [sp]
801150f4:	ebfff511 	bl	80112540 <map_page_ref>
801150f8:	e5960144 	ldr	r0, [r6, #324]	; 0x144
801150fc:	e1a02004 	mov	r2, r4
80115100:	e1a01009 	mov	r1, r9
80115104:	e3a03002 	mov	r3, #2
80115108:	e5900000 	ldr	r0, [r0]
8011510c:	e58da000 	str	sl, [sp]
80115110:	ebffe077 	bl	8010d2f4 <map_page>
80115114:	e1550008 	cmp	r5, r8
80115118:	3affffe8 	bcc	801150c0 <kfork_raw+0x94>
8011511c:	eb0003af 	bl	80115fe0 <flush_tlb>
80115120:	e5973144 	ldr	r3, [r7, #324]	; 0x144
80115124:	e596200c 	ldr	r2, [r6, #12]
80115128:	e1a08608 	lsl	r8, r8, #12
8011512c:	e2875f51 	add	r5, r7, #324	; 0x144
80115130:	e2879f71 	add	r9, r7, #452	; 0x1c4
80115134:	e5838020 	str	r8, [r3, #32]
80115138:	e2868f51 	add	r8, r6, #324	; 0x144
8011513c:	e5872010 	str	r2, [r7, #16]
80115140:	ea000000 	b	80115148 <kfork_raw+0x11c>
80115144:	e5973144 	ldr	r3, [r7, #324]	; 0x144
80115148:	e5b51004 	ldr	r1, [r5, #4]!
8011514c:	e5930000 	ldr	r0, [r3]
80115150:	e5b84004 	ldr	r4, [r8, #4]!
80115154:	ebfff4d0 	bl	8011249c <resolve_kernel_address>
80115158:	e5963144 	ldr	r3, [r6, #324]	; 0x144
8011515c:	e1a01004 	mov	r1, r4
80115160:	e1a04000 	mov	r4, r0
80115164:	e5930000 	ldr	r0, [r3]
80115168:	ebfff4cb 	bl	8011249c <resolve_kernel_address>
8011516c:	e3a02a01 	mov	r2, #4096	; 0x1000
80115170:	e1a01000 	mov	r1, r0
80115174:	e1a00004 	mov	r0, r4
80115178:	ebffe6eb 	bl	8010ed2c <memcpy>
8011517c:	e1550009 	cmp	r5, r9
80115180:	1affffef 	bne	80115144 <kfork_raw+0x118>
80115184:	e1a00007 	mov	r0, r7
80115188:	e24bd028 	sub	sp, fp, #40	; 0x28
8011518c:	e89daff0 	ldm	sp, {r4, r5, r6, r7, r8, r9, sl, fp, sp, pc}
80115190:	e3580000 	cmp	r8, #0
80115194:	1affffc6 	bne	801150b4 <kfork_raw+0x88>
80115198:	eaffffdf 	b	8011511c <kfork_raw+0xf0>
8011519c:	e59f000c 	ldr	r0, [pc, #12]	; 801151b0 <kfork_raw+0x184>
801151a0:	e596100c 	ldr	r1, [r6, #12]
801151a4:	e08f0000 	add	r0, pc, r0
801151a8:	ebffeb74 	bl	8010ff80 <printf>
801151ac:	eaffffb6 	b	8011508c <kfork_raw+0x60>
801151b0:	000018b8 			; <UNDEFINED> instruction: 0x000018b8

801151b4 <kfork>:
801151b4:	e1a0c00d 	mov	ip, sp
801151b8:	e92ddbf0 	push	{r4, r5, r6, r7, r8, r9, fp, ip, lr, pc}
801151bc:	e24cb004 	sub	fp, ip, #4
801151c0:	e1a04000 	mov	r4, r0
801151c4:	e1a05001 	mov	r5, r1
801151c8:	ebfff51a 	bl	80112638 <get_core_id>
801151cc:	e59f3144 	ldr	r3, [pc, #324]	; 80115318 <kfork+0x164>
801151d0:	e1a02000 	mov	r2, r0
801151d4:	e1a01005 	mov	r1, r5
801151d8:	e08f3003 	add	r3, pc, r3
801151dc:	e1a00004 	mov	r0, r4
801151e0:	e0833102 	add	r3, r3, r2, lsl #2
801151e4:	e59f5130 	ldr	r5, [pc, #304]	; 8011531c <kfork+0x168>
801151e8:	e08f5005 	add	r5, pc, r5
801151ec:	e5936004 	ldr	r6, [r3, #4]
801151f0:	e1a02006 	mov	r2, r6
801151f4:	ebffff8c 	bl	8011502c <kfork_raw>
801151f8:	e59f3120 	ldr	r3, [pc, #288]	; 80115320 <kfork+0x16c>
801151fc:	e1a04000 	mov	r4, r0
80115200:	e7953003 	ldr	r3, [r5, r3]
80115204:	e5937050 	ldr	r7, [r3, #80]	; 0x50
80115208:	e3570001 	cmp	r7, #1
8011520c:	0a000036 	beq	801152ec <kfork+0x138>
80115210:	e5903014 	ldr	r3, [r0, #20]
80115214:	e3530000 	cmp	r3, #0
80115218:	ba000033 	blt	801152ec <kfork+0x138>
8011521c:	e3570000 	cmp	r7, #0
80115220:	0a00003a 	beq	80115310 <kfork+0x15c>
80115224:	e59f10f8 	ldr	r1, [pc, #248]	; 80115324 <kfork+0x170>
80115228:	e3a03000 	mov	r3, #0
8011522c:	e1a02003 	mov	r2, r3
80115230:	e7958001 	ldr	r8, [r5, r1]
80115234:	e2889004 	add	r9, r8, #4
80115238:	ea000007 	b	8011525c <kfork+0xa8>
8011523c:	e5911004 	ldr	r1, [r1, #4]
80115240:	e59c0028 	ldr	r0, [ip, #40]	; 0x28
80115244:	e5911028 	ldr	r1, [r1, #40]	; 0x28
80115248:	e1500001 	cmp	r0, r1
8011524c:	81a03002 	movhi	r3, r2
80115250:	e2822001 	add	r2, r2, #1
80115254:	e1570002 	cmp	r7, r2
80115258:	0a000025 	beq	801152f4 <kfork+0x140>
8011525c:	e799c182 	ldr	ip, [r9, r2, lsl #3]
80115260:	e0881183 	add	r1, r8, r3, lsl #3
80115264:	e59ce018 	ldr	lr, [ip, #24]
80115268:	e35e0001 	cmp	lr, #1
8011526c:	1afffff2 	bne	8011523c <kfork+0x88>
80115270:	e59f30b0 	ldr	r3, [pc, #176]	; 80115328 <kfork+0x174>
80115274:	e5842008 	str	r2, [r4, #8]
80115278:	e7953003 	ldr	r3, [r5, r3]
8011527c:	e5d33000 	ldrb	r3, [r3]
80115280:	e3530000 	cmp	r3, #0
80115284:	0a000002 	beq	80115294 <kfork+0xe0>
80115288:	e5943004 	ldr	r3, [r4, #4]
8011528c:	e3530000 	cmp	r3, #0
80115290:	0a00000f 	beq	801152d4 <kfork+0x120>
80115294:	e59f5090 	ldr	r5, [pc, #144]	; 8011532c <kfork+0x178>
80115298:	e3a00005 	mov	r0, #5
8011529c:	e3a03000 	mov	r3, #0
801152a0:	e5840018 	str	r0, [r4, #24]
801152a4:	e08f5005 	add	r5, pc, r5
801152a8:	e5843134 	str	r3, [r4, #308]	; 0x134
801152ac:	e2855044 	add	r5, r5, #68	; 0x44
801152b0:	e3e03000 	mvn	r3, #0
801152b4:	e1a01004 	mov	r1, r4
801152b8:	e0850182 	add	r0, r5, r2, lsl #3
801152bc:	e584301c 	str	r3, [r4, #28]
801152c0:	ebffeadc 	bl	8010fe38 <queue_in>
801152c4:	e3500000 	cmp	r0, #0
801152c8:	0a00000b 	beq	801152fc <kfork+0x148>
801152cc:	e1a00004 	mov	r0, r4
801152d0:	e89dabf0 	ldm	sp, {r4, r5, r6, r7, r8, r9, fp, sp, pc}
801152d4:	e594200c 	ldr	r2, [r4, #12]
801152d8:	e3a00002 	mov	r0, #2
801152dc:	e596100c 	ldr	r1, [r6, #12]
801152e0:	eb00036f 	bl	801160a4 <kev_push>
801152e4:	e1a00004 	mov	r0, r4
801152e8:	e89dabf0 	ldm	sp, {r4, r5, r6, r7, r8, r9, fp, sp, pc}
801152ec:	e3a02000 	mov	r2, #0
801152f0:	eaffffde 	b	80115270 <kfork+0xbc>
801152f4:	e1a02003 	mov	r2, r3
801152f8:	eaffffdc 	b	80115270 <kfork+0xbc>
801152fc:	e5940008 	ldr	r0, [r4, #8]
80115300:	e1a01004 	mov	r1, r4
80115304:	e0850180 	add	r0, r5, r0, lsl #3
80115308:	ebffeaa4 	bl	8010fda0 <queue_push_head>
8011530c:	eaffffee 	b	801152cc <kfork+0x118>
80115310:	e1a02007 	mov	r2, r7
80115314:	eaffffd5 	b	80115270 <kfork+0xbc>
80115318:	0000ee20 	andeq	lr, r0, r0, lsr #28
8011531c:	00002e78 	andeq	r2, r0, r8, ror lr
80115320:	00000058 	andeq	r0, r0, r8, asr r0
80115324:	00000064 	andeq	r0, r0, r4, rrx
80115328:	00000004 	andeq	r0, r0, r4
8011532c:	0000ed54 	andeq	lr, r0, r4, asr sp

80115330 <get_procs>:
80115330:	e1a0c00d 	mov	ip, sp
80115334:	e92ddff0 	push	{r4, r5, r6, r7, r8, r9, sl, fp, ip, lr, pc}
80115338:	e59f8140 	ldr	r8, [pc, #320]	; 80115480 <get_procs+0x150>
8011533c:	e24cb004 	sub	fp, ip, #4
80115340:	e24dd00c 	sub	sp, sp, #12
80115344:	e08f8008 	add	r8, pc, r8
80115348:	e1a07000 	mov	r7, r0
8011534c:	ebfff4b9 	bl	80112638 <get_core_id>
80115350:	e0883100 	add	r3, r8, r0, lsl #2
80115354:	e59f5128 	ldr	r5, [pc, #296]	; 80115484 <get_procs+0x154>
80115358:	e08f5005 	add	r5, pc, r5
8011535c:	e5936004 	ldr	r6, [r3, #4]
80115360:	ebfff4b4 	bl	80112638 <get_core_id>
80115364:	e0888100 	add	r8, r8, r0, lsl #2
80115368:	e2854b55 	add	r4, r5, #87040	; 0x15400
8011536c:	e1a03005 	mov	r3, r5
80115370:	e3a01000 	mov	r1, #0
80115374:	e5980004 	ldr	r0, [r8, #4]
80115378:	ea000005 	b	80115394 <get_procs+0x64>
8011537c:	e593c014 	ldr	ip, [r3, #20]
80115380:	e152000c 	cmp	r2, ip
80115384:	0a000008 	beq	801153ac <get_procs+0x7c>
80115388:	e2833faa 	add	r3, r3, #680	; 0x2a8
8011538c:	e1530004 	cmp	r3, r4
80115390:	0a000009 	beq	801153bc <get_procs+0x8c>
80115394:	e5932018 	ldr	r2, [r3, #24]
80115398:	e3520000 	cmp	r2, #0
8011539c:	0afffff9 	beq	80115388 <get_procs+0x58>
801153a0:	e5902014 	ldr	r2, [r0, #20]
801153a4:	e3520000 	cmp	r2, #0
801153a8:	1afffff3 	bne	8011537c <get_procs+0x4c>
801153ac:	e2833faa 	add	r3, r3, #680	; 0x2a8
801153b0:	e2811001 	add	r1, r1, #1
801153b4:	e1530004 	cmp	r3, r4
801153b8:	1afffff5 	bne	80115394 <get_procs+0x64>
801153bc:	e3510000 	cmp	r1, #0
801153c0:	e5871000 	str	r1, [r7]
801153c4:	0a000029 	beq	80115470 <get_procs+0x140>
801153c8:	e3a09f4d 	mov	r9, #308	; 0x134
801153cc:	e0010199 	mul	r1, r9, r1
801153d0:	e3510000 	cmp	r1, #0
801153d4:	0a000025 	beq	80115470 <get_procs+0x140>
801153d8:	e5960144 	ldr	r0, [r6, #324]	; 0x144
801153dc:	e2800004 	add	r0, r0, #4
801153e0:	ebfff094 	bl	80111638 <trunk_malloc>
801153e4:	e250a000 	subs	sl, r0, #0
801153e8:	0a000020 	beq	80115470 <get_procs+0x140>
801153ec:	e3a08000 	mov	r8, #0
801153f0:	ea000005 	b	8011540c <get_procs+0xdc>
801153f4:	e595e014 	ldr	lr, [r5, #20]
801153f8:	e15c000e 	cmp	ip, lr
801153fc:	0a00000f 	beq	80115440 <get_procs+0x110>
80115400:	e2855faa 	add	r5, r5, #680	; 0x2a8
80115404:	e1550004 	cmp	r5, r4
80115408:	0a000014 	beq	80115460 <get_procs+0x130>
8011540c:	e5973000 	ldr	r3, [r7]
80115410:	e1530008 	cmp	r3, r8
80115414:	da000011 	ble	80115460 <get_procs+0x130>
80115418:	e5953018 	ldr	r3, [r5, #24]
8011541c:	e3530000 	cmp	r3, #0
80115420:	0afffff6 	beq	80115400 <get_procs+0xd0>
80115424:	e023a899 	mla	r3, r9, r8, sl
80115428:	e596c014 	ldr	ip, [r6, #20]
8011542c:	e1a01005 	mov	r1, r5
80115430:	e3a02f4d 	mov	r2, #308	; 0x134
80115434:	e1a00003 	mov	r0, r3
80115438:	e35c0000 	cmp	ip, #0
8011543c:	1affffec 	bne	801153f4 <get_procs+0xc4>
80115440:	e50b3030 	str	r3, [fp, #-48]	; 0xffffffd0
80115444:	ebffe638 	bl	8010ed2c <memcpy>
80115448:	e5952144 	ldr	r2, [r5, #324]	; 0x144
8011544c:	e2888001 	add	r8, r8, #1
80115450:	e51b3030 	ldr	r3, [fp, #-48]	; 0xffffffd0
80115454:	e5922020 	ldr	r2, [r2, #32]
80115458:	e583202c 	str	r2, [r3, #44]	; 0x2c
8011545c:	eaffffe7 	b	80115400 <get_procs+0xd0>
80115460:	e1a0000a 	mov	r0, sl
80115464:	e5878000 	str	r8, [r7]
80115468:	e24bd028 	sub	sp, fp, #40	; 0x28
8011546c:	e89daff0 	ldm	sp, {r4, r5, r6, r7, r8, r9, sl, fp, sp, pc}
80115470:	e3a0a000 	mov	sl, #0
80115474:	e1a0000a 	mov	r0, sl
80115478:	e24bd028 	sub	sp, fp, #40	; 0x28
8011547c:	e89daff0 	ldm	sp, {r4, r5, r6, r7, r8, r9, sl, fp, sp, pc}
80115480:	0000ecb4 			; <UNDEFINED> instruction: 0x0000ecb4
80115484:	00212ca0 	eoreq	r2, r1, r0, lsr #25

80115488 <renew_kernel_tic>:
80115488:	e1a0c00d 	mov	ip, sp
8011548c:	e92ddff0 	push	{r4, r5, r6, r7, r8, r9, sl, fp, ip, lr, pc}
80115490:	e24cb004 	sub	fp, ip, #4
80115494:	e59f40dc 	ldr	r4, [pc, #220]	; 80115578 <renew_kernel_tic+0xf0>
80115498:	e24dd00c 	sub	sp, sp, #12
8011549c:	e59f80d8 	ldr	r8, [pc, #216]	; 8011557c <renew_kernel_tic+0xf4>
801154a0:	e08f4004 	add	r4, pc, r4
801154a4:	e1a07000 	mov	r7, r0
801154a8:	e08f8008 	add	r8, pc, r8
801154ac:	e1a06001 	mov	r6, r1
801154b0:	e2845b55 	add	r5, r4, #87040	; 0x15400
801154b4:	e2888044 	add	r8, r8, #68	; 0x44
801154b8:	e50b1030 	str	r1, [fp, #-48]	; 0xffffffd0
801154bc:	e3a0a005 	mov	sl, #5
801154c0:	e3a09000 	mov	r9, #0
801154c4:	ea000004 	b	801154dc <renew_kernel_tic+0x54>
801154c8:	e3510002 	cmp	r1, #2
801154cc:	0a00000d 	beq	80115508 <renew_kernel_tic+0x80>
801154d0:	e2844faa 	add	r4, r4, #680	; 0x2a8
801154d4:	e1540005 	cmp	r4, r5
801154d8:	0a000008 	beq	80115500 <renew_kernel_tic+0x78>
801154dc:	e5941018 	ldr	r1, [r4, #24]
801154e0:	e3510006 	cmp	r1, #6
801154e4:	1afffff7 	bne	801154c8 <renew_kernel_tic+0x40>
801154e8:	e5941140 	ldr	r1, [r4, #320]	; 0x140
801154ec:	e2844faa 	add	r4, r4, #680	; 0x2a8
801154f0:	e0811007 	add	r1, r1, r7
801154f4:	e5041168 	str	r1, [r4, #-360]	; 0xfffffe98
801154f8:	e1540005 	cmp	r4, r5
801154fc:	1afffff6 	bne	801154dc <renew_kernel_tic+0x54>
80115500:	e24bd028 	sub	sp, fp, #40	; 0x28
80115504:	e89daff0 	ldm	sp, {r4, r5, r6, r7, r8, r9, sl, fp, sp, pc}
80115508:	e5941138 	ldr	r1, [r4, #312]	; 0x138
8011550c:	e284cd05 	add	ip, r4, #320	; 0x140
80115510:	e594013c 	ldr	r0, [r4, #316]	; 0x13c
80115514:	e0511007 	subs	r1, r1, r7
80115518:	e0c00006 	sbc	r0, r0, r6
8011551c:	e3510001 	cmp	r1, #1
80115520:	e2d03000 	sbcs	r3, r0, #0
80115524:	a50c1008 	strge	r1, [ip, #-8]
80115528:	a50c0004 	strge	r0, [ip, #-4]
8011552c:	aaffffe7 	bge	801154d0 <renew_kernel_tic+0x48>
80115530:	e3a02000 	mov	r2, #0
80115534:	e3a03000 	mov	r3, #0
80115538:	e14c20f8 	strd	r2, [ip, #-8]
8011553c:	e1a01004 	mov	r1, r4
80115540:	e3e0c000 	mvn	ip, #0
80115544:	e584a018 	str	sl, [r4, #24]
80115548:	e5940008 	ldr	r0, [r4, #8]
8011554c:	e5849134 	str	r9, [r4, #308]	; 0x134
80115550:	e584c01c 	str	ip, [r4, #28]
80115554:	e0880180 	add	r0, r8, r0, lsl #3
80115558:	ebffea36 	bl	8010fe38 <queue_in>
8011555c:	e3500000 	cmp	r0, #0
80115560:	1affffda 	bne	801154d0 <renew_kernel_tic+0x48>
80115564:	e5940008 	ldr	r0, [r4, #8]
80115568:	e1a01004 	mov	r1, r4
8011556c:	e0880180 	add	r0, r8, r0, lsl #3
80115570:	ebffea0a 	bl	8010fda0 <queue_push_head>
80115574:	eaffffd5 	b	801154d0 <renew_kernel_tic+0x48>
80115578:	00212b58 	eoreq	r2, r1, r8, asr fp
8011557c:	0000eb50 	andeq	lr, r0, r0, asr fp

80115580 <renew_kernel_sec>:
80115580:	e59f3030 	ldr	r3, [pc, #48]	; 801155b8 <renew_kernel_sec+0x38>
80115584:	e3a00000 	mov	r0, #0
80115588:	e08f3003 	add	r3, pc, r3
8011558c:	e2831b55 	add	r1, r3, #87040	; 0x15400
80115590:	e5932018 	ldr	r2, [r3, #24]
80115594:	e2833faa 	add	r3, r3, #680	; 0x2a8
80115598:	e3520000 	cmp	r2, #0
8011559c:	13520007 	cmpne	r2, #7
801155a0:	15132168 	ldrne	r2, [r3, #-360]	; 0xfffffe98
801155a4:	15032280 	strne	r2, [r3, #-640]	; 0xfffffd80
801155a8:	15030168 	strne	r0, [r3, #-360]	; 0xfffffe98
801155ac:	e1530001 	cmp	r3, r1
801155b0:	1afffff6 	bne	80115590 <renew_kernel_sec+0x10>
801155b4:	e12fff1e 	bx	lr
801155b8:	00212a70 	eoreq	r2, r1, r0, ror sl

801155bc <proc_get_proc>:
801155bc:	e3500000 	cmp	r0, #0
801155c0:	012fff1e 	bxeq	lr
801155c4:	e59f103c 	ldr	r1, [pc, #60]	; 80115608 <proc_get_proc+0x4c>
801155c8:	e3a02faa 	mov	r2, #680	; 0x2a8
801155cc:	e08f1001 	add	r1, pc, r1
801155d0:	e5903004 	ldr	r3, [r0, #4]
801155d4:	e3530000 	cmp	r3, #0
801155d8:	012fff1e 	bxeq	lr
801155dc:	e5903010 	ldr	r3, [r0, #16]
801155e0:	e353007f 	cmp	r3, #127	; 0x7f
801155e4:	8a000005 	bhi	80115600 <proc_get_proc+0x44>
801155e8:	e0231392 	mla	r3, r2, r3, r1
801155ec:	e1a00003 	mov	r0, r3
801155f0:	e5933018 	ldr	r3, [r3, #24]
801155f4:	e3530000 	cmp	r3, #0
801155f8:	13530007 	cmpne	r3, #7
801155fc:	1afffff3 	bne	801155d0 <proc_get_proc+0x14>
80115600:	e3a00000 	mov	r0, #0
80115604:	e12fff1e 	bx	lr
80115608:	00212a2c 	eoreq	r2, r1, ip, lsr #20

8011560c <kfork_core_halt>:
8011560c:	e59f2054 	ldr	r2, [pc, #84]	; 80115668 <kfork_core_halt+0x5c>
80115610:	e1a0c00d 	mov	ip, sp
80115614:	e3a01000 	mov	r1, #0
80115618:	e92dd8f0 	push	{r4, r5, r6, r7, fp, ip, lr, pc}
8011561c:	e08f2002 	add	r2, pc, r2
80115620:	e24cb004 	sub	fp, ip, #4
80115624:	e1a05000 	mov	r5, r0
80115628:	e1a00001 	mov	r0, r1
8011562c:	e59f6038 	ldr	r6, [pc, #56]	; 8011566c <kfork_core_halt+0x60>
80115630:	ebfffe7d 	bl	8011502c <kfork_raw>
80115634:	e1a04000 	mov	r4, r0
80115638:	e59f1030 	ldr	r1, [pc, #48]	; 80115670 <kfork_core_halt+0x64>
8011563c:	e2800034 	add	r0, r0, #52	; 0x34
80115640:	e08f6006 	add	r6, pc, r6
80115644:	e5845008 	str	r5, [r4, #8]
80115648:	e08f1001 	add	r1, pc, r1
8011564c:	ebffe610 	bl	8010ee94 <strcpy>
80115650:	e59f301c 	ldr	r3, [pc, #28]	; 80115674 <kfork_core_halt+0x68>
80115654:	e1a00004 	mov	r0, r4
80115658:	e7963003 	ldr	r3, [r6, r3]
8011565c:	e0835185 	add	r5, r3, r5, lsl #3
80115660:	e5854004 	str	r4, [r5, #4]
80115664:	e89da8f0 	ldm	sp, {r4, r5, r6, r7, fp, sp, pc}
80115668:	002129dc 	ldrdeq	r2, [r1], -ip	; <UNPREDICTABLE>
8011566c:	00002a20 	andeq	r2, r0, r0, lsr #20
80115670:	0000143c 	andeq	r1, r0, ip, lsr r4
80115674:	00000064 	andeq	r0, r0, r4, rrx

80115678 <profile_rigister>:
80115678:	e59f2044 	ldr	r2, [pc, #68]	; 801156c4 <profile_rigister+0x4c>
8011567c:	e1a0c000 	mov	ip, r0
80115680:	e59f1040 	ldr	r1, [pc, #64]	; 801156c8 <profile_rigister+0x50>
80115684:	e3a03000 	mov	r3, #0
80115688:	e08f2002 	add	r2, pc, r2
8011568c:	e1a00003 	mov	r0, r3
80115690:	e7921001 	ldr	r1, [r2, r1]
80115694:	ea000002 	b	801156a4 <profile_rigister+0x2c>
80115698:	e2800001 	add	r0, r0, #1
8011569c:	e3500010 	cmp	r0, #16
801156a0:	012fff1e 	bxeq	lr
801156a4:	e7912103 	ldr	r2, [r1, r3, lsl #2]
801156a8:	e2833006 	add	r3, r3, #6
801156ac:	e3520000 	cmp	r2, #0
801156b0:	1afffff8 	bne	80115698 <profile_rigister+0x20>
801156b4:	e3a03018 	mov	r3, #24
801156b8:	e0030093 	mul	r3, r3, r0
801156bc:	e781c003 	str	ip, [r1, r3]
801156c0:	e12fff1e 	bx	lr
801156c4:	000029d8 	ldrdeq	r2, [r0], -r8
801156c8:	00000000 	andeq	r0, r0, r0

801156cc <profile_start>:
801156cc:	e1a0c00d 	mov	ip, sp
801156d0:	e92dd830 	push	{r4, r5, fp, ip, lr, pc}
801156d4:	e24cb004 	sub	fp, ip, #4
801156d8:	e59f4024 	ldr	r4, [pc, #36]	; 80115704 <profile_start+0x38>
801156dc:	e1a05000 	mov	r5, r0
801156e0:	ebffddd0 	bl	8010ce28 <timer_read_sys_usec>
801156e4:	e59f201c 	ldr	r2, [pc, #28]	; 80115708 <profile_start+0x3c>
801156e8:	e08f4004 	add	r4, pc, r4
801156ec:	e3a0c018 	mov	ip, #24
801156f0:	e1a03004 	mov	r3, r4
801156f4:	e7943002 	ldr	r3, [r4, r2]
801156f8:	e023359c 	mla	r3, ip, r5, r3
801156fc:	e1c300f8 	strd	r0, [r3, #8]
80115700:	e89da830 	ldm	sp, {r4, r5, fp, sp, pc}
80115704:	00002978 	andeq	r2, r0, r8, ror r9
80115708:	00000000 	andeq	r0, r0, r0

8011570c <profile_stop>:
8011570c:	e1a0c00d 	mov	ip, sp
80115710:	e92dd830 	push	{r4, r5, fp, ip, lr, pc}
80115714:	e24cb004 	sub	fp, ip, #4
80115718:	e59f4024 	ldr	r4, [pc, #36]	; 80115744 <profile_stop+0x38>
8011571c:	e1a05000 	mov	r5, r0
80115720:	ebffddc0 	bl	8010ce28 <timer_read_sys_usec>
80115724:	e59f201c 	ldr	r2, [pc, #28]	; 80115748 <profile_stop+0x3c>
80115728:	e08f4004 	add	r4, pc, r4
8011572c:	e3a0c018 	mov	ip, #24
80115730:	e1a03004 	mov	r3, r4
80115734:	e7943002 	ldr	r3, [r4, r2]
80115738:	e023359c 	mla	r3, ip, r5, r3
8011573c:	e1c301f0 	strd	r0, [r3, #16]
80115740:	e89da830 	ldm	sp, {r4, r5, fp, sp, pc}
80115744:	00002938 	andeq	r2, r0, r8, lsr r9
80115748:	00000000 	andeq	r0, r0, r0

8011574c <profile_dump>:
8011574c:	e59f0060 	ldr	r0, [pc, #96]	; 801157b4 <profile_dump+0x68>
80115750:	e1a0c00d 	mov	ip, sp
80115754:	e92dd8f0 	push	{r4, r5, r6, r7, fp, ip, lr, pc}
80115758:	e24cb004 	sub	fp, ip, #4
8011575c:	e59f4054 	ldr	r4, [pc, #84]	; 801157b8 <profile_dump+0x6c>
80115760:	e08f0000 	add	r0, pc, r0
80115764:	e59f6050 	ldr	r6, [pc, #80]	; 801157bc <profile_dump+0x70>
80115768:	ebffea04 	bl	8010ff80 <printf>
8011576c:	e59f204c 	ldr	r2, [pc, #76]	; 801157c0 <profile_dump+0x74>
80115770:	e08f4004 	add	r4, pc, r4
80115774:	e08f6006 	add	r6, pc, r6
80115778:	e1a03004 	mov	r3, r4
8011577c:	e7944002 	ldr	r4, [r4, r2]
80115780:	e2845d06 	add	r5, r4, #384	; 0x180
80115784:	e5941000 	ldr	r1, [r4]
80115788:	e1a00006 	mov	r0, r6
8011578c:	e3510000 	cmp	r1, #0
80115790:	0a000003 	beq	801157a4 <profile_dump+0x58>
80115794:	e5942010 	ldr	r2, [r4, #16]
80115798:	e5943008 	ldr	r3, [r4, #8]
8011579c:	e0422003 	sub	r2, r2, r3
801157a0:	ebffe9f6 	bl	8010ff80 <printf>
801157a4:	e2844018 	add	r4, r4, #24
801157a8:	e1540005 	cmp	r4, r5
801157ac:	1afffff4 	bne	80115784 <profile_dump+0x38>
801157b0:	e89da8f0 	ldm	sp, {r4, r5, r6, r7, fp, sp, pc}
801157b4:	00001334 	andeq	r1, r0, r4, lsr r3
801157b8:	000028f0 	strdeq	r2, [r0], -r0
801157bc:	00001344 	andeq	r1, r0, r4, asr #6
801157c0:	00000000 	andeq	r0, r0, r0

801157c4 <proc_ipc_setup>:
801157c4:	e1a0c00d 	mov	ip, sp
801157c8:	e92dd8f0 	push	{r4, r5, r6, r7, fp, ip, lr, pc}
801157cc:	e24cb004 	sub	fp, ip, #4
801157d0:	e1a05003 	mov	r5, r3
801157d4:	e1a07001 	mov	r7, r1
801157d8:	e1a06002 	mov	r6, r2
801157dc:	ebfff9f5 	bl	80113fb8 <get_current_proc>
801157e0:	e5904144 	ldr	r4, [r0, #324]	; 0x144
801157e4:	e584722c 	str	r7, [r4, #556]	; 0x22c
801157e8:	e5846234 	str	r6, [r4, #564]	; 0x234
801157ec:	e5845230 	str	r5, [r4, #560]	; 0x230
801157f0:	ebfffb6c 	bl	801145a8 <proc_stack_alloc>
801157f4:	e1a03000 	mov	r3, r0
801157f8:	e3a00000 	mov	r0, #0
801157fc:	e5843248 	str	r3, [r4, #584]	; 0x248
80115800:	e89da8f0 	ldm	sp, {r4, r5, r6, r7, fp, sp, pc}

80115804 <proc_ipc_fetch>:
80115804:	e1a0c00d 	mov	ip, sp
80115808:	e92dd830 	push	{r4, r5, fp, ip, lr, pc}
8011580c:	e1a04000 	mov	r4, r0
80115810:	e5900144 	ldr	r0, [r0, #324]	; 0x144
80115814:	e24cb004 	sub	fp, ip, #4
80115818:	e2800f8e 	add	r0, r0, #568	; 0x238
8011581c:	ebffe972 	bl	8010fdec <queue_pop>
80115820:	e2503000 	subs	r3, r0, #0
80115824:	15942144 	ldrne	r2, [r4, #324]	; 0x144
80115828:	15930000 	ldrne	r0, [r3]
8011582c:	01a00003 	moveq	r0, r3
80115830:	15823240 	strne	r3, [r2, #576]	; 0x240
80115834:	e89da830 	ldm	sp, {r4, r5, fp, sp, pc}

80115838 <proc_ipc_get_task>:
80115838:	e5903144 	ldr	r3, [r0, #324]	; 0x144
8011583c:	e5930240 	ldr	r0, [r3, #576]	; 0x240
80115840:	e12fff1e 	bx	lr

80115844 <proc_ipc_do_task>:
80115844:	e1a0c00d 	mov	ip, sp
80115848:	e92dd8f0 	push	{r4, r5, r6, r7, fp, ip, lr, pc}
8011584c:	e1a04001 	mov	r4, r1
80115850:	e5911144 	ldr	r1, [r1, #324]	; 0x144
80115854:	e24cb004 	sub	fp, ip, #4
80115858:	e1a06000 	mov	r6, r0
8011585c:	e1a05002 	mov	r5, r2
80115860:	e5913240 	ldr	r3, [r1, #576]	; 0x240
80115864:	e3530000 	cmp	r3, #0
80115868:	0a000011 	beq	801158b4 <proc_ipc_do_task+0x70>
8011586c:	e5932010 	ldr	r2, [r3, #16]
80115870:	e3520000 	cmp	r2, #0
80115874:	0a00000e 	beq	801158b4 <proc_ipc_do_task+0x70>
80115878:	e5933000 	ldr	r3, [r3]
8011587c:	e3530000 	cmp	r3, #0
80115880:	0a00000b 	beq	801158b4 <proc_ipc_do_task+0x70>
80115884:	e1a00004 	mov	r0, r4
80115888:	e2811f93 	add	r1, r1, #588	; 0x24c
8011588c:	ebfff9e3 	bl	80114020 <proc_save_state>
80115890:	e5943144 	ldr	r3, [r4, #324]	; 0x144
80115894:	e1a00006 	mov	r0, r6
80115898:	e3a0c001 	mov	ip, #1
8011589c:	e1a02005 	mov	r2, r5
801158a0:	e1a01004 	mov	r1, r4
801158a4:	e5c3c244 	strb	ip, [r3, #580]	; 0x244
801158a8:	ebfffab6 	bl	80114388 <proc_switch_multi_core>
801158ac:	e3a00000 	mov	r0, #0
801158b0:	e89da8f0 	ldm	sp, {r4, r5, r6, r7, fp, sp, pc}
801158b4:	e3e00000 	mvn	r0, #0
801158b8:	e89da8f0 	ldm	sp, {r4, r5, r6, r7, fp, sp, pc}

801158bc <proc_ipc_req>:
801158bc:	e1a0c00d 	mov	ip, sp
801158c0:	e92ddff8 	push	{r3, r4, r5, r6, r7, r8, r9, sl, fp, ip, lr, pc}
801158c4:	e24cb004 	sub	fp, ip, #4
801158c8:	e59fc0a4 	ldr	ip, [pc, #164]	; 80115974 <proc_ipc_req+0xb8>
801158cc:	e1a05003 	mov	r5, r3
801158d0:	e59fe0a0 	ldr	lr, [pc, #160]	; 80115978 <proc_ipc_req+0xbc>
801158d4:	e1a06000 	mov	r6, r0
801158d8:	e08fc00c 	add	ip, pc, ip
801158dc:	e3a000b0 	mov	r0, #176	; 0xb0
801158e0:	e1a07001 	mov	r7, r1
801158e4:	e1a08002 	mov	r8, r2
801158e8:	e79c900e 	ldr	r9, [ip, lr]
801158ec:	e5993000 	ldr	r3, [r9]
801158f0:	e2833001 	add	r3, r3, #1
801158f4:	e5893000 	str	r3, [r9]
801158f8:	ebfff04a 	bl	80111a28 <kmalloc>
801158fc:	e2504000 	subs	r4, r0, #0
80115900:	0a000019 	beq	8011596c <proc_ipc_req+0xb0>
80115904:	e3a020b0 	mov	r2, #176	; 0xb0
80115908:	e3a01000 	mov	r1, #0
8011590c:	e284a014 	add	sl, r4, #20
80115910:	ebffe525 	bl	8010edac <memset>
80115914:	e1a0000a 	mov	r0, sl
80115918:	ebffe7b5 	bl	8010f7f4 <proto_init>
8011591c:	e5993000 	ldr	r3, [r9]
80115920:	e5843000 	str	r3, [r4]
80115924:	e3550000 	cmp	r5, #0
80115928:	e3a03001 	mov	r3, #1
8011592c:	e58470a8 	str	r7, [r4, #168]	; 0xa8
80115930:	e5843010 	str	r3, [r4, #16]
80115934:	e58480ac 	str	r8, [r4, #172]	; 0xac
80115938:	0a000003 	beq	8011594c <proc_ipc_req+0x90>
8011593c:	e5952084 	ldr	r2, [r5, #132]	; 0x84
80115940:	e1a0000a 	mov	r0, sl
80115944:	e5951080 	ldr	r1, [r5, #128]	; 0x80
80115948:	ebffe7b1 	bl	8010f814 <proto_copy>
8011594c:	e5960144 	ldr	r0, [r6, #324]	; 0x144
80115950:	e5903240 	ldr	r3, [r0, #576]	; 0x240
80115954:	e3530000 	cmp	r3, #0
80115958:	05804240 	streq	r4, [r0, #576]	; 0x240
8011595c:	0a000002 	beq	8011596c <proc_ipc_req+0xb0>
80115960:	e1a01004 	mov	r1, r4
80115964:	e2800f8e 	add	r0, r0, #568	; 0x238
80115968:	ebffe8f8 	bl	8010fd50 <queue_push>
8011596c:	e1a00004 	mov	r0, r4
80115970:	e89daff8 	ldm	sp, {r3, r4, r5, r6, r7, r8, r9, sl, fp, sp, pc}
80115974:	00002788 	andeq	r2, r0, r8, lsl #15
80115978:	00000038 	andeq	r0, r0, r8, lsr r0

8011597c <proc_ipc_close>:
8011597c:	e1a0c00d 	mov	ip, sp
80115980:	e92dd830 	push	{r4, r5, fp, ip, lr, pc}
80115984:	e2514000 	subs	r4, r1, #0
80115988:	e24cb004 	sub	fp, ip, #4
8011598c:	e1a05000 	mov	r5, r0
80115990:	089da830 	ldmeq	sp, {r4, r5, fp, sp, pc}
80115994:	e2840014 	add	r0, r4, #20
80115998:	ebffe7b8 	bl	8010f880 <proto_clear>
8011599c:	e5953144 	ldr	r3, [r5, #324]	; 0x144
801159a0:	e1a00004 	mov	r0, r4
801159a4:	e5932240 	ldr	r2, [r3, #576]	; 0x240
801159a8:	e1540002 	cmp	r4, r2
801159ac:	03a02000 	moveq	r2, #0
801159b0:	05832240 	streq	r2, [r3, #576]	; 0x240
801159b4:	e24bd014 	sub	sp, fp, #20
801159b8:	e89d6830 	ldm	sp, {r4, r5, fp, sp, lr}
801159bc:	eafff038 	b	80111aa4 <kfree>

801159c0 <proc_ipc_clear>:
801159c0:	e5903144 	ldr	r3, [r0, #324]	; 0x144
801159c4:	e1a0c00d 	mov	ip, sp
801159c8:	e92dd830 	push	{r4, r5, fp, ip, lr, pc}
801159cc:	e24cb004 	sub	fp, ip, #4
801159d0:	e1a05000 	mov	r5, r0
801159d4:	e5931240 	ldr	r1, [r3, #576]	; 0x240
801159d8:	ebffffe7 	bl	8011597c <proc_ipc_close>
801159dc:	e5950144 	ldr	r0, [r5, #324]	; 0x144
801159e0:	e2800f8e 	add	r0, r0, #568	; 0x238
801159e4:	ebffe900 	bl	8010fdec <queue_pop>
801159e8:	e2504000 	subs	r4, r0, #0
801159ec:	089da830 	ldmeq	sp, {r4, r5, fp, sp, pc}
801159f0:	e2840014 	add	r0, r4, #20
801159f4:	ebffe7a1 	bl	8010f880 <proto_clear>
801159f8:	e1a00004 	mov	r0, r4
801159fc:	ebfff028 	bl	80111aa4 <kfree>
80115a00:	eafffff5 	b	801159dc <proc_ipc_clear+0x1c>

80115a04 <proc_signal_setup>:
80115a04:	e1a0c00d 	mov	ip, sp
80115a08:	e92dd830 	push	{r4, r5, fp, ip, lr, pc}
80115a0c:	e24cb004 	sub	fp, ip, #4
80115a10:	e1a04000 	mov	r4, r0
80115a14:	ebfff967 	bl	80113fb8 <get_current_proc>
80115a18:	e5905144 	ldr	r5, [r0, #324]	; 0x144
80115a1c:	e58542a0 	str	r4, [r5, #672]	; 0x2a0
80115a20:	ebfffae0 	bl	801145a8 <proc_stack_alloc>
80115a24:	e1a03000 	mov	r3, r0
80115a28:	e3a00000 	mov	r0, #0
80115a2c:	e58532ac 	str	r3, [r5, #684]	; 0x2ac
80115a30:	e89da830 	ldm	sp, {r4, r5, fp, sp, pc}

80115a34 <proc_signal_send>:
80115a34:	e1a0c00d 	mov	ip, sp
80115a38:	e92ddbf0 	push	{r4, r5, r6, r7, r8, r9, fp, ip, lr, pc}
80115a3c:	e1a04001 	mov	r4, r1
80115a40:	e24cb004 	sub	fp, ip, #4
80115a44:	e1a05000 	mov	r5, r0
80115a48:	e1a07003 	mov	r7, r3
80115a4c:	e1a06002 	mov	r6, r2
80115a50:	ebfff958 	bl	80113fb8 <get_current_proc>
80115a54:	e3540000 	cmp	r4, #0
80115a58:	e3e03000 	mvn	r3, #0
80115a5c:	e1a08000 	mov	r8, r0
80115a60:	e5853008 	str	r3, [r5, #8]
80115a64:	089dabf0 	ldmeq	sp, {r4, r5, r6, r7, r8, r9, fp, sp, pc}
80115a68:	e5941144 	ldr	r1, [r4, #324]	; 0x144
80115a6c:	e59132a0 	ldr	r3, [r1, #672]	; 0x2a0
80115a70:	e3530000 	cmp	r3, #0
80115a74:	089dabf0 	ldmeq	sp, {r4, r5, r6, r7, r8, r9, fp, sp, pc}
80115a78:	e3a03000 	mov	r3, #0
80115a7c:	e2811e2b 	add	r1, r1, #688	; 0x2b0
80115a80:	e5853008 	str	r3, [r5, #8]
80115a84:	e1a00004 	mov	r0, r4
80115a88:	ebfff964 	bl	80114020 <proc_save_state>
80115a8c:	e5943144 	ldr	r3, [r4, #324]	; 0x144
80115a90:	e3a02001 	mov	r2, #1
80115a94:	e3570000 	cmp	r7, #0
80115a98:	e58362a4 	str	r6, [r3, #676]	; 0x2a4
80115a9c:	e5c322a8 	strb	r2, [r3, #680]	; 0x2a8
80115aa0:	0a000005 	beq	80115abc <proc_signal_send+0x88>
80115aa4:	e5982008 	ldr	r2, [r8, #8]
80115aa8:	e1a01004 	mov	r1, r4
80115aac:	e1a00005 	mov	r0, r5
80115ab0:	e24bd024 	sub	sp, fp, #36	; 0x24
80115ab4:	e89d6bf0 	ldm	sp, {r4, r5, r6, r7, r8, r9, fp, sp, lr}
80115ab8:	eafffa32 	b	80114388 <proc_switch_multi_core>
80115abc:	e1a00004 	mov	r0, r4
80115ac0:	e24bd024 	sub	sp, fp, #36	; 0x24
80115ac4:	e89d6bf0 	ldm	sp, {r4, r5, r6, r7, r8, r9, fp, sp, lr}
80115ac8:	eafffa52 	b	80114418 <proc_ready>

80115acc <proc_signal_end>:
80115acc:	e1a0c00d 	mov	ip, sp
80115ad0:	e92dd830 	push	{r4, r5, fp, ip, lr, pc}
80115ad4:	e24cb004 	sub	fp, ip, #4
80115ad8:	e1a05000 	mov	r5, r0
80115adc:	ebfff935 	bl	80113fb8 <get_current_proc>
80115ae0:	e5903018 	ldr	r3, [r0, #24]
80115ae4:	e1a04000 	mov	r4, r0
80115ae8:	e3530007 	cmp	r3, #7
80115aec:	13530000 	cmpne	r3, #0
80115af0:	0a000003 	beq	80115b04 <proc_signal_end+0x38>
80115af4:	e5902144 	ldr	r2, [r0, #324]	; 0x144
80115af8:	e59232a0 	ldr	r3, [r2, #672]	; 0x2a0
80115afc:	e3530000 	cmp	r3, #0
80115b00:	1a000003 	bne	80115b14 <proc_signal_end+0x48>
80115b04:	e1a00005 	mov	r0, r5
80115b08:	e24bd014 	sub	sp, fp, #20
80115b0c:	e89d6830 	ldm	sp, {r4, r5, fp, sp, lr}
80115b10:	ea0000e3 	b	80115ea4 <schedule>
80115b14:	e1a01000 	mov	r1, r0
80115b18:	e2822e2b 	add	r2, r2, #688	; 0x2b0
80115b1c:	e1a00005 	mov	r0, r5
80115b20:	ebfff947 	bl	80114044 <proc_restore_state>
80115b24:	e5943144 	ldr	r3, [r4, #324]	; 0x144
80115b28:	e59332a4 	ldr	r3, [r3, #676]	; 0x2a4
80115b2c:	e3530001 	cmp	r3, #1
80115b30:	8afffff3 	bhi	80115b04 <proc_signal_end+0x38>
80115b34:	e1a00004 	mov	r0, r4
80115b38:	ebfffa36 	bl	80114418 <proc_ready>
80115b3c:	eafffff0 	b	80115b04 <proc_signal_end+0x38>

80115b40 <interrupt_send_raw>:
80115b40:	e1a0c00d 	mov	ip, sp
80115b44:	e92ddbf0 	push	{r4, r5, r6, r7, r8, r9, fp, ip, lr, pc}
80115b48:	e1a07000 	mov	r7, r0
80115b4c:	e5920000 	ldr	r0, [r2]
80115b50:	e24cb004 	sub	fp, ip, #4
80115b54:	e1a05002 	mov	r5, r2
80115b58:	e1a06001 	mov	r6, r1
80115b5c:	e3500000 	cmp	r0, #0
80115b60:	da00002a 	ble	80115c10 <interrupt_send_raw+0xd0>
80115b64:	e5923004 	ldr	r3, [r2, #4]
80115b68:	e3530000 	cmp	r3, #0
80115b6c:	0a000027 	beq	80115c10 <interrupt_send_raw+0xd0>
80115b70:	ebfff8f9 	bl	80113f5c <proc_get_by_uuid>
80115b74:	e1a04000 	mov	r4, r0
80115b78:	ebfff90e 	bl	80113fb8 <get_current_proc>
80115b7c:	e3540000 	cmp	r4, #0
80115b80:	e1a08000 	mov	r8, r0
80115b84:	0a000021 	beq	80115c10 <interrupt_send_raw+0xd0>
80115b88:	e5943144 	ldr	r3, [r4, #324]	; 0x144
80115b8c:	e5933310 	ldr	r3, [r3, #784]	; 0x310
80115b90:	e3530000 	cmp	r3, #0
80115b94:	1a00001d 	bne	80115c10 <interrupt_send_raw+0xd0>
80115b98:	e1a00004 	mov	r0, r4
80115b9c:	ebffff25 	bl	80115838 <proc_ipc_get_task>
80115ba0:	e3500000 	cmp	r0, #0
80115ba4:	0a000002 	beq	80115bb4 <interrupt_send_raw+0x74>
80115ba8:	e5903010 	ldr	r3, [r0, #16]
80115bac:	e3530001 	cmp	r3, #1
80115bb0:	0a000016 	beq	80115c10 <interrupt_send_raw+0xd0>
80115bb4:	e5941144 	ldr	r1, [r4, #324]	; 0x144
80115bb8:	e1a00004 	mov	r0, r4
80115bbc:	e2811fc6 	add	r1, r1, #792	; 0x318
80115bc0:	ebfff916 	bl	80114020 <proc_save_state>
80115bc4:	e5943144 	ldr	r3, [r4, #324]	; 0x144
80115bc8:	e5952004 	ldr	r2, [r5, #4]
80115bcc:	e3560003 	cmp	r6, #3
80115bd0:	e5951008 	ldr	r1, [r5, #8]
80115bd4:	e5836308 	str	r6, [r3, #776]	; 0x308
80115bd8:	e5832304 	str	r2, [r3, #772]	; 0x304
80115bdc:	e3a02001 	mov	r2, #1
80115be0:	e583130c 	str	r1, [r3, #780]	; 0x30c
80115be4:	e5832310 	str	r2, [r3, #784]	; 0x310
80115be8:	1a000005 	bne	80115c04 <interrupt_send_raw+0xc4>
80115bec:	e1a00007 	mov	r0, r7
80115bf0:	e5982008 	ldr	r2, [r8, #8]
80115bf4:	e1a01004 	mov	r1, r4
80115bf8:	ebfff9e2 	bl	80114388 <proc_switch_multi_core>
80115bfc:	e3a00000 	mov	r0, #0
80115c00:	e89dabf0 	ldm	sp, {r4, r5, r6, r7, r8, r9, fp, sp, pc}
80115c04:	e2840f72 	add	r0, r4, #456	; 0x1c8
80115c08:	ebffddae 	bl	8010d2c8 <irq_disable_cpsr>
80115c0c:	eafffff6 	b	80115bec <interrupt_send_raw+0xac>
80115c10:	e3e00000 	mvn	r0, #0
80115c14:	e89dabf0 	ldm	sp, {r4, r5, r6, r7, r8, r9, fp, sp, pc}

80115c18 <interrupt_init>:
80115c18:	e59f000c 	ldr	r0, [pc, #12]	; 80115c2c <interrupt_init+0x14>
80115c1c:	e3a02020 	mov	r2, #32
80115c20:	e3a01000 	mov	r1, #0
80115c24:	e08f0000 	add	r0, pc, r0
80115c28:	eaffe45f 	b	8010edac <memset>
80115c2c:	00227954 	eoreq	r7, r2, r4, asr r9

80115c30 <interrupt_setup>:
80115c30:	e1a0c00d 	mov	ip, sp
80115c34:	e3510003 	cmp	r1, #3
80115c38:	e92dd8f0 	push	{r4, r5, r6, r7, fp, ip, lr, pc}
80115c3c:	e24cb004 	sub	fp, ip, #4
80115c40:	e1a06001 	mov	r6, r1
80115c44:	e1a05000 	mov	r5, r0
80115c48:	e1a04002 	mov	r4, r2
80115c4c:	e1a07003 	mov	r7, r3
80115c50:	8a000037 	bhi	80115d34 <interrupt_setup+0x104>
80115c54:	e3520000 	cmp	r2, #0
80115c58:	0a000015 	beq	80115cb4 <interrupt_setup+0x84>
80115c5c:	e3a00010 	mov	r0, #16
80115c60:	ebffef70 	bl	80111a28 <kmalloc>
80115c64:	e5953000 	ldr	r3, [r5]
80115c68:	e5803000 	str	r3, [r0]
80115c6c:	e59f30c8 	ldr	r3, [pc, #200]	; 80115d3c <interrupt_setup+0x10c>
80115c70:	e9800090 	stmib	r0, {r4, r7}
80115c74:	e5957144 	ldr	r7, [r5, #324]	; 0x144
80115c78:	e08f3003 	add	r3, pc, r3
80115c7c:	e5974314 	ldr	r4, [r7, #788]	; 0x314
80115c80:	e7932186 	ldr	r2, [r3, r6, lsl #3]
80115c84:	e580200c 	str	r2, [r0, #12]
80115c88:	e3540000 	cmp	r4, #0
80115c8c:	e7830186 	str	r0, [r3, r6, lsl #3]
80115c90:	0a000001 	beq	80115c9c <interrupt_setup+0x6c>
80115c94:	e3a00000 	mov	r0, #0
80115c98:	e89da8f0 	ldm	sp, {r4, r5, r6, r7, fp, sp, pc}
80115c9c:	e1a00005 	mov	r0, r5
80115ca0:	ebfffa40 	bl	801145a8 <proc_stack_alloc>
80115ca4:	e1a03000 	mov	r3, r0
80115ca8:	e1a00004 	mov	r0, r4
80115cac:	e5873314 	str	r3, [r7, #788]	; 0x314
80115cb0:	e89da8f0 	ldm	sp, {r4, r5, r6, r7, fp, sp, pc}
80115cb4:	e59f3084 	ldr	r3, [pc, #132]	; 80115d40 <interrupt_setup+0x110>
80115cb8:	e08f3003 	add	r3, pc, r3
80115cbc:	e7933181 	ldr	r3, [r3, r1, lsl #3]
80115cc0:	e3530000 	cmp	r3, #0
80115cc4:	0afffff2 	beq	80115c94 <interrupt_setup+0x64>
80115cc8:	e59f7074 	ldr	r7, [pc, #116]	; 80115d44 <interrupt_setup+0x114>
80115ccc:	e08f7007 	add	r7, pc, r7
80115cd0:	ea000003 	b	80115ce4 <interrupt_setup+0xb4>
80115cd4:	e1a04003 	mov	r4, r3
80115cd8:	e593300c 	ldr	r3, [r3, #12]
80115cdc:	e3530000 	cmp	r3, #0
80115ce0:	0affffeb 	beq	80115c94 <interrupt_setup+0x64>
80115ce4:	e593c000 	ldr	ip, [r3]
80115ce8:	e5952000 	ldr	r2, [r5]
80115cec:	e15c0002 	cmp	ip, r2
80115cf0:	1afffff7 	bne	80115cd4 <interrupt_setup+0xa4>
80115cf4:	e7972186 	ldr	r2, [r7, r6, lsl #3]
80115cf8:	e1a00003 	mov	r0, r3
80115cfc:	e1520003 	cmp	r2, r3
80115d00:	0a000006 	beq	80115d20 <interrupt_setup+0xf0>
80115d04:	e3540000 	cmp	r4, #0
80115d08:	0affffe1 	beq	80115c94 <interrupt_setup+0x64>
80115d0c:	e593300c 	ldr	r3, [r3, #12]
80115d10:	e584300c 	str	r3, [r4, #12]
80115d14:	ebffef62 	bl	80111aa4 <kfree>
80115d18:	e594300c 	ldr	r3, [r4, #12]
80115d1c:	eaffffee 	b	80115cdc <interrupt_setup+0xac>
80115d20:	e593200c 	ldr	r2, [r3, #12]
80115d24:	e7872186 	str	r2, [r7, r6, lsl #3]
80115d28:	ebffef5d 	bl	80111aa4 <kfree>
80115d2c:	e7973186 	ldr	r3, [r7, r6, lsl #3]
80115d30:	eaffffe9 	b	80115cdc <interrupt_setup+0xac>
80115d34:	e3e00000 	mvn	r0, #0
80115d38:	e89da8f0 	ldm	sp, {r4, r5, r6, r7, fp, sp, pc}
80115d3c:	00227900 	eoreq	r7, r2, r0, lsl #18
80115d40:	002278c0 	eoreq	r7, r2, r0, asr #17
80115d44:	002278ac 	eoreq	r7, r2, ip, lsr #17

80115d48 <interrupt_send>:
80115d48:	e3510003 	cmp	r1, #3
80115d4c:	8a000009 	bhi	80115d78 <interrupt_send+0x30>
80115d50:	e59f2028 	ldr	r2, [pc, #40]	; 80115d80 <interrupt_send+0x38>
80115d54:	e08f2002 	add	r2, pc, r2
80115d58:	e082c181 	add	ip, r2, r1, lsl #3
80115d5c:	e7922181 	ldr	r2, [r2, r1, lsl #3]
80115d60:	e58c2004 	str	r2, [ip, #4]
80115d64:	e3520000 	cmp	r2, #0
80115d68:	0a000002 	beq	80115d78 <interrupt_send+0x30>
80115d6c:	e592300c 	ldr	r3, [r2, #12]
80115d70:	e58c3004 	str	r3, [ip, #4]
80115d74:	eaffff71 	b	80115b40 <interrupt_send_raw>
80115d78:	e3e00000 	mvn	r0, #0
80115d7c:	e12fff1e 	bx	lr
80115d80:	00227824 	eoreq	r7, r2, r4, lsr #16

80115d84 <interrupt_soft_send>:
80115d84:	e1a0c00d 	mov	ip, sp
80115d88:	e92dd870 	push	{r4, r5, r6, fp, ip, lr, pc}
80115d8c:	e24cb004 	sub	fp, ip, #4
80115d90:	e24dd014 	sub	sp, sp, #20
80115d94:	e1a06000 	mov	r6, r0
80115d98:	e1a00001 	mov	r0, r1
80115d9c:	e1a05002 	mov	r5, r2
80115da0:	e1a04003 	mov	r4, r3
80115da4:	ebfff85e 	bl	80113f24 <proc_get>
80115da8:	e1a03000 	mov	r3, r0
80115dac:	e24b202c 	sub	r2, fp, #44	; 0x2c
80115db0:	e1a00006 	mov	r0, r6
80115db4:	e3a01003 	mov	r1, #3
80115db8:	e50b5028 	str	r5, [fp, #-40]	; 0xffffffd8
80115dbc:	e5933000 	ldr	r3, [r3]
80115dc0:	e50b302c 	str	r3, [fp, #-44]	; 0xffffffd4
80115dc4:	e50b4024 	str	r4, [fp, #-36]	; 0xffffffdc
80115dc8:	ebffff5c 	bl	80115b40 <interrupt_send_raw>
80115dcc:	e24bd018 	sub	sp, fp, #24
80115dd0:	e89da870 	ldm	sp, {r4, r5, r6, fp, sp, pc}

80115dd4 <interrupt_end>:
80115dd4:	e1a0c00d 	mov	ip, sp
80115dd8:	e92dd8f0 	push	{r4, r5, r6, r7, fp, ip, lr, pc}
80115ddc:	e24cb004 	sub	fp, ip, #4
80115de0:	e1a05000 	mov	r5, r0
80115de4:	ebfff873 	bl	80113fb8 <get_current_proc>
80115de8:	e5903144 	ldr	r3, [r0, #324]	; 0x144
80115dec:	e1a04000 	mov	r4, r0
80115df0:	e3a02000 	mov	r2, #0
80115df4:	e590000c 	ldr	r0, [r0, #12]
80115df8:	e2831fc1 	add	r1, r3, #772	; 0x304
80115dfc:	e5832310 	str	r2, [r3, #784]	; 0x310
80115e00:	ebfffc22 	bl	80114e90 <proc_wakeup>
80115e04:	e5943018 	ldr	r3, [r4, #24]
80115e08:	e3530007 	cmp	r3, #7
80115e0c:	13530000 	cmpne	r3, #0
80115e10:	0a00000a 	beq	80115e40 <interrupt_end+0x6c>
80115e14:	e5943144 	ldr	r3, [r4, #324]	; 0x144
80115e18:	e1a01004 	mov	r1, r4
80115e1c:	e1a00005 	mov	r0, r5
80115e20:	e2832fc6 	add	r2, r3, #792	; 0x318
80115e24:	e5936308 	ldr	r6, [r3, #776]	; 0x308
80115e28:	ebfff885 	bl	80114044 <proc_restore_state>
80115e2c:	e5943018 	ldr	r3, [r4, #24]
80115e30:	e3530005 	cmp	r3, #5
80115e34:	0a000016 	beq	80115e94 <interrupt_end+0xc0>
80115e38:	e3560003 	cmp	r6, #3
80115e3c:	1a000003 	bne	80115e50 <interrupt_end+0x7c>
80115e40:	e1a00005 	mov	r0, r5
80115e44:	e24bd01c 	sub	sp, fp, #28
80115e48:	e89d68f0 	ldm	sp, {r4, r5, r6, r7, fp, sp, lr}
80115e4c:	ea000014 	b	80115ea4 <schedule>
80115e50:	e2840f72 	add	r0, r4, #456	; 0x1c8
80115e54:	ebffdd17 	bl	8010d2b8 <irq_enable_cpsr>
80115e58:	e59f3040 	ldr	r3, [pc, #64]	; 80115ea0 <interrupt_end+0xcc>
80115e5c:	e08f3003 	add	r3, pc, r3
80115e60:	e0833186 	add	r3, r3, r6, lsl #3
80115e64:	e5932004 	ldr	r2, [r3, #4]
80115e68:	e3520000 	cmp	r2, #0
80115e6c:	0afffff3 	beq	80115e40 <interrupt_end+0x6c>
80115e70:	e592c00c 	ldr	ip, [r2, #12]
80115e74:	e1a01006 	mov	r1, r6
80115e78:	e1a00005 	mov	r0, r5
80115e7c:	e583c004 	str	ip, [r3, #4]
80115e80:	ebffff2e 	bl	80115b40 <interrupt_send_raw>
80115e84:	e1a00005 	mov	r0, r5
80115e88:	e24bd01c 	sub	sp, fp, #28
80115e8c:	e89d68f0 	ldm	sp, {r4, r5, r6, r7, fp, sp, lr}
80115e90:	ea000003 	b	80115ea4 <schedule>
80115e94:	e1a00004 	mov	r0, r4
80115e98:	ebfff95e 	bl	80114418 <proc_ready>
80115e9c:	eaffffe5 	b	80115e38 <interrupt_end+0x64>
80115ea0:	0022771c 	eoreq	r7, r2, ip, lsl r7

80115ea4 <schedule>:
80115ea4:	e1a0c00d 	mov	ip, sp
80115ea8:	e92dd830 	push	{r4, r5, fp, ip, lr, pc}
80115eac:	e24cb004 	sub	fp, ip, #4
80115eb0:	e59f4088 	ldr	r4, [pc, #136]	; 80115f40 <schedule+0x9c>
80115eb4:	e1a05000 	mov	r5, r0
80115eb8:	ebfff9c3 	bl	801145cc <proc_zombie_funeral>
80115ebc:	ebfff1dd 	bl	80112638 <get_core_id>
80115ec0:	e59f207c 	ldr	r2, [pc, #124]	; 80115f44 <schedule+0xa0>
80115ec4:	e08f4004 	add	r4, pc, r4
80115ec8:	e1a03004 	mov	r3, r4
80115ecc:	e7943002 	ldr	r3, [r4, r2]
80115ed0:	e0833180 	add	r3, r3, r0, lsl #3
80115ed4:	e5934004 	ldr	r4, [r3, #4]
80115ed8:	e3540000 	cmp	r4, #0
80115edc:	0a00000e 	beq	80115f1c <schedule+0x78>
80115ee0:	e3a02003 	mov	r2, #3
80115ee4:	e3a03000 	mov	r3, #0
80115ee8:	e5842018 	str	r2, [r4, #24]
80115eec:	e5843020 	str	r3, [r4, #32]
80115ef0:	ebfff97c 	bl	801144e8 <proc_get_next_ready>
80115ef4:	e3500000 	cmp	r0, #0
80115ef8:	11a04000 	movne	r4, r0
80115efc:	e1a00005 	mov	r0, r5
80115f00:	e3a03006 	mov	r3, #6
80115f04:	e1a01004 	mov	r1, r4
80115f08:	e5843018 	str	r3, [r4, #24]
80115f0c:	e3a02000 	mov	r2, #0
80115f10:	ebfff863 	bl	801140a4 <proc_switch>
80115f14:	e3a00000 	mov	r0, #0
80115f18:	e89da830 	ldm	sp, {r4, r5, fp, sp, pc}
80115f1c:	ebfff971 	bl	801144e8 <proc_get_next_ready>
80115f20:	e2504000 	subs	r4, r0, #0
80115f24:	1afffff4 	bne	80115efc <schedule+0x58>
80115f28:	e59f0018 	ldr	r0, [pc, #24]	; 80115f48 <schedule+0xa4>
80115f2c:	e08f0000 	add	r0, pc, r0
80115f30:	ebffe812 	bl	8010ff80 <printf>
80115f34:	eb000054 	bl	8011608c <halt>
80115f38:	e3a00000 	mov	r0, #0
80115f3c:	e89da830 	ldm	sp, {r4, r5, fp, sp, pc}
80115f40:	0000219c 	muleq	r0, ip, r1
80115f44:	00000064 	andeq	r0, r0, r4, rrx
80115f48:	00000b94 	muleq	r0, r4, fp

80115f4c <_delay>:
80115f4c:	e1a0c00d 	mov	ip, sp
80115f50:	e92dd800 	push	{fp, ip, lr, pc}
80115f54:	e24cb004 	sub	fp, ip, #4
80115f58:	e24dd008 	sub	sp, sp, #8
80115f5c:	e50b0010 	str	r0, [fp, #-16]
80115f60:	ea000002 	b	80115f70 <_delay+0x24>
80115f64:	e51b3010 	ldr	r3, [fp, #-16]
80115f68:	e2433001 	sub	r3, r3, #1
80115f6c:	e50b3010 	str	r3, [fp, #-16]
80115f70:	e51b3010 	ldr	r3, [fp, #-16]
80115f74:	e3530000 	cmp	r3, #0
80115f78:	1afffff9 	bne	80115f64 <_delay+0x18>
80115f7c:	e320f000 	nop	{0}
80115f80:	e320f000 	nop	{0}
80115f84:	e24bd00c 	sub	sp, fp, #12
80115f88:	e89da800 	ldm	sp, {fp, sp, pc}

80115f8c <_delay_usec>:
80115f8c:	e1a0c00d 	mov	ip, sp
80115f90:	e92dd830 	push	{r4, r5, fp, ip, lr, pc}
80115f94:	e1a04000 	mov	r4, r0
80115f98:	e24cb004 	sub	fp, ip, #4
80115f9c:	e1a05001 	mov	r5, r1
80115fa0:	ebffdba0 	bl	8010ce28 <timer_read_sys_usec>
80115fa4:	e0904004 	adds	r4, r0, r4
80115fa8:	e0a15005 	adc	r5, r1, r5
80115fac:	e1500004 	cmp	r0, r4
80115fb0:	e0d13005 	sbcs	r3, r1, r5
80115fb4:	289da830 	ldmcs	sp, {r4, r5, fp, sp, pc}
80115fb8:	ebffdb9a 	bl	8010ce28 <timer_read_sys_usec>
80115fbc:	e1500004 	cmp	r0, r4
80115fc0:	e0d13005 	sbcs	r3, r1, r5
80115fc4:	3afffffb 	bcc	80115fb8 <_delay_usec+0x2c>
80115fc8:	e89da830 	ldm	sp, {r4, r5, fp, sp, pc}

80115fcc <_delay_msec>:
80115fcc:	e3a03ffa 	mov	r3, #1000	; 0x3e8
80115fd0:	e3a01000 	mov	r1, #0
80115fd4:	e0000093 	mul	r0, r3, r0
80115fd8:	eaffffeb 	b	80115f8c <_delay_usec>

80115fdc <flush_dcache>:
80115fdc:	eaffd9f4 	b	8010c7b4 <__flush_dcache_all>

80115fe0 <flush_tlb>:
80115fe0:	e1a0c00d 	mov	ip, sp
80115fe4:	e92dd800 	push	{fp, ip, lr, pc}
80115fe8:	e24cb004 	sub	fp, ip, #4
80115fec:	ebffd9f0 	bl	8010c7b4 <__flush_dcache_all>
80115ff0:	e24bd00c 	sub	sp, fp, #12
80115ff4:	e89d6800 	ldm	sp, {fp, sp, lr}
80115ff8:	eaffda1a 	b	8010c868 <__flush_tlb>

80115ffc <set_translation_table_base>:
80115ffc:	e1a0c00d 	mov	ip, sp
80116000:	e92dd800 	push	{fp, ip, lr, pc}
80116004:	e24cb004 	sub	fp, ip, #4
80116008:	ebffda1f 	bl	8010c88c <__set_translation_table_base>
8011600c:	ebffd9e8 	bl	8010c7b4 <__flush_dcache_all>
80116010:	e24bd00c 	sub	sp, fp, #12
80116014:	e89d6800 	ldm	sp, {fp, sp, lr}
80116018:	eaffda12 	b	8010c868 <__flush_tlb>

8011601c <kernel_lock_init>:
8011601c:	e59f3010 	ldr	r3, [pc, #16]	; 80116034 <kernel_lock_init+0x18>
80116020:	e3a02000 	mov	r2, #0
80116024:	e08f3003 	add	r3, pc, r3
80116028:	e5832000 	str	r2, [r3]
8011602c:	e5832004 	str	r2, [r3, #4]
80116030:	e12fff1e 	bx	lr
80116034:	00227574 	eoreq	r7, r2, r4, ror r5

80116038 <kernel_lock_check>:
80116038:	e59f3004 	ldr	r3, [pc, #4]	; 80116044 <kernel_lock_check+0xc>
8011603c:	e79f0003 	ldr	r0, [pc, r3]
80116040:	e12fff1e 	bx	lr
80116044:	0022755c 	eoreq	r7, r2, ip, asr r5

80116048 <kernel_lock>:
80116048:	e1a0c00d 	mov	ip, sp
8011604c:	e92dd830 	push	{r4, r5, fp, ip, lr, pc}
80116050:	e59f4018 	ldr	r4, [pc, #24]	; 80116070 <kernel_lock+0x28>
80116054:	e24cb004 	sub	fp, ip, #4
80116058:	e08f4004 	add	r4, pc, r4
8011605c:	e2840004 	add	r0, r4, #4
80116060:	ebfff175 	bl	8011263c <mcore_lock>
80116064:	e3a03001 	mov	r3, #1
80116068:	e5843000 	str	r3, [r4]
8011606c:	e89da830 	ldm	sp, {r4, r5, fp, sp, pc}
80116070:	00227540 	eoreq	r7, r2, r0, asr #10

80116074 <kernel_unlock>:
80116074:	e59f000c 	ldr	r0, [pc, #12]	; 80116088 <kernel_unlock+0x14>
80116078:	e3a03000 	mov	r3, #0
8011607c:	e08f0000 	add	r0, pc, r0
80116080:	e4803004 	str	r3, [r0], #4
80116084:	eafff16d 	b	80112640 <mcore_unlock>
80116088:	0022751c 	eoreq	r7, r2, ip, lsl r5

8011608c <halt>:
8011608c:	e320f003 	wfi
80116090:	eafffffd 	b	8011608c <halt>

80116094 <kev_init>:
80116094:	e59f0004 	ldr	r0, [pc, #4]	; 801160a0 <kev_init+0xc>
80116098:	e08f0000 	add	r0, pc, r0
8011609c:	eaffe727 	b	8010fd40 <queue_init>
801160a0:	00227508 	eoreq	r7, r2, r8, lsl #10

801160a4 <kev_push>:
801160a4:	e1a0c00d 	mov	ip, sp
801160a8:	e92ddbf0 	push	{r4, r5, r6, r7, r8, r9, fp, ip, lr, pc}
801160ac:	e24cb004 	sub	fp, ip, #4
801160b0:	e1a09000 	mov	r9, r0
801160b4:	e3a00010 	mov	r0, #16
801160b8:	e1a07002 	mov	r7, r2
801160bc:	e1a06003 	mov	r6, r3
801160c0:	e1a08001 	mov	r8, r1
801160c4:	ebffee57 	bl	80111a28 <kmalloc>
801160c8:	e1a04000 	mov	r4, r0
801160cc:	e5809000 	str	r9, [r0]
801160d0:	e59f0038 	ldr	r0, [pc, #56]	; 80116110 <kev_push+0x6c>
801160d4:	e1a01004 	mov	r1, r4
801160d8:	e59f5034 	ldr	r5, [pc, #52]	; 80116114 <kev_push+0x70>
801160dc:	e08f0000 	add	r0, pc, r0
801160e0:	e5848004 	str	r8, [r4, #4]
801160e4:	e5847008 	str	r7, [r4, #8]
801160e8:	e08f5005 	add	r5, pc, r5
801160ec:	e584600c 	str	r6, [r4, #12]
801160f0:	ebffe716 	bl	8010fd50 <queue_push>
801160f4:	e59f201c 	ldr	r2, [pc, #28]	; 80116118 <kev_push+0x74>
801160f8:	e3e00000 	mvn	r0, #0
801160fc:	e1a03005 	mov	r3, r5
80116100:	e7951002 	ldr	r1, [r5, r2]
80116104:	ebfffb61 	bl	80114e90 <proc_wakeup>
80116108:	e1a00004 	mov	r0, r4
8011610c:	e89dabf0 	ldm	sp, {r4, r5, r6, r7, r8, r9, fp, sp, pc}
80116110:	002274c4 	eoreq	r7, r2, r4, asr #9
80116114:	00001f78 	andeq	r1, r0, r8, ror pc
80116118:	00000060 	andeq	r0, r0, r0, rrx

8011611c <kev_pop>:
8011611c:	e59f0004 	ldr	r0, [pc, #4]	; 80116128 <kev_pop+0xc>
80116120:	e08f0000 	add	r0, pc, r0
80116124:	eaffe730 	b	8010fdec <queue_pop>
80116128:	00227480 	eoreq	r7, r2, r0, lsl #9

8011612c <copy_interrupt_table>:
8011612c:	e1a0c00d 	mov	ip, sp
80116130:	e92dd800 	push	{fp, ip, lr, pc}
80116134:	e24cb004 	sub	fp, ip, #4
80116138:	e24dd008 	sub	sp, sp, #8
8011613c:	e59f3064 	ldr	r3, [pc, #100]	; 801161a8 <copy_interrupt_table+0x7c>
80116140:	e08f3003 	add	r3, pc, r3
80116144:	e59f2060 	ldr	r2, [pc, #96]	; 801161ac <copy_interrupt_table+0x80>
80116148:	e7932002 	ldr	r2, [r3, r2]
8011614c:	e50b2010 	str	r2, [fp, #-16]
80116150:	e59f2058 	ldr	r2, [pc, #88]	; 801161b0 <copy_interrupt_table+0x84>
80116154:	e7932002 	ldr	r2, [r3, r2]
80116158:	e592202c 	ldr	r2, [r2, #44]	; 0x2c
8011615c:	e50b2014 	str	r2, [fp, #-20]	; 0xffffffec
80116160:	ea000007 	b	80116184 <copy_interrupt_table+0x58>
80116164:	e51b1010 	ldr	r1, [fp, #-16]
80116168:	e2812004 	add	r2, r1, #4
8011616c:	e50b2010 	str	r2, [fp, #-16]
80116170:	e51b2014 	ldr	r2, [fp, #-20]	; 0xffffffec
80116174:	e2820004 	add	r0, r2, #4
80116178:	e50b0014 	str	r0, [fp, #-20]	; 0xffffffec
8011617c:	e5911000 	ldr	r1, [r1]
80116180:	e5821000 	str	r1, [r2]
80116184:	e51b2010 	ldr	r2, [fp, #-16]
80116188:	e59f1024 	ldr	r1, [pc, #36]	; 801161b4 <copy_interrupt_table+0x88>
8011618c:	e7931001 	ldr	r1, [r3, r1]
80116190:	e1520001 	cmp	r2, r1
80116194:	3afffff2 	bcc	80116164 <copy_interrupt_table+0x38>
80116198:	e320f000 	nop	{0}
8011619c:	e320f000 	nop	{0}
801161a0:	e24bd00c 	sub	sp, fp, #12
801161a4:	e89da800 	ldm	sp, {fp, sp, pc}
801161a8:	00001f20 	andeq	r1, r0, r0, lsr #30
801161ac:	00000050 	andeq	r0, r0, r0, asr r0
801161b0:	00000058 	andeq	r0, r0, r8, asr r0
801161b4:	0000000c 	andeq	r0, r0, ip

801161b8 <_slave_kernel_entry_c>:
801161b8:	e1a0c00d 	mov	ip, sp
801161bc:	e92dd810 	push	{r4, fp, ip, lr, pc}
801161c0:	e24cb004 	sub	fp, ip, #4
801161c4:	e24dd00c 	sub	sp, sp, #12
801161c8:	e59f406c 	ldr	r4, [pc, #108]	; 8011623c <_slave_kernel_entry_c+0x84>
801161cc:	e08f4004 	add	r4, pc, r4
801161d0:	e59f3068 	ldr	r3, [pc, #104]	; 80116240 <_slave_kernel_entry_c+0x88>
801161d4:	e7943003 	ldr	r3, [r4, r3]
801161d8:	e5933024 	ldr	r3, [r3, #36]	; 0x24
801161dc:	e59f2060 	ldr	r2, [pc, #96]	; 80116244 <_slave_kernel_entry_c+0x8c>
801161e0:	e7942002 	ldr	r2, [r4, r2]
801161e4:	e5922000 	ldr	r2, [r2]
801161e8:	e0833002 	add	r3, r3, r2
801161ec:	e2833102 	add	r3, r3, #-2147483648	; 0x80000000
801161f0:	e1a00003 	mov	r0, r3
801161f4:	ebffff80 	bl	80115ffc <set_translation_table_base>
801161f8:	e59f3048 	ldr	r3, [pc, #72]	; 80116248 <_slave_kernel_entry_c+0x90>
801161fc:	e08f3003 	add	r3, pc, r3
80116200:	e1a00003 	mov	r0, r3
80116204:	ebffe75d 	bl	8010ff80 <printf>
80116208:	ebfff10a 	bl	80112638 <get_core_id>
8011620c:	e50b0018 	str	r0, [fp, #-24]	; 0xffffffe8
80116210:	e51b0018 	ldr	r0, [fp, #-24]	; 0xffffffe8
80116214:	ebffe24c 	bl	8010eb4c <cpu_core_ready>
80116218:	e59f302c 	ldr	r3, [pc, #44]	; 8011624c <_slave_kernel_entry_c+0x94>
8011621c:	e7943003 	ldr	r3, [r4, r3]
80116220:	e51b2018 	ldr	r2, [fp, #-24]	; 0xffffffe8
80116224:	e3a01001 	mov	r1, #1
80116228:	e7831182 	str	r1, [r3, r2, lsl #3]
8011622c:	ebffff96 	bl	8011608c <halt>
80116230:	e320f000 	nop	{0}
80116234:	e24bd010 	sub	sp, fp, #16
80116238:	e89da810 	ldm	sp, {r4, fp, sp, pc}
8011623c:	00001e94 	muleq	r0, r4, lr
80116240:	00000058 	andeq	r0, r0, r8, asr r0
80116244:	00000018 	andeq	r0, r0, r8, lsl r0
80116248:	00001974 	andeq	r1, r0, r4, ror r9
8011624c:	00000064 	andeq	r0, r0, r4, rrx

80116250 <set_kernel_init_vm>:
80116250:	e1a0c00d 	mov	ip, sp
80116254:	e92ddff0 	push	{r4, r5, r6, r7, r8, r9, sl, fp, ip, lr, pc}
80116258:	e3a02901 	mov	r2, #16384	; 0x4000
8011625c:	e24dd00c 	sub	sp, sp, #12
80116260:	e24cb004 	sub	fp, ip, #4
80116264:	e3a01000 	mov	r1, #0
80116268:	e59f410c 	ldr	r4, [pc, #268]	; 8011637c <set_kernel_init_vm+0x12c>
8011626c:	e1a05000 	mov	r5, r0
80116270:	ebffe2cd 	bl	8010edac <memset>
80116274:	e3a07001 	mov	r7, #1
80116278:	ebffff57 	bl	80115fdc <flush_dcache>
8011627c:	e59f20fc 	ldr	r2, [pc, #252]	; 80116380 <set_kernel_init_vm+0x130>
80116280:	e08f4004 	add	r4, pc, r4
80116284:	e3a08000 	mov	r8, #0
80116288:	e1a01008 	mov	r1, r8
8011628c:	e1a00005 	mov	r0, r5
80116290:	e34f1fff 	movt	r1, #65535	; 0xffff
80116294:	e3a03a01 	mov	r3, #4096	; 0x1000
80116298:	e7946002 	ldr	r6, [r4, r2]
8011629c:	e88d0180 	stm	sp, {r7, r8}
801162a0:	e596202c 	ldr	r2, [r6, #44]	; 0x2c
801162a4:	ebfff06a 	bl	80112454 <map_pages_size>
801162a8:	e59f30d4 	ldr	r3, [pc, #212]	; 80116384 <set_kernel_init_vm+0x134>
801162ac:	e5962024 	ldr	r2, [r6, #36]	; 0x24
801162b0:	e3a0c003 	mov	ip, #3
801162b4:	e1a00005 	mov	r0, r5
801162b8:	e3a01102 	mov	r1, #-2147483648	; 0x80000000
801162bc:	e7944003 	ldr	r4, [r4, r3]
801162c0:	e58dc004 	str	ip, [sp, #4]
801162c4:	e2844dff 	add	r4, r4, #16320	; 0x3fc0
801162c8:	e58d7000 	str	r7, [sp]
801162cc:	e284403f 	add	r4, r4, #63	; 0x3f
801162d0:	e3c44dff 	bic	r4, r4, #16320	; 0x3fc0
801162d4:	e3c4403f 	bic	r4, r4, #63	; 0x3f
801162d8:	e284a102 	add	sl, r4, #-2147483648	; 0x80000000
801162dc:	e2849802 	add	r9, r4, #131072	; 0x20000
801162e0:	e082300a 	add	r3, r2, sl
801162e4:	ebfff03f 	bl	801123e8 <map_pages>
801162e8:	e88d0180 	stm	sp, {r7, r8}
801162ec:	e1a01004 	mov	r1, r4
801162f0:	e2894102 	add	r4, r9, #-2147483648	; 0x80000000
801162f4:	e5963024 	ldr	r3, [r6, #36]	; 0x24
801162f8:	e1a00005 	mov	r0, r5
801162fc:	e08a2003 	add	r2, sl, r3
80116300:	e284a609 	add	sl, r4, #9437184	; 0x900000
80116304:	e083300a 	add	r3, r3, sl
80116308:	e2844502 	add	r4, r4, #8388608	; 0x800000
8011630c:	ebfff035 	bl	801123e8 <map_pages>
80116310:	e88d0180 	stm	sp, {r7, r8}
80116314:	e1a01009 	mov	r1, r9
80116318:	e1a00005 	mov	r0, r5
8011631c:	e5963024 	ldr	r3, [r6, #36]	; 0x24
80116320:	e2832102 	add	r2, r3, #-2147483648	; 0x80000000
80116324:	e0833004 	add	r3, r3, r4
80116328:	e0822009 	add	r2, r2, r9
8011632c:	ebfff02d 	bl	801123e8 <map_pages>
80116330:	e58d8004 	str	r8, [sp, #4]
80116334:	e58d7000 	str	r7, [sp]
80116338:	e2891502 	add	r1, r9, #8388608	; 0x800000
8011633c:	e1a00005 	mov	r0, r5
80116340:	e5962024 	ldr	r2, [r6, #36]	; 0x24
80116344:	e08a3002 	add	r3, sl, r2
80116348:	e0842002 	add	r2, r4, r2
8011634c:	ebfff025 	bl	801123e8 <map_pages>
80116350:	e5963038 	ldr	r3, [r6, #56]	; 0x38
80116354:	e5962030 	ldr	r2, [r6, #48]	; 0x30
80116358:	e1a00005 	mov	r0, r5
8011635c:	e5961034 	ldr	r1, [r6, #52]	; 0x34
80116360:	e58d7004 	str	r7, [sp, #4]
80116364:	e58d7000 	str	r7, [sp]
80116368:	ebfff039 	bl	80112454 <map_pages_size>
8011636c:	e1a00005 	mov	r0, r5
80116370:	e24bd028 	sub	sp, fp, #40	; 0x28
80116374:	e89d6ff0 	ldm	sp, {r4, r5, r6, r7, r8, r9, sl, fp, sp, lr}
80116378:	eaffda4c 	b	8010ccb0 <arch_vm>
8011637c:	00001de0 	andeq	r1, r0, r0, ror #27
80116380:	00000058 	andeq	r0, r0, r8, asr r0
80116384:	00000020 	andeq	r0, r0, r0, lsr #32

80116388 <set_kernel_vm>:
80116388:	e1a0c00d 	mov	ip, sp
8011638c:	e92dd830 	push	{r4, r5, fp, ip, lr, pc}
80116390:	e24cb004 	sub	fp, ip, #4
80116394:	e24dd008 	sub	sp, sp, #8
80116398:	e59f405c 	ldr	r4, [pc, #92]	; 801163fc <set_kernel_vm+0x74>
8011639c:	e1a05000 	mov	r5, r0
801163a0:	ebffffaa 	bl	80116250 <set_kernel_init_vm>
801163a4:	e59fc054 	ldr	ip, [pc, #84]	; 80116400 <set_kernel_vm+0x78>
801163a8:	e59f1054 	ldr	r1, [pc, #84]	; 80116404 <set_kernel_vm+0x7c>
801163ac:	e08f4004 	add	r4, pc, r4
801163b0:	e59f2050 	ldr	r2, [pc, #80]	; 80116408 <set_kernel_vm+0x80>
801163b4:	e1a03004 	mov	r3, r4
801163b8:	e3a0e000 	mov	lr, #0
801163bc:	e1a00005 	mov	r0, r5
801163c0:	e794400c 	ldr	r4, [r4, ip]
801163c4:	e793c001 	ldr	ip, [r3, r1]
801163c8:	e7931002 	ldr	r1, [r3, r2]
801163cc:	e3a03001 	mov	r3, #1
801163d0:	e58de004 	str	lr, [sp, #4]
801163d4:	e58d3000 	str	r3, [sp]
801163d8:	e5942000 	ldr	r2, [r4]
801163dc:	e5911024 	ldr	r1, [r1, #36]	; 0x24
801163e0:	e59c3000 	ldr	r3, [ip]
801163e4:	e282c102 	add	ip, r2, #-2147483648	; 0x80000000
801163e8:	e04c1001 	sub	r1, ip, r1
801163ec:	ebffeffd 	bl	801123e8 <map_pages>
801163f0:	e24bd014 	sub	sp, fp, #20
801163f4:	e89d6830 	ldm	sp, {r4, r5, fp, sp, lr}
801163f8:	eafffef8 	b	80115fe0 <flush_tlb>
801163fc:	00001cb4 			; <UNDEFINED> instruction: 0x00001cb4
80116400:	0000004c 	andeq	r0, r0, ip, asr #32
80116404:	00000040 	andeq	r0, r0, r0, asr #32
80116408:	00000058 	andeq	r0, r0, r8, asr r0

8011640c <_kernel_entry_c>:
8011640c:	e1a0c00d 	mov	ip, sp
80116410:	e92ddff0 	push	{r4, r5, r6, r7, r8, r9, sl, fp, ip, lr, pc}
80116414:	e24cb004 	sub	fp, ip, #4
80116418:	e24dd00c 	sub	sp, sp, #12
8011641c:	e59f92a0 	ldr	r9, [pc, #672]	; 801166c4 <_kernel_entry_c+0x2b8>
80116420:	e59fa2a0 	ldr	sl, [pc, #672]	; 801166c8 <_kernel_entry_c+0x2bc>
80116424:	ebffd91f 	bl	8010c8a8 <__irq_disable>
80116428:	e59f329c 	ldr	r3, [pc, #668]	; 801166cc <_kernel_entry_c+0x2c0>
8011642c:	e59f229c 	ldr	r2, [pc, #668]	; 801166d0 <_kernel_entry_c+0x2c4>
80116430:	e08f9009 	add	r9, pc, r9
80116434:	e3a01000 	mov	r1, #0
80116438:	e1a08001 	mov	r8, r1
8011643c:	e08fa00a 	add	sl, pc, sl
80116440:	e7990002 	ldr	r0, [r9, r2]
80116444:	e7992003 	ldr	r2, [r9, r3]
80116448:	e0422000 	sub	r2, r2, r0
8011644c:	ebffe256 	bl	8010edac <memset>
80116450:	ebffd9e1 	bl	8010cbdc <sys_info_init>
80116454:	ebffff34 	bl	8011612c <copy_interrupt_table>
80116458:	e59f1274 	ldr	r1, [pc, #628]	; 801166d4 <_kernel_entry_c+0x2c8>
8011645c:	e59f2274 	ldr	r2, [pc, #628]	; 801166d8 <_kernel_entry_c+0x2cc>
80116460:	e59f3274 	ldr	r3, [pc, #628]	; 801166dc <_kernel_entry_c+0x2d0>
80116464:	e7995001 	ldr	r5, [r9, r1]
80116468:	e5858004 	str	r8, [r5, #4]
8011646c:	e7994002 	ldr	r4, [r9, r2]
80116470:	e7997003 	ldr	r7, [r9, r3]
80116474:	e2844dff 	add	r4, r4, #16320	; 0x3fc0
80116478:	e284403f 	add	r4, r4, #63	; 0x3f
8011647c:	e3c44dff 	bic	r4, r4, #16320	; 0x3fc0
80116480:	e3c4403f 	bic	r4, r4, #63	; 0x3f
80116484:	e5874000 	str	r4, [r7]
80116488:	e2841802 	add	r1, r4, #131072	; 0x20000
8011648c:	e2840901 	add	r0, r4, #16384	; 0x4000
80116490:	ebffebee 	bl	80111450 <kalloc_init>
80116494:	e5970000 	ldr	r0, [r7]
80116498:	ebffff6c 	bl	80116250 <set_kernel_init_vm>
8011649c:	e59f323c 	ldr	r3, [pc, #572]	; 801166e0 <_kernel_entry_c+0x2d4>
801164a0:	e5970000 	ldr	r0, [r7]
801164a4:	e7996003 	ldr	r6, [r9, r3]
801164a8:	e5963024 	ldr	r3, [r6, #36]	; 0x24
801164ac:	e2833102 	add	r3, r3, #-2147483648	; 0x80000000
801164b0:	e0800003 	add	r0, r0, r3
801164b4:	ebfffed0 	bl	80115ffc <set_translation_table_base>
801164b8:	ebffed35 	bl	80111994 <kmalloc_init>
801164bc:	ebffed7f 	bl	80111ac0 <dma_init>
801164c0:	ebffda90 	bl	8010cf08 <uart_dev_init>
801164c4:	ebfffef2 	bl	80116094 <kev_init>
801164c8:	ebfff05d 	bl	80112644 <kconsole_init>
801164cc:	e1a0000a 	mov	r0, sl
801164d0:	ebffe6aa 	bl	8010ff80 <printf>
801164d4:	e5962020 	ldr	r2, [r6, #32]
801164d8:	e5961030 	ldr	r1, [r6, #48]	; 0x30
801164dc:	e28a0f5a 	add	r0, sl, #360	; 0x168
801164e0:	e5963024 	ldr	r3, [r6, #36]	; 0x24
801164e4:	e1a02a22 	lsr	r2, r2, #20
801164e8:	e58d1000 	str	r1, [sp]
801164ec:	e1a01006 	mov	r1, r6
801164f0:	ebffe6a2 	bl	8010ff80 <printf>
801164f4:	e3a01008 	mov	r1, #8
801164f8:	e28a0e1f 	add	r0, sl, #496	; 0x1f0
801164fc:	ebffe69f 	bl	8010ff80 <printf>
80116500:	e28a0f86 	add	r0, sl, #536	; 0x218
80116504:	ebffe69d 	bl	8010ff80 <printf>
80116508:	e2841892 	add	r1, r4, #9568256	; 0x920000
8011650c:	e2840882 	add	r0, r4, #8519680	; 0x820000
80116510:	ebffebce 	bl	80111450 <kalloc_init>
80116514:	e28a0f92 	add	r0, sl, #584	; 0x248
80116518:	ebffe698 	bl	8010ff80 <printf>
8011651c:	e59f31c0 	ldr	r3, [pc, #448]	; 801166e4 <_kernel_entry_c+0x2d8>
80116520:	e5970000 	ldr	r0, [r7]
80116524:	e7994003 	ldr	r4, [r9, r3]
80116528:	e59f31b8 	ldr	r3, [pc, #440]	; 801166e8 <_kernel_entry_c+0x2dc>
8011652c:	e7997003 	ldr	r7, [r9, r3]
80116530:	e3a03001 	mov	r3, #1
80116534:	e58d8004 	str	r8, [sp, #4]
80116538:	e5942000 	ldr	r2, [r4]
8011653c:	e5961024 	ldr	r1, [r6, #36]	; 0x24
80116540:	e58d3000 	str	r3, [sp]
80116544:	e282c102 	add	ip, r2, #-2147483648	; 0x80000000
80116548:	e04c1001 	sub	r1, ip, r1
8011654c:	e5973000 	ldr	r3, [r7]
80116550:	ebffefa4 	bl	801123e8 <map_pages>
80116554:	ebfffea1 	bl	80115fe0 <flush_tlb>
80116558:	e28a0f9b 	add	r0, sl, #620	; 0x26c
8011655c:	ebffe687 	bl	8010ff80 <printf>
80116560:	e5971000 	ldr	r1, [r7]
80116564:	e5943000 	ldr	r3, [r4]
80116568:	e5960024 	ldr	r0, [r6, #36]	; 0x24
8011656c:	e2811102 	add	r1, r1, #-2147483648	; 0x80000000
80116570:	e2833102 	add	r3, r3, #-2147483648	; 0x80000000
80116574:	e0411000 	sub	r1, r1, r0
80116578:	e0430000 	sub	r0, r3, r0
8011657c:	ebffebb3 	bl	80111450 <kalloc_init>
80116580:	e5850004 	str	r0, [r5, #4]
80116584:	e1a00100 	lsl	r0, r0, #2
80116588:	ebffed26 	bl	80111a28 <kmalloc>
8011658c:	e5952004 	ldr	r2, [r5, #4]
80116590:	e5943000 	ldr	r3, [r4]
80116594:	e1a01008 	mov	r1, r8
80116598:	e5853008 	str	r3, [r5, #8]
8011659c:	e1a02102 	lsl	r2, r2, #2
801165a0:	e5850000 	str	r0, [r5]
801165a4:	ebffe200 	bl	8010edac <memset>
801165a8:	ebffebf7 	bl	8011158c <get_free_mem_size>
801165ac:	e1a01000 	mov	r1, r0
801165b0:	e5952004 	ldr	r2, [r5, #4]
801165b4:	e28a0fa7 	add	r0, sl, #668	; 0x29c
801165b8:	e1a01a21 	lsr	r1, r1, #20
801165bc:	ebffe66f 	bl	8010ff80 <printf>
801165c0:	ebfff1e7 	bl	80112d64 <irq_init>
801165c4:	e28a0fb3 	add	r0, sl, #716	; 0x2cc
801165c8:	ebffe66c 	bl	8010ff80 <printf>
801165cc:	ebffeda0 	bl	80111c54 <shm_init>
801165d0:	e28a0e2e 	add	r0, sl, #736	; 0x2e0
801165d4:	ebffe669 	bl	8010ff80 <printf>
801165d8:	ebfff622 	bl	80113e68 <procs_init>
801165dc:	e28a0c03 	add	r0, sl, #768	; 0x300
801165e0:	ebffe666 	bl	8010ff80 <printf>
801165e4:	e28a0fc7 	add	r0, sl, #796	; 0x31c
801165e8:	ebffe664 	bl	8010ff80 <printf>
801165ec:	ebffeb55 	bl	80111348 <load_init_proc>
801165f0:	e1500008 	cmp	r0, r8
801165f4:	1a00002e 	bne	801166b4 <_kernel_entry_c+0x2a8>
801165f8:	e3a00000 	mov	r0, #0
801165fc:	ebfffc02 	bl	8011560c <kfork_core_halt>
80116600:	ebfffe85 	bl	8011601c <kernel_lock_init>
80116604:	e5963050 	ldr	r3, [r6, #80]	; 0x50
80116608:	e3530001 	cmp	r3, #1
8011660c:	9a00001b 	bls	80116680 <_kernel_entry_c+0x274>
80116610:	e59f30d4 	ldr	r3, [pc, #212]	; 801166ec <_kernel_entry_c+0x2e0>
80116614:	e3a05001 	mov	r5, #1
80116618:	e59f70d0 	ldr	r7, [pc, #208]	; 801166f0 <_kernel_entry_c+0x2e4>
8011661c:	e3a08000 	mov	r8, #0
80116620:	e08f7007 	add	r7, pc, r7
80116624:	e7994003 	ldr	r4, [r9, r3]
80116628:	e2877fd3 	add	r7, r7, #844	; 0x34c
8011662c:	e1a01005 	mov	r1, r5
80116630:	e1a00007 	mov	r0, r7
80116634:	e5848008 	str	r8, [r4, #8]
80116638:	ebffe650 	bl	8010ff80 <printf>
8011663c:	e1a00005 	mov	r0, r5
80116640:	ebfffbf1 	bl	8011560c <kfork_core_halt>
80116644:	e1a00005 	mov	r0, r5
80116648:	ebffd8c9 	bl	8010c974 <start_core>
8011664c:	e5943008 	ldr	r3, [r4, #8]
80116650:	e3530000 	cmp	r3, #0
80116654:	1a000004 	bne	8011666c <_kernel_entry_c+0x260>
80116658:	e3a0000a 	mov	r0, #10
8011665c:	ebfffe5a 	bl	80115fcc <_delay_msec>
80116660:	e5943008 	ldr	r3, [r4, #8]
80116664:	e3530000 	cmp	r3, #0
80116668:	0afffffa 	beq	80116658 <_kernel_entry_c+0x24c>
8011666c:	e5963050 	ldr	r3, [r6, #80]	; 0x50
80116670:	e2855001 	add	r5, r5, #1
80116674:	e2844008 	add	r4, r4, #8
80116678:	e1530005 	cmp	r3, r5
8011667c:	8affffea 	bhi	8011662c <_kernel_entry_c+0x220>
80116680:	e59f406c 	ldr	r4, [pc, #108]	; 801166f4 <_kernel_entry_c+0x2e8>
80116684:	e08f4004 	add	r4, pc, r4
80116688:	e2840fda 	add	r0, r4, #872	; 0x368
8011668c:	ebffe63b 	bl	8010ff80 <printf>
80116690:	e3a01c02 	mov	r1, #512	; 0x200
80116694:	e3a00000 	mov	r0, #0
80116698:	ebffd9b0 	bl	8010cd60 <timer_set_interval>
8011669c:	e2840fdf 	add	r0, r4, #892	; 0x37c
801166a0:	ebffe636 	bl	8010ff80 <printf>
801166a4:	ebffd87b 	bl	8010c898 <__irq_enable>
801166a8:	e24bd028 	sub	sp, fp, #40	; 0x28
801166ac:	e89d6ff0 	ldm	sp, {r4, r5, r6, r7, r8, r9, sl, fp, sp, lr}
801166b0:	eafffe75 	b	8011608c <halt>
801166b4:	e28a0fcf 	add	r0, sl, #828	; 0x33c
801166b8:	ebffe630 	bl	8010ff80 <printf>
801166bc:	ebfffe72 	bl	8011608c <halt>
801166c0:	eaffffcc 	b	801165f8 <_kernel_entry_c+0x1ec>
801166c4:	00001c30 	andeq	r1, r0, r0, lsr ip
801166c8:	0000173c 	andeq	r1, r0, ip, lsr r7
801166cc:	00000024 	andeq	r0, r0, r4, lsr #32
801166d0:	00000014 	andeq	r0, r0, r4, lsl r0
801166d4:	0000001c 	andeq	r0, r0, ip, lsl r0
801166d8:	00000020 	andeq	r0, r0, r0, lsr #32
801166dc:	00000018 	andeq	r0, r0, r8, lsl r0
801166e0:	00000058 	andeq	r0, r0, r8, asr r0
801166e4:	0000004c 	andeq	r0, r0, ip, asr #32
801166e8:	00000040 	andeq	r0, r0, r0, asr #32
801166ec:	00000064 	andeq	r0, r0, r4, rrx
801166f0:	00001558 	andeq	r1, r0, r8, asr r5
801166f4:	000014f4 	strdeq	r1, [r0], -r4

Disassembly of section .rodata.str1.4:

801166f8 <.rodata.str1.4>:
801166f8:	203a7325 	eorscs	r7, sl, r5, lsr #6
801166fc:	656d6954 	strbvs	r6, [sp, #-2388]!	; 0xfffff6ac
80116700:	2074756f 	rsbscs	r7, r4, pc, ror #10
80116704:	64206e6f 	strtvs	r6, [r0], #-3695	; 0xfffff191
80116708:	20617461 	rsbcs	r7, r1, r1, ror #8
8011670c:	79737562 	ldmdbvc	r3!, {r1, r5, r6, r8, sl, ip, sp, lr}^
80116710:	0000000a 	andeq	r0, r0, sl
80116714:	203a7325 	eorscs	r7, sl, r5, lsr #6
80116718:	70736552 	rsbsvc	r6, r3, r2, asr r5
8011671c:	65736e6f 	ldrbvs	r6, [r3, #-3695]!	; 0xfffff191
80116720:	6d695420 	cfstrdvs	mvd5, [r9, #-128]!	; 0xffffff80
80116724:	74756f65 	ldrbtvc	r6, [r5], #-3941	; 0xfffff09b
80116728:	00000a2e 	andeq	r0, r0, lr, lsr #20
8011672c:	203a7325 	eorscs	r7, sl, r5, lsr #6
80116730:	70736552 	rsbsvc	r6, r3, r2, asr r5
80116734:	65736e6f 	ldrbvs	r6, [r3, #-3695]!	; 0xfffff191
80116738:	72724520 	rsbsvc	r4, r2, #32, 10	; 0x8000000
8011673c:	0a2e726f 	beq	80cb3100 <_kernel_end+0x965100>
80116740:	00000000 	andeq	r0, r0, r0
80116744:	203a7325 	eorscs	r7, sl, r5, lsr #6
80116748:	70736552 	rsbsvc	r6, r3, r2, asr r5
8011674c:	65736e6f 	ldrbvs	r6, [r3, #-3695]!	; 0xfffff191
80116750:	43524320 	cmpmi	r2, #32, 6	; 0x80000000
80116754:	72724520 	rsbsvc	r4, r2, #32, 10	; 0x8000000
80116758:	0a2e726f 	beq	80cb311c <_kernel_end+0x96511c>
8011675c:	00000000 	andeq	r0, r0, r0
80116760:	203a7325 	eorscs	r7, sl, r5, lsr #6
80116764:	41544144 	cmpmi	r4, r4, asr #2
80116768:	52524520 	subspl	r4, r2, #32, 10	; 0x8000000
8011676c:	2520524f 	strcs	r5, [r0, #-591]!	; 0xfffffdb1
80116770:	786c3830 	stmdavc	ip!, {r4, r5, fp, ip, sp}^
80116774:	00000a21 	andeq	r0, r0, r1, lsr #20
80116778:	203a7325 	eorscs	r7, sl, r5, lsr #6
8011677c:	656d6954 	strbvs	r6, [sp, #-2388]!	; 0xfffff6ac
80116780:	2074756f 	rsbscs	r7, r4, pc, ror #10
80116784:	74696177 	strbtvc	r6, [r9], #-375	; 0xfffffe89
80116788:	20676e69 	rsbcs	r6, r7, r9, ror #28
8011678c:	20726f66 	rsbscs	r6, r2, r6, ror #30
80116790:	61746164 	cmnvs	r4, r4, ror #2
80116794:	00000a21 	andeq	r0, r0, r1, lsr #20
80116798:	203a7325 	eorscs	r7, sl, r5, lsr #6
8011679c:	4f464946 	svcmi	0x00464946
801167a0:	646e7520 	strbtvs	r7, [lr], #-1312	; 0xfffffae0
801167a4:	6c667265 	sfmvs	f7, 2, [r6], #-404	; 0xfffffe6c
801167a8:	7420776f 	strtvc	r7, [r0], #-1903	; 0xfffff891
801167ac:	6f656d69 	svcvs	0x00656d69
801167b0:	000a7475 	andeq	r7, sl, r5, ror r4
801167b4:	203a7325 	eorscs	r7, sl, r5, lsr #6
801167b8:	656d6954 	strbvs	r6, [sp, #-2388]!	; 0xfffff6ac
801167bc:	2e74756f 	cdpcs	5, 7, cr7, cr4, cr15, {3}
801167c0:	0000000a 	andeq	r0, r0, sl
801167c4:	6e72656b 	cdpvs	5, 7, cr6, cr2, cr11, {3}
801167c8:	203a6c65 	eorscs	r6, sl, r5, ror #24
801167cc:	20737973 	rsbscs	r7, r3, r3, ror r9
801167d0:	6e756f63 	cdpvs	15, 7, cr6, cr5, cr3, {3}
801167d4:	20726574 	rsbscs	r6, r2, r4, ror r5
801167d8:	71657266 	cmnvc	r5, r6, ror #4
801167dc:	6425203a 	strtvs	r2, [r5], #-58	; 0xffffffc6
801167e0:	0000000a 	andeq	r0, r0, sl
801167e4:	78383025 	ldmdavc	r8!, {r0, r2, r5, ip, sp}
801167e8:	0000000a 	andeq	r0, r0, sl
801167ec:	33323130 	teqcc	r2, #48, 2
801167f0:	37363534 			; <UNDEFINED> instruction: 0x37363534
801167f4:	42413938 	submi	r3, r1, #56, 18	; 0xe0000
801167f8:	46454443 	strbmi	r4, [r5], -r3, asr #8
801167fc:	00000000 	andeq	r0, r0, r0
80116800:	33323130 	teqcc	r2, #48, 2
80116804:	37363534 			; <UNDEFINED> instruction: 0x37363534
80116808:	62613938 	rsbvs	r3, r1, #56, 18	; 0xe0000
8011680c:	66656463 	strbtvs	r6, [r5], -r3, ror #8
80116810:	00000000 	andeq	r0, r0, r0
80116814:	0000002f 	andeq	r0, r0, pc, lsr #32
80116818:	64732020 	ldrbtvs	r2, [r3], #-32	; 0xffffffe0
8011681c:	6e692063 	cdpvs	0, 6, cr2, cr9, cr3, {3}
80116820:	2e207469 	cdpcs	4, 2, cr7, cr0, cr9, {3}
80116824:	202e2e2e 	eorcs	r2, lr, lr, lsr #28
80116828:	00000000 	andeq	r0, r0, r0
8011682c:	6961665b 	stmdbvs	r1!, {r0, r1, r3, r4, r6, r9, sl, sp, lr}^
80116830:	5d64656c 	cfstr64pl	mvdx6, [r4, #-432]!	; 0xfffffe50
80116834:	00000a21 	andeq	r0, r0, r1, lsr #20
80116838:	5d6b6f5b 	stclpl	15, cr6, [fp, #-364]!	; 0xfffffe94
8011683c:	0000000a 	andeq	r0, r0, sl
80116840:	6f6c2020 	svcvs	0x006c2020
80116844:	2f206461 	svccs	0x00206461
80116848:	6e696273 	mcrvs	2, 3, r6, cr9, cr3, {3}
8011684c:	696e692f 	stmdbvs	lr!, {r0, r1, r2, r3, r5, r8, fp, sp, lr}^
80116850:	72662074 	rsbvc	r2, r6, #116	; 0x74
80116854:	73206d6f 			; <UNDEFINED> instruction: 0x73206d6f
80116858:	2e206364 	cdpcs	3, 2, cr6, cr0, cr4, {3}
8011685c:	202e2e2e 	eorcs	r2, lr, lr, lsr #28
80116860:	00000000 	andeq	r0, r0, r0
80116864:	6962732f 	stmdbvs	r2!, {r0, r1, r2, r3, r5, r8, r9, ip, sp, lr}^
80116868:	6e692f6e 	cdpvs	15, 6, cr2, cr9, cr14, {3}
8011686c:	00007469 	andeq	r7, r0, r9, ror #8
80116870:	696e6150 	stmdbvs	lr!, {r4, r6, r8, sp, lr}^
80116874:	6b203a63 	blvs	80925208 <_kernel_end+0x5d7208>
80116878:	6c615f6d 	stclvs	15, cr5, [r1], #-436	; 0xfffffe4c
8011687c:	20636f6c 	rsbcs	r6, r3, ip, ror #30
80116880:	6c696166 	stfvse	f6, [r9], #-408	; 0xfffffe68
80116884:	0a216465 	beq	8096fa20 <_kernel_end+0x621a20>
80116888:	00000000 	andeq	r0, r0, r0
8011688c:	5f6d6873 	svcpl	0x006d6873
80116890:	3a70616d 	bcc	81d2ee4c <_kernel_end+0x19e0e4c>
80116894:	6c616b20 			; <UNDEFINED> instruction: 0x6c616b20
80116898:	20636f6c 	rsbcs	r6, r3, ip, ror #30
8011689c:	6c696166 	stfvse	f6, [r9], #-408	; 0xfffffe68
801168a0:	0a216465 	beq	8096fa3c <_kernel_end+0x621a3c>
801168a4:	00000000 	andeq	r0, r0, r0
801168a8:	20787463 	rsbscs	r7, r8, r3, ror #8
801168ac:	706d7564 	rsbvc	r7, sp, r4, ror #10
801168b0:	20200a3a 	eorcs	r0, r0, sl, lsr sl
801168b4:	72737063 	rsbsvc	r7, r3, #99	; 0x63
801168b8:	2578303d 	ldrbcs	r3, [r8, #-61]!	; 0xffffffc3
801168bc:	20200a78 	eorcs	r0, r0, r8, ror sl
801168c0:	303d6370 	eorscc	r6, sp, r0, ror r3
801168c4:	0a782578 	beq	81f1feac <_kernel_end+0x1bd1eac>
801168c8:	70732020 	rsbsvc	r2, r3, r0, lsr #32
801168cc:	2578303d 	ldrbcs	r3, [r8, #-61]!	; 0xffffffc3
801168d0:	20200a78 	eorcs	r0, r0, r8, ror sl
801168d4:	303d726c 	eorscc	r7, sp, ip, ror #4
801168d8:	0a782578 	beq	81f1fec0 <_kernel_end+0x1bd1ec0>
801168dc:	00000000 	andeq	r0, r0, r0
801168e0:	25722020 	ldrbcs	r2, [r2, #-32]!	; 0xffffffe0
801168e4:	30203a64 	eorcc	r3, r0, r4, ror #20
801168e8:	0a782578 	beq	81f1fed0 <_kernel_end+0x1bd1ed0>
801168ec:	00000000 	andeq	r0, r0, r0
801168f0:	72656b5f 	rsbvc	r6, r5, #97280	; 0x17c00
801168f4:	2c6c656e 	cfstr64cs	mvdx6, [ip], #-440	; 0xfffffe48
801168f8:	646e7520 	strbtvs	r7, [lr], #-1312	; 0xfffffae0
801168fc:	69206665 	stmdbvs	r0!, {r0, r2, r5, r6, r9, sl, sp, lr}
80116900:	7274736e 	rsbsvc	r7, r4, #-1207959551	; 0xb8000001
80116904:	74636e75 	strbtvc	r6, [r3], #-3701	; 0xfffff18b
80116908:	206e6f69 	rsbcs	r6, lr, r9, ror #30
8011690c:	726f6261 	rsbvc	r6, pc, #268435462	; 0x10000006
80116910:	20212174 	eorcs	r2, r1, r4, ror r1
80116914:	726f6328 	rsbvc	r6, pc, #40, 6	; 0xa0000000
80116918:	64252065 	strtvs	r2, [r5], #-101	; 0xffffff9b
8011691c:	00000a29 	andeq	r0, r0, r9, lsr #20
80116920:	3a646970 	bcc	81a30ee8 <_kernel_end+0x16e2ee8>
80116924:	28642520 	stmdacs	r4!, {r5, r8, sl, sp}^
80116928:	2c297325 	stccs	3, cr7, [r9], #-148	; 0xffffff6c
8011692c:	646e7520 	strbtvs	r7, [lr], #-1312	; 0xfffffae0
80116930:	69206665 	stmdbvs	r0!, {r0, r2, r5, r6, r9, sl, sp, lr}
80116934:	7274736e 	rsbsvc	r7, r4, #-1207959551	; 0xb8000001
80116938:	74636e75 	strbtvc	r6, [r3], #-3701	; 0xfffff18b
8011693c:	206e6f69 	rsbcs	r6, lr, r9, ror #30
80116940:	726f6261 	rsbvc	r6, pc, #268435462	; 0x10000006
80116944:	20212174 	eorcs	r2, r1, r4, ror r1
80116948:	726f6328 	rsbvc	r6, pc, #40, 6	; 0xa0000000
8011694c:	64252065 	strtvs	r2, [r5], #-101	; 0xffffff9b
80116950:	00000a29 	andeq	r0, r0, r9, lsr #20
80116954:	72656b5f 	rsbvc	r6, r5, #97280	; 0x17c00
80116958:	2c6c656e 	cfstr64cs	mvdx6, [ip], #-440	; 0xfffffe48
8011695c:	65727020 	ldrbvs	r7, [r2, #-32]!	; 0xffffffe0
80116960:	63746566 	cmnvs	r4, #427819008	; 0x19800000
80116964:	62612068 	rsbvs	r2, r1, #104	; 0x68
80116968:	2174726f 	cmncs	r4, pc, ror #4
8011696c:	63282021 			; <UNDEFINED> instruction: 0x63282021
80116970:	2065726f 	rsbcs	r7, r5, pc, ror #4
80116974:	0a296425 	beq	80b6fa10 <_kernel_end+0x821a10>
80116978:	00000000 	andeq	r0, r0, r0
8011697c:	3a646970 	bcc	81a30f44 <_kernel_end+0x16e2f44>
80116980:	28642520 	stmdacs	r4!, {r5, r8, sl, sp}^
80116984:	2c297325 	stccs	3, cr7, [r9], #-148	; 0xffffff6c
80116988:	65727020 	ldrbvs	r7, [r2, #-32]!	; 0xffffffe0
8011698c:	63746566 	cmnvs	r4, #427819008	; 0x19800000
80116990:	62612068 	rsbvs	r2, r1, #104	; 0x68
80116994:	2174726f 	cmncs	r4, pc, ror #4
80116998:	63282021 			; <UNDEFINED> instruction: 0x63282021
8011699c:	2065726f 	rsbcs	r7, r5, pc, ror #4
801169a0:	20296425 	eorcs	r6, r9, r5, lsr #8
801169a4:	65646f63 	strbvs	r6, [r4, #-3939]!	; 0xfffff09d
801169a8:	2578303a 	ldrbcs	r3, [r8, #-58]!	; 0xffffffc6
801169ac:	00000a78 	andeq	r0, r0, r8, ror sl
801169b0:	72656b5f 	rsbvc	r6, r5, #97280	; 0x17c00
801169b4:	2c6c656e 	cfstr64cs	mvdx6, [ip], #-440	; 0xfffffe48
801169b8:	74616420 	strbtvc	r6, [r1], #-1056	; 0xfffffbe0
801169bc:	62612061 	rsbvs	r2, r1, #97	; 0x61
801169c0:	2174726f 	cmncs	r4, pc, ror #4
801169c4:	6f632021 	svcvs	0x00632021
801169c8:	203a6572 	eorscs	r6, sl, r2, ror r5
801169cc:	202c6425 	eorcs	r6, ip, r5, lsr #8
801169d0:	203a7461 	eorscs	r7, sl, r1, ror #8
801169d4:	58257830 	stmdapl	r5!, {r4, r5, fp, ip, sp, lr}
801169d8:	61747320 	cmnvs	r4, r0, lsr #6
801169dc:	3a737574 	bcc	81df3fb4 <_kernel_end+0x1aa5fb4>
801169e0:	25783020 	ldrbcs	r3, [r8, #-32]!	; 0xffffffe0
801169e4:	00000a58 	andeq	r0, r0, r8, asr sl
801169e8:	3a646970 	bcc	81a30fb0 <_kernel_end+0x16e2fb0>
801169ec:	28642520 	stmdacs	r4!, {r5, r8, sl, sp}^
801169f0:	2c297325 	stccs	3, cr7, [r9], #-148	; 0xffffff6c
801169f4:	726f6320 	rsbvc	r6, pc, #32, 6	; 0x80000000
801169f8:	25203a65 	strcs	r3, [r0, #-2661]!	; 0xfffff59b
801169fc:	64202c64 	strtvs	r2, [r0], #-3172	; 0xfffff39c
80116a00:	20617461 	rsbcs	r7, r1, r1, ror #8
80116a04:	726f6261 	rsbvc	r6, pc, #268435462	; 0x10000006
80116a08:	20212174 	eorcs	r2, r1, r4, ror r1
80116a0c:	203a7461 	eorscs	r7, sl, r1, ror #8
80116a10:	58257830 	stmdapl	r5!, {r4, r5, fp, ip, sp, lr}
80116a14:	6f63202c 	svcvs	0x0063202c
80116a18:	203a6564 	eorscs	r6, sl, r4, ror #10
80116a1c:	58257830 	stmdapl	r5!, {r4, r5, fp, ip, sp, lr}
80116a20:	0000000a 	andeq	r0, r0, sl
80116a24:	636f7270 	cmnvs	pc, #112, 4
80116a28:	70786520 	rsbsvc	r6, r8, r0, lsr #10
80116a2c:	20646e61 	rsbcs	r6, r4, r1, ror #28
80116a30:	6c696166 	stfvse	f6, [r9], #-408	; 0xfffffe68
80116a34:	21216465 			; <UNDEFINED> instruction: 0x21216465
80116a38:	65726620 	ldrbvs	r6, [r2, #-1568]!	; 0xfffff9e0
80116a3c:	656d2065 	strbvs	r2, [sp, #-101]!	; 0xffffff9b
80116a40:	6973206d 	ldmdbvs	r3!, {r0, r2, r3, r5, r6, sp}^
80116a44:	203a657a 	eorscs	r6, sl, sl, ror r5
80116a48:	29782528 	ldmdbcs	r8!, {r3, r5, r8, sl, sp}^
80116a4c:	6970202c 	ldmdbvs	r0!, {r2, r3, r5, sp}^
80116a50:	64253a64 	strtvs	r3, [r5], #-2660	; 0xfffff59c
80116a54:	6170202c 	cmnvs	r0, ip, lsr #32
80116a58:	20736567 	rsbscs	r6, r3, r7, ror #10
80116a5c:	3a6b7361 	bcc	81bf37e8 <_kernel_end+0x18a57e8>
80116a60:	000a6425 	andeq	r6, sl, r5, lsr #8
80116a64:	696e6170 	stmdbvs	lr!, {r4, r5, r6, r8, sp, lr}^
80116a68:	6b203a63 	blvs	809253fc <_kernel_end+0x5d73fc>
80116a6c:	6b726f66 	blvs	81db280c <_kernel_end+0x1a6480c>
80116a70:	65726320 	ldrbvs	r6, [r2, #-800]!	; 0xfffffce0
80116a74:	20657461 	rsbcs	r7, r5, r1, ror #8
80116a78:	636f7270 	cmnvs	pc, #112, 4
80116a7c:	69616620 	stmdbvs	r1!, {r5, r9, sl, sp, lr}^
80116a80:	2164656c 	cmncs	r4, ip, ror #10
80116a84:	64252821 	strtvs	r2, [r5], #-2081	; 0xfffff7df
80116a88:	00000a29 	andeq	r0, r0, r9, lsr #20
80116a8c:	5f757063 	svcpl	0x00757063
80116a90:	65726f63 	ldrbvs	r6, [r2, #-3939]!	; 0xfffff09d
80116a94:	6c61685f 	stclvs	8, cr6, [r1], #-380	; 0xfffffe84
80116a98:	00000074 	andeq	r0, r0, r4, ror r0
80116a9c:	2d2d2d2d 	stccs	13, cr2, [sp, #-180]!	; 0xffffff4c
80116aa0:	2d2d2d2d 	stccs	13, cr2, [sp, #-180]!	; 0xffffff4c
80116aa4:	2d2d2d2d 	stccs	13, cr2, [sp, #-180]!	; 0xffffff4c
80116aa8:	2d2d2d2d 	stccs	13, cr2, [sp, #-180]!	; 0xffffff4c
80116aac:	2d2d2d2d 	stccs	13, cr2, [sp, #-180]!	; 0xffffff4c
80116ab0:	2d2d2d2d 	stccs	13, cr2, [sp, #-180]!	; 0xffffff4c
80116ab4:	2d2d2d2d 	stccs	13, cr2, [sp, #-180]!	; 0xffffff4c
80116ab8:	2d2d2d2d 	stccs	13, cr2, [sp, #-180]!	; 0xffffff4c
80116abc:	00000a2d 	andeq	r0, r0, sp, lsr #20
80116ac0:	253a7325 	ldrcs	r7, [sl, #-805]!	; 0xfffffcdb
80116ac4:	00000a64 	andeq	r0, r0, r4, ror #20
80116ac8:	696e6150 	stmdbvs	lr!, {r4, r6, r8, sp, lr}^
80116acc:	6e203a63 	vnmulvs.f32	s6, s0, s7
80116ad0:	20656e6f 	rsbcs	r6, r5, pc, ror #28
80116ad4:	636f7270 	cmnvs	pc, #112, 4
80116ad8:	206f7420 	rsbcs	r7, pc, r0, lsr #8
80116adc:	73206562 			; <UNDEFINED> instruction: 0x73206562
80116ae0:	64656863 	strbtvs	r6, [r5], #-2147	; 0xfffff79d
80116ae4:	64656c75 	strbtvs	r6, [r5], #-3189	; 0xfffff38b
80116ae8:	Address 0x0000000080116ae8 is out of bounds.


Disassembly of section .rodata:

80116aec <__func__.2>:
80116aec:	636d7764 	cmnvs	sp, #100, 14	; 0x1900000
80116af0:	65735f69 	ldrbvs	r5, [r3, #-3945]!	; 0xfffff097
80116af4:	635f646e 	cmpvs	pc, #1845493760	; 0x6e000000
80116af8:	0000646d 	andeq	r6, r0, sp, ror #8

80116afc <__func__.1>:
80116afc:	636d7764 	cmnvs	sp, #100, 14	; 0x1900000
80116b00:	61645f69 	cmnvs	r4, r9, ror #30
80116b04:	745f6174 	ldrbvc	r6, [pc], #-372	; 80116b0c <__func__.1+0x10>
80116b08:	736e6172 	cmnvc	lr, #-2147483620	; 0x8000001c
80116b0c:	00726566 	rsbseq	r6, r2, r6, ror #10

80116b10 <__func__.0>:
80116b10:	636d7764 	cmnvs	sp, #100, 14	; 0x1900000
80116b14:	69665f69 	stmdbvs	r6!, {r0, r3, r5, r6, r8, r9, sl, fp, ip, lr}^
80116b18:	725f6f66 	subsvc	r6, pc, #408	; 0x198
80116b1c:	79646165 	stmdbvc	r4!, {r0, r2, r5, r6, r8, sp, lr}^
80116b20:	00000000 	andeq	r0, r0, r0
80116b24:	253a6469 	ldrcs	r6, [sl, #-1129]!	; 0xfffffb97
80116b28:	64612064 	strbtvs	r2, [r1], #-100	; 0xffffff9c
80116b2c:	253a7264 	ldrcs	r7, [sl, #-612]!	; 0xfffffd9c
80116b30:	0a783830 	beq	81f24bf8 <_kernel_end+0x1bd6bf8>
80116b34:	00000000 	andeq	r0, r0, r0

80116b38 <__func__.0>:
80116b38:	31336b72 	teqcc	r3, r2, ror fp
80116b3c:	735f7832 	cmpvc	pc, #3276800	; 0x320000
80116b40:	735f7379 	cmpvc	pc, #-469762047	; 0xe4000001
80116b44:	705f7465 	subsvc	r7, pc, r5, ror #8
80116b48:	7265776f 	rsbvc	r7, r5, #29097984	; 0x1bc0000
80116b4c:	6d6f645f 	cfstrdvs	mvd6, [pc, #-380]!	; 801169d8 <_kernel_entry_c+0x5cc>
80116b50:	006e6961 	rsbeq	r6, lr, r1, ror #18
80116b54:	25207325 	strcs	r7, [r0, #-805]!	; 0xfffffcdb
80116b58:	00000a64 	andeq	r0, r0, r4, ror #20
80116b5c:	25207325 	strcs	r7, [r0, #-805]!	; 0xfffffcdb
80116b60:	30252064 	eorcc	r2, r5, r4, rrx
80116b64:	2d207838 	stccs	8, cr7, [r0, #-224]!	; 0xffffff20
80116b68:	3025203e 	eorcc	r2, r5, lr, lsr r0
80116b6c:	000a7838 	andeq	r7, sl, r8, lsr r8
80116b70:	33336b72 	teqcc	r3, #116736	; 0x1c800
80116b74:	00003632 	andeq	r3, r0, r2, lsr r6

80116b78 <fontdata_8x16>:
	...
80116b88:	817e0000 	cmnhi	lr, r0
80116b8c:	bd8181a5 	stfltd	f0, [r1, #660]	; 0x294
80116b90:	7e818199 	mcrvc	1, 4, r8, cr1, cr9, {4}
80116b94:	00000000 	andeq	r0, r0, r0
80116b98:	ff7e0000 			; <UNDEFINED> instruction: 0xff7e0000
80116b9c:	c3ffffdb 	mvnsgt	pc, #876	; 0x36c
80116ba0:	7effffe7 	cdpvc	15, 15, cr15, cr15, cr7, {7}
	...
80116bac:	fefefe6c 	cdp2	14, 15, cr15, cr14, cr12, {3}
80116bb0:	10387cfe 	ldrshtne	r7, [r8], -lr
	...
80116bbc:	fe7c3810 	vfmab.bf16	<illegal reg q9.5>, q6, d0[0]
80116bc0:	0010387c 	andseq	r3, r0, ip, ror r8
80116bc4:	00000000 	andeq	r0, r0, r0
80116bc8:	18000000 	stmdane	r0, {}	; <UNPREDICTABLE>
80116bcc:	e7e73c3c 			; <UNDEFINED> instruction: 0xe7e73c3c
80116bd0:	3c1818e7 	ldccc	8, cr1, [r8], {231}	; 0xe7
80116bd4:	00000000 	andeq	r0, r0, r0
80116bd8:	18000000 	stmdane	r0, {}	; <UNPREDICTABLE>
80116bdc:	ffff7e3c 			; <UNDEFINED> instruction: 0xffff7e3c
80116be0:	3c18187e 	ldccc	8, cr1, [r8], {126}	; 0x7e
	...
80116bec:	3c180000 	ldccc	0, cr0, [r8], {-0}
80116bf0:	0000183c 	andeq	r1, r0, ip, lsr r8
80116bf4:	00000000 	andeq	r0, r0, r0
80116bf8:	ffffffff 			; <UNDEFINED> instruction: 0xffffffff
80116bfc:	c3e7ffff 	mvngt	pc, #1020	; 0x3fc
80116c00:	ffffe7c3 			; <UNDEFINED> instruction: 0xffffe7c3
80116c04:	ffffffff 			; <UNDEFINED> instruction: 0xffffffff
80116c08:	00000000 	andeq	r0, r0, r0
80116c0c:	42663c00 	rsbmi	r3, r6, #0, 24
80116c10:	003c6642 	eorseq	r6, ip, r2, asr #12
80116c14:	00000000 	andeq	r0, r0, r0
80116c18:	ffffffff 			; <UNDEFINED> instruction: 0xffffffff
80116c1c:	bd99c3ff 	ldclt	3, cr12, [r9, #1020]	; 0x3fc
80116c20:	ffc399bd 			; <UNDEFINED> instruction: 0xffc399bd
80116c24:	ffffffff 			; <UNDEFINED> instruction: 0xffffffff
80116c28:	0e1e0000 	cdpeq	0, 1, cr0, cr14, cr0, {0}
80116c2c:	cc78321a 	lfmgt	f3, 2, [r8], #-104	; 0xffffff98
80116c30:	78cccccc 	stmiavc	ip, {r2, r3, r6, r7, sl, fp, lr, pc}^
80116c34:	00000000 	andeq	r0, r0, r0
80116c38:	663c0000 	ldrtvs	r0, [ip], -r0
80116c3c:	3c666666 	stclcc	6, cr6, [r6], #-408	; 0xfffffe68
80116c40:	18187e18 	ldmdane	r8, {r3, r4, r9, sl, fp, ip, sp, lr}
80116c44:	00000000 	andeq	r0, r0, r0
80116c48:	333f0000 	teqcc	pc, #0
80116c4c:	3030303f 	eorscc	r3, r0, pc, lsr r0
80116c50:	e0f07030 	rscs	r7, r0, r0, lsr r0
80116c54:	00000000 	andeq	r0, r0, r0
80116c58:	637f0000 	cmnvs	pc, #0
80116c5c:	6363637f 	cmnvs	r3, #-67108863	; 0xfc000001
80116c60:	e6e76763 	strbt	r6, [r7], r3, ror #14
80116c64:	000000c0 	andeq	r0, r0, r0, asr #1
80116c68:	18000000 	stmdane	r0, {}	; <UNPREDICTABLE>
80116c6c:	e73cdb18 			; <UNDEFINED> instruction: 0xe73cdb18
80116c70:	1818db3c 	ldmdane	r8, {r2, r3, r4, r5, r8, r9, fp, ip, lr, pc}
80116c74:	00000000 	andeq	r0, r0, r0
80116c78:	e0c08000 	sbc	r8, r0, r0
80116c7c:	f8fef8f0 			; <UNDEFINED> instruction: 0xf8fef8f0
80116c80:	80c0e0f0 	strdhi	lr, [r0], #0
80116c84:	00000000 	andeq	r0, r0, r0
80116c88:	0e060200 	cdpeq	2, 0, cr0, cr6, cr0, {0}
80116c8c:	3efe3e1e 	mrccc	14, 7, r3, cr14, cr14, {0}
80116c90:	02060e1e 	andeq	r0, r6, #480	; 0x1e0
80116c94:	00000000 	andeq	r0, r0, r0
80116c98:	3c180000 	ldccc	0, cr0, [r8], {-0}
80116c9c:	1818187e 	ldmdane	r8, {r1, r2, r3, r4, r5, r6, fp, ip}
80116ca0:	00183c7e 	andseq	r3, r8, lr, ror ip
80116ca4:	00000000 	andeq	r0, r0, r0
80116ca8:	66660000 	strbtvs	r0, [r6], -r0
80116cac:	66666666 	strbtvs	r6, [r6], -r6, ror #12
80116cb0:	66660066 	strbtvs	r0, [r6], -r6, rrx
80116cb4:	00000000 	andeq	r0, r0, r0
80116cb8:	db7f0000 	blle	820d6cc0 <_kernel_end+0x1d88cc0>
80116cbc:	1b7bdbdb 	blne	8200dc30 <_kernel_end+0x1cbfc30>
80116cc0:	1b1b1b1b 	blne	807dd934 <_kernel_end+0x48f934>
80116cc4:	00000000 	andeq	r0, r0, r0
80116cc8:	60c67c00 	sbcvs	r7, r6, r0, lsl #24
80116ccc:	c6c66c38 			; <UNDEFINED> instruction: 0xc6c66c38
80116cd0:	c60c386c 	strgt	r3, [ip], -ip, ror #16
80116cd4:	0000007c 	andeq	r0, r0, ip, ror r0
	...
80116ce0:	fefefefe 	mrc2	14, 7, pc, cr14, cr14, {7}
80116ce4:	00000000 	andeq	r0, r0, r0
80116ce8:	3c180000 	ldccc	0, cr0, [r8], {-0}
80116cec:	1818187e 	ldmdane	r8, {r1, r2, r3, r4, r5, r6, fp, ip}
80116cf0:	7e183c7e 	mrcvc	12, 0, r3, cr8, cr14, {3}
80116cf4:	00000000 	andeq	r0, r0, r0
80116cf8:	3c180000 	ldccc	0, cr0, [r8], {-0}
80116cfc:	1818187e 	ldmdane	r8, {r1, r2, r3, r4, r5, r6, fp, ip}
80116d00:	18181818 	ldmdane	r8, {r3, r4, fp, ip}
80116d04:	00000000 	andeq	r0, r0, r0
80116d08:	18180000 	ldmdane	r8, {}	; <UNPREDICTABLE>
80116d0c:	18181818 	ldmdane	r8, {r3, r4, fp, ip}
80116d10:	183c7e18 	ldmdane	ip!, {r3, r4, r9, sl, fp, ip, sp, lr}
	...
80116d1c:	fe0c1800 	vcmla.f16	d1, d12, d0[0], #0
80116d20:	0000180c 	andeq	r1, r0, ip, lsl #16
	...
80116d2c:	fe603000 	cdp2	0, 6, cr3, cr0, cr0, {0}
80116d30:	00003060 	andeq	r3, r0, r0, rrx
	...
80116d3c:	c0c00000 	sbcgt	r0, r0, r0
80116d40:	0000fec0 	andeq	pc, r0, r0, asr #29
	...
80116d4c:	fe6c2800 	vcmla.f16	d18, d12, d0[0], #180
80116d50:	0000286c 	andeq	r2, r0, ip, ror #16
	...
80116d5c:	7c383810 	ldcvc	8, cr3, [r8], #-64	; 0xffffffc0
80116d60:	00fefe7c 	rscseq	pc, lr, ip, ror lr	; <UNPREDICTABLE>
	...
80116d6c:	7c7cfefe 	ldclvc	14, cr15, [ip], #-1016	; 0xfffffc08
80116d70:	00103838 	andseq	r3, r0, r8, lsr r8
	...
80116d88:	3c180000 	ldccc	0, cr0, [r8], {-0}
80116d8c:	18183c3c 	ldmdane	r8, {r2, r3, r4, r5, sl, fp, ip, sp}
80116d90:	18180018 	ldmdane	r8, {r3, r4}
80116d94:	00000000 	andeq	r0, r0, r0
80116d98:	66666600 	strbtvs	r6, [r6], -r0, lsl #12
80116d9c:	00000024 	andeq	r0, r0, r4, lsr #32
	...
80116da8:	6c000000 	stcvs	0, cr0, [r0], {-0}
80116dac:	6c6cfe6c 	stclvs	14, cr15, [ip], #-432	; 0xfffffe50
80116db0:	6c6cfe6c 	stclvs	14, cr15, [ip], #-432	; 0xfffffe50
80116db4:	00000000 	andeq	r0, r0, r0
80116db8:	c67c1818 			; <UNDEFINED> instruction: 0xc67c1818
80116dbc:	067cc0c2 	ldrbteq	ip, [ip], -r2, asr #1
80116dc0:	7cc68606 	stclvc	6, cr8, [r6], {6}
80116dc4:	00001818 	andeq	r1, r0, r8, lsl r8
80116dc8:	00000000 	andeq	r0, r0, r0
80116dcc:	180cc6c2 	stmdane	ip, {r1, r6, r7, r9, sl, lr, pc}
80116dd0:	86c66030 			; <UNDEFINED> instruction: 0x86c66030
80116dd4:	00000000 	andeq	r0, r0, r0
80116dd8:	6c380000 	ldcvs	0, cr0, [r8], #-0
80116ddc:	dc76386c 	ldclle	8, cr3, [r6], #-432	; 0xfffffe50
80116de0:	76cccccc 	strbvc	ip, [ip], ip, asr #25
80116de4:	00000000 	andeq	r0, r0, r0
80116de8:	30303000 	eorscc	r3, r0, r0
80116dec:	00000060 	andeq	r0, r0, r0, rrx
	...
80116df8:	180c0000 	stmdane	ip, {}	; <UNPREDICTABLE>
80116dfc:	30303030 	eorscc	r3, r0, r0, lsr r0
80116e00:	0c183030 	ldceq	0, cr3, [r8], {48}	; 0x30
80116e04:	00000000 	andeq	r0, r0, r0
80116e08:	18300000 	ldmdane	r0!, {}	; <UNPREDICTABLE>
80116e0c:	0c0c0c0c 	stceq	12, cr0, [ip], {12}
80116e10:	30180c0c 	andscc	r0, r8, ip, lsl #24
	...
80116e1c:	ff3c6600 			; <UNDEFINED> instruction: 0xff3c6600
80116e20:	0000663c 	andeq	r6, r0, ip, lsr r6
	...
80116e2c:	7e181800 	cdpvc	8, 1, cr1, cr8, cr0, {0}
80116e30:	00001818 	andeq	r1, r0, r8, lsl r8
	...
80116e40:	18181800 	ldmdane	r8, {fp, ip}
80116e44:	00000030 	andeq	r0, r0, r0, lsr r0
80116e48:	00000000 	andeq	r0, r0, r0
80116e4c:	fe000000 	cdp2	0, 0, cr0, cr0, cr0, {0}
	...
80116e60:	18180000 	ldmdane	r8, {}	; <UNPREDICTABLE>
	...
80116e6c:	180c0602 	stmdane	ip, {r1, r9, sl}
80116e70:	80c06030 	sbchi	r6, r0, r0, lsr r0
80116e74:	00000000 	andeq	r0, r0, r0
80116e78:	6c380000 	ldcvs	0, cr0, [r8], #-0
80116e7c:	d6d6c6c6 	ldrble	ip, [r6], r6, asr #13
80116e80:	386cc6c6 	stmdacc	ip!, {r1, r2, r6, r7, r9, sl, lr, pc}^
80116e84:	00000000 	andeq	r0, r0, r0
80116e88:	38180000 	ldmdacc	r8, {}	; <UNPREDICTABLE>
80116e8c:	18181878 	ldmdane	r8, {r3, r4, r5, r6, fp, ip}
80116e90:	7e181818 	mrcvc	8, 0, r1, cr8, cr8, {0}
80116e94:	00000000 	andeq	r0, r0, r0
80116e98:	c67c0000 	ldrbtgt	r0, [ip], -r0
80116e9c:	30180c06 	andscc	r0, r8, r6, lsl #24
80116ea0:	fec6c060 	cdp2	0, 12, cr12, cr6, cr0, {3}
80116ea4:	00000000 	andeq	r0, r0, r0
80116ea8:	c67c0000 	ldrbtgt	r0, [ip], -r0
80116eac:	063c0606 	ldrteq	r0, [ip], -r6, lsl #12
80116eb0:	7cc60606 	stclvc	6, cr0, [r6], {6}
80116eb4:	00000000 	andeq	r0, r0, r0
80116eb8:	1c0c0000 	stcne	0, cr0, [ip], {-0}
80116ebc:	fecc6c3c 	mcr2	12, 6, r6, cr12, cr12, {1}
80116ec0:	1e0c0c0c 	cdpne	12, 0, cr0, cr12, cr12, {0}
80116ec4:	00000000 	andeq	r0, r0, r0
80116ec8:	c0fe0000 	rscsgt	r0, lr, r0
80116ecc:	06fcc0c0 	ldrbteq	ip, [ip], r0, asr #1
80116ed0:	7cc60606 	stclvc	6, cr0, [r6], {6}
80116ed4:	00000000 	andeq	r0, r0, r0
80116ed8:	60380000 	eorsvs	r0, r8, r0
80116edc:	c6fcc0c0 	ldrbtgt	ip, [ip], r0, asr #1
80116ee0:	7cc6c6c6 	stclvc	6, cr12, [r6], {198}	; 0xc6
80116ee4:	00000000 	andeq	r0, r0, r0
80116ee8:	c6fe0000 	ldrbtgt	r0, [lr], r0
80116eec:	180c0606 	stmdane	ip, {r1, r2, r9, sl}
80116ef0:	30303030 	eorscc	r3, r0, r0, lsr r0
80116ef4:	00000000 	andeq	r0, r0, r0
80116ef8:	c67c0000 	ldrbtgt	r0, [ip], -r0
80116efc:	c67cc6c6 	ldrbtgt	ip, [ip], -r6, asr #13
80116f00:	7cc6c6c6 	stclvc	6, cr12, [r6], {198}	; 0xc6
80116f04:	00000000 	andeq	r0, r0, r0
80116f08:	c67c0000 	ldrbtgt	r0, [ip], -r0
80116f0c:	067ec6c6 	ldrbteq	ip, [lr], -r6, asr #13
80116f10:	780c0606 	stmdavc	ip, {r1, r2, r9, sl}
	...
80116f1c:	00001818 	andeq	r1, r0, r8, lsl r8
80116f20:	00181800 	andseq	r1, r8, r0, lsl #16
	...
80116f2c:	00001818 	andeq	r1, r0, r8, lsl r8
80116f30:	30181800 	andscc	r1, r8, r0, lsl #16
80116f34:	00000000 	andeq	r0, r0, r0
80116f38:	06000000 	streq	r0, [r0], -r0
80116f3c:	6030180c 	eorsvs	r1, r0, ip, lsl #16
80116f40:	060c1830 			; <UNDEFINED> instruction: 0x060c1830
	...
80116f4c:	00007e00 	andeq	r7, r0, r0, lsl #28
80116f50:	0000007e 	andeq	r0, r0, lr, ror r0
80116f54:	00000000 	andeq	r0, r0, r0
80116f58:	60000000 	andvs	r0, r0, r0
80116f5c:	060c1830 			; <UNDEFINED> instruction: 0x060c1830
80116f60:	6030180c 	eorsvs	r1, r0, ip, lsl #16
80116f64:	00000000 	andeq	r0, r0, r0
80116f68:	c67c0000 	ldrbtgt	r0, [ip], -r0
80116f6c:	18180cc6 	ldmdane	r8, {r1, r2, r6, r7, sl, fp}
80116f70:	18180018 	ldmdane	r8, {r3, r4}
80116f74:	00000000 	andeq	r0, r0, r0
80116f78:	7c000000 	stcvc	0, cr0, [r0], {-0}
80116f7c:	dedec6c6 	cdple	6, 13, cr12, cr14, cr6, {6}
80116f80:	7cc0dcde 	stclvc	12, cr13, [r0], {222}	; 0xde
80116f84:	00000000 	andeq	r0, r0, r0
80116f88:	38100000 	ldmdacc	r0, {}	; <UNPREDICTABLE>
80116f8c:	fec6c66c 	cdp2	6, 12, cr12, cr6, cr12, {3}
80116f90:	c6c6c6c6 	strbgt	ip, [r6], r6, asr #13
80116f94:	00000000 	andeq	r0, r0, r0
80116f98:	66fc0000 	ldrbtvs	r0, [ip], r0
80116f9c:	667c6666 	ldrbtvs	r6, [ip], -r6, ror #12
80116fa0:	fc666666 	stc2l	6, cr6, [r6], #-408	; 0xfffffe68
80116fa4:	00000000 	andeq	r0, r0, r0
80116fa8:	663c0000 	ldrtvs	r0, [ip], -r0
80116fac:	c0c0c0c2 	sbcgt	ip, r0, r2, asr #1
80116fb0:	3c66c2c0 	sfmcc	f4, 3, [r6], #-768	; 0xfffffd00
80116fb4:	00000000 	andeq	r0, r0, r0
80116fb8:	6cf80000 	ldclvs	0, cr0, [r8]
80116fbc:	66666666 	strbtvs	r6, [r6], -r6, ror #12
80116fc0:	f86c6666 			; <UNDEFINED> instruction: 0xf86c6666
80116fc4:	00000000 	andeq	r0, r0, r0
80116fc8:	66fe0000 	ldrbtvs	r0, [lr], r0
80116fcc:	68786862 	ldmdavs	r8!, {r1, r5, r6, fp, sp, lr}^
80116fd0:	fe666260 	cdp2	2, 6, cr6, cr6, cr0, {3}
80116fd4:	00000000 	andeq	r0, r0, r0
80116fd8:	66fe0000 	ldrbtvs	r0, [lr], r0
80116fdc:	68786862 	ldmdavs	r8!, {r1, r5, r6, fp, sp, lr}^
80116fe0:	f0606060 			; <UNDEFINED> instruction: 0xf0606060
80116fe4:	00000000 	andeq	r0, r0, r0
80116fe8:	663c0000 	ldrtvs	r0, [ip], -r0
80116fec:	dec0c0c2 	cdple	0, 12, cr12, cr0, cr2, {6}
80116ff0:	3a66c6c6 	bcc	81ac8b10 <_kernel_end+0x177ab10>
80116ff4:	00000000 	andeq	r0, r0, r0
80116ff8:	c6c60000 	strbgt	r0, [r6], r0
80116ffc:	c6fec6c6 	ldrbtgt	ip, [lr], r6, asr #13
80117000:	c6c6c6c6 	strbgt	ip, [r6], r6, asr #13
80117004:	00000000 	andeq	r0, r0, r0
80117008:	183c0000 	ldmdane	ip!, {}	; <UNPREDICTABLE>
8011700c:	18181818 	ldmdane	r8, {r3, r4, fp, ip}
80117010:	3c181818 	ldccc	8, cr1, [r8], {24}
80117014:	00000000 	andeq	r0, r0, r0
80117018:	0c1e0000 	ldceq	0, cr0, [lr], {-0}
8011701c:	0c0c0c0c 	stceq	12, cr0, [ip], {12}
80117020:	78cccccc 	stmiavc	ip, {r2, r3, r6, r7, sl, fp, lr, pc}^
80117024:	00000000 	andeq	r0, r0, r0
80117028:	66e60000 	strbtvs	r0, [r6], r0
8011702c:	78786c66 	ldmdavc	r8!, {r1, r2, r5, r6, sl, fp, sp, lr}^
80117030:	e666666c 	strbt	r6, [r6], -ip, ror #12
80117034:	00000000 	andeq	r0, r0, r0
80117038:	60f00000 	rscsvs	r0, r0, r0
8011703c:	60606060 	rsbvs	r6, r0, r0, rrx
80117040:	fe666260 	cdp2	2, 6, cr6, cr6, cr0, {3}
80117044:	00000000 	andeq	r0, r0, r0
80117048:	eec60000 	cdp	0, 12, cr0, cr6, cr0, {0}
8011704c:	c6d6fefe 			; <UNDEFINED> instruction: 0xc6d6fefe
80117050:	c6c6c6c6 	strbgt	ip, [r6], r6, asr #13
80117054:	00000000 	andeq	r0, r0, r0
80117058:	e6c60000 	strb	r0, [r6], r0
8011705c:	cedefef6 	mrcgt	14, 6, APSR_nzcv, cr14, cr6, {7}
80117060:	c6c6c6c6 	strbgt	ip, [r6], r6, asr #13
80117064:	00000000 	andeq	r0, r0, r0
80117068:	c67c0000 	ldrbtgt	r0, [ip], -r0
8011706c:	c6c6c6c6 	strbgt	ip, [r6], r6, asr #13
80117070:	7cc6c6c6 	stclvc	6, cr12, [r6], {198}	; 0xc6
80117074:	00000000 	andeq	r0, r0, r0
80117078:	66fc0000 	ldrbtvs	r0, [ip], r0
8011707c:	607c6666 	rsbsvs	r6, ip, r6, ror #12
80117080:	f0606060 			; <UNDEFINED> instruction: 0xf0606060
80117084:	00000000 	andeq	r0, r0, r0
80117088:	c67c0000 	ldrbtgt	r0, [ip], -r0
8011708c:	c6c6c6c6 	strbgt	ip, [r6], r6, asr #13
80117090:	7cded6c6 	ldclvc	6, cr13, [lr], {198}	; 0xc6
80117094:	00000e0c 	andeq	r0, r0, ip, lsl #28
80117098:	66fc0000 	ldrbtvs	r0, [ip], r0
8011709c:	6c7c6666 	ldclvs	6, cr6, [ip], #-408	; 0xfffffe68
801170a0:	e6666666 	strbt	r6, [r6], -r6, ror #12
801170a4:	00000000 	andeq	r0, r0, r0
801170a8:	c67c0000 	ldrbtgt	r0, [ip], -r0
801170ac:	0c3860c6 	ldceq	0, cr6, [r8], #-792	; 0xfffffce8
801170b0:	7cc6c606 	stclvc	6, cr12, [r6], {6}
801170b4:	00000000 	andeq	r0, r0, r0
801170b8:	7e7e0000 	cdpvc	0, 7, cr0, cr14, cr0, {0}
801170bc:	1818185a 	ldmdane	r8, {r1, r3, r4, r6, fp, ip}
801170c0:	3c181818 	ldccc	8, cr1, [r8], {24}
801170c4:	00000000 	andeq	r0, r0, r0
801170c8:	c6c60000 	strbgt	r0, [r6], r0
801170cc:	c6c6c6c6 	strbgt	ip, [r6], r6, asr #13
801170d0:	7cc6c6c6 	stclvc	6, cr12, [r6], {198}	; 0xc6
801170d4:	00000000 	andeq	r0, r0, r0
801170d8:	c6c60000 	strbgt	r0, [r6], r0
801170dc:	c6c6c6c6 	strbgt	ip, [r6], r6, asr #13
801170e0:	10386cc6 	eorsne	r6, r8, r6, asr #25
801170e4:	00000000 	andeq	r0, r0, r0
801170e8:	c6c60000 	strbgt	r0, [r6], r0
801170ec:	d6d6c6c6 	ldrble	ip, [r6], r6, asr #13
801170f0:	6ceefed6 	stclvs	14, cr15, [lr], #856	; 0x358
801170f4:	00000000 	andeq	r0, r0, r0
801170f8:	c6c60000 	strbgt	r0, [r6], r0
801170fc:	38387c6c 	ldmdacc	r8!, {r2, r3, r5, r6, sl, fp, ip, sp, lr}
80117100:	c6c66c7c 	uxtab16gt	r6, r6, ip, ROR #24
80117104:	00000000 	andeq	r0, r0, r0
80117108:	66660000 	strbtvs	r0, [r6], -r0
8011710c:	183c6666 	ldmdane	ip!, {r1, r2, r5, r6, r9, sl, sp, lr}
80117110:	3c181818 	ldccc	8, cr1, [r8], {24}
80117114:	00000000 	andeq	r0, r0, r0
80117118:	c6fe0000 	ldrbtgt	r0, [lr], r0
8011711c:	30180c86 	andscc	r0, r8, r6, lsl #25
80117120:	fec6c260 	cdp2	2, 12, cr12, cr6, cr0, {3}
80117124:	00000000 	andeq	r0, r0, r0
80117128:	303c0000 	eorscc	r0, ip, r0
8011712c:	30303030 	eorscc	r3, r0, r0, lsr r0
80117130:	3c303030 	ldccc	0, cr3, [r0], #-192	; 0xffffff40
80117134:	00000000 	andeq	r0, r0, r0
80117138:	80000000 	andhi	r0, r0, r0
8011713c:	3870e0c0 	ldmdacc	r0!, {r6, r7, sp, lr, pc}^
80117140:	02060e1c 	andeq	r0, r6, #28, 28	; 0x1c0
80117144:	00000000 	andeq	r0, r0, r0
80117148:	0c3c0000 	ldceq	0, cr0, [ip], #-0
8011714c:	0c0c0c0c 	stceq	12, cr0, [ip], {12}
80117150:	3c0c0c0c 	stccc	12, cr0, [ip], {12}
80117154:	00000000 	andeq	r0, r0, r0
80117158:	c66c3810 			; <UNDEFINED> instruction: 0xc66c3810
	...
80117174:	0000ff00 	andeq	pc, r0, r0, lsl #30
80117178:	0c183000 	ldceq	0, cr3, [r8], {-0}
	...
8011718c:	7c0c7800 	stcvc	8, cr7, [ip], {-0}
80117190:	76cccccc 	strbvc	ip, [ip], ip, asr #25
80117194:	00000000 	andeq	r0, r0, r0
80117198:	60e00000 	rscvs	r0, r0, r0
8011719c:	666c7860 	strbtvs	r7, [ip], -r0, ror #16
801171a0:	7c666666 	stclvc	6, cr6, [r6], #-408	; 0xfffffe68
	...
801171ac:	c0c67c00 	sbcgt	r7, r6, r0, lsl #24
801171b0:	7cc6c0c0 	stclvc	0, cr12, [r6], {192}	; 0xc0
801171b4:	00000000 	andeq	r0, r0, r0
801171b8:	0c1c0000 	ldceq	0, cr0, [ip], {-0}
801171bc:	cc6c3c0c 	stclgt	12, cr3, [ip], #-48	; 0xffffffd0
801171c0:	76cccccc 	strbvc	ip, [ip], ip, asr #25
	...
801171cc:	fec67c00 	cdp2	12, 12, cr7, cr6, cr0, {0}
801171d0:	7cc6c0c0 	stclvc	0, cr12, [r6], {192}	; 0xc0
801171d4:	00000000 	andeq	r0, r0, r0
801171d8:	361c0000 	ldrcc	r0, [ip], -r0
801171dc:	30783032 	rsbscc	r3, r8, r2, lsr r0
801171e0:	78303030 	ldmdavc	r0!, {r4, r5, ip, sp}
	...
801171ec:	cccc7600 	stclgt	6, cr7, [ip], {0}
801171f0:	7ccccccc 	stclvc	12, cr12, [ip], {204}	; 0xcc
801171f4:	0078cc0c 	rsbseq	ip, r8, ip, lsl #24
801171f8:	60e00000 	rscvs	r0, r0, r0
801171fc:	66766c60 	ldrbtvs	r6, [r6], -r0, ror #24
80117200:	e6666666 	strbt	r6, [r6], -r6, ror #12
80117204:	00000000 	andeq	r0, r0, r0
80117208:	18180000 	ldmdane	r8, {}	; <UNPREDICTABLE>
8011720c:	18183800 	ldmdane	r8, {fp, ip, sp}
80117210:	3c181818 	ldccc	8, cr1, [r8], {24}
80117214:	00000000 	andeq	r0, r0, r0
80117218:	06060000 	streq	r0, [r6], -r0
8011721c:	06060e00 	streq	r0, [r6], -r0, lsl #28
80117220:	06060606 	streq	r0, [r6], -r6, lsl #12
80117224:	003c6666 	eorseq	r6, ip, r6, ror #12
80117228:	60e00000 	rscvs	r0, r0, r0
8011722c:	786c6660 	stmdavc	ip!, {r5, r6, r9, sl, sp, lr}^
80117230:	e6666c78 			; <UNDEFINED> instruction: 0xe6666c78
80117234:	00000000 	andeq	r0, r0, r0
80117238:	18380000 	ldmdane	r8!, {}	; <UNPREDICTABLE>
8011723c:	18181818 	ldmdane	r8, {r3, r4, fp, ip}
80117240:	3c181818 	ldccc	8, cr1, [r8], {24}
	...
8011724c:	d6feec00 	ldrbtle	lr, [lr], r0, lsl #24
80117250:	c6d6d6d6 			; <UNDEFINED> instruction: 0xc6d6d6d6
	...
8011725c:	6666dc00 	strbtvs	sp, [r6], -r0, lsl #24
80117260:	66666666 	strbtvs	r6, [r6], -r6, ror #12
	...
8011726c:	c6c67c00 	strbgt	r7, [r6], r0, lsl #24
80117270:	7cc6c6c6 	stclvc	6, cr12, [r6], {198}	; 0xc6
	...
8011727c:	6666dc00 	strbtvs	sp, [r6], -r0, lsl #24
80117280:	7c666666 	stclvc	6, cr6, [r6], #-408	; 0xfffffe68
80117284:	00f06060 	rscseq	r6, r0, r0, rrx
80117288:	00000000 	andeq	r0, r0, r0
8011728c:	cccc7600 	stclgt	6, cr7, [ip], {0}
80117290:	7ccccccc 	stclvc	12, cr12, [ip], {204}	; 0xcc
80117294:	001e0c0c 	andseq	r0, lr, ip, lsl #24
80117298:	00000000 	andeq	r0, r0, r0
8011729c:	6676dc00 	ldrbtvs	sp, [r6], -r0, lsl #24
801172a0:	f0606060 			; <UNDEFINED> instruction: 0xf0606060
	...
801172ac:	60c67c00 	sbcvs	r7, r6, r0, lsl #24
801172b0:	7cc60c38 	stclvc	12, cr0, [r6], {56}	; 0x38
801172b4:	00000000 	andeq	r0, r0, r0
801172b8:	30100000 	andscc	r0, r0, r0
801172bc:	3030fc30 	eorscc	pc, r0, r0, lsr ip	; <UNPREDICTABLE>
801172c0:	1c363030 	ldcne	0, cr3, [r6], #-192	; 0xffffff40
	...
801172cc:	cccccc00 	stclgt	12, cr12, [ip], {0}
801172d0:	76cccccc 	strbvc	ip, [ip], ip, asr #25
	...
801172dc:	c6c6c600 	strbgt	ip, [r6], r0, lsl #12
801172e0:	386cc6c6 	stmdacc	ip!, {r1, r2, r6, r7, r9, sl, lr, pc}^
	...
801172ec:	d6c6c600 	strble	ip, [r6], r0, lsl #12
801172f0:	6cfed6d6 	ldclvs	6, cr13, [lr], #856	; 0x358
	...
801172fc:	386cc600 	stmdacc	ip!, {r9, sl, lr, pc}^
80117300:	c66c3838 			; <UNDEFINED> instruction: 0xc66c3838
	...
8011730c:	c6c6c600 	strbgt	ip, [r6], r0, lsl #12
80117310:	7ec6c6c6 	cdpvc	6, 12, cr12, cr6, cr6, {6}
80117314:	00f80c06 	rscseq	r0, r8, r6, lsl #24
80117318:	00000000 	andeq	r0, r0, r0
8011731c:	18ccfe00 	stmiane	ip, {r9, sl, fp, ip, sp, lr, pc}^
80117320:	fec66030 	mcr2	0, 6, r6, cr6, cr0, {1}
80117324:	00000000 	andeq	r0, r0, r0
80117328:	180e0000 	stmdane	lr, {}	; <UNPREDICTABLE>
8011732c:	18701818 	ldmdane	r0!, {r3, r4, fp, ip}^
80117330:	0e181818 	mrceq	8, 0, r1, cr8, cr8, {0}
80117334:	00000000 	andeq	r0, r0, r0
80117338:	18180000 	ldmdane	r8, {}	; <UNPREDICTABLE>
8011733c:	18181818 	ldmdane	r8, {r3, r4, fp, ip}
80117340:	18181818 	ldmdane	r8, {r3, r4, fp, ip}
80117344:	00000000 	andeq	r0, r0, r0
80117348:	18700000 	ldmdane	r0!, {}^	; <UNPREDICTABLE>
8011734c:	180e1818 	stmdane	lr, {r3, r4, fp, ip}
80117350:	70181818 	andsvc	r1, r8, r8, lsl r8
80117354:	00000000 	andeq	r0, r0, r0
80117358:	00dc7600 	sbcseq	r7, ip, r0, lsl #12
	...
8011736c:	c66c3810 			; <UNDEFINED> instruction: 0xc66c3810
80117370:	00fec6c6 	rscseq	ip, lr, r6, asr #13
80117374:	00000000 	andeq	r0, r0, r0
80117378:	663c0000 	ldrtvs	r0, [ip], -r0
8011737c:	c0c0c0c2 	sbcgt	ip, r0, r2, asr #1
80117380:	3c66c2c0 	sfmcc	f4, 3, [r6], #-768	; 0xfffffd00
80117384:	00007018 	andeq	r7, r0, r8, lsl r0
80117388:	00cc0000 	sbceq	r0, ip, r0
8011738c:	cccccc00 	stclgt	12, cr12, [ip], {0}
80117390:	76cccccc 	strbvc	ip, [ip], ip, asr #25
80117394:	00000000 	andeq	r0, r0, r0
80117398:	30180c00 	andscc	r0, r8, r0, lsl #24
8011739c:	fec67c00 	cdp2	12, 12, cr7, cr6, cr0, {0}
801173a0:	7cc6c0c0 	stclvc	0, cr12, [r6], {192}	; 0xc0
801173a4:	00000000 	andeq	r0, r0, r0
801173a8:	6c381000 	ldcvs	0, cr1, [r8], #-0
801173ac:	7c0c7800 	stcvc	8, cr7, [ip], {-0}
801173b0:	76cccccc 	strbvc	ip, [ip], ip, asr #25
801173b4:	00000000 	andeq	r0, r0, r0
801173b8:	00cc0000 	sbceq	r0, ip, r0
801173bc:	7c0c7800 	stcvc	8, cr7, [ip], {-0}
801173c0:	76cccccc 	strbvc	ip, [ip], ip, asr #25
801173c4:	00000000 	andeq	r0, r0, r0
801173c8:	18306000 	ldmdane	r0!, {sp, lr}
801173cc:	7c0c7800 	stcvc	8, cr7, [ip], {-0}
801173d0:	76cccccc 	strbvc	ip, [ip], ip, asr #25
801173d4:	00000000 	andeq	r0, r0, r0
801173d8:	386c3800 	stmdacc	ip!, {fp, ip, sp}^
801173dc:	7c0c7800 	stcvc	8, cr7, [ip], {-0}
801173e0:	76cccccc 	strbvc	ip, [ip], ip, asr #25
	...
801173ec:	c0c67c00 	sbcgt	r7, r6, r0, lsl #24
801173f0:	7cc6c0c0 	stclvc	0, cr12, [r6], {192}	; 0xc0
801173f4:	00007018 	andeq	r7, r0, r8, lsl r0
801173f8:	6c381000 	ldcvs	0, cr1, [r8], #-0
801173fc:	fec67c00 	cdp2	12, 12, cr7, cr6, cr0, {0}
80117400:	7cc6c0c0 	stclvc	0, cr12, [r6], {192}	; 0xc0
80117404:	00000000 	andeq	r0, r0, r0
80117408:	00c60000 	sbceq	r0, r6, r0
8011740c:	fec67c00 	cdp2	12, 12, cr7, cr6, cr0, {0}
80117410:	7cc6c0c0 	stclvc	0, cr12, [r6], {192}	; 0xc0
80117414:	00000000 	andeq	r0, r0, r0
80117418:	18306000 	ldmdane	r0!, {sp, lr}
8011741c:	fec67c00 	cdp2	12, 12, cr7, cr6, cr0, {0}
80117420:	7cc6c0c0 	stclvc	0, cr12, [r6], {192}	; 0xc0
80117424:	00000000 	andeq	r0, r0, r0
80117428:	00660000 	rsbeq	r0, r6, r0
8011742c:	18183800 	ldmdane	r8, {fp, ip, sp}
80117430:	3c181818 	ldccc	8, cr1, [r8], {24}
80117434:	00000000 	andeq	r0, r0, r0
80117438:	663c1800 	ldrtvs	r1, [ip], -r0, lsl #16
8011743c:	18183800 	ldmdane	r8, {fp, ip, sp}
80117440:	3c181818 	ldccc	8, cr1, [r8], {24}
80117444:	00000000 	andeq	r0, r0, r0
80117448:	18306000 	ldmdane	r0!, {sp, lr}
8011744c:	18183800 	ldmdane	r8, {fp, ip, sp}
80117450:	3c181818 	ldccc	8, cr1, [r8], {24}
80117454:	00000000 	andeq	r0, r0, r0
80117458:	1000c600 	andne	ip, r0, r0, lsl #12
8011745c:	c6c66c38 			; <UNDEFINED> instruction: 0xc6c66c38
80117460:	c6c6c6fe 			; <UNDEFINED> instruction: 0xc6c6c6fe
80117464:	00000000 	andeq	r0, r0, r0
80117468:	10386c38 	eorsne	r6, r8, r8, lsr ip
8011746c:	fec66c38 	mcr2	12, 6, r6, cr6, cr8, {1}
80117470:	c6c6c6c6 	strbgt	ip, [r6], r6, asr #13
80117474:	00000000 	andeq	r0, r0, r0
80117478:	fe00180c 	vcmla.f16	d1, d0, d12[0], #0
8011747c:	78686266 	stmdavc	r8!, {r1, r2, r5, r6, r9, sp, lr}^
80117480:	fe666268 	cdp2	2, 6, cr6, cr6, cr8, {3}
	...
8011748c:	3636ec00 	ldrtcc	lr, [r6], -r0, lsl #24
80117490:	6ed8d87e 	mrcvs	8, 6, sp, cr8, cr14, {3}
80117494:	00000000 	andeq	r0, r0, r0
80117498:	6c3e0000 	ldcvs	0, cr0, [lr], #-0
8011749c:	ccfecccc 	ldclgt	12, cr12, [lr], #816	; 0x330
801174a0:	cecccccc 	cdpgt	12, 12, cr12, cr12, cr12, {6}
801174a4:	00000000 	andeq	r0, r0, r0
801174a8:	6c381000 	ldcvs	0, cr1, [r8], #-0
801174ac:	c6c67c00 	strbgt	r7, [r6], r0, lsl #24
801174b0:	7cc6c6c6 	stclvc	6, cr12, [r6], {198}	; 0xc6
801174b4:	00000000 	andeq	r0, r0, r0
801174b8:	00c60000 	sbceq	r0, r6, r0
801174bc:	c6c67c00 	strbgt	r7, [r6], r0, lsl #24
801174c0:	7cc6c6c6 	stclvc	6, cr12, [r6], {198}	; 0xc6
801174c4:	00000000 	andeq	r0, r0, r0
801174c8:	18306000 	ldmdane	r0!, {sp, lr}
801174cc:	c6c67c00 	strbgt	r7, [r6], r0, lsl #24
801174d0:	7cc6c6c6 	stclvc	6, cr12, [r6], {198}	; 0xc6
801174d4:	00000000 	andeq	r0, r0, r0
801174d8:	cc783000 	ldclgt	0, cr3, [r8], #-0
801174dc:	cccccc00 	stclgt	12, cr12, [ip], {0}
801174e0:	76cccccc 	strbvc	ip, [ip], ip, asr #25
801174e4:	00000000 	andeq	r0, r0, r0
801174e8:	18306000 	ldmdane	r0!, {sp, lr}
801174ec:	cccccc00 	stclgt	12, cr12, [ip], {0}
801174f0:	76cccccc 	strbvc	ip, [ip], ip, asr #25
801174f4:	00000000 	andeq	r0, r0, r0
801174f8:	00c60000 	sbceq	r0, r6, r0
801174fc:	c6c6c600 	strbgt	ip, [r6], r0, lsl #12
80117500:	7ec6c6c6 	cdpvc	6, 12, cr12, cr6, cr6, {6}
80117504:	00780c06 	rsbseq	r0, r8, r6, lsl #24
80117508:	7c00c600 	stcvc	6, cr12, [r0], {-0}
8011750c:	c6c6c6c6 	strbgt	ip, [r6], r6, asr #13
80117510:	7cc6c6c6 	stclvc	6, cr12, [r6], {198}	; 0xc6
80117514:	00000000 	andeq	r0, r0, r0
80117518:	c600c600 	strgt	ip, [r0], -r0, lsl #12
8011751c:	c6c6c6c6 	strbgt	ip, [r6], r6, asr #13
80117520:	7cc6c6c6 	stclvc	6, cr12, [r6], {198}	; 0xc6
80117524:	00000000 	andeq	r0, r0, r0
80117528:	7c181800 	ldcvc	8, cr1, [r8], {-0}
8011752c:	c0c0c0c6 	sbcgt	ip, r0, r6, asr #1
80117530:	18187cc6 	ldmdane	r8, {r1, r2, r6, r7, sl, fp, ip, sp, lr}
80117534:	00000000 	andeq	r0, r0, r0
80117538:	646c3800 	strbtvs	r3, [ip], #-2048	; 0xfffff800
8011753c:	6060f060 	rsbvs	pc, r0, r0, rrx
80117540:	fce66060 	stc2l	0, cr6, [r6], #384	; 0x180
80117544:	00000000 	andeq	r0, r0, r0
80117548:	66660000 	strbtvs	r0, [r6], -r0
8011754c:	187e183c 	ldmdane	lr!, {r2, r3, r4, r5, fp, ip}^
80117550:	1818187e 	ldmdane	r8, {r1, r2, r3, r4, r5, r6, fp, ip}
80117554:	00000000 	andeq	r0, r0, r0
80117558:	ccccf800 	stclgt	8, cr15, [ip], {0}
8011755c:	deccc4f8 	mcrle	4, 6, ip, cr12, cr8, {7}
80117560:	c6cccccc 	strbgt	ip, [ip], ip, asr #25
80117564:	00000000 	andeq	r0, r0, r0
80117568:	181b0e00 	ldmdane	fp, {r9, sl, fp}
8011756c:	187e1818 	ldmdane	lr!, {r3, r4, fp, ip}^
80117570:	70d81818 	sbcsvc	r1, r8, r8, lsl r8
80117574:	00000000 	andeq	r0, r0, r0
80117578:	60301800 	eorsvs	r1, r0, r0, lsl #16
8011757c:	7c0c7800 	stcvc	8, cr7, [ip], {-0}
80117580:	76cccccc 	strbvc	ip, [ip], ip, asr #25
80117584:	00000000 	andeq	r0, r0, r0
80117588:	30180c00 	andscc	r0, r8, r0, lsl #24
8011758c:	18183800 	ldmdane	r8, {fp, ip, sp}
80117590:	3c181818 	ldccc	8, cr1, [r8], {24}
80117594:	00000000 	andeq	r0, r0, r0
80117598:	60301800 	eorsvs	r1, r0, r0, lsl #16
8011759c:	c6c67c00 	strbgt	r7, [r6], r0, lsl #24
801175a0:	7cc6c6c6 	stclvc	6, cr12, [r6], {198}	; 0xc6
801175a4:	00000000 	andeq	r0, r0, r0
801175a8:	60301800 	eorsvs	r1, r0, r0, lsl #16
801175ac:	cccccc00 	stclgt	12, cr12, [ip], {0}
801175b0:	76cccccc 	strbvc	ip, [ip], ip, asr #25
801175b4:	00000000 	andeq	r0, r0, r0
801175b8:	dc760000 	ldclle	0, cr0, [r6], #-0
801175bc:	6666dc00 	strbtvs	sp, [r6], -r0, lsl #24
801175c0:	66666666 	strbtvs	r6, [r6], -r6, ror #12
801175c4:	00000000 	andeq	r0, r0, r0
801175c8:	c600dc76 			; <UNDEFINED> instruction: 0xc600dc76
801175cc:	defef6e6 	cdple	6, 15, cr15, cr14, cr6, {7}
801175d0:	c6c6c6ce 	strbgt	ip, [r6], lr, asr #13
801175d4:	00000000 	andeq	r0, r0, r0
801175d8:	6c3c0000 	ldcvs	0, cr0, [ip], #-0
801175dc:	7e003e6c 	cdpvc	14, 0, cr3, cr0, cr12, {3}
	...
801175e8:	6c380000 	ldcvs	0, cr0, [r8], #-0
801175ec:	7c00386c 	stcvc	8, cr3, [r0], {108}	; 0x6c
	...
801175f8:	30300000 	eorscc	r0, r0, r0
801175fc:	60303000 	eorsvs	r3, r0, r0
80117600:	7cc6c6c0 	stclvc	6, cr12, [r6], {192}	; 0xc0
	...
8011760c:	c0fe0000 	rscsgt	r0, lr, r0
80117610:	00c0c0c0 	sbceq	ip, r0, r0, asr #1
	...
8011761c:	06fe0000 	ldrbteq	r0, [lr], r0
80117620:	00060606 	andeq	r0, r6, r6, lsl #12
80117624:	00000000 	andeq	r0, r0, r0
80117628:	62e06000 	rscvs	r6, r0, #0
8011762c:	30186c66 	andscc	r6, r8, r6, ror #24
80117630:	0c86dc60 	stceq	12, cr13, [r6], {96}	; 0x60
80117634:	00003e18 	andeq	r3, r0, r8, lsl lr
80117638:	62e06000 	rscvs	r6, r0, #0
8011763c:	30186c66 	andscc	r6, r8, r6, ror #24
80117640:	3f9ace66 	svccc	0x009ace66
80117644:	00000606 	andeq	r0, r0, r6, lsl #12
80117648:	18180000 	ldmdane	r8, {}	; <UNPREDICTABLE>
8011764c:	18181800 	ldmdane	r8, {fp, ip}
80117650:	183c3c3c 	ldmdane	ip!, {r2, r3, r4, r5, sl, fp, ip, sp}
	...
8011765c:	d86c3600 	stmdale	ip!, {r9, sl, ip, sp}^
80117660:	0000366c 	andeq	r3, r0, ip, ror #12
	...
8011766c:	366cd800 	strbtcc	sp, [ip], -r0, lsl #16
80117670:	0000d86c 	andeq	sp, r0, ip, ror #16
80117674:	00000000 	andeq	r0, r0, r0
80117678:	44114411 	ldrmi	r4, [r1], #-1041	; 0xfffffbef
8011767c:	44114411 	ldrmi	r4, [r1], #-1041	; 0xfffffbef
80117680:	44114411 	ldrmi	r4, [r1], #-1041	; 0xfffffbef
80117684:	44114411 	ldrmi	r4, [r1], #-1041	; 0xfffffbef
80117688:	aa55aa55 	bge	81681fe4 <_kernel_end+0x1333fe4>
8011768c:	aa55aa55 	bge	81681fe8 <_kernel_end+0x1333fe8>
80117690:	aa55aa55 	bge	81681fec <_kernel_end+0x1333fec>
80117694:	aa55aa55 	bge	81681ff0 <_kernel_end+0x1333ff0>
80117698:	77dd77dd 			; <UNDEFINED> instruction: 0x77dd77dd
8011769c:	77dd77dd 			; <UNDEFINED> instruction: 0x77dd77dd
801176a0:	77dd77dd 			; <UNDEFINED> instruction: 0x77dd77dd
801176a4:	77dd77dd 			; <UNDEFINED> instruction: 0x77dd77dd
801176a8:	18181818 	ldmdane	r8, {r3, r4, fp, ip}
801176ac:	18181818 	ldmdane	r8, {r3, r4, fp, ip}
801176b0:	18181818 	ldmdane	r8, {r3, r4, fp, ip}
801176b4:	18181818 	ldmdane	r8, {r3, r4, fp, ip}
801176b8:	18181818 	ldmdane	r8, {r3, r4, fp, ip}
801176bc:	f8181818 			; <UNDEFINED> instruction: 0xf8181818
801176c0:	18181818 	ldmdane	r8, {r3, r4, fp, ip}
801176c4:	18181818 	ldmdane	r8, {r3, r4, fp, ip}
801176c8:	18181818 	ldmdane	r8, {r3, r4, fp, ip}
801176cc:	f818f818 			; <UNDEFINED> instruction: 0xf818f818
801176d0:	18181818 	ldmdane	r8, {r3, r4, fp, ip}
801176d4:	18181818 	ldmdane	r8, {r3, r4, fp, ip}
801176d8:	36363636 			; <UNDEFINED> instruction: 0x36363636
801176dc:	f6363636 			; <UNDEFINED> instruction: 0xf6363636
801176e0:	36363636 			; <UNDEFINED> instruction: 0x36363636
801176e4:	36363636 			; <UNDEFINED> instruction: 0x36363636
801176e8:	00000000 	andeq	r0, r0, r0
801176ec:	fe000000 	cdp2	0, 0, cr0, cr0, cr0, {0}
801176f0:	36363636 			; <UNDEFINED> instruction: 0x36363636
801176f4:	36363636 			; <UNDEFINED> instruction: 0x36363636
801176f8:	00000000 	andeq	r0, r0, r0
801176fc:	f818f800 			; <UNDEFINED> instruction: 0xf818f800
80117700:	18181818 	ldmdane	r8, {r3, r4, fp, ip}
80117704:	18181818 	ldmdane	r8, {r3, r4, fp, ip}
80117708:	36363636 			; <UNDEFINED> instruction: 0x36363636
8011770c:	f606f636 			; <UNDEFINED> instruction: 0xf606f636
80117710:	36363636 			; <UNDEFINED> instruction: 0x36363636
80117714:	36363636 			; <UNDEFINED> instruction: 0x36363636
80117718:	36363636 			; <UNDEFINED> instruction: 0x36363636
8011771c:	36363636 			; <UNDEFINED> instruction: 0x36363636
80117720:	36363636 			; <UNDEFINED> instruction: 0x36363636
80117724:	36363636 			; <UNDEFINED> instruction: 0x36363636
80117728:	00000000 	andeq	r0, r0, r0
8011772c:	f606fe00 			; <UNDEFINED> instruction: 0xf606fe00
80117730:	36363636 			; <UNDEFINED> instruction: 0x36363636
80117734:	36363636 			; <UNDEFINED> instruction: 0x36363636
80117738:	36363636 			; <UNDEFINED> instruction: 0x36363636
8011773c:	fe06f636 	mcr2	6, 0, pc, cr6, cr6, {1}	; <UNPREDICTABLE>
	...
80117748:	36363636 			; <UNDEFINED> instruction: 0x36363636
8011774c:	fe363636 	mrc2	6, 1, r3, cr6, cr6, {1}
	...
80117758:	18181818 	ldmdane	r8, {r3, r4, fp, ip}
8011775c:	f818f818 			; <UNDEFINED> instruction: 0xf818f818
	...
8011776c:	f8000000 			; <UNDEFINED> instruction: 0xf8000000
80117770:	18181818 	ldmdane	r8, {r3, r4, fp, ip}
80117774:	18181818 	ldmdane	r8, {r3, r4, fp, ip}
80117778:	18181818 	ldmdane	r8, {r3, r4, fp, ip}
8011777c:	1f181818 	svcne	0x00181818
	...
80117788:	18181818 	ldmdane	r8, {r3, r4, fp, ip}
8011778c:	ff181818 			; <UNDEFINED> instruction: 0xff181818
	...
8011779c:	ff000000 			; <UNDEFINED> instruction: 0xff000000
801177a0:	18181818 	ldmdane	r8, {r3, r4, fp, ip}
801177a4:	18181818 	ldmdane	r8, {r3, r4, fp, ip}
801177a8:	18181818 	ldmdane	r8, {r3, r4, fp, ip}
801177ac:	1f181818 	svcne	0x00181818
801177b0:	18181818 	ldmdane	r8, {r3, r4, fp, ip}
801177b4:	18181818 	ldmdane	r8, {r3, r4, fp, ip}
801177b8:	00000000 	andeq	r0, r0, r0
801177bc:	ff000000 			; <UNDEFINED> instruction: 0xff000000
	...
801177c8:	18181818 	ldmdane	r8, {r3, r4, fp, ip}
801177cc:	ff181818 			; <UNDEFINED> instruction: 0xff181818
801177d0:	18181818 	ldmdane	r8, {r3, r4, fp, ip}
801177d4:	18181818 	ldmdane	r8, {r3, r4, fp, ip}
801177d8:	18181818 	ldmdane	r8, {r3, r4, fp, ip}
801177dc:	1f181f18 	svcne	0x00181f18
801177e0:	18181818 	ldmdane	r8, {r3, r4, fp, ip}
801177e4:	18181818 	ldmdane	r8, {r3, r4, fp, ip}
801177e8:	36363636 			; <UNDEFINED> instruction: 0x36363636
801177ec:	37363636 			; <UNDEFINED> instruction: 0x37363636
801177f0:	36363636 			; <UNDEFINED> instruction: 0x36363636
801177f4:	36363636 			; <UNDEFINED> instruction: 0x36363636
801177f8:	36363636 			; <UNDEFINED> instruction: 0x36363636
801177fc:	3f303736 	svccc	0x00303736
	...
8011780c:	37303f00 	ldrcc	r3, [r0, -r0, lsl #30]!
80117810:	36363636 			; <UNDEFINED> instruction: 0x36363636
80117814:	36363636 			; <UNDEFINED> instruction: 0x36363636
80117818:	36363636 			; <UNDEFINED> instruction: 0x36363636
8011781c:	ff00f736 			; <UNDEFINED> instruction: 0xff00f736
	...
8011782c:	f700ff00 			; <UNDEFINED> instruction: 0xf700ff00
80117830:	36363636 			; <UNDEFINED> instruction: 0x36363636
80117834:	36363636 			; <UNDEFINED> instruction: 0x36363636
80117838:	36363636 			; <UNDEFINED> instruction: 0x36363636
8011783c:	37303736 			; <UNDEFINED> instruction: 0x37303736
80117840:	36363636 			; <UNDEFINED> instruction: 0x36363636
80117844:	36363636 			; <UNDEFINED> instruction: 0x36363636
80117848:	00000000 	andeq	r0, r0, r0
8011784c:	ff00ff00 			; <UNDEFINED> instruction: 0xff00ff00
	...
80117858:	36363636 			; <UNDEFINED> instruction: 0x36363636
8011785c:	f700f736 			; <UNDEFINED> instruction: 0xf700f736
80117860:	36363636 			; <UNDEFINED> instruction: 0x36363636
80117864:	36363636 			; <UNDEFINED> instruction: 0x36363636
80117868:	18181818 	ldmdane	r8, {r3, r4, fp, ip}
8011786c:	ff00ff18 			; <UNDEFINED> instruction: 0xff00ff18
	...
80117878:	36363636 			; <UNDEFINED> instruction: 0x36363636
8011787c:	ff363636 			; <UNDEFINED> instruction: 0xff363636
	...
8011788c:	ff00ff00 			; <UNDEFINED> instruction: 0xff00ff00
80117890:	18181818 	ldmdane	r8, {r3, r4, fp, ip}
80117894:	18181818 	ldmdane	r8, {r3, r4, fp, ip}
80117898:	00000000 	andeq	r0, r0, r0
8011789c:	ff000000 			; <UNDEFINED> instruction: 0xff000000
801178a0:	36363636 			; <UNDEFINED> instruction: 0x36363636
801178a4:	36363636 			; <UNDEFINED> instruction: 0x36363636
801178a8:	36363636 			; <UNDEFINED> instruction: 0x36363636
801178ac:	3f363636 	svccc	0x00363636
	...
801178b8:	18181818 	ldmdane	r8, {r3, r4, fp, ip}
801178bc:	1f181f18 	svcne	0x00181f18
	...
801178cc:	1f181f00 	svcne	0x00181f00
801178d0:	18181818 	ldmdane	r8, {r3, r4, fp, ip}
801178d4:	18181818 	ldmdane	r8, {r3, r4, fp, ip}
801178d8:	00000000 	andeq	r0, r0, r0
801178dc:	3f000000 	svccc	0x00000000
801178e0:	36363636 			; <UNDEFINED> instruction: 0x36363636
801178e4:	36363636 			; <UNDEFINED> instruction: 0x36363636
801178e8:	36363636 			; <UNDEFINED> instruction: 0x36363636
801178ec:	ff363636 			; <UNDEFINED> instruction: 0xff363636
801178f0:	36363636 			; <UNDEFINED> instruction: 0x36363636
801178f4:	36363636 			; <UNDEFINED> instruction: 0x36363636
801178f8:	18181818 	ldmdane	r8, {r3, r4, fp, ip}
801178fc:	ff18ff18 			; <UNDEFINED> instruction: 0xff18ff18
80117900:	18181818 	ldmdane	r8, {r3, r4, fp, ip}
80117904:	18181818 	ldmdane	r8, {r3, r4, fp, ip}
80117908:	18181818 	ldmdane	r8, {r3, r4, fp, ip}
8011790c:	f8181818 			; <UNDEFINED> instruction: 0xf8181818
	...
8011791c:	1f000000 	svcne	0x00000000
80117920:	18181818 	ldmdane	r8, {r3, r4, fp, ip}
80117924:	18181818 	ldmdane	r8, {r3, r4, fp, ip}
80117928:	ffffffff 			; <UNDEFINED> instruction: 0xffffffff
8011792c:	ffffffff 			; <UNDEFINED> instruction: 0xffffffff
80117930:	ffffffff 			; <UNDEFINED> instruction: 0xffffffff
80117934:	ffffffff 			; <UNDEFINED> instruction: 0xffffffff
80117938:	00000000 	andeq	r0, r0, r0
8011793c:	ff000000 			; <UNDEFINED> instruction: 0xff000000
80117940:	ffffffff 			; <UNDEFINED> instruction: 0xffffffff
80117944:	ffffffff 			; <UNDEFINED> instruction: 0xffffffff
80117948:	f0f0f0f0 			; <UNDEFINED> instruction: 0xf0f0f0f0
8011794c:	f0f0f0f0 			; <UNDEFINED> instruction: 0xf0f0f0f0
80117950:	f0f0f0f0 			; <UNDEFINED> instruction: 0xf0f0f0f0
80117954:	f0f0f0f0 			; <UNDEFINED> instruction: 0xf0f0f0f0
80117958:	0f0f0f0f 	svceq	0x000f0f0f
8011795c:	0f0f0f0f 	svceq	0x000f0f0f
80117960:	0f0f0f0f 	svceq	0x000f0f0f
80117964:	0f0f0f0f 	svceq	0x000f0f0f
80117968:	ffffffff 			; <UNDEFINED> instruction: 0xffffffff
8011796c:	00ffffff 	ldrshteq	pc, [pc], #255	; <UNPREDICTABLE>
	...
8011797c:	d8dc7600 	ldmle	ip, {r9, sl, ip, sp, lr}^
80117980:	76dcd8d8 			; <UNDEFINED> instruction: 0x76dcd8d8
80117984:	00000000 	andeq	r0, r0, r0
80117988:	cc780000 	ldclgt	0, cr0, [r8], #-0
8011798c:	ccd8cccc 	ldclgt	12, cr12, [r8], {204}	; 0xcc
80117990:	ccc6c6c6 	stclgt	6, cr12, [r6], {198}	; 0xc6
80117994:	00000000 	andeq	r0, r0, r0
80117998:	c6fe0000 	ldrbtgt	r0, [lr], r0
8011799c:	c0c0c0c6 	sbcgt	ip, r0, r6, asr #1
801179a0:	c0c0c0c0 	sbcgt	ip, r0, r0, asr #1
	...
801179ac:	6c6cfe00 	stclvs	14, cr15, [ip], #-0
801179b0:	6c6c6c6c 	stclvs	12, cr6, [ip], #-432	; 0xfffffe50
801179b4:	00000000 	andeq	r0, r0, r0
801179b8:	c6fe0000 	ldrbtgt	r0, [lr], r0
801179bc:	18183060 	ldmdane	r8, {r5, r6, ip, sp}
801179c0:	fec66030 	mcr2	0, 6, r6, cr6, cr0, {1}
	...
801179cc:	d8d87e00 	ldmle	r8, {r9, sl, fp, ip, sp, lr}^
801179d0:	70d8d8d8 	ldrsbvc	sp, [r8], #136	; 0x88
	...
801179dc:	66666600 	strbtvs	r6, [r6], -r0, lsl #12
801179e0:	7c666666 	stclvc	6, cr6, [r6], #-408	; 0xfffffe68
801179e4:	00c06060 	sbceq	r6, r0, r0, rrx
801179e8:	00000000 	andeq	r0, r0, r0
801179ec:	1818dc76 	ldmdane	r8, {r1, r2, r4, r5, r6, sl, fp, ip, lr, pc}
801179f0:	18181818 	ldmdane	r8, {r3, r4, fp, ip}
801179f4:	00000000 	andeq	r0, r0, r0
801179f8:	187e0000 	ldmdane	lr!, {}^	; <UNPREDICTABLE>
801179fc:	6666663c 			; <UNDEFINED> instruction: 0x6666663c
80117a00:	7e183c66 	cdpvc	12, 1, cr3, cr8, cr6, {3}
80117a04:	00000000 	andeq	r0, r0, r0
80117a08:	6c380000 	ldcvs	0, cr0, [r8], #-0
80117a0c:	c6fec6c6 	ldrbtgt	ip, [lr], r6, asr #13
80117a10:	386cc6c6 	stmdacc	ip!, {r1, r2, r6, r7, r9, sl, lr, pc}^
80117a14:	00000000 	andeq	r0, r0, r0
80117a18:	6c380000 	ldcvs	0, cr0, [r8], #-0
80117a1c:	6cc6c6c6 	stclvs	6, cr12, [r6], {198}	; 0xc6
80117a20:	ee6c6c6c 	cdp	12, 6, cr6, cr12, cr12, {3}
80117a24:	00000000 	andeq	r0, r0, r0
80117a28:	301e0000 	andscc	r0, lr, r0
80117a2c:	663e0c18 			; <UNDEFINED> instruction: 0x663e0c18
80117a30:	3c666666 	stclcc	6, cr6, [r6], #-408	; 0xfffffe68
	...
80117a3c:	dbdb7e00 	blle	7f7f7244 <_init_end+0x7f6eb244>
80117a40:	00007edb 	ldrdeq	r7, [r0], -fp
80117a44:	00000000 	andeq	r0, r0, r0
80117a48:	03000000 	movweq	r0, #0
80117a4c:	dbdb7e06 	blle	7f7f726c <_init_end+0x7f6eb26c>
80117a50:	c0607ef3 	strdgt	r7, [r0], #-227	; 0xffffff1d	; <UNPREDICTABLE>
80117a54:	00000000 	andeq	r0, r0, r0
80117a58:	301c0000 	andscc	r0, ip, r0
80117a5c:	607c6060 	rsbsvs	r6, ip, r0, rrx
80117a60:	1c306060 	ldcne	0, cr6, [r0], #-384	; 0xfffffe80
80117a64:	00000000 	andeq	r0, r0, r0
80117a68:	7c000000 	stcvc	0, cr0, [r0], {-0}
80117a6c:	c6c6c6c6 	strbgt	ip, [r6], r6, asr #13
80117a70:	c6c6c6c6 	strbgt	ip, [r6], r6, asr #13
	...
80117a7c:	fe0000fe 	mcr2	0, 0, r0, cr0, cr14, {7}
80117a80:	00fe0000 	rscseq	r0, lr, r0
	...
80117a8c:	187e1818 	ldmdane	lr!, {r3, r4, fp, ip}^
80117a90:	7e000018 	mcrvc	0, 0, r0, cr0, cr8, {0}
80117a94:	00000000 	andeq	r0, r0, r0
80117a98:	30000000 	andcc	r0, r0, r0
80117a9c:	0c060c18 	stceq	12, cr0, [r6], {24}
80117aa0:	7e003018 	mcrvc	0, 0, r3, cr0, cr8, {0}
80117aa4:	00000000 	andeq	r0, r0, r0
80117aa8:	0c000000 	stceq	0, cr0, [r0], {-0}
80117aac:	30603018 	rsbcc	r3, r0, r8, lsl r0
80117ab0:	7e000c18 	mcrvc	12, 0, r0, cr0, cr8, {0}
80117ab4:	00000000 	andeq	r0, r0, r0
80117ab8:	1b0e0000 	blne	80497ac0 <_kernel_end+0x149ac0>
80117abc:	1818181b 	ldmdane	r8, {r0, r1, r3, r4, fp, ip}
80117ac0:	18181818 	ldmdane	r8, {r3, r4, fp, ip}
80117ac4:	18181818 	ldmdane	r8, {r3, r4, fp, ip}
80117ac8:	18181818 	ldmdane	r8, {r3, r4, fp, ip}
80117acc:	18181818 	ldmdane	r8, {r3, r4, fp, ip}
80117ad0:	d8d8d818 	ldmle	r8, {r3, r4, fp, ip, lr, pc}^
80117ad4:	00000070 	andeq	r0, r0, r0, ror r0
80117ad8:	00000000 	andeq	r0, r0, r0
80117adc:	7e001800 	cdpvc	8, 0, cr1, cr0, cr0, {0}
80117ae0:	00001800 	andeq	r1, r0, r0, lsl #16
	...
80117aec:	00dc7600 	sbcseq	r7, ip, r0, lsl #12
80117af0:	0000dc76 	andeq	sp, r0, r6, ror ip
80117af4:	00000000 	andeq	r0, r0, r0
80117af8:	6c6c3800 	stclvs	8, cr3, [ip], #-0
80117afc:	00000038 	andeq	r0, r0, r8, lsr r0
	...
80117b0c:	18000000 	stmdane	r0, {}	; <UNPREDICTABLE>
80117b10:	00000018 	andeq	r0, r0, r8, lsl r0
	...
80117b1c:	18000000 	stmdane	r0, {}	; <UNPREDICTABLE>
	...
80117b28:	0c0c0f00 	stceq	15, cr0, [ip], {-0}
80117b2c:	ec0c0c0c 	stc	12, cr0, [ip], {12}
80117b30:	1c3c6c6c 	ldcne	12, cr6, [ip], #-432	; 0xfffffe50
80117b34:	00000000 	andeq	r0, r0, r0
80117b38:	36366c00 	ldrtcc	r6, [r6], -r0, lsl #24
80117b3c:	00363636 	eorseq	r3, r6, r6, lsr r6
	...
80117b48:	0c663c00 	stcleq	12, cr3, [r6], #-0
80117b4c:	007e3218 	rsbseq	r3, lr, r8, lsl r2
	...
80117b5c:	7e7e7e7e 	mrcvc	14, 3, r7, cr14, cr14, {3}
80117b60:	007e7e7e 	rsbseq	r7, lr, lr, ror lr
	...
80117b78:	5d6b6f5b 	stclpl	15, cr6, [fp, #-364]!	; 0xfffffe94
80117b7c:	0000000a 	andeq	r0, r0, sl
80117b80:	2d2d2d0a 	stccs	13, cr2, [sp, #-40]!	; 0xffffffd8
80117b84:	2d2d2d2d 	stccs	13, cr2, [sp, #-180]!	; 0xffffff4c
80117b88:	2d2d2d2d 	stccs	13, cr2, [sp, #-180]!	; 0xffffff4c
80117b8c:	2d2d2d2d 	stccs	13, cr2, [sp, #-180]!	; 0xffffff4c
80117b90:	2d2d2d2d 	stccs	13, cr2, [sp, #-180]!	; 0xffffff4c
80117b94:	2d2d2d2d 	stccs	13, cr2, [sp, #-180]!	; 0xffffff4c
80117b98:	2d2d2d2d 	stccs	13, cr2, [sp, #-180]!	; 0xffffff4c
80117b9c:	2d2d2d2d 	stccs	13, cr2, [sp, #-180]!	; 0xffffff4c
80117ba0:	2d2d2d2d 	stccs	13, cr2, [sp, #-180]!	; 0xffffff4c
80117ba4:	2d2d2d2d 	stccs	13, cr2, [sp, #-180]!	; 0xffffff4c
80117ba8:	2d2d2d2d 	stccs	13, cr2, [sp, #-180]!	; 0xffffff4c
80117bac:	2d2d2d2d 	stccs	13, cr2, [sp, #-180]!	; 0xffffff4c
80117bb0:	2d2d2d2d 	stccs	13, cr2, [sp, #-180]!	; 0xffffff4c
80117bb4:	5f5f200a 	svcpl	0x005f200a
80117bb8:	5f5f5f5f 	svcpl	0x005f5f5f
80117bbc:	20202020 	eorcs	r2, r0, r0, lsr #32
80117bc0:	20202020 	eorcs	r2, r0, r0, lsr #32
80117bc4:	5f202020 	svcpl	0x00202020
80117bc8:	5f5f5f5f 	svcpl	0x005f5f5f
80117bcc:	5f20205f 	svcpl	0x0020205f
80117bd0:	20202020 	eorcs	r2, r0, r0, lsr #32
80117bd4:	2020205f 	eorcs	r2, r0, pc, asr r0
80117bd8:	5f5f5f5f 	svcpl	0x005f5f5f
80117bdc:	20205f5f 	eorcs	r5, r0, pc, asr pc
80117be0:	5f5f5f5f 	svcpl	0x005f5f5f
80117be4:	0a205f5f 	beq	8092f968 <_kernel_end+0x5e1968>
80117be8:	5f202028 	svcpl	0x00202028
80117bec:	5c205f5f 	stcpl	15, cr5, [r0], #-380	; 0xfffffe84
80117bf0:	20205c7c 	eorcs	r5, r0, ip, ror ip
80117bf4:	2f202020 	svccs	0x00202020
80117bf8:	2020287c 	eorcs	r2, r0, ip, ror r8
80117bfc:	20205f5f 	eorcs	r5, r0, pc, asr pc
80117c00:	5c207c29 	stcpl	12, cr7, [r0], #-164	; 0xffffff5c
80117c04:	202f2020 	eorcs	r2, pc, r0, lsr #32
80117c08:	2028205c 	eorcs	r2, r8, ip, asr r0
80117c0c:	205f5f20 	subscs	r5, pc, r0, lsr #30
80117c10:	20282920 	eorcs	r2, r8, r0, lsr #18
80117c14:	5f5f5f20 	svcpl	0x005f5f20
80117c18:	7c0a5c20 	stcvc	12, cr5, [sl], {32}
80117c1c:	5f5f2820 	svcpl	0x005f2820
80117c20:	7c202020 	stcvc	0, cr2, [r0], #-128	; 0xffffff80
80117c24:	5f207c20 	svcpl	0x00207c20
80117c28:	7c207c20 	stcvc	12, cr7, [r0], #-128	; 0xffffff80
80117c2c:	207c207c 	rsbscs	r2, ip, ip, ror r0
80117c30:	7c207c20 	stcvc	12, cr7, [r0], #-128	; 0xffffff80
80117c34:	5f28207c 	svcpl	0x0028207c
80117c38:	2f20202f 	svccs	0x0020202f
80117c3c:	7c207c20 	stcvc	12, cr7, [r0], #-128	; 0xffffff80
80117c40:	207c2020 	rsbscs	r2, ip, r0, lsr #32
80117c44:	28207c7c 	stmdacs	r0!, {r2, r3, r4, r5, r6, sl, fp, ip, sp, lr}
80117c48:	5f5f5f5f 	svcpl	0x005f5f5f
80117c4c:	20207c0a 	eorcs	r7, r0, sl, lsl #24
80117c50:	20295f5f 	eorcs	r5, r9, pc, asr pc
80117c54:	7c207c20 	stcvc	12, cr7, [r0], #-128	; 0xffffff80
80117c58:	7c292028 	stcvc	0, cr2, [r9], #-160	; 0xffffff60
80117c5c:	207c7c20 	rsbscs	r7, ip, r0, lsr #24
80117c60:	7c20207c 	stcvc	0, cr2, [r0], #-496	; 0xfffffe10
80117c64:	207c7c20 	rsbscs	r7, ip, r0, lsr #24
80117c68:	20205f20 	eorcs	r5, r0, r0, lsr #30
80117c6c:	7c202028 	stcvc	0, cr2, [r0], #-160	; 0xffffff60
80117c70:	20207c20 	eorcs	r7, r0, r0, lsr #24
80117c74:	287c207c 	ldmdacs	ip!, {r2, r3, r4, r5, r6, sp}^
80117c78:	5f5f5f5f 	svcpl	0x005f5f5f
80117c7c:	0a292020 	beq	80b5fd04 <_kernel_end+0x811d04>
80117c80:	5f28207c 	svcpl	0x0028207c
80117c84:	20205f5f 	eorcs	r5, r0, pc, asr pc
80117c88:	7c7c207c 	ldclvc	0, cr2, [ip], #-496	; 0xfffffe10
80117c8c:	207c7c20 	rsbscs	r7, ip, r0, lsr #24
80117c90:	7c207c7c 	stcvc	12, cr7, [r0], #-496	; 0xfffffe10
80117c94:	207c5f5f 	rsbscs	r5, ip, pc, asr pc
80117c98:	28207c7c 	stmdacs	r0!, {r2, r3, r4, r5, r6, sl, fp, ip, sp, lr}
80117c9c:	20205c20 	eorcs	r5, r0, r0, lsr #24
80117ca0:	207c205c 	rsbscs	r2, ip, ip, asr r0
80117ca4:	7c5f5f7c 	mrrcvc	15, 7, r5, pc, cr12	; <UNPREDICTABLE>
80117ca8:	20207c20 	eorcs	r7, r0, r0, lsr #24
80117cac:	295f5f5f 	ldmdbcs	pc, {r0, r1, r2, r3, r4, r6, r8, r9, sl, fp, ip, lr}^	; <UNPREDICTABLE>
80117cb0:	280a7c20 	stmdacs	sl, {r5, sl, fp, ip, sp, lr}
80117cb4:	5f5f5f5f 	svcpl	0x005f5f5f
80117cb8:	282f5f5f 	stmdacs	pc!, {r0, r1, r2, r3, r4, r6, r8, r9, sl, fp, ip, lr}	; <UNPREDICTABLE>
80117cbc:	5f5f5f5f 	svcpl	0x005f5f5f
80117cc0:	295f5f5f 	ldmdbcs	pc, {r0, r1, r2, r3, r4, r6, r8, r9, sl, fp, ip, lr}^	; <UNPREDICTABLE>
80117cc4:	5f5f5f28 	svcpl	0x005f5f28
80117cc8:	295f5f5f 	ldmdbcs	pc, {r0, r1, r2, r3, r4, r6, r8, r9, sl, fp, ip, lr}^	; <UNPREDICTABLE>
80117ccc:	202f5f7c 	eorcs	r5, pc, ip, ror pc	; <UNPREDICTABLE>
80117cd0:	2f5f5c20 	svccs	0x005f5c20
80117cd4:	5f5f2820 	svcpl	0x005f2820
80117cd8:	5f5f5f5f 	svcpl	0x005f5f5f
80117cdc:	5f5f5c29 	svcpl	0x005f5c29
80117ce0:	5f5f5f5f 	svcpl	0x005f5f5f
80117ce4:	000a0a29 	andeq	r0, sl, r9, lsr #20
80117ce8:	6863616d 	stmdavs	r3!, {r0, r2, r3, r5, r6, r8, sp, lr}^
80117cec:	20656e69 	rsbcs	r6, r5, r9, ror #28
80117cf0:	20202020 	eorcs	r2, r0, r0, lsr #32
80117cf4:	25202020 	strcs	r2, [r0, #-32]!	; 0xffffffe0
80117cf8:	656d0a73 	strbvs	r0, [sp, #-2675]!	; 0xfffff58d
80117cfc:	69735f6d 	ldmdbvs	r3!, {r0, r2, r3, r5, r6, r8, r9, sl, fp, ip, lr}^
80117d00:	2020657a 	eorcs	r6, r0, sl, ror r5
80117d04:	20202020 	eorcs	r2, r0, r0, lsr #32
80117d08:	20642520 	rsbcs	r2, r4, r0, lsr #10
80117d0c:	6d0a424d 	sfmvs	f4, 4, [sl, #-308]	; 0xfffffecc
80117d10:	6f5f6d65 	svcvs	0x005f6d65
80117d14:	65736666 	ldrbvs	r6, [r3, #-1638]!	; 0xfffff99a
80117d18:	20202074 	eorcs	r2, r0, r4, ror r0
80117d1c:	78302020 	ldmdavc	r0!, {r5, sp}
80117d20:	6d0a7825 	stcvs	8, cr7, [sl, #-148]	; 0xffffff6c
80117d24:	5f6f696d 	svcpl	0x006f696d
80117d28:	65736162 	ldrbvs	r6, [r3, #-354]!	; 0xfffffe9e
80117d2c:	20202020 	eorcs	r2, r0, r0, lsr #32
80117d30:	78302020 	ldmdavc	r0!, {r5, sp}
80117d34:	2d0a7825 	stccs	8, cr7, [sl, #-148]	; 0xffffff6c
80117d38:	2d2d2d2d 	stccs	13, cr2, [sp, #-180]!	; 0xffffff4c
80117d3c:	2d2d2d2d 	stccs	13, cr2, [sp, #-180]!	; 0xffffff4c
80117d40:	2d2d2d2d 	stccs	13, cr2, [sp, #-180]!	; 0xffffff4c
80117d44:	2d2d2d2d 	stccs	13, cr2, [sp, #-180]!	; 0xffffff4c
80117d48:	2d2d2d2d 	stccs	13, cr2, [sp, #-180]!	; 0xffffff4c
80117d4c:	2d2d2d2d 	stccs	13, cr2, [sp, #-180]!	; 0xffffff4c
80117d50:	2d2d2d2d 	stccs	13, cr2, [sp, #-180]!	; 0xffffff4c
80117d54:	2d2d2d2d 	stccs	13, cr2, [sp, #-180]!	; 0xffffff4c
80117d58:	2d2d2d2d 	stccs	13, cr2, [sp, #-180]!	; 0xffffff4c
80117d5c:	2d2d2d2d 	stccs	13, cr2, [sp, #-180]!	; 0xffffff4c
80117d60:	2d2d2d2d 	stccs	13, cr2, [sp, #-180]!	; 0xffffff4c
80117d64:	2d2d2d2d 	stccs	13, cr2, [sp, #-180]!	; 0xffffff4c
80117d68:	0a0a2d2d 	beq	803a3224 <_kernel_end+0x55224>
80117d6c:	00000000 	andeq	r0, r0, r0
80117d70:	6e72656b 	cdpvs	5, 7, cr6, cr2, cr11, {3}
80117d74:	203a6c65 	eorscs	r6, sl, r5, ror #24
80117d78:	6c616d6b 	stclvs	13, cr6, [r1], #-428	; 0xfffffe54
80117d7c:	20636f6c 	rsbcs	r6, r3, ip, ror #30
80117d80:	74696e69 	strbtvc	r6, [r9], #-3689	; 0xfffff197
80117d84:	20676e69 	rsbcs	r6, r7, r9, ror #28
80117d88:	6b6f5b20 	blvs	81ceea10 <_kernel_end+0x19a0a10>
80117d8c:	203a205d 	eorscs	r2, sl, sp, asr r0
80117d90:	424d6425 	submi	r6, sp, #620756992	; 0x25000000
80117d94:	0000000a 	andeq	r0, r0, sl
80117d98:	6e72656b 	cdpvs	5, 7, cr6, cr2, cr11, {3}
80117d9c:	203a6c65 	eorscs	r6, sl, r5, ror #24
80117da0:	6c6c616b 	stfvse	f6, [ip], #-428	; 0xfffffe54
80117da4:	6920636f 	stmdbvs	r0!, {r0, r1, r2, r3, r5, r6, r8, r9, sp, lr}
80117da8:	2074696e 	rsbscs	r6, r4, lr, ror #18
80117dac:	20726f66 	rsbscs	r6, r2, r6, ror #30
80117db0:	6f6c6c61 	svcvs	0x006c6c61
80117db4:	61746163 	cmnvs	r4, r3, ror #2
80117db8:	20656c62 	rsbcs	r6, r5, r2, ror #24
80117dbc:	65676170 	strbvs	r6, [r7, #-368]!	; 0xfffffe90
80117dc0:	72696420 	rsbvc	r6, r9, #32, 8	; 0x20000000
80117dc4:	0000000a 	andeq	r0, r0, sl
80117dc8:	6e72656b 	cdpvs	5, 7, cr6, cr2, cr11, {3}
80117dcc:	203a6c65 	eorscs	r6, sl, r5, ror #24
80117dd0:	7070616d 	rsbsvc	r6, r0, sp, ror #2
80117dd4:	20676e69 	rsbcs	r6, r7, r9, ror #28
80117dd8:	6f6c6c61 	svcvs	0x006c6c61
80117ddc:	61746163 	cmnvs	r4, r3, ror #2
80117de0:	20656c62 	rsbcs	r6, r5, r2, ror #24
80117de4:	65676170 	strbvs	r6, [r7, #-368]!	; 0xfffffe90
80117de8:	00000a73 	andeq	r0, r0, r3, ror sl
80117dec:	6e72656b 	cdpvs	5, 7, cr6, cr2, cr11, {3}
80117df0:	203a6c65 	eorscs	r6, sl, r5, ror #24
80117df4:	6c6c616b 	stfvse	f6, [ip], #-428	; 0xfffffe54
80117df8:	6920636f 	stmdbvs	r0!, {r0, r1, r2, r3, r5, r6, r8, r9, sp, lr}
80117dfc:	2074696e 	rsbscs	r6, r4, lr, ror #18
80117e00:	20726f66 	rsbscs	r6, r2, r6, ror #30
80117e04:	206c6c61 	rsbcs	r6, ip, r1, ror #24
80117e08:	6f6c6c61 	svcvs	0x006c6c61
80117e0c:	61746163 	cmnvs	r4, r3, ror #2
80117e10:	20656c62 	rsbcs	r6, r5, r2, ror #24
80117e14:	65676170 	strbvs	r6, [r7, #-368]!	; 0xfffffe90
80117e18:	00000a73 	andeq	r0, r0, r3, ror sl
80117e1c:	6e72656b 	cdpvs	5, 7, cr6, cr2, cr11, {3}
80117e20:	203a6c65 	eorscs	r6, sl, r5, ror #24
80117e24:	74696e69 	strbtvc	r6, [r9], #-3689	; 0xfffff197
80117e28:	6c6c6120 	stfvse	f6, [ip], #-128	; 0xffffff80
80117e2c:	6261636f 	rsbvs	r6, r1, #-1140850687	; 0xbc000001
80117e30:	6d20656c 	cfstr32vs	mvfx6, [r0, #-432]!	; 0xfffffe50
80117e34:	726f6d65 	rsbvc	r6, pc, #6464	; 0x1940
80117e38:	25203a79 	strcs	r3, [r0, #-2681]!	; 0xfffff587
80117e3c:	2c424d64 	mcrrcs	13, 6, r4, r2, cr4
80117e40:	20642520 	rsbcs	r2, r4, r0, lsr #10
80117e44:	65676170 	strbvs	r6, [r7, #-368]!	; 0xfffffe90
80117e48:	00000a73 	andeq	r0, r0, r3, ror sl
80117e4c:	6e72656b 	cdpvs	5, 7, cr6, cr2, cr11, {3}
80117e50:	203a6c65 	eorscs	r6, sl, r5, ror #24
80117e54:	20717269 	rsbscs	r7, r1, r9, ror #4
80117e58:	74696e69 	strbtvc	r6, [r9], #-3689	; 0xfffff197
80117e5c:	000a6465 	andeq	r6, sl, r5, ror #8
80117e60:	6e72656b 	cdpvs	5, 7, cr6, cr2, cr11, {3}
80117e64:	203a6c65 	eorscs	r6, sl, r5, ror #24
80117e68:	72616873 	rsbvc	r6, r1, #7536640	; 0x730000
80117e6c:	656d2065 	strbvs	r2, [sp, #-101]!	; 0xffffff9b
80117e70:	79726f6d 	ldmdbvc	r2!, {r0, r2, r3, r5, r6, r8, r9, sl, fp, sp, lr}^
80117e74:	696e6920 	stmdbvs	lr!, {r5, r8, fp, sp, lr}^
80117e78:	2e646574 	mcrcs	5, 3, r6, cr4, cr4, {3}
80117e7c:	0000000a 	andeq	r0, r0, sl
80117e80:	6e72656b 	cdpvs	5, 7, cr6, cr2, cr11, {3}
80117e84:	203a6c65 	eorscs	r6, sl, r5, ror #24
80117e88:	636f7270 	cmnvs	pc, #112, 4
80117e8c:	65737365 	ldrbvs	r7, [r3, #-869]!	; 0xfffffc9b
80117e90:	6e692073 	mcrvs	0, 3, r2, cr9, cr3, {3}
80117e94:	64657469 	strbtvs	r7, [r5], #-1129	; 0xfffffb97
80117e98:	00000a2e 	andeq	r0, r0, lr, lsr #20
80117e9c:	6e72656b 	cdpvs	5, 7, cr6, cr2, cr11, {3}
80117ea0:	203a6c65 	eorscs	r6, sl, r5, ror #24
80117ea4:	64616f6c 	strbtvs	r6, [r1], #-3948	; 0xfffff094
80117ea8:	20676e69 	rsbcs	r6, r7, r9, ror #28
80117eac:	74696e69 	strbtvc	r6, [r9], #-3689	; 0xfffff197
80117eb0:	6f727020 	svcvs	0x00727020
80117eb4:	73736563 	cmnvc	r3, #415236096	; 0x18c00000
80117eb8:	0000000a 	andeq	r0, r0, sl
80117ebc:	665b2020 	ldrbvs	r2, [fp], -r0, lsr #32
80117ec0:	656c6961 	strbvs	r6, [ip, #-2401]!	; 0xfffff69f
80117ec4:	0a5d2164 	beq	8186045c <_kernel_end+0x151245c>
80117ec8:	00000000 	andeq	r0, r0, r0
80117ecc:	6e72656b 	cdpvs	5, 7, cr6, cr2, cr11, {3}
80117ed0:	203a6c65 	eorscs	r6, sl, r5, ror #24
80117ed4:	72617473 	rsbvc	r7, r1, #1929379840	; 0x73000000
80117ed8:	6f632074 	svcvs	0x00632074
80117edc:	25206572 	strcs	r6, [r0, #-1394]!	; 0xfffffa8e
80117ee0:	2e2e2064 	cdpcs	0, 2, cr2, cr14, cr4, {3}
80117ee4:	0000202e 	andeq	r2, r0, lr, lsr #32
80117ee8:	6e72656b 	cdpvs	5, 7, cr6, cr2, cr11, {3}
80117eec:	203a6c65 	eorscs	r6, sl, r5, ror #24
80117ef0:	20746573 	rsbscs	r6, r4, r3, ror r5
80117ef4:	656d6974 	strbvs	r6, [sp, #-2420]!	; 0xfffff68c
80117ef8:	000a2e72 	andeq	r2, sl, r2, ror lr
80117efc:	6e72656b 	cdpvs	5, 7, cr6, cr2, cr11, {3}
80117f00:	203a6c65 	eorscs	r6, sl, r5, ror #24
80117f04:	62616e65 	rsbvs	r6, r1, #1616	; 0x650
80117f08:	6920656c 	stmdbvs	r0!, {r2, r3, r5, r6, r8, sl, sp, lr}
80117f0c:	61207172 			; <UNDEFINED> instruction: 0x61207172
80117f10:	7320646e 			; <UNDEFINED> instruction: 0x7320646e
80117f14:	74726174 	ldrbtvc	r6, [r2], #-372	; 0xfffffe8c
80117f18:	696e6920 	stmdbvs	lr!, {r5, r8, fp, sp, lr}^
80117f1c:	2e2e2e74 	mcrcs	14, 1, r2, cr14, cr4, {3}
80117f20:	Address 0x0000000080117f20 is out of bounds.


Disassembly of section .data:

80118000 <dwc_host>:
80118000:	00000000 	andeq	r0, r0, r0
80118004:	c0214000 	eorgt	r4, r1, r0
	...
80118044:	00000001 	andeq	r0, r0, r1

80118048 <_cntfrq>:
80118048:	005b8d80 	subseq	r8, fp, r0, lsl #27

8011804c <font_8x16>:
8011804c:	00000000 	andeq	r0, r0, r0
80118050:	00000008 	andeq	r0, r0, r8
80118054:	00000010 	andeq	r0, r0, r0, lsl r0
80118058:	80116b78 	andshi	r6, r1, r8, ror fp
8011805c:	00000000 	andeq	r0, r0, r0

80118060 <shmem_count>:
80118060:	00000001 	andeq	r0, r0, r1

80118064 <_core_proc_pid>:
80118064:	ffffffff 			; <UNDEFINED> instruction: 0xffffffff

Disassembly of section .got:

80118068 <.got>:
80118068:	8033d400 	eorshi	sp, r3, r0, lsl #8
8011806c:	801240c8 	andshi	r4, r2, r8, asr #1
80118070:	80118048 	andshi	r8, r1, r8, asr #32
80118074:	8010cf84 	andshi	ip, r0, r4, lsl #31
80118078:	8011804c 	andshi	r8, r1, ip, asr #32
8011807c:	80119000 	andshi	r9, r1, r0
80118080:	8033d5b0 	ldrhthi	sp, [r3], -r0
80118084:	80120404 	andshi	r0, r2, r4, lsl #8
80118088:	8034e000 	eorshi	lr, r4, r0
8011808c:	8033e000 	eorshi	lr, r3, r0
80118090:	8011c674 	andshi	ip, r1, r4, ror r6
80118094:	8011c67c 	andshi	ip, r1, ip, ror r6
80118098:	8011c05c 	andshi	ip, r1, ip, asr r0
8011809c:	8011c684 	andshi	ip, r1, r4, lsl #13
801180a0:	801240c4 	andshi	r4, r2, r4, asr #1
801180a4:	80120500 	andshi	r0, r2, r0, lsl #10
801180a8:	8011c058 	andshi	ip, r1, r8, asr r0
801180ac:	00100000 	andseq	r0, r0, r0
801180b0:	80120508 	andshi	r0, r2, r8, lsl #10
801180b4:	8011c054 	andshi	ip, r1, r4, asr r0
801180b8:	8010cf50 	andshi	ip, r0, r0, asr pc
801180bc:	8011c678 	andshi	ip, r1, r8, ror r6
801180c0:	8011c000 	andshi	ip, r1, r0
801180c4:	80118064 	andshi	r8, r1, r4, rrx
801180c8:	80116094 	mulshi	r1, r4, r0
801180cc:	80120440 	andshi	r0, r2, r0, asr #8

Disassembly of section .got.plt:

801180d0 <_GLOBAL_OFFSET_TABLE_>:
	...

Disassembly of section .bss:

8011c000 <_sys_info>:
	...

8011c054 <_allocatable_phy_mem_base>:
8011c054:	00000000 	andeq	r0, r0, r0

8011c058 <_allocatable_phy_mem_top>:
8011c058:	00000000 	andeq	r0, r0, r0

8011c05c <_timer_tval>:
8011c05c:	00000000 	andeq	r0, r0, r0

8011c060 <sector_buf>:
	...

8011c260 <gicd_base>:
8011c260:	00000000 	andeq	r0, r0, r0

8011c264 <gicc_base>:
8011c264:	00000000 	andeq	r0, r0, r0

8011c268 <_sdc>:
	...

8011c674 <sd_err>:
8011c674:	00000000 	andeq	r0, r0, r0

8011c678 <sd_hv>:
8011c678:	00000000 	andeq	r0, r0, r0

8011c67c <sd_rca>:
8011c67c:	00000000 	andeq	r0, r0, r0

8011c680 <sd_ocr>:
8011c680:	00000000 	andeq	r0, r0, r0

8011c684 <sd_scr>:
	...

8011c690 <data>:
	...

8011d000 <_fb_info>:
	...

8011e000 <_fbinit>:
	...

8011e028 <last.0>:
8011e028:	00000000 	andeq	r0, r0, r0

8011e02c <_len>:
8011e02c:	00000000 	andeq	r0, r0, r0

8011e030 <_buf>:
	...

8011e230 <_partition>:
	...

8011e240 <_partitions>:
	...

80120000 <_free_list4k>:
	...

80120400 <_free_list1k>:
80120400:	00000000 	andeq	r0, r0, r0

80120404 <_pages_ref>:
	...

80120410 <_kmalloc_mem_tail>:
80120410:	00000000 	andeq	r0, r0, r0

80120414 <_kmalloc>:
	...

80120430 <_dma_head>:
80120430:	00000000 	andeq	r0, r0, r0

80120434 <shmem_tail>:
80120434:	00000000 	andeq	r0, r0, r0

80120438 <_shm_head>:
80120438:	00000000 	andeq	r0, r0, r0

8012043c <_shm_tail>:
8012043c:	00000000 	andeq	r0, r0, r0

80120440 <_cpu_cores>:
	...

801204c0 <_fb_g>:
801204c0:	00000000 	andeq	r0, r0, r0

801204c4 <_console>:
	...

801204f0 <_sec_tic>:
801204f0:	00000000 	andeq	r0, r0, r0

801204f4 <_timer_tic>:
801204f4:	00000000 	andeq	r0, r0, r0

801204f8 <_schedule>:
	...

80120500 <_kernel_usec>:
	...

80120508 <_kernel_sec>:
80120508:	00000000 	andeq	r0, r0, r0

8012050c <_svc_total>:
8012050c:	00000000 	andeq	r0, r0, r0

80120510 <_svc_counter>:
	...

80124000 <_proc_uuid>:
80124000:	00000000 	andeq	r0, r0, r0

80124004 <_current_proc>:
	...

80124044 <_ready_queue>:
	...

801240c4 <_ipc_uid>:
801240c4:	00000000 	andeq	r0, r0, r0

801240c8 <_core_proc_ready>:
	...

80128000 <_proc_vm>:
	...

80328000 <_proc_table>:
	...

8033d400 <pinfo>:
	...

8033d580 <_interrupts>:
	...

8033d5a0 <_klock>:
8033d5a0:	00000000 	andeq	r0, r0, r0

8033d5a4 <_spin>:
8033d5a4:	00000000 	andeq	r0, r0, r0

8033d5a8 <_kev_queue>:
	...

8033d5b0 <_kernel_vm>:
8033d5b0:	00000000 	andeq	r0, r0, r0

Disassembly of section .comment:

00000000 <.comment>:
   0:	3a434347 	bcc	10d0d24 <_init_end+0xfc4d24>
   4:	4e472820 	cdpmi	8, 4, cr2, cr7, cr0, {1}
   8:	72412055 	subvc	r2, r1, #85	; 0x55
   c:	6d45206d 	stclvs	0, cr2, [r5, #-436]	; 0xfffffe4c
  10:	64646562 	strbtvs	r6, [r4], #-1378	; 0xfffffa9e
  14:	54206465 	strtpl	r6, [r0], #-1125	; 0xfffffb9b
  18:	636c6f6f 	cmnvs	ip, #444	; 0x1bc
  1c:	6e696168 	powvsez	f6, f1, #0.0
  20:	2e303120 	rsfcssp	f3, f0, f0
  24:	30322d33 	eorscc	r2, r2, r3, lsr sp
  28:	312e3132 			; <UNDEFINED> instruction: 0x312e3132
  2c:	31202930 			; <UNDEFINED> instruction: 0x31202930
  30:	2e332e30 	mrccs	14, 1, r2, cr3, cr0, {1}
  34:	30322031 	eorscc	r2, r2, r1, lsr r0
  38:	38303132 	ldmdacc	r0!, {r1, r4, r5, r8, ip, sp}
  3c:	28203432 	stmdacs	r0!, {r1, r4, r5, sl, ip, sp}
  40:	656c6572 	strbvs	r6, [ip, #-1394]!	; 0xfffffa8e
  44:	29657361 	stmdbcs	r5!, {r0, r5, r6, r8, r9, ip, sp, lr}^
	...

Disassembly of section .ARM.attributes:

00000000 <.ARM.attributes>:
   0:	00003241 	andeq	r3, r0, r1, asr #4
   4:	61656100 	cmnvs	r5, r0, lsl #2
   8:	01006962 	tsteq	r0, r2, ror #18
   c:	00000028 	andeq	r0, r0, r8, lsr #32
  10:	412d3705 			; <UNDEFINED> instruction: 0x412d3705
  14:	070a0600 	streq	r0, [sl, -r0, lsl #12]
  18:	09010841 	stmdbeq	r1, {r0, r6, fp}
  1c:	14041202 	strne	r1, [r4], #-514	; 0xfffffdfe
  20:	17011501 	strne	r1, [r1, -r1, lsl #10]
  24:	1a011803 	bne	46038 <__entry-0xb9fc8>
  28:	22021e01 	andcs	r1, r2, #1, 28
  2c:	2c012a01 			; <UNDEFINED> instruction: 0x2c012a01
  30:	Address 0x0000000000000030 is out of bounds.

