
build/rootfs/./bin/test:     file format elf32-littlearm


Disassembly of section .text:

00000100 <main>:
     100:	e1a0c00d 	mov	ip, sp
     104:	e92dd810 	push	{r4, fp, ip, lr, pc}
     108:	e24cb004 	sub	fp, ip, #4
     10c:	e24dd00c 	sub	sp, sp, #12
     110:	eb000b60 	bl	2e98 <fork>
     114:	e59f204c 	ldr	r2, [pc, #76]	; 168 <main+0x68>
     118:	e2504000 	subs	r4, r0, #0
     11c:	e08f2002 	add	r2, pc, r2
     120:	0a000005 	beq	13c <main+0x3c>
     124:	e1a00004 	mov	r0, r4
     128:	e3a0107b 	mov	r1, #123	; 0x7b
     12c:	eb0009a1 	bl	27b8 <proc_interrupt>
     130:	e59f0034 	ldr	r0, [pc, #52]	; 16c <main+0x6c>
     134:	eb000b67 	bl	2ed8 <usleep>
     138:	eafffff9 	b	124 <main+0x24>
     13c:	e24b1014 	sub	r1, fp, #20
     140:	e59f3028 	ldr	r3, [pc, #40]	; 170 <main+0x70>
     144:	e5214004 	str	r4, [r1, #-4]!
     148:	e7920003 	ldr	r0, [r2, r3]
     14c:	eb000983 	bl	2760 <proc_interrupt_setup>
     150:	e3a00001 	mov	r0, #1
     154:	eb000b70 	bl	2f1c <sleep>
     158:	e51b3018 	ldr	r3, [fp, #-24]
     15c:	e2833001 	add	r3, r3, #1
     160:	e50b3018 	str	r3, [fp, #-24]
     164:	eafffff9 	b	150 <main+0x50>
     168:	00014094 	muleq	r1, r4, r0
     16c:	000186a0 	andeq	r8, r1, r0, lsr #13
     170:	00000014 	andeq	r0, r0, r4, lsl r0

00000174 <int_func>:
     174:	e1a0c00d 	mov	ip, sp
     178:	e1a03000 	mov	r3, r0
     17c:	e59f0020 	ldr	r0, [pc, #32]	; 1a4 <int_func+0x30>
     180:	e92dd800 	push	{fp, ip, lr, pc}
     184:	e5912000 	ldr	r2, [r1]
     188:	e24cb004 	sub	fp, ip, #4
     18c:	e08f0000 	add	r0, pc, r0
     190:	e1a01003 	mov	r1, r3
     194:	eb0011d6 	bl	48f4 <printf>
     198:	e24bd00c 	sub	sp, fp, #12
     19c:	e89d6800 	ldm	sp, {fp, sp, lr}
     1a0:	e12fff1e 	bx	lr
     1a4:	0000a6d0 	ldrdeq	sl, [r0], -r0

000001a8 <syscall3>:
     1a8:	e92d4030 	push	{r4, r5, lr}
     1ac:	e1a0c002 	mov	ip, r2
     1b0:	e24dd00c 	sub	sp, sp, #12
     1b4:	e1a0e000 	mov	lr, r0
     1b8:	e1a04001 	mov	r4, r1
     1bc:	e1a05003 	mov	r5, r3
     1c0:	e92d4000 	stmfd	sp!, {lr}
     1c4:	e10f0000 	mrs	r0, CPSR
     1c8:	e92d0001 	stmfd	sp!, {r0}
     1cc:	e1a0000e 	mov	r0, lr
     1d0:	e1a01004 	mov	r1, r4
     1d4:	e1a0200c 	mov	r2, ip
     1d8:	e1a03005 	mov	r3, r5
     1dc:	ef000000 	svc	0x00000000
     1e0:	e1a0c000 	mov	ip, r0
     1e4:	e8bd0002 	ldmfd	sp!, {r1}
     1e8:	e8bd4000 	ldmfd	sp!, {lr}
     1ec:	e58dc004 	str	ip, [sp, #4]
     1f0:	e59d0004 	ldr	r0, [sp, #4]
     1f4:	e28dd00c 	add	sp, sp, #12
     1f8:	e8bd4030 	pop	{r4, r5, lr}
     1fc:	e12fff1e 	bx	lr

00000200 <syscall2>:
     200:	e92d4030 	push	{r4, r5, lr}
     204:	e1a0c002 	mov	ip, r2
     208:	e24dd00c 	sub	sp, sp, #12
     20c:	e1a0e000 	mov	lr, r0
     210:	e1a04001 	mov	r4, r1
     214:	e3a05000 	mov	r5, #0
     218:	e92d4000 	stmfd	sp!, {lr}
     21c:	e10f0000 	mrs	r0, CPSR
     220:	e92d0001 	stmfd	sp!, {r0}
     224:	e1a0000e 	mov	r0, lr
     228:	e1a01004 	mov	r1, r4
     22c:	e1a0200c 	mov	r2, ip
     230:	e1a03005 	mov	r3, r5
     234:	ef000000 	svc	0x00000000
     238:	e1a0c000 	mov	ip, r0
     23c:	e8bd0002 	ldmfd	sp!, {r1}
     240:	e8bd4000 	ldmfd	sp!, {lr}
     244:	e58dc004 	str	ip, [sp, #4]
     248:	e59d0004 	ldr	r0, [sp, #4]
     24c:	e28dd00c 	add	sp, sp, #12
     250:	e8bd4030 	pop	{r4, r5, lr}
     254:	e12fff1e 	bx	lr

00000258 <syscall1>:
     258:	e92d4010 	push	{r4, lr}
     25c:	e3a0c000 	mov	ip, #0
     260:	e24dd008 	sub	sp, sp, #8
     264:	e1a0e000 	mov	lr, r0
     268:	e1a04001 	mov	r4, r1
     26c:	e92d4000 	stmfd	sp!, {lr}
     270:	e10f0000 	mrs	r0, CPSR
     274:	e92d0001 	stmfd	sp!, {r0}
     278:	e1a0000e 	mov	r0, lr
     27c:	e1a01004 	mov	r1, r4
     280:	e1a0200c 	mov	r2, ip
     284:	e1a0300c 	mov	r3, ip
     288:	ef000000 	svc	0x00000000
     28c:	e1a0c000 	mov	ip, r0
     290:	e8bd0002 	ldmfd	sp!, {r1}
     294:	e8bd4000 	ldmfd	sp!, {lr}
     298:	e58dc004 	str	ip, [sp, #4]
     29c:	e59d0004 	ldr	r0, [sp, #4]
     2a0:	e28dd008 	add	sp, sp, #8
     2a4:	e8bd4010 	pop	{r4, lr}
     2a8:	e12fff1e 	bx	lr

000002ac <syscall0>:
     2ac:	e52de004 	push	{lr}		; (str lr, [sp, #-4]!)
     2b0:	e3a0c000 	mov	ip, #0
     2b4:	e24dd00c 	sub	sp, sp, #12
     2b8:	e1a0e000 	mov	lr, r0
     2bc:	e92d4000 	stmfd	sp!, {lr}
     2c0:	e10f0000 	mrs	r0, CPSR
     2c4:	e92d0001 	stmfd	sp!, {r0}
     2c8:	e1a0000e 	mov	r0, lr
     2cc:	e1a0100c 	mov	r1, ip
     2d0:	e1a0200c 	mov	r2, ip
     2d4:	e1a0300c 	mov	r3, ip
     2d8:	ef000000 	svc	0x00000000
     2dc:	e1a0c000 	mov	ip, r0
     2e0:	e8bd0002 	ldmfd	sp!, {r1}
     2e4:	e8bd4000 	ldmfd	sp!, {lr}
     2e8:	e58dc004 	str	ip, [sp, #4]
     2ec:	e59d0004 	ldr	r0, [sp, #4]
     2f0:	e28dd00c 	add	sp, sp, #12
     2f4:	e49de004 	pop	{lr}		; (ldr lr, [sp], #4)
     2f8:	e12fff1e 	bx	lr

000002fc <_start>:
     2fc:	e1a0c00d 	mov	ip, sp
     300:	e92dd9f0 	push	{r4, r5, r6, r7, r8, fp, ip, lr, pc}
     304:	e3a05000 	mov	r5, #0
     308:	e59f414c 	ldr	r4, [pc, #332]	; 45c <_start+0x160>
     30c:	e24cb004 	sub	fp, ip, #4
     310:	e24dd044 	sub	sp, sp, #68	; 0x44
     314:	e08f4004 	add	r4, pc, r4
     318:	e5c45000 	strb	r5, [r4]
     31c:	e5845400 	str	r5, [r4, #1024]	; 0x400
     320:	eb000ad4 	bl	2e78 <getpid>
     324:	e1a02004 	mov	r2, r4
     328:	e1a01000 	mov	r1, r0
     32c:	e59f312c 	ldr	r3, [pc, #300]	; 460 <_start+0x164>
     330:	e3a00030 	mov	r0, #48	; 0x30
     334:	ebffff9b 	bl	1a8 <syscall3>
     338:	e24b1064 	sub	r1, fp, #100	; 0x64
     33c:	e1a00005 	mov	r0, r5
     340:	e1a07005 	mov	r7, r5
     344:	e1a02004 	mov	r2, r4
     348:	e1a06001 	mov	r6, r1
     34c:	e59f8110 	ldr	r8, [pc, #272]	; 464 <_start+0x168>
     350:	e5943400 	ldr	r3, [r4, #1024]	; 0x400
     354:	e08f8008 	add	r8, pc, r8
     358:	e3a0e000 	mov	lr, #0
     35c:	e7d2c003 	ldrb	ip, [r2, r3]
     360:	e35c0000 	cmp	ip, #0
     364:	e1a05003 	mov	r5, r3
     368:	e1a0400e 	mov	r4, lr
     36c:	0a000008 	beq	394 <_start+0x98>
     370:	e35e0000 	cmp	lr, #0
     374:	e2833001 	add	r3, r3, #1
     378:	0a00001c 	beq	3f0 <_start+0xf4>
     37c:	e35c0022 	cmp	ip, #34	; 0x22
     380:	0a00002e 	beq	440 <_start+0x144>
     384:	e7d2c003 	ldrb	ip, [r2, r3]
     388:	e35c0000 	cmp	ip, #0
     38c:	e1a05003 	mov	r5, r3
     390:	1afffff6 	bne	370 <_start+0x74>
     394:	e3540000 	cmp	r4, #0
     398:	0a00002b 	beq	44c <_start+0x150>
     39c:	e5d4c000 	ldrb	ip, [r4]
     3a0:	e35c0000 	cmp	ip, #0
     3a4:	0a000021 	beq	430 <_start+0x134>
     3a8:	e2800001 	add	r0, r0, #1
     3ac:	e3500010 	cmp	r0, #16
     3b0:	e4864004 	str	r4, [r6], #4
     3b4:	1affffe7 	bne	358 <_start+0x5c>
     3b8:	e59f20a8 	ldr	r2, [pc, #168]	; 468 <_start+0x16c>
     3bc:	e08f2002 	add	r2, pc, r2
     3c0:	e5823400 	str	r3, [r2, #1024]	; 0x400
     3c4:	ebffff4d 	bl	100 <main>
     3c8:	e1a04000 	mov	r4, r0
     3cc:	e3a00000 	mov	r0, #0
     3d0:	eb000ea8 	bl	3e78 <close>
     3d4:	e3a00001 	mov	r0, #1
     3d8:	eb000ea6 	bl	3e78 <close>
     3dc:	e1a00004 	mov	r0, r4
     3e0:	eb000dba 	bl	3ad0 <exit>
     3e4:	e24bd020 	sub	sp, fp, #32
     3e8:	e89d69f0 	ldm	sp, {r4, r5, r6, r7, r8, fp, sp, lr}
     3ec:	e12fff1e 	bx	lr
     3f0:	e35c0020 	cmp	ip, #32
     3f4:	0a000007 	beq	418 <_start+0x11c>
     3f8:	e3540000 	cmp	r4, #0
     3fc:	1affffe0 	bne	384 <_start+0x88>
     400:	e35c0022 	cmp	ip, #34	; 0x22
     404:	02853002 	addeq	r3, r5, #2
     408:	e2434001 	sub	r4, r3, #1
     40c:	03a0e001 	moveq	lr, #1
     410:	e0884004 	add	r4, r8, r4
     414:	eaffffda 	b	384 <_start+0x88>
     418:	e3540000 	cmp	r4, #0
     41c:	0affffd8 	beq	384 <_start+0x88>
     420:	e7c2e005 	strb	lr, [r2, r5]
     424:	e5d4c000 	ldrb	ip, [r4]
     428:	e35c0000 	cmp	ip, #0
     42c:	1affffdd 	bne	3a8 <_start+0xac>
     430:	e59f2034 	ldr	r2, [pc, #52]	; 46c <_start+0x170>
     434:	e08f2002 	add	r2, pc, r2
     438:	e5823400 	str	r3, [r2, #1024]	; 0x400
     43c:	eaffffe0 	b	3c4 <_start+0xc8>
     440:	e3540000 	cmp	r4, #0
     444:	e7c27005 	strb	r7, [r2, r5]
     448:	1affffd3 	bne	39c <_start+0xa0>
     44c:	e59f201c 	ldr	r2, [pc, #28]	; 470 <_start+0x174>
     450:	e08f2002 	add	r2, pc, r2
     454:	e5823400 	str	r3, [r2, #1024]	; 0x400
     458:	eaffffd9 	b	3c4 <_start+0xc8>
     45c:	00025528 	andeq	r5, r2, r8, lsr #10
     460:	000003ff 	strdeq	r0, [r0], -pc	; <UNPREDICTABLE>
     464:	000254e8 	andeq	r5, r2, r8, ror #9
     468:	00025480 	andeq	r5, r2, r0, lsl #9
     46c:	00025408 	andeq	r5, r2, r8, lsl #8
     470:	000253ec 	andeq	r5, r2, ip, ror #7

00000474 <vfs_new_node>:
     474:	e1a0c00d 	mov	ip, sp
     478:	e1a01000 	mov	r1, r0
     47c:	e92dd800 	push	{fp, ip, lr, pc}
     480:	e3a0001a 	mov	r0, #26
     484:	e24cb004 	sub	fp, ip, #4
     488:	ebffff72 	bl	258 <syscall1>
     48c:	e24bd00c 	sub	sp, fp, #12
     490:	e89d6800 	ldm	sp, {fp, sp, lr}
     494:	e12fff1e 	bx	lr

00000498 <vfs_fullname>:
     498:	e1a0c00d 	mov	ip, sp
     49c:	e92dd870 	push	{r4, r5, r6, fp, ip, lr, pc}
     4a0:	e1a04000 	mov	r4, r0
     4a4:	e59f009c 	ldr	r0, [pc, #156]	; 548 <vfs_fullname+0xb0>
     4a8:	e24cb004 	sub	fp, ip, #4
     4ac:	e24ddf81 	sub	sp, sp, #516	; 0x204
     4b0:	e08f0000 	add	r0, pc, r0
     4b4:	eb001f63 	bl	8248 <str_new>
     4b8:	e5d43000 	ldrb	r3, [r4]
     4bc:	e353002f 	cmp	r3, #47	; 0x2f
     4c0:	e1a05000 	mov	r5, r0
     4c4:	0a00001c 	beq	53c <vfs_fullname+0xa4>
     4c8:	e24b6f87 	sub	r6, fp, #540	; 0x21c
     4cc:	e59f1078 	ldr	r1, [pc, #120]	; 54c <vfs_fullname+0xb4>
     4d0:	e1a00006 	mov	r0, r6
     4d4:	eb000ceb 	bl	3888 <getcwd>
     4d8:	e1a00005 	mov	r0, r5
     4dc:	e1a01006 	mov	r1, r6
     4e0:	eb001f4d 	bl	821c <str_cpy>
     4e4:	e55b321b 	ldrb	r3, [fp, #-539]	; 0x21b
     4e8:	e3530000 	cmp	r3, #0
     4ec:	1a00000e 	bne	52c <vfs_fullname+0x94>
     4f0:	e1a01004 	mov	r1, r4
     4f4:	e1a00005 	mov	r0, r5
     4f8:	eb001f75 	bl	82d4 <str_add>
     4fc:	e59f404c 	ldr	r4, [pc, #76]	; 550 <vfs_fullname+0xb8>
     500:	e08f4004 	add	r4, pc, r4
     504:	e5951000 	ldr	r1, [r5]
     508:	e59f203c 	ldr	r2, [pc, #60]	; 54c <vfs_fullname+0xb4>
     50c:	e1a00004 	mov	r0, r4
     510:	eb0025c3 	bl	9c24 <strncpy>
     514:	e1a00005 	mov	r0, r5
     518:	eb001fb7 	bl	83fc <str_free>
     51c:	e1a00004 	mov	r0, r4
     520:	e24bd018 	sub	sp, fp, #24
     524:	e89d6870 	ldm	sp, {r4, r5, r6, fp, sp, lr}
     528:	e12fff1e 	bx	lr
     52c:	e1a00005 	mov	r0, r5
     530:	e3a0102f 	mov	r1, #47	; 0x2f
     534:	eb001f8f 	bl	8378 <str_addc>
     538:	eaffffec 	b	4f0 <vfs_fullname+0x58>
     53c:	e1a01004 	mov	r1, r4
     540:	eb001f35 	bl	821c <str_cpy>
     544:	eaffffec 	b	4fc <vfs_fullname+0x64>
     548:	0000a430 	andeq	sl, r0, r0, lsr r4
     54c:	000001ff 	strdeq	r0, [r0], -pc	; <UNPREDICTABLE>
     550:	00025740 	andeq	r5, r2, r0, asr #14

00000554 <vfs_get>:
     554:	e1a0c00d 	mov	ip, sp
     558:	e92dd818 	push	{r3, r4, fp, ip, lr, pc}
     55c:	e24cb004 	sub	fp, ip, #4
     560:	e1a04001 	mov	r4, r1
     564:	ebffffcb 	bl	498 <vfs_fullname>
     568:	e1a02004 	mov	r2, r4
     56c:	e1a01000 	mov	r1, r0
     570:	e3a0001f 	mov	r0, #31
     574:	ebffff21 	bl	200 <syscall2>
     578:	e24bd014 	sub	sp, fp, #20
     57c:	e89d6818 	ldm	sp, {r3, r4, fp, sp, lr}
     580:	e12fff1e 	bx	lr

00000584 <vfs_access>:
     584:	e1a0c00d 	mov	ip, sp
     588:	e92dd800 	push	{fp, ip, lr, pc}
     58c:	e24cb004 	sub	fp, ip, #4
     590:	e24dd058 	sub	sp, sp, #88	; 0x58
     594:	e24b1064 	sub	r1, fp, #100	; 0x64
     598:	ebffffed 	bl	554 <vfs_get>
     59c:	e24bd00c 	sub	sp, fp, #12
     5a0:	e89d6800 	ldm	sp, {fp, sp, lr}
     5a4:	e12fff1e 	bx	lr

000005a8 <vfs_first_kid>:
     5a8:	e1a0c00d 	mov	ip, sp
     5ac:	e1a03000 	mov	r3, r0
     5b0:	e92dd800 	push	{fp, ip, lr, pc}
     5b4:	e1a02001 	mov	r2, r1
     5b8:	e24cb004 	sub	fp, ip, #4
     5bc:	e1a01003 	mov	r1, r3
     5c0:	e3a00020 	mov	r0, #32
     5c4:	ebffff0d 	bl	200 <syscall2>
     5c8:	e24bd00c 	sub	sp, fp, #12
     5cc:	e89d6800 	ldm	sp, {fp, sp, lr}
     5d0:	e12fff1e 	bx	lr

000005d4 <vfs_next>:
     5d4:	e1a0c00d 	mov	ip, sp
     5d8:	e1a03000 	mov	r3, r0
     5dc:	e92dd800 	push	{fp, ip, lr, pc}
     5e0:	e1a02001 	mov	r2, r1
     5e4:	e24cb004 	sub	fp, ip, #4
     5e8:	e1a01003 	mov	r1, r3
     5ec:	e3a00021 	mov	r0, #33	; 0x21
     5f0:	ebffff02 	bl	200 <syscall2>
     5f4:	e24bd00c 	sub	sp, fp, #12
     5f8:	e89d6800 	ldm	sp, {fp, sp, lr}
     5fc:	e12fff1e 	bx	lr

00000600 <vfs_father>:
     600:	e1a0c00d 	mov	ip, sp
     604:	e1a03000 	mov	r3, r0
     608:	e92dd800 	push	{fp, ip, lr, pc}
     60c:	e1a02001 	mov	r2, r1
     610:	e24cb004 	sub	fp, ip, #4
     614:	e1a01003 	mov	r1, r3
     618:	e3a00022 	mov	r0, #34	; 0x22
     61c:	ebfffef7 	bl	200 <syscall2>
     620:	e24bd00c 	sub	sp, fp, #12
     624:	e89d6800 	ldm	sp, {fp, sp, lr}
     628:	e12fff1e 	bx	lr

0000062c <vfs_set>:
     62c:	e1a0c00d 	mov	ip, sp
     630:	e1a01000 	mov	r1, r0
     634:	e92dd800 	push	{fp, ip, lr, pc}
     638:	e3a00023 	mov	r0, #35	; 0x23
     63c:	e24cb004 	sub	fp, ip, #4
     640:	ebffff04 	bl	258 <syscall1>
     644:	e24bd00c 	sub	sp, fp, #12
     648:	e89d6800 	ldm	sp, {fp, sp, lr}
     64c:	e12fff1e 	bx	lr

00000650 <vfs_add>:
     650:	e1a0c00d 	mov	ip, sp
     654:	e1a03000 	mov	r3, r0
     658:	e92dd800 	push	{fp, ip, lr, pc}
     65c:	e1a02001 	mov	r2, r1
     660:	e24cb004 	sub	fp, ip, #4
     664:	e1a01003 	mov	r1, r3
     668:	e3a00024 	mov	r0, #36	; 0x24
     66c:	ebfffee3 	bl	200 <syscall2>
     670:	e24bd00c 	sub	sp, fp, #12
     674:	e89d6800 	ldm	sp, {fp, sp, lr}
     678:	e12fff1e 	bx	lr

0000067c <vfs_del>:
     67c:	e1a0c00d 	mov	ip, sp
     680:	e1a01000 	mov	r1, r0
     684:	e92dd800 	push	{fp, ip, lr, pc}
     688:	e3a00025 	mov	r0, #37	; 0x25
     68c:	e24cb004 	sub	fp, ip, #4
     690:	ebfffef0 	bl	258 <syscall1>
     694:	e24bd00c 	sub	sp, fp, #12
     698:	e89d6800 	ldm	sp, {fp, sp, lr}
     69c:	e12fff1e 	bx	lr

000006a0 <vfs_get_mount>:
     6a0:	e1a0c00d 	mov	ip, sp
     6a4:	e1a03000 	mov	r3, r0
     6a8:	e92dd800 	push	{fp, ip, lr, pc}
     6ac:	e1a02001 	mov	r2, r1
     6b0:	e24cb004 	sub	fp, ip, #4
     6b4:	e1a01003 	mov	r1, r3
     6b8:	e3a0001b 	mov	r0, #27
     6bc:	ebfffecf 	bl	200 <syscall2>
     6c0:	e24bd00c 	sub	sp, fp, #12
     6c4:	e89d6800 	ldm	sp, {fp, sp, lr}
     6c8:	e12fff1e 	bx	lr

000006cc <vfs_mount>:
     6cc:	e1a0c00d 	mov	ip, sp
     6d0:	e1a03000 	mov	r3, r0
     6d4:	e92dd800 	push	{fp, ip, lr, pc}
     6d8:	e1a02001 	mov	r2, r1
     6dc:	e24cb004 	sub	fp, ip, #4
     6e0:	e1a01003 	mov	r1, r3
     6e4:	e3a0001d 	mov	r0, #29
     6e8:	ebfffec4 	bl	200 <syscall2>
     6ec:	e24bd00c 	sub	sp, fp, #12
     6f0:	e89d6800 	ldm	sp, {fp, sp, lr}
     6f4:	e12fff1e 	bx	lr

000006f8 <vfs_uumount>:
     6f8:	e1a0c00d 	mov	ip, sp
     6fc:	e1a01000 	mov	r1, r0
     700:	e92dd800 	push	{fp, ip, lr, pc}
     704:	e3a0001e 	mov	r0, #30
     708:	e24cb004 	sub	fp, ip, #4
     70c:	ebfffed1 	bl	258 <syscall1>
     710:	e24bd00c 	sub	sp, fp, #12
     714:	e89d6800 	ldm	sp, {fp, sp, lr}
     718:	e12fff1e 	bx	lr

0000071c <vfs_get_by_fd>:
     71c:	e1a0c00d 	mov	ip, sp
     720:	e1a03000 	mov	r3, r0
     724:	e92dd800 	push	{fp, ip, lr, pc}
     728:	e1a02001 	mov	r2, r1
     72c:	e24cb004 	sub	fp, ip, #4
     730:	e1a01003 	mov	r1, r3
     734:	e3a0002a 	mov	r0, #42	; 0x2a
     738:	ebfffeb0 	bl	200 <syscall2>
     73c:	e24bd00c 	sub	sp, fp, #12
     740:	e89d6800 	ldm	sp, {fp, sp, lr}
     744:	e12fff1e 	bx	lr

00000748 <vfs_readfile>:
     748:	e1a0c00d 	mov	ip, sp
     74c:	e92ddbf0 	push	{r4, r5, r6, r7, r8, r9, fp, ip, lr, pc}
     750:	e24cb004 	sub	fp, ip, #4
     754:	e24dd058 	sub	sp, sp, #88	; 0x58
     758:	e1a09001 	mov	r9, r1
     75c:	ebffff4d 	bl	498 <vfs_fullname>
     760:	e24b107c 	sub	r1, fp, #124	; 0x7c
     764:	e1a05000 	mov	r5, r0
     768:	ebffff79 	bl	554 <vfs_get>
     76c:	e59f70cc 	ldr	r7, [pc, #204]	; 840 <vfs_readfile+0xf8>
     770:	e2504000 	subs	r4, r0, #0
     774:	e08f7007 	add	r7, pc, r7
     778:	1a00002c 	bne	830 <vfs_readfile+0xe8>
     77c:	e51b0034 	ldr	r0, [fp, #-52]	; 0x34
     780:	e3500000 	cmp	r0, #0
     784:	0a000029 	beq	830 <vfs_readfile+0xe8>
     788:	eb000cad 	bl	3a44 <malloc>
     78c:	e2508000 	subs	r8, r0, #0
     790:	0a000026 	beq	830 <vfs_readfile+0xe8>
     794:	e1a01004 	mov	r1, r4
     798:	e1a00005 	mov	r0, r5
     79c:	eb000d72 	bl	3d6c <open>
     7a0:	e2506000 	subs	r6, r0, #0
     7a4:	e51b4034 	ldr	r4, [fp, #-52]	; 0x34
     7a8:	ba00000c 	blt	7e0 <vfs_readfile+0x98>
     7ac:	e1a05008 	mov	r5, r8
     7b0:	e1a00006 	mov	r0, r6
     7b4:	e1a01005 	mov	r1, r5
     7b8:	e1a02004 	mov	r2, r4
     7bc:	eb000a11 	bl	3008 <read>
     7c0:	e3500000 	cmp	r0, #0
     7c4:	da00000f 	ble	808 <vfs_readfile+0xc0>
     7c8:	e0604004 	rsb	r4, r0, r4
     7cc:	e3540000 	cmp	r4, #0
     7d0:	e0855000 	add	r5, r5, r0
     7d4:	cafffff5 	bgt	7b0 <vfs_readfile+0x68>
     7d8:	e1a00006 	mov	r0, r6
     7dc:	eb000da5 	bl	3e78 <close>
     7e0:	e3540000 	cmp	r4, #0
     7e4:	1a00000f 	bne	828 <vfs_readfile+0xe0>
     7e8:	e3590000 	cmp	r9, #0
     7ec:	11a00008 	movne	r0, r8
     7f0:	01a00008 	moveq	r0, r8
     7f4:	151b3034 	ldrne	r3, [fp, #-52]	; 0x34
     7f8:	15893000 	strne	r3, [r9]
     7fc:	e24bd024 	sub	sp, fp, #36	; 0x24
     800:	e89d6bf0 	ldm	sp, {r4, r5, r6, r7, r8, r9, fp, sp, lr}
     804:	e12fff1e 	bx	lr
     808:	e59f3034 	ldr	r3, [pc, #52]	; 844 <vfs_readfile+0xfc>
     80c:	e7973003 	ldr	r3, [r7, r3]
     810:	e5933000 	ldr	r3, [r3]
     814:	e3530001 	cmp	r3, #1
     818:	0affffe4 	beq	7b0 <vfs_readfile+0x68>
     81c:	e1a00006 	mov	r0, r6
     820:	eb000d94 	bl	3e78 <close>
     824:	eaffffed 	b	7e0 <vfs_readfile+0x98>
     828:	e1a00008 	mov	r0, r8
     82c:	eb000c8d 	bl	3a68 <free>
     830:	e3a00000 	mov	r0, #0
     834:	e24bd024 	sub	sp, fp, #36	; 0x24
     838:	e89d6bf0 	ldm	sp, {r4, r5, r6, r7, r8, r9, fp, sp, lr}
     83c:	e12fff1e 	bx	lr
     840:	00013a3c 	andeq	r3, r1, ip, lsr sl
     844:	0000000c 	andeq	r0, r0, ip

00000848 <vfs_parse_name>:
     848:	e1a0c00d 	mov	ip, sp
     84c:	e92dd9f8 	push	{r3, r4, r5, r6, r7, r8, fp, ip, lr, pc}
     850:	e24cb004 	sub	fp, ip, #4
     854:	e1a07001 	mov	r7, r1
     858:	e1a05002 	mov	r5, r2
     85c:	ebffff0d 	bl	498 <vfs_fullname>
     860:	eb001e78 	bl	8248 <str_new>
     864:	e5908000 	ldr	r8, [r0]
     868:	e1a04000 	mov	r4, r0
     86c:	e1a00008 	mov	r0, r8
     870:	eb0024d3 	bl	9bc4 <strlen>
     874:	e3500000 	cmp	r0, #0
     878:	ba00000f 	blt	8bc <vfs_parse_name+0x74>
     87c:	e7d83000 	ldrb	r3, [r8, r0]
     880:	e353002f 	cmp	r3, #47	; 0x2f
     884:	e0882000 	add	r2, r8, r0
     888:	01a06000 	moveq	r6, r0
     88c:	0a00001f 	beq	910 <vfs_parse_name+0xc8>
     890:	e2403001 	sub	r3, r0, #1
     894:	e0883003 	add	r3, r8, r3
     898:	ea000005 	b	8b4 <vfs_parse_name+0x6c>
     89c:	e5d31000 	ldrb	r1, [r3]
     8a0:	e351002f 	cmp	r1, #47	; 0x2f
     8a4:	e1a02003 	mov	r2, r3
     8a8:	e1a06000 	mov	r6, r0
     8ac:	e2433001 	sub	r3, r3, #1
     8b0:	0a000016 	beq	910 <vfs_parse_name+0xc8>
     8b4:	e2500001 	subs	r0, r0, #1
     8b8:	2afffff7 	bcs	89c <vfs_parse_name+0x54>
     8bc:	e1a06000 	mov	r6, r0
     8c0:	e1a01008 	mov	r1, r8
     8c4:	e1a00007 	mov	r0, r7
     8c8:	eb001e53 	bl	821c <str_cpy>
     8cc:	e2861001 	add	r1, r6, #1
     8d0:	e0881001 	add	r1, r8, r1
     8d4:	e1a00005 	mov	r0, r5
     8d8:	eb001e4f 	bl	821c <str_cpy>
     8dc:	e5973000 	ldr	r3, [r7]
     8e0:	e5d33000 	ldrb	r3, [r3]
     8e4:	e3530000 	cmp	r3, #0
     8e8:	059f102c 	ldreq	r1, [pc, #44]	; 91c <vfs_parse_name+0xd4>
     8ec:	01a00007 	moveq	r0, r7
     8f0:	008f1001 	addeq	r1, pc, r1
     8f4:	0b001e48 	bleq	821c <str_cpy>
     8f8:	e1a00004 	mov	r0, r4
     8fc:	eb001ebe 	bl	83fc <str_free>
     900:	e3a00000 	mov	r0, #0
     904:	e24bd024 	sub	sp, fp, #36	; 0x24
     908:	e89d69f8 	ldm	sp, {r3, r4, r5, r6, r7, r8, fp, sp, lr}
     90c:	e12fff1e 	bx	lr
     910:	e3a03000 	mov	r3, #0
     914:	e5c23000 	strb	r3, [r2]
     918:	eaffffe8 	b	8c0 <vfs_parse_name+0x78>
     91c:	00009f80 	andeq	r9, r0, r0, lsl #31

00000920 <vfs_create>:
     920:	e1a0c00d 	mov	ip, sp
     924:	e92dd9f0 	push	{r4, r5, r6, r7, r8, fp, ip, lr, pc}
     928:	e59f51a8 	ldr	r5, [pc, #424]	; ad8 <vfs_create+0x1b8>
     92c:	e24cb004 	sub	fp, ip, #4
     930:	e24ddfa5 	sub	sp, sp, #660	; 0x294
     934:	e08f5005 	add	r5, pc, r5
     938:	e1a06000 	mov	r6, r0
     93c:	e1a00005 	mov	r0, r5
     940:	e1a04001 	mov	r4, r1
     944:	e1a08002 	mov	r8, r2
     948:	eb001e3e 	bl	8248 <str_new>
     94c:	e1a07000 	mov	r7, r0
     950:	e1a00005 	mov	r0, r5
     954:	eb001e3b 	bl	8248 <str_new>
     958:	e1a05000 	mov	r5, r0
     95c:	e1a01007 	mov	r1, r7
     960:	e1a00006 	mov	r0, r6
     964:	e1a02005 	mov	r2, r5
     968:	e24b6fa1 	sub	r6, fp, #644	; 0x284
     96c:	ebffffb5 	bl	848 <vfs_parse_name>
     970:	e5970000 	ldr	r0, [r7]
     974:	e1a01006 	mov	r1, r6
     978:	ebfffef5 	bl	554 <vfs_get>
     97c:	e3500000 	cmp	r0, #0
     980:	1a00004a 	bne	ab0 <vfs_create+0x190>
     984:	e24b1f8b 	sub	r1, fp, #556	; 0x22c
     988:	e1a00006 	mov	r0, r6
     98c:	ebffff43 	bl	6a0 <vfs_get_mount>
     990:	e2501000 	subs	r1, r0, #0
     994:	1a000045 	bne	ab0 <vfs_create+0x190>
     998:	e3a02058 	mov	r2, #88	; 0x58
     99c:	e1a00004 	mov	r0, r4
     9a0:	eb002385 	bl	97bc <memset>
     9a4:	e5951000 	ldr	r1, [r5]
     9a8:	e2840004 	add	r0, r4, #4
     9ac:	eb002448 	bl	9ad4 <strcpy>
     9b0:	e1a00005 	mov	r0, r5
     9b4:	e5848044 	str	r8, [r4, #68]	; 0x44
     9b8:	eb001e8f 	bl	83fc <str_free>
     9bc:	e1a00007 	mov	r0, r7
     9c0:	eb001e8d 	bl	83fc <str_free>
     9c4:	e1a00004 	mov	r0, r4
     9c8:	ebfffea9 	bl	474 <vfs_new_node>
     9cc:	e1a00006 	mov	r0, r6
     9d0:	e1a01004 	mov	r1, r4
     9d4:	ebffff1d 	bl	650 <vfs_add>
     9d8:	e2505000 	subs	r5, r0, #0
     9dc:	1a000039 	bne	ac8 <vfs_create+0x1a8>
     9e0:	e3580003 	cmp	r8, #3
     9e4:	0a000021 	beq	a70 <vfs_create+0x150>
     9e8:	e24b7fad 	sub	r7, fp, #692	; 0x2b4
     9ec:	e1a00007 	mov	r0, r7
     9f0:	e1a01005 	mov	r1, r5
     9f4:	e1a02005 	mov	r2, r5
     9f8:	e24b8fa7 	sub	r8, fp, #668	; 0x29c
     9fc:	eb000323 	bl	1690 <proto_init>
     a00:	e1a02005 	mov	r2, r5
     a04:	e1a00008 	mov	r0, r8
     a08:	e1a01005 	mov	r1, r5
     a0c:	eb00031f 	bl	1690 <proto_init>
     a10:	e1a00007 	mov	r0, r7
     a14:	e3a01003 	mov	r1, #3
     a18:	eb000387 	bl	183c <proto_add_int>
     a1c:	e1a00007 	mov	r0, r7
     a20:	e1a01006 	mov	r1, r6
     a24:	e3a02058 	mov	r2, #88	; 0x58
     a28:	eb00034e 	bl	1768 <proto_add>
     a2c:	e1a00007 	mov	r0, r7
     a30:	e1a01004 	mov	r1, r4
     a34:	e3a02058 	mov	r2, #88	; 0x58
     a38:	eb00034a 	bl	1768 <proto_add>
     a3c:	e1a01007 	mov	r1, r7
     a40:	e1a02008 	mov	r2, r8
     a44:	e51b022c 	ldr	r0, [fp, #-556]	; 0x22c
     a48:	eb000061 	bl	bd4 <ipc_call>
     a4c:	e3500000 	cmp	r0, #0
     a50:	0a00000a 	beq	a80 <vfs_create+0x160>
     a54:	e1a00004 	mov	r0, r4
     a58:	ebffff07 	bl	67c <vfs_del>
     a5c:	e3e05000 	mvn	r5, #0
     a60:	e1a00007 	mov	r0, r7
     a64:	eb0003dd 	bl	19e0 <proto_clear>
     a68:	e1a00008 	mov	r0, r8
     a6c:	eb0003db 	bl	19e0 <proto_clear>
     a70:	e1a00005 	mov	r0, r5
     a74:	e24bd020 	sub	sp, fp, #32
     a78:	e89d69f0 	ldm	sp, {r4, r5, r6, r7, r8, fp, sp, lr}
     a7c:	e12fff1e 	bx	lr
     a80:	e1a00008 	mov	r0, r8
     a84:	eb0003c9 	bl	19b0 <proto_read_int>
     a88:	e2505000 	subs	r5, r0, #0
     a8c:	1afffff3 	bne	a60 <vfs_create+0x140>
     a90:	e1a01004 	mov	r1, r4
     a94:	e3a02058 	mov	r2, #88	; 0x58
     a98:	e1a00008 	mov	r0, r8
     a9c:	eb0003a5 	bl	1938 <proto_read_to>
     aa0:	e1a00004 	mov	r0, r4
     aa4:	ebfffee0 	bl	62c <vfs_set>
     aa8:	e1a05000 	mov	r5, r0
     aac:	eaffffeb 	b	a60 <vfs_create+0x140>
     ab0:	e1a00007 	mov	r0, r7
     ab4:	eb001e50 	bl	83fc <str_free>
     ab8:	e1a00005 	mov	r0, r5
     abc:	eb001e4e 	bl	83fc <str_free>
     ac0:	e3e05000 	mvn	r5, #0
     ac4:	eaffffe9 	b	a70 <vfs_create+0x150>
     ac8:	e1a00004 	mov	r0, r4
     acc:	ebfffeea 	bl	67c <vfs_del>
     ad0:	e3e05000 	mvn	r5, #0
     ad4:	eaffffe5 	b	a70 <vfs_create+0x150>
     ad8:	00009fac 	andeq	r9, r0, ip, lsr #31

00000adc <ipc_send>:
     adc:	e1a0c00d 	mov	ip, sp
     ae0:	e2713001 	rsbs	r3, r1, #1
     ae4:	33a03000 	movcc	r3, #0
     ae8:	e92dd830 	push	{r4, r5, fp, ip, lr, pc}
     aec:	e24cb004 	sub	fp, ip, #4
     af0:	e24dd008 	sub	sp, sp, #8
     af4:	e1934fa0 	orrs	r4, r3, r0, lsr #31
     af8:	1a000010 	bne	b40 <ipc_send+0x64>
     afc:	e5913008 	ldr	r3, [r1, #8]
     b00:	e24bc014 	sub	ip, fp, #20
     b04:	e52c3008 	str	r3, [ip, #-8]!
     b08:	e591e004 	ldr	lr, [r1, #4]
     b0c:	e1a03002 	mov	r3, r2
     b10:	e1a01000 	mov	r1, r0
     b14:	e1a0200c 	mov	r2, ip
     b18:	e3a00017 	mov	r0, #23
     b1c:	e50be018 	str	lr, [fp, #-24]
     b20:	ebfffda0 	bl	1a8 <syscall3>
     b24:	e1a05000 	mov	r5, r0
     b28:	e1a00004 	mov	r0, r4
     b2c:	eb0008fa 	bl	2f1c <sleep>
     b30:	e1a00005 	mov	r0, r5
     b34:	e24bd014 	sub	sp, fp, #20
     b38:	e89d6830 	ldm	sp, {r4, r5, fp, sp, lr}
     b3c:	e12fff1e 	bx	lr
     b40:	e3e00000 	mvn	r0, #0
     b44:	eafffffa 	b	b34 <ipc_send+0x58>

00000b48 <ipc_get>:
     b48:	e1a0c00d 	mov	ip, sp
     b4c:	e92dd830 	push	{r4, r5, fp, ip, lr, pc}
     b50:	e24cb004 	sub	fp, ip, #4
     b54:	e3a0c000 	mov	ip, #0
     b58:	e3530001 	cmp	r3, #1
     b5c:	e24dd008 	sub	sp, sp, #8
     b60:	e1a03002 	mov	r3, r2
     b64:	e1a04001 	mov	r4, r1
     b68:	e24b201c 	sub	r2, fp, #28
     b6c:	e1a01000 	mov	r1, r0
     b70:	03a00018 	moveq	r0, #24
     b74:	13a00019 	movne	r0, #25
     b78:	e50bc01c 	str	ip, [fp, #-28]
     b7c:	e50bc018 	str	ip, [fp, #-24]
     b80:	ebfffd88 	bl	1a8 <syscall3>
     b84:	e3500000 	cmp	r0, #0
     b88:	e1a05000 	mov	r5, r0
     b8c:	ba00000e 	blt	bcc <ipc_get+0x84>
     b90:	e3540000 	cmp	r4, #0
     b94:	0a000008 	beq	bbc <ipc_get+0x74>
     b98:	e1a00004 	mov	r0, r4
     b9c:	eb00038f 	bl	19e0 <proto_clear>
     ba0:	e1a00004 	mov	r0, r4
     ba4:	e51b1018 	ldr	r1, [fp, #-24]
     ba8:	e51b201c 	ldr	r2, [fp, #-28]
     bac:	eb0002b7 	bl	1690 <proto_init>
     bb0:	e3a03000 	mov	r3, #0
     bb4:	e5845000 	str	r5, [r4]
     bb8:	e5843014 	str	r3, [r4, #20]
     bbc:	e1a00005 	mov	r0, r5
     bc0:	e24bd014 	sub	sp, fp, #20
     bc4:	e89d6830 	ldm	sp, {r4, r5, fp, sp, lr}
     bc8:	e12fff1e 	bx	lr
     bcc:	e3e05000 	mvn	r5, #0
     bd0:	eafffff9 	b	bbc <ipc_get+0x74>

00000bd4 <ipc_call>:
     bd4:	e2713001 	rsbs	r3, r1, #1
     bd8:	33a03000 	movcc	r3, #0
     bdc:	e1a0c00d 	mov	ip, sp
     be0:	e1933fa0 	orrs	r3, r3, r0, lsr #31
     be4:	e92dd830 	push	{r4, r5, fp, ip, lr, pc}
     be8:	e24cb004 	sub	fp, ip, #4
     bec:	e1a04002 	mov	r4, r2
     bf0:	1a000010 	bne	c38 <ipc_call+0x64>
     bf4:	e3e02000 	mvn	r2, #0
     bf8:	ebffffb7 	bl	adc <ipc_send>
     bfc:	e2505000 	subs	r5, r0, #0
     c00:	ba00000c 	blt	c38 <ipc_call+0x64>
     c04:	e3540000 	cmp	r4, #0
     c08:	0a000006 	beq	c28 <ipc_call+0x54>
     c0c:	e3a00000 	mov	r0, #0
     c10:	e1a01004 	mov	r1, r4
     c14:	e1a02005 	mov	r2, r5
     c18:	e3a03001 	mov	r3, #1
     c1c:	ebffffc9 	bl	b48 <ipc_get>
     c20:	e3500000 	cmp	r0, #0
     c24:	bafffff8 	blt	c0c <ipc_call+0x38>
     c28:	e3a00000 	mov	r0, #0
     c2c:	e24bd014 	sub	sp, fp, #20
     c30:	e89d6830 	ldm	sp, {r4, r5, fp, sp, lr}
     c34:	e12fff1e 	bx	lr
     c38:	e3e00000 	mvn	r0, #0
     c3c:	e24bd014 	sub	sp, fp, #20
     c40:	e89d6830 	ldm	sp, {r4, r5, fp, sp, lr}
     c44:	e12fff1e 	bx	lr

00000c48 <ipc_server>:
     c48:	e1a0c00d 	mov	ip, sp
     c4c:	e92dd8f0 	push	{r4, r5, r6, r7, fp, ip, lr, pc}
     c50:	e1a07001 	mov	r7, r1
     c54:	e3a01000 	mov	r1, #0
     c58:	e24cb004 	sub	fp, ip, #4
     c5c:	e24dd020 	sub	sp, sp, #32
     c60:	e24b4034 	sub	r4, fp, #52	; 0x34
     c64:	e1a06000 	mov	r6, r0
     c68:	e1a02001 	mov	r2, r1
     c6c:	e1a00004 	mov	r0, r4
     c70:	eb000286 	bl	1690 <proto_init>
     c74:	e24b5038 	sub	r5, fp, #56	; 0x38
     c78:	e1a00005 	mov	r0, r5
     c7c:	e1a01004 	mov	r1, r4
     c80:	e3e02000 	mvn	r2, #0
     c84:	e3a03001 	mov	r3, #1
     c88:	ebffffae 	bl	b48 <ipc_get>
     c8c:	e3500000 	cmp	r0, #0
     c90:	bafffff8 	blt	c78 <ipc_server+0x30>
     c94:	e51b0038 	ldr	r0, [fp, #-56]	; 0x38
     c98:	e1a01004 	mov	r1, r4
     c9c:	e1a02007 	mov	r2, r7
     ca0:	e1a0e00f 	mov	lr, pc
     ca4:	e12fff16 	bx	r6
     ca8:	e1a00004 	mov	r0, r4
     cac:	eb00034b 	bl	19e0 <proto_clear>
     cb0:	eafffff0 	b	c78 <ipc_server+0x30>

00000cb4 <device_run>:
     cb4:	e1a0c00d 	mov	ip, sp
     cb8:	e92ddff0 	push	{r4, r5, r6, r7, r8, r9, sl, fp, ip, lr, pc}
     cbc:	e24cb004 	sub	fp, ip, #4
     cc0:	e24ddf63 	sub	sp, sp, #396	; 0x18c
     cc4:	e2505000 	subs	r5, r0, #0
     cc8:	e1a06001 	mov	r6, r1
     ccc:	e1a07002 	mov	r7, r2
     cd0:	e1a09003 	mov	r9, r3
     cd4:	0a000268 	beq	167c <device_run+0x9c8>
     cd8:	e3510000 	cmp	r1, #0
     cdc:	024b3084 	subeq	r3, fp, #132	; 0x84
     ce0:	050b3188 	streq	r3, [fp, #-392]	; 0x188
     ce4:	0a00002a 	beq	d94 <device_run+0xe0>
     ce8:	e1a00001 	mov	r0, r1
     cec:	e59f1998 	ldr	r1, [pc, #2456]	; 168c <device_run+0x9d8>
     cf0:	e08f1001 	add	r1, pc, r1
     cf4:	eb0022ed 	bl	98b0 <strcmp>
     cf8:	e24b4f4d 	sub	r4, fp, #308	; 0x134
     cfc:	e3500000 	cmp	r0, #0
     d00:	e1a01004 	mov	r1, r4
     d04:	e1a00006 	mov	r0, r6
     d08:	0a000257 	beq	166c <device_run+0x9b8>
     d0c:	e1a02007 	mov	r2, r7
     d10:	ebffff02 	bl	920 <vfs_create>
     d14:	e24b3084 	sub	r3, fp, #132	; 0x84
     d18:	e1a06003 	mov	r6, r3
     d1c:	e1a00003 	mov	r0, r3
     d20:	e3a02058 	mov	r2, #88	; 0x58
     d24:	e3a01000 	mov	r1, #0
     d28:	e50b3188 	str	r3, [fp, #-392]	; 0x188
     d2c:	eb0022a2 	bl	97bc <memset>
     d30:	e24b1e13 	sub	r1, fp, #304	; 0x130
     d34:	e24b0080 	sub	r0, fp, #128	; 0x80
     d38:	eb002365 	bl	9ad4 <strcpy>
     d3c:	e1a00006 	mov	r0, r6
     d40:	e50b7040 	str	r7, [fp, #-64]	; 0x40
     d44:	ebfffdca 	bl	474 <vfs_new_node>
     d48:	e595306c 	ldr	r3, [r5, #108]	; 0x6c
     d4c:	e3530000 	cmp	r3, #0
     d50:	0a000005 	beq	d6c <device_run+0xb8>
     d54:	e1a00006 	mov	r0, r6
     d58:	e1a01009 	mov	r1, r9
     d5c:	e1a0e00f 	mov	lr, pc
     d60:	e12fff13 	bx	r3
     d64:	e3500000 	cmp	r0, #0
     d68:	1a000241 	bne	1674 <device_run+0x9c0>
     d6c:	e51b6188 	ldr	r6, [fp, #-392]	; 0x188
     d70:	e1a00004 	mov	r0, r4
     d74:	e1a01006 	mov	r1, r6
     d78:	ebfffe53 	bl	6cc <vfs_mount>
     d7c:	e3500000 	cmp	r0, #0
     d80:	1a00023b 	bne	1674 <device_run+0x9c0>
     d84:	e1a00004 	mov	r0, r4
     d88:	e1a01006 	mov	r1, r6
     d8c:	e3a02058 	mov	r2, #88	; 0x58
     d90:	eb00224d 	bl	96cc <memcpy>
     d94:	e3a01000 	mov	r1, #0
     d98:	e24b4f5f 	sub	r4, fp, #380	; 0x17c
     d9c:	e1a02001 	mov	r2, r1
     da0:	e1a00004 	mov	r0, r4
     da4:	eb000239 	bl	1690 <proto_init>
     da8:	e59b3004 	ldr	r3, [fp, #4]
     dac:	e20380ff 	and	r8, r3, #255	; 0xff
     db0:	e24b30dc 	sub	r3, fp, #220	; 0xdc
     db4:	e50b318c 	str	r3, [fp, #-396]	; 0x18c
     db8:	e24b3f53 	sub	r3, fp, #332	; 0x14c
     dbc:	e50b3190 	str	r3, [fp, #-400]	; 0x190
     dc0:	e24b3d06 	sub	r3, fp, #384	; 0x180
     dc4:	e50b31a4 	str	r3, [fp, #-420]	; 0x1a4
     dc8:	e24b3f59 	sub	r3, fp, #356	; 0x164
     dcc:	e50b3194 	str	r3, [fp, #-404]	; 0x194
     dd0:	e24baf61 	sub	sl, fp, #388	; 0x184
     dd4:	e1a0000a 	mov	r0, sl
     dd8:	e1a01004 	mov	r1, r4
     ddc:	e3e02000 	mvn	r2, #0
     de0:	e1a03008 	mov	r3, r8
     de4:	ebffff57 	bl	b48 <ipc_get>
     de8:	e3500000 	cmp	r0, #0
     dec:	ba000039 	blt	ed8 <device_run+0x224>
     df0:	e1a00004 	mov	r0, r4
     df4:	e51b7184 	ldr	r7, [fp, #-388]	; 0x184
     df8:	eb0002ec 	bl	19b0 <proto_read_int>
     dfc:	e2400001 	sub	r0, r0, #1
     e00:	e350000f 	cmp	r0, #15
     e04:	908ff100 	addls	pc, pc, r0, lsl #2
     e08:	ea000030 	b	ed0 <device_run+0x21c>
     e0c:	ea0001c5 	b	1528 <device_run+0x874>
     e10:	ea00019f 	b	1494 <device_run+0x7e0>
     e14:	ea0001c6 	b	1534 <device_run+0x880>
     e18:	ea0000e1 	b	11a4 <device_run+0x4f0>
     e1c:	ea000191 	b	1468 <device_run+0x7b4>
     e20:	ea000153 	b	1374 <device_run+0x6c0>
     e24:	ea00011d 	b	12a0 <device_run+0x5ec>
     e28:	ea0000ee 	b	11e8 <device_run+0x534>
     e2c:	ea0000bf 	b	1130 <device_run+0x47c>
     e30:	ea000026 	b	ed0 <device_run+0x21c>
     e34:	ea000099 	b	10a0 <device_run+0x3ec>
     e38:	ea00005f 	b	fbc <device_run+0x308>
     e3c:	ea000023 	b	ed0 <device_run+0x21c>
     e40:	ea000043 	b	f54 <device_run+0x2a0>
     e44:	ea00002a 	b	ef4 <device_run+0x240>
     e48:	eaffffff 	b	e4c <device_run+0x198>
     e4c:	e1a00004 	mov	r0, r4
     e50:	eb0002d6 	bl	19b0 <proto_read_int>
     e54:	e3a01000 	mov	r1, #0
     e58:	e1a06000 	mov	r6, r0
     e5c:	e1a00004 	mov	r0, r4
     e60:	eb00028e 	bl	18a0 <proto_read>
     e64:	e3a02058 	mov	r2, #88	; 0x58
     e68:	e1a01000 	mov	r1, r0
     e6c:	e51b0188 	ldr	r0, [fp, #-392]	; 0x188
     e70:	eb002215 	bl	96cc <memcpy>
     e74:	e595c064 	ldr	ip, [r5, #100]	; 0x64
     e78:	e35c0000 	cmp	ip, #0
     e7c:	0a000005 	beq	e98 <device_run+0x1e4>
     e80:	e1a00006 	mov	r0, r6
     e84:	e1a01007 	mov	r1, r7
     e88:	e51b2188 	ldr	r2, [fp, #-392]	; 0x188
     e8c:	e1a03009 	mov	r3, r9
     e90:	e1a0e00f 	mov	lr, pc
     e94:	e12fff1c 	bx	ip
     e98:	e3a01000 	mov	r1, #0
     e9c:	e51b618c 	ldr	r6, [fp, #-396]	; 0x18c
     ea0:	e1a02001 	mov	r2, r1
     ea4:	e1a00006 	mov	r0, r6
     ea8:	eb0001f8 	bl	1690 <proto_init>
     eac:	e1a00006 	mov	r0, r6
     eb0:	e3a01000 	mov	r1, #0
     eb4:	eb000260 	bl	183c <proto_add_int>
     eb8:	e1a00007 	mov	r0, r7
     ebc:	e1a01006 	mov	r1, r6
     ec0:	e51b217c 	ldr	r2, [fp, #-380]	; 0x17c
     ec4:	ebffff04 	bl	adc <ipc_send>
     ec8:	e1a00006 	mov	r0, r6
     ecc:	eb0002c3 	bl	19e0 <proto_clear>
     ed0:	e1a00004 	mov	r0, r4
     ed4:	eb0002c1 	bl	19e0 <proto_clear>
     ed8:	e595307c 	ldr	r3, [r5, #124]	; 0x7c
     edc:	e3530000 	cmp	r3, #0
     ee0:	0a0001b4 	beq	15b8 <device_run+0x904>
     ee4:	e1a00009 	mov	r0, r9
     ee8:	e1a0e00f 	mov	lr, pc
     eec:	e12fff13 	bx	r3
     ef0:	eaffffb7 	b	dd4 <device_run+0x120>
     ef4:	e51b6188 	ldr	r6, [fp, #-392]	; 0x188
     ef8:	e1a00004 	mov	r0, r4
     efc:	e1a01006 	mov	r1, r6
     f00:	e3a02058 	mov	r2, #88	; 0x58
     f04:	eb00028b 	bl	1938 <proto_read_to>
     f08:	e5953078 	ldr	r3, [r5, #120]	; 0x78
     f0c:	e3530000 	cmp	r3, #0
     f10:	03e06000 	mvneq	r6, #0
     f14:	0a000004 	beq	f2c <device_run+0x278>
     f18:	e1a00006 	mov	r0, r6
     f1c:	e1a01009 	mov	r1, r9
     f20:	e1a0e00f 	mov	lr, pc
     f24:	e12fff13 	bx	r3
     f28:	e1a06000 	mov	r6, r0
     f2c:	e3a01000 	mov	r1, #0
     f30:	e51b018c 	ldr	r0, [fp, #-396]	; 0x18c
     f34:	e1a02001 	mov	r2, r1
     f38:	eb0001d4 	bl	1690 <proto_init>
     f3c:	e51b018c 	ldr	r0, [fp, #-396]	; 0x18c
     f40:	e1a01006 	mov	r1, r6
     f44:	eb00023c 	bl	183c <proto_add_int>
     f48:	e1a00007 	mov	r0, r7
     f4c:	e51b618c 	ldr	r6, [fp, #-396]	; 0x18c
     f50:	eaffffd9 	b	ebc <device_run+0x208>
     f54:	e51b118c 	ldr	r1, [fp, #-396]	; 0x18c
     f58:	e3a02058 	mov	r2, #88	; 0x58
     f5c:	e1a00004 	mov	r0, r4
     f60:	eb000274 	bl	1938 <proto_read_to>
     f64:	e1a00004 	mov	r0, r4
     f68:	eb00029a 	bl	19d8 <proto_read_str>
     f6c:	e5953074 	ldr	r3, [r5, #116]	; 0x74
     f70:	e3530000 	cmp	r3, #0
     f74:	01a06003 	moveq	r6, r3
     f78:	0a000005 	beq	f94 <device_run+0x2e0>
     f7c:	e1a01000 	mov	r1, r0
     f80:	e1a02009 	mov	r2, r9
     f84:	e51b0188 	ldr	r0, [fp, #-392]	; 0x188
     f88:	e1a0e00f 	mov	lr, pc
     f8c:	e12fff13 	bx	r3
     f90:	e1a06000 	mov	r6, r0
     f94:	e3a01000 	mov	r1, #0
     f98:	e51b0190 	ldr	r0, [fp, #-400]	; 0x190
     f9c:	e1a02001 	mov	r2, r1
     fa0:	eb0001ba 	bl	1690 <proto_init>
     fa4:	e51b0190 	ldr	r0, [fp, #-400]	; 0x190
     fa8:	e1a01006 	mov	r1, r6
     fac:	eb000222 	bl	183c <proto_add_int>
     fb0:	e1a00007 	mov	r0, r7
     fb4:	e51b6190 	ldr	r6, [fp, #-400]	; 0x190
     fb8:	eaffffbf 	b	ebc <device_run+0x208>
     fbc:	e1a00004 	mov	r0, r4
     fc0:	eb00027a 	bl	19b0 <proto_read_int>
     fc4:	e3a01000 	mov	r1, #0
     fc8:	e50b0198 	str	r0, [fp, #-408]	; 0x198
     fcc:	e1a00004 	mov	r0, r4
     fd0:	eb000232 	bl	18a0 <proto_read>
     fd4:	e3a02058 	mov	r2, #88	; 0x58
     fd8:	e1a01000 	mov	r1, r0
     fdc:	e51b0188 	ldr	r0, [fp, #-392]	; 0x188
     fe0:	eb0021b9 	bl	96cc <memcpy>
     fe4:	e1a00004 	mov	r0, r4
     fe8:	eb000270 	bl	19b0 <proto_read_int>
     fec:	e3a01000 	mov	r1, #0
     ff0:	e1a06000 	mov	r6, r0
     ff4:	e1a02001 	mov	r2, r1
     ff8:	e51b0190 	ldr	r0, [fp, #-400]	; 0x190
     ffc:	eb0001a3 	bl	1690 <proto_init>
    1000:	e3a01000 	mov	r1, #0
    1004:	e51b018c 	ldr	r0, [fp, #-396]	; 0x18c
    1008:	e1a02001 	mov	r2, r1
    100c:	eb00019f 	bl	1690 <proto_init>
    1010:	e51b11a4 	ldr	r1, [fp, #-420]	; 0x1a4
    1014:	e1a00004 	mov	r0, r4
    1018:	eb000220 	bl	18a0 <proto_read>
    101c:	e51b2180 	ldr	r2, [fp, #-384]	; 0x180
    1020:	e1a01000 	mov	r1, r0
    1024:	e51b0194 	ldr	r0, [fp, #-404]	; 0x194
    1028:	eb000198 	bl	1690 <proto_init>
    102c:	e595c068 	ldr	ip, [r5, #104]	; 0x68
    1030:	e35c0000 	cmp	ip, #0
    1034:	03e06000 	mvneq	r6, #0
    1038:	0a00000a 	beq	1068 <device_run+0x3b4>
    103c:	e51b3194 	ldr	r3, [fp, #-404]	; 0x194
    1040:	e58d3000 	str	r3, [sp]
    1044:	e51b3190 	ldr	r3, [fp, #-400]	; 0x190
    1048:	e51b0198 	ldr	r0, [fp, #-408]	; 0x198
    104c:	e98d0208 	stmib	sp, {r3, r9}
    1050:	e1a01007 	mov	r1, r7
    1054:	e1a03006 	mov	r3, r6
    1058:	e51b2188 	ldr	r2, [fp, #-392]	; 0x188
    105c:	e1a0e00f 	mov	lr, pc
    1060:	e12fff1c 	bx	ip
    1064:	e1a06000 	mov	r6, r0
    1068:	e51b0194 	ldr	r0, [fp, #-404]	; 0x194
    106c:	eb00025b 	bl	19e0 <proto_clear>
    1070:	e1a01006 	mov	r1, r6
    1074:	e51b018c 	ldr	r0, [fp, #-396]	; 0x18c
    1078:	eb0001ef 	bl	183c <proto_add_int>
    107c:	e51b618c 	ldr	r6, [fp, #-396]	; 0x18c
    1080:	e24b1f52 	sub	r1, fp, #328	; 0x148
    1084:	e1a00006 	mov	r0, r6
    1088:	e8910006 	ldm	r1, {r1, r2}
    108c:	eb0001b5 	bl	1768 <proto_add>
    1090:	e51b0190 	ldr	r0, [fp, #-400]	; 0x190
    1094:	eb000251 	bl	19e0 <proto_clear>
    1098:	e1a00007 	mov	r0, r7
    109c:	eaffff86 	b	ebc <device_run+0x208>
    10a0:	e1a00004 	mov	r0, r4
    10a4:	eb000241 	bl	19b0 <proto_read_int>
    10a8:	e3a01000 	mov	r1, #0
    10ac:	e1a06000 	mov	r6, r0
    10b0:	e1a00004 	mov	r0, r4
    10b4:	eb0001f9 	bl	18a0 <proto_read>
    10b8:	e3a02058 	mov	r2, #88	; 0x58
    10bc:	e1a01000 	mov	r1, r0
    10c0:	e51b0188 	ldr	r0, [fp, #-392]	; 0x188
    10c4:	eb002180 	bl	96cc <memcpy>
    10c8:	e3a01000 	mov	r1, #0
    10cc:	e51b018c 	ldr	r0, [fp, #-396]	; 0x18c
    10d0:	e1a02001 	mov	r2, r1
    10d4:	eb00016d 	bl	1690 <proto_init>
    10d8:	e3a03000 	mov	r3, #0
    10dc:	e595c060 	ldr	ip, [r5, #96]	; 0x60
    10e0:	e35c0000 	cmp	ip, #0
    10e4:	e50b314c 	str	r3, [fp, #-332]	; 0x14c
    10e8:	03e01000 	mvneq	r1, #0
    10ec:	0a000007 	beq	1110 <device_run+0x45c>
    10f0:	e1a01007 	mov	r1, r7
    10f4:	e58d9000 	str	r9, [sp]
    10f8:	e1a00006 	mov	r0, r6
    10fc:	e51b2188 	ldr	r2, [fp, #-392]	; 0x188
    1100:	e51b3190 	ldr	r3, [fp, #-400]	; 0x190
    1104:	e1a0e00f 	mov	lr, pc
    1108:	e12fff1c 	bx	ip
    110c:	e1a01000 	mov	r1, r0
    1110:	e51b618c 	ldr	r6, [fp, #-396]	; 0x18c
    1114:	e1a00006 	mov	r0, r6
    1118:	eb0001c7 	bl	183c <proto_add_int>
    111c:	e1a00006 	mov	r0, r6
    1120:	e51b114c 	ldr	r1, [fp, #-332]	; 0x14c
    1124:	eb0001c4 	bl	183c <proto_add_int>
    1128:	e1a00007 	mov	r0, r7
    112c:	eaffff62 	b	ebc <device_run+0x208>
    1130:	e51b118c 	ldr	r1, [fp, #-396]	; 0x18c
    1134:	e1a00004 	mov	r0, r4
    1138:	eb0001d8 	bl	18a0 <proto_read>
    113c:	e50b0198 	str	r0, [fp, #-408]	; 0x198
    1140:	e1a00004 	mov	r0, r4
    1144:	eb000219 	bl	19b0 <proto_read_int>
    1148:	e3a01000 	mov	r1, #0
    114c:	e1a06000 	mov	r6, r0
    1150:	e1a02001 	mov	r2, r1
    1154:	e51b0188 	ldr	r0, [fp, #-392]	; 0x188
    1158:	eb00014c 	bl	1690 <proto_init>
    115c:	e595c05c 	ldr	ip, [r5, #92]	; 0x5c
    1160:	e35c0000 	cmp	ip, #0
    1164:	0a000119 	beq	15d0 <device_run+0x91c>
    1168:	e51b1198 	ldr	r1, [fp, #-408]	; 0x198
    116c:	e1a03006 	mov	r3, r6
    1170:	e51b20dc 	ldr	r2, [fp, #-220]	; 0xdc
    1174:	e58d9000 	str	r9, [sp]
    1178:	e1a00007 	mov	r0, r7
    117c:	e1a0e00f 	mov	lr, pc
    1180:	e12fff1c 	bx	ip
    1184:	e1a03000 	mov	r3, r0
    1188:	e51b0188 	ldr	r0, [fp, #-392]	; 0x188
    118c:	e1a01003 	mov	r1, r3
    1190:	e50b30dc 	str	r3, [fp, #-220]	; 0xdc
    1194:	eb0001a8 	bl	183c <proto_add_int>
    1198:	e1a00007 	mov	r0, r7
    119c:	e51b6188 	ldr	r6, [fp, #-392]	; 0x188
    11a0:	eaffff45 	b	ebc <device_run+0x208>
    11a4:	e1a00004 	mov	r0, r4
    11a8:	eb000200 	bl	19b0 <proto_read_int>
    11ac:	e51b1188 	ldr	r1, [fp, #-392]	; 0x188
    11b0:	e1a06000 	mov	r6, r0
    11b4:	e3a02058 	mov	r2, #88	; 0x58
    11b8:	e1a00004 	mov	r0, r4
    11bc:	eb0001dd 	bl	1938 <proto_read_to>
    11c0:	e595c048 	ldr	ip, [r5, #72]	; 0x48
    11c4:	e35c0000 	cmp	ip, #0
    11c8:	0affff40 	beq	ed0 <device_run+0x21c>
    11cc:	e1a00006 	mov	r0, r6
    11d0:	e1a01007 	mov	r1, r7
    11d4:	e51b2188 	ldr	r2, [fp, #-392]	; 0x188
    11d8:	e1a03009 	mov	r3, r9
    11dc:	e1a0e00f 	mov	lr, pc
    11e0:	e12fff1c 	bx	ip
    11e4:	eaffff39 	b	ed0 <device_run+0x21c>
    11e8:	e1a00004 	mov	r0, r4
    11ec:	eb0001ef 	bl	19b0 <proto_read_int>
    11f0:	e50b0198 	str	r0, [fp, #-408]	; 0x198
    11f4:	e1a00004 	mov	r0, r4
    11f8:	eb0001ec 	bl	19b0 <proto_read_int>
    11fc:	e50b019c 	str	r0, [fp, #-412]	; 0x19c
    1200:	e1a00004 	mov	r0, r4
    1204:	eb0001e9 	bl	19b0 <proto_read_int>
    1208:	e3a01000 	mov	r1, #0
    120c:	e1a06000 	mov	r6, r0
    1210:	e1a02001 	mov	r2, r1
    1214:	e51b0188 	ldr	r0, [fp, #-392]	; 0x188
    1218:	eb00011c 	bl	1690 <proto_init>
    121c:	e5953058 	ldr	r3, [r5, #88]	; 0x58
    1220:	e3530000 	cmp	r3, #0
    1224:	0a0000e9 	beq	15d0 <device_run+0x91c>
    1228:	e3560000 	cmp	r6, #0
    122c:	ba0000f8 	blt	1614 <device_run+0x960>
    1230:	e1a00006 	mov	r0, r6
    1234:	eb000348 	bl	1f5c <shm_map>
    1238:	e1a0c000 	mov	ip, r0
    123c:	e35c0000 	cmp	ip, #0
    1240:	0a0000e2 	beq	15d0 <device_run+0x91c>
    1244:	e1a0100c 	mov	r1, ip
    1248:	e51b319c 	ldr	r3, [fp, #-412]	; 0x19c
    124c:	e51b2198 	ldr	r2, [fp, #-408]	; 0x198
    1250:	e58d9000 	str	r9, [sp]
    1254:	e1a00007 	mov	r0, r7
    1258:	e50bc19c 	str	ip, [fp, #-412]	; 0x19c
    125c:	e595c058 	ldr	ip, [r5, #88]	; 0x58
    1260:	e1a0e00f 	mov	lr, pc
    1264:	e12fff1c 	bx	ip
    1268:	e1a02000 	mov	r2, r0
    126c:	e51b0188 	ldr	r0, [fp, #-392]	; 0x188
    1270:	e1a01002 	mov	r1, r2
    1274:	e50b2198 	str	r2, [fp, #-408]	; 0x198
    1278:	eb00016f 	bl	183c <proto_add_int>
    127c:	e51b2198 	ldr	r2, [fp, #-408]	; 0x198
    1280:	e3520000 	cmp	r2, #0
    1284:	e51bc19c 	ldr	ip, [fp, #-412]	; 0x19c
    1288:	da0000e9 	ble	1634 <device_run+0x980>
    128c:	e3560000 	cmp	r6, #0
    1290:	ba0000ef 	blt	1654 <device_run+0x9a0>
    1294:	e1a00006 	mov	r0, r6
    1298:	eb000338 	bl	1f80 <shm_unmap>
    129c:	eaffffbd 	b	1198 <device_run+0x4e4>
    12a0:	e1a00004 	mov	r0, r4
    12a4:	eb0001c1 	bl	19b0 <proto_read_int>
    12a8:	e3a01000 	mov	r1, #0
    12ac:	e50b0198 	str	r0, [fp, #-408]	; 0x198
    12b0:	e1a00004 	mov	r0, r4
    12b4:	eb000179 	bl	18a0 <proto_read>
    12b8:	e3a02058 	mov	r2, #88	; 0x58
    12bc:	e1a01000 	mov	r1, r0
    12c0:	e51b0188 	ldr	r0, [fp, #-392]	; 0x188
    12c4:	eb002100 	bl	96cc <memcpy>
    12c8:	e1a00004 	mov	r0, r4
    12cc:	eb0001b7 	bl	19b0 <proto_read_int>
    12d0:	e50b019c 	str	r0, [fp, #-412]	; 0x19c
    12d4:	e1a00004 	mov	r0, r4
    12d8:	eb0001b4 	bl	19b0 <proto_read_int>
    12dc:	e3a01000 	mov	r1, #0
    12e0:	e1a06000 	mov	r6, r0
    12e4:	e1a02001 	mov	r2, r1
    12e8:	e51b018c 	ldr	r0, [fp, #-396]	; 0x18c
    12ec:	eb0000e7 	bl	1690 <proto_init>
    12f0:	e5953054 	ldr	r3, [r5, #84]	; 0x54
    12f4:	e3530000 	cmp	r3, #0
    12f8:	0a0000b8 	beq	15e0 <device_run+0x92c>
    12fc:	e3560000 	cmp	r6, #0
    1300:	e1a00004 	mov	r0, r4
    1304:	ba0000b9 	blt	15f0 <device_run+0x93c>
    1308:	eb0001a8 	bl	19b0 <proto_read_int>
    130c:	e50b014c 	str	r0, [fp, #-332]	; 0x14c
    1310:	e1a00006 	mov	r0, r6
    1314:	eb000310 	bl	1f5c <shm_map>
    1318:	e1a03000 	mov	r3, r0
    131c:	e3530000 	cmp	r3, #0
    1320:	0a0000b7 	beq	1604 <device_run+0x950>
    1324:	e51b214c 	ldr	r2, [fp, #-332]	; 0x14c
    1328:	e51b119c 	ldr	r1, [fp, #-412]	; 0x19c
    132c:	e58d2000 	str	r2, [sp]
    1330:	e98d0202 	stmib	sp, {r1, r9}
    1334:	e51b0198 	ldr	r0, [fp, #-408]	; 0x198
    1338:	e1a01007 	mov	r1, r7
    133c:	e51b2188 	ldr	r2, [fp, #-392]	; 0x188
    1340:	e595c054 	ldr	ip, [r5, #84]	; 0x54
    1344:	e1a0e00f 	mov	lr, pc
    1348:	e12fff1c 	bx	ip
    134c:	e1a03000 	mov	r3, r0
    1350:	e51b018c 	ldr	r0, [fp, #-396]	; 0x18c
    1354:	e1a01003 	mov	r1, r3
    1358:	e50b314c 	str	r3, [fp, #-332]	; 0x14c
    135c:	eb000136 	bl	183c <proto_add_int>
    1360:	e3560000 	cmp	r6, #0
    1364:	bafffef7 	blt	f48 <device_run+0x294>
    1368:	e1a00006 	mov	r0, r6
    136c:	eb000303 	bl	1f80 <shm_unmap>
    1370:	eafffef4 	b	f48 <device_run+0x294>
    1374:	e1a00004 	mov	r0, r4
    1378:	eb00018c 	bl	19b0 <proto_read_int>
    137c:	e51b1188 	ldr	r1, [fp, #-392]	; 0x188
    1380:	e3a02058 	mov	r2, #88	; 0x58
    1384:	e50b019c 	str	r0, [fp, #-412]	; 0x19c
    1388:	e1a00004 	mov	r0, r4
    138c:	eb000169 	bl	1938 <proto_read_to>
    1390:	e1a00004 	mov	r0, r4
    1394:	eb000185 	bl	19b0 <proto_read_int>
    1398:	e50b0198 	str	r0, [fp, #-408]	; 0x198
    139c:	e1a00004 	mov	r0, r4
    13a0:	eb000182 	bl	19b0 <proto_read_int>
    13a4:	e50b01a0 	str	r0, [fp, #-416]	; 0x1a0
    13a8:	e1a00004 	mov	r0, r4
    13ac:	eb00017f 	bl	19b0 <proto_read_int>
    13b0:	e3a01000 	mov	r1, #0
    13b4:	e1a06000 	mov	r6, r0
    13b8:	e1a02001 	mov	r2, r1
    13bc:	e51b018c 	ldr	r0, [fp, #-396]	; 0x18c
    13c0:	eb0000b2 	bl	1690 <proto_init>
    13c4:	e5953050 	ldr	r3, [r5, #80]	; 0x50
    13c8:	e3530000 	cmp	r3, #0
    13cc:	0a000083 	beq	15e0 <device_run+0x92c>
    13d0:	e3560000 	cmp	r6, #0
    13d4:	ba000092 	blt	1624 <device_run+0x970>
    13d8:	e1a00006 	mov	r0, r6
    13dc:	eb0002de 	bl	1f5c <shm_map>
    13e0:	e1a0c000 	mov	ip, r0
    13e4:	e35c0000 	cmp	ip, #0
    13e8:	0a00007c 	beq	15e0 <device_run+0x92c>
    13ec:	e51b3198 	ldr	r3, [fp, #-408]	; 0x198
    13f0:	e58d3000 	str	r3, [sp]
    13f4:	e51b31a0 	ldr	r3, [fp, #-416]	; 0x1a0
    13f8:	e51b019c 	ldr	r0, [fp, #-412]	; 0x19c
    13fc:	e98d0208 	stmib	sp, {r3, r9}
    1400:	e1a01007 	mov	r1, r7
    1404:	e1a0300c 	mov	r3, ip
    1408:	e51b2188 	ldr	r2, [fp, #-392]	; 0x188
    140c:	e50bc19c 	str	ip, [fp, #-412]	; 0x19c
    1410:	e595c050 	ldr	ip, [r5, #80]	; 0x50
    1414:	e1a0e00f 	mov	lr, pc
    1418:	e12fff1c 	bx	ip
    141c:	e1a02000 	mov	r2, r0
    1420:	e51b018c 	ldr	r0, [fp, #-396]	; 0x18c
    1424:	e1a01002 	mov	r1, r2
    1428:	e50b2198 	str	r2, [fp, #-408]	; 0x198
    142c:	eb000102 	bl	183c <proto_add_int>
    1430:	e51b2198 	ldr	r2, [fp, #-408]	; 0x198
    1434:	e3520000 	cmp	r2, #0
    1438:	e51bc19c 	ldr	ip, [fp, #-412]	; 0x19c
    143c:	da000081 	ble	1648 <device_run+0x994>
    1440:	e3560000 	cmp	r6, #0
    1444:	aaffffc7 	bge	1368 <device_run+0x6b4>
    1448:	e1a0100c 	mov	r1, ip
    144c:	e51b018c 	ldr	r0, [fp, #-396]	; 0x18c
    1450:	e50bc198 	str	ip, [fp, #-408]	; 0x198
    1454:	eb0000c3 	bl	1768 <proto_add>
    1458:	e51bc198 	ldr	ip, [fp, #-408]	; 0x198
    145c:	e1a0000c 	mov	r0, ip
    1460:	eb000980 	bl	3a68 <free>
    1464:	eafffeb7 	b	f48 <device_run+0x294>
    1468:	e1a00004 	mov	r0, r4
    146c:	eb00014f 	bl	19b0 <proto_read_int>
    1470:	e51b1188 	ldr	r1, [fp, #-392]	; 0x188
    1474:	e1a06000 	mov	r6, r0
    1478:	e3a02058 	mov	r2, #88	; 0x58
    147c:	e1a00004 	mov	r0, r4
    1480:	eb00012c 	bl	1938 <proto_read_to>
    1484:	e595c04c 	ldr	ip, [r5, #76]	; 0x4c
    1488:	e35c0000 	cmp	ip, #0
    148c:	1affff4e 	bne	11cc <device_run+0x518>
    1490:	eafffe8e 	b	ed0 <device_run+0x21c>
    1494:	e3a01000 	mov	r1, #0
    1498:	e1a00004 	mov	r0, r4
    149c:	eb0000ff 	bl	18a0 <proto_read>
    14a0:	e3a02058 	mov	r2, #88	; 0x58
    14a4:	e1a01000 	mov	r1, r0
    14a8:	e51b0188 	ldr	r0, [fp, #-392]	; 0x188
    14ac:	eb002086 	bl	96cc <memcpy>
    14b0:	e1a00004 	mov	r0, r4
    14b4:	eb00013d 	bl	19b0 <proto_read_int>
    14b8:	e1a01007 	mov	r1, r7
    14bc:	e1a03000 	mov	r3, r0
    14c0:	e1a06000 	mov	r6, r0
    14c4:	e51b2188 	ldr	r2, [fp, #-392]	; 0x188
    14c8:	e3a00026 	mov	r0, #38	; 0x26
    14cc:	ebfffb35 	bl	1a8 <syscall3>
    14d0:	e2503000 	subs	r3, r0, #0
    14d4:	e50b3198 	str	r3, [fp, #-408]	; 0x198
    14d8:	ba000008 	blt	1500 <device_run+0x84c>
    14dc:	e595c040 	ldr	ip, [r5, #64]	; 0x40
    14e0:	e35c0000 	cmp	ip, #0
    14e4:	0a000005 	beq	1500 <device_run+0x84c>
    14e8:	e58d9000 	str	r9, [sp]
    14ec:	e1a03006 	mov	r3, r6
    14f0:	e1a01007 	mov	r1, r7
    14f4:	e51b2188 	ldr	r2, [fp, #-392]	; 0x188
    14f8:	e1a0e00f 	mov	lr, pc
    14fc:	e12fff1c 	bx	ip
    1500:	e3a01000 	mov	r1, #0
    1504:	e51b618c 	ldr	r6, [fp, #-396]	; 0x18c
    1508:	e1a02001 	mov	r2, r1
    150c:	e1a00006 	mov	r0, r6
    1510:	eb00005e 	bl	1690 <proto_init>
    1514:	e1a00006 	mov	r0, r6
    1518:	e51b1198 	ldr	r1, [fp, #-408]	; 0x198
    151c:	eb0000c6 	bl	183c <proto_add_int>
    1520:	e1a00007 	mov	r0, r7
    1524:	eafffe64 	b	ebc <device_run+0x208>
    1528:	e3a01000 	mov	r1, #0
    152c:	e51b6188 	ldr	r6, [fp, #-392]	; 0x188
    1530:	eafffe5a 	b	ea0 <device_run+0x1ec>
    1534:	e51b118c 	ldr	r1, [fp, #-396]	; 0x18c
    1538:	e3a02058 	mov	r2, #88	; 0x58
    153c:	e1a00004 	mov	r0, r4
    1540:	eb0000fc 	bl	1938 <proto_read_to>
    1544:	e51b6188 	ldr	r6, [fp, #-392]	; 0x188
    1548:	e1a00004 	mov	r0, r4
    154c:	e1a01006 	mov	r1, r6
    1550:	e3a02058 	mov	r2, #88	; 0x58
    1554:	eb0000f7 	bl	1938 <proto_read_to>
    1558:	e5953044 	ldr	r3, [r5, #68]	; 0x44
    155c:	e3530000 	cmp	r3, #0
    1560:	01a06003 	moveq	r6, r3
    1564:	0a000005 	beq	1580 <device_run+0x8cc>
    1568:	e1a01006 	mov	r1, r6
    156c:	e51b018c 	ldr	r0, [fp, #-396]	; 0x18c
    1570:	e1a02009 	mov	r2, r9
    1574:	e1a0e00f 	mov	lr, pc
    1578:	e12fff13 	bx	r3
    157c:	e1a06000 	mov	r6, r0
    1580:	e3a01000 	mov	r1, #0
    1584:	e51b0190 	ldr	r0, [fp, #-400]	; 0x190
    1588:	e1a02001 	mov	r2, r1
    158c:	eb00003f 	bl	1690 <proto_init>
    1590:	e1a01006 	mov	r1, r6
    1594:	e51b0190 	ldr	r0, [fp, #-400]	; 0x190
    1598:	eb0000a7 	bl	183c <proto_add_int>
    159c:	e51b6190 	ldr	r6, [fp, #-400]	; 0x190
    15a0:	e51b1188 	ldr	r1, [fp, #-392]	; 0x188
    15a4:	e1a00006 	mov	r0, r6
    15a8:	e3a02058 	mov	r2, #88	; 0x58
    15ac:	eb00006d 	bl	1768 <proto_add>
    15b0:	e1a00007 	mov	r0, r7
    15b4:	eafffe40 	b	ebc <device_run+0x208>
    15b8:	e59b3004 	ldr	r3, [fp, #4]
    15bc:	e3530000 	cmp	r3, #0
    15c0:	1afffe03 	bne	dd4 <device_run+0x120>
    15c4:	e1a00003 	mov	r0, r3
    15c8:	eb000653 	bl	2f1c <sleep>
    15cc:	eafffe00 	b	dd4 <device_run+0x120>
    15d0:	e51b0188 	ldr	r0, [fp, #-392]	; 0x188
    15d4:	e3e01000 	mvn	r1, #0
    15d8:	eb000097 	bl	183c <proto_add_int>
    15dc:	eafffeed 	b	1198 <device_run+0x4e4>
    15e0:	e51b018c 	ldr	r0, [fp, #-396]	; 0x18c
    15e4:	e3e01000 	mvn	r1, #0
    15e8:	eb000093 	bl	183c <proto_add_int>
    15ec:	eafffe55 	b	f48 <device_run+0x294>
    15f0:	e51b1190 	ldr	r1, [fp, #-400]	; 0x190
    15f4:	eb0000a9 	bl	18a0 <proto_read>
    15f8:	e1a03000 	mov	r3, r0
    15fc:	e3530000 	cmp	r3, #0
    1600:	1affff47 	bne	1324 <device_run+0x670>
    1604:	e51b018c 	ldr	r0, [fp, #-396]	; 0x18c
    1608:	e3e01000 	mvn	r1, #0
    160c:	eb00008a 	bl	183c <proto_add_int>
    1610:	eaffff52 	b	1360 <device_run+0x6ac>
    1614:	e51b0198 	ldr	r0, [fp, #-408]	; 0x198
    1618:	eb000909 	bl	3a44 <malloc>
    161c:	e1a0c000 	mov	ip, r0
    1620:	eaffff05 	b	123c <device_run+0x588>
    1624:	e51b0198 	ldr	r0, [fp, #-408]	; 0x198
    1628:	eb000905 	bl	3a44 <malloc>
    162c:	e1a0c000 	mov	ip, r0
    1630:	eaffff6b 	b	13e4 <device_run+0x730>
    1634:	e3560000 	cmp	r6, #0
    1638:	aaffff15 	bge	1294 <device_run+0x5e0>
    163c:	e1a0000c 	mov	r0, ip
    1640:	eb000908 	bl	3a68 <free>
    1644:	eafffed3 	b	1198 <device_run+0x4e4>
    1648:	e3560000 	cmp	r6, #0
    164c:	baffff82 	blt	145c <device_run+0x7a8>
    1650:	eaffff44 	b	1368 <device_run+0x6b4>
    1654:	e1a0100c 	mov	r1, ip
    1658:	e51b0188 	ldr	r0, [fp, #-392]	; 0x188
    165c:	e50bc198 	str	ip, [fp, #-408]	; 0x198
    1660:	eb000040 	bl	1768 <proto_add>
    1664:	e51bc198 	ldr	ip, [fp, #-408]	; 0x198
    1668:	eafffff3 	b	163c <device_run+0x988>
    166c:	ebfffbb8 	bl	554 <vfs_get>
    1670:	eafffda7 	b	d14 <device_run+0x60>
    1674:	e51b0188 	ldr	r0, [fp, #-392]	; 0x188
    1678:	ebfffbff 	bl	67c <vfs_del>
    167c:	e3e00000 	mvn	r0, #0
    1680:	e24bd028 	sub	sp, fp, #40	; 0x28
    1684:	e89d6ff0 	ldm	sp, {r4, r5, r6, r7, r8, r9, sl, fp, sp, lr}
    1688:	e12fff1e 	bx	lr
    168c:	00009b80 	andeq	r9, r0, r0, lsl #23

00001690 <proto_init>:
    1690:	e52de004 	push	{lr}		; (str lr, [sp, #-4]!)
    1694:	e291e000 	adds	lr, r1, #0
    1698:	13a0e001 	movne	lr, #1
    169c:	e3e0c000 	mvn	ip, #0
    16a0:	e3a03000 	mov	r3, #0
    16a4:	e580e014 	str	lr, [r0, #20]
    16a8:	e5801004 	str	r1, [r0, #4]
    16ac:	e5802008 	str	r2, [r0, #8]
    16b0:	e580200c 	str	r2, [r0, #12]
    16b4:	e580c000 	str	ip, [r0]
    16b8:	e5803010 	str	r3, [r0, #16]
    16bc:	e49de004 	pop	{lr}		; (ldr lr, [sp], #4)
    16c0:	e12fff1e 	bx	lr

000016c4 <proto_copy>:
    16c4:	e1a0c00d 	mov	ip, sp
    16c8:	e92dd878 	push	{r3, r4, r5, r6, fp, ip, lr, pc}
    16cc:	e5903014 	ldr	r3, [r0, #20]
    16d0:	e3530000 	cmp	r3, #0
    16d4:	e24cb004 	sub	fp, ip, #4
    16d8:	e1a04000 	mov	r4, r0
    16dc:	e1a06001 	mov	r6, r1
    16e0:	e1a05002 	mov	r5, r2
    16e4:	1a000002 	bne	16f4 <proto_copy+0x30>
    16e8:	e5900004 	ldr	r0, [r0, #4]
    16ec:	e3500000 	cmp	r0, #0
    16f0:	1b0008dc 	blne	3a68 <free>
    16f4:	e1a00005 	mov	r0, r5
    16f8:	eb0008d1 	bl	3a44 <malloc>
    16fc:	e1a01006 	mov	r1, r6
    1700:	e5840004 	str	r0, [r4, #4]
    1704:	e1a02005 	mov	r2, r5
    1708:	eb001fef 	bl	96cc <memcpy>
    170c:	e3a03000 	mov	r3, #0
    1710:	e5845008 	str	r5, [r4, #8]
    1714:	e584500c 	str	r5, [r4, #12]
    1718:	e5843010 	str	r3, [r4, #16]
    171c:	e5843014 	str	r3, [r4, #20]
    1720:	e24bd01c 	sub	sp, fp, #28
    1724:	e89d6878 	ldm	sp, {r3, r4, r5, r6, fp, sp, lr}
    1728:	e12fff1e 	bx	lr

0000172c <proto_new>:
    172c:	e1a0c00d 	mov	ip, sp
    1730:	e92dd878 	push	{r3, r4, r5, r6, fp, ip, lr, pc}
    1734:	e24cb004 	sub	fp, ip, #4
    1738:	e1a06000 	mov	r6, r0
    173c:	e3a00018 	mov	r0, #24
    1740:	e1a05001 	mov	r5, r1
    1744:	eb0008be 	bl	3a44 <malloc>
    1748:	e1a04000 	mov	r4, r0
    174c:	e1a01006 	mov	r1, r6
    1750:	e1a02005 	mov	r2, r5
    1754:	ebffffcd 	bl	1690 <proto_init>
    1758:	e1a00004 	mov	r0, r4
    175c:	e24bd01c 	sub	sp, fp, #28
    1760:	e89d6878 	ldm	sp, {r3, r4, r5, r6, fp, sp, lr}
    1764:	e12fff1e 	bx	lr

00001768 <proto_add>:
    1768:	e1a0c00d 	mov	ip, sp
    176c:	e92ddbf0 	push	{r4, r5, r6, r7, r8, r9, fp, ip, lr, pc}
    1770:	e24cb004 	sub	fp, ip, #4
    1774:	e24dd008 	sub	sp, sp, #8
    1778:	e5903014 	ldr	r3, [r0, #20]
    177c:	e3530000 	cmp	r3, #0
    1780:	e1a04000 	mov	r4, r0
    1784:	e1a08001 	mov	r8, r1
    1788:	e50b2028 	str	r2, [fp, #-40]	; 0x28
    178c:	1a000018 	bne	17f4 <proto_add+0x8c>
    1790:	e5906008 	ldr	r6, [r0, #8]
    1794:	e590300c 	ldr	r3, [r0, #12]
    1798:	e0820006 	add	r0, r2, r6
    179c:	e1a05002 	mov	r5, r2
    17a0:	e2802004 	add	r2, r0, #4
    17a4:	e1520003 	cmp	r2, r3
    17a8:	e5947004 	ldr	r7, [r4, #4]
    17ac:	2a000013 	bcs	1800 <proto_add+0x98>
    17b0:	e0870006 	add	r0, r7, r6
    17b4:	e24b1028 	sub	r1, fp, #40	; 0x28
    17b8:	e3a02004 	mov	r2, #4
    17bc:	eb001fc2 	bl	96cc <memcpy>
    17c0:	e3580000 	cmp	r8, #0
    17c4:	13550000 	cmpne	r5, #0
    17c8:	0a000005 	beq	17e4 <proto_add+0x7c>
    17cc:	e5940008 	ldr	r0, [r4, #8]
    17d0:	e2800004 	add	r0, r0, #4
    17d4:	e1a01008 	mov	r1, r8
    17d8:	e0870000 	add	r0, r7, r0
    17dc:	e1a02005 	mov	r2, r5
    17e0:	eb001fb9 	bl	96cc <memcpy>
    17e4:	e5943008 	ldr	r3, [r4, #8]
    17e8:	e0855003 	add	r5, r5, r3
    17ec:	e2855004 	add	r5, r5, #4
    17f0:	e5845008 	str	r5, [r4, #8]
    17f4:	e24bd024 	sub	sp, fp, #36	; 0x24
    17f8:	e89d6bf0 	ldm	sp, {r4, r5, r6, r7, r8, r9, fp, sp, lr}
    17fc:	e12fff1e 	bx	lr
    1800:	e2800084 	add	r0, r0, #132	; 0x84
    1804:	e584000c 	str	r0, [r4, #12]
    1808:	eb00088d 	bl	3a44 <malloc>
    180c:	e3570000 	cmp	r7, #0
    1810:	e1a09000 	mov	r9, r0
    1814:	0a000005 	beq	1830 <proto_add+0xc8>
    1818:	e1a02006 	mov	r2, r6
    181c:	e1a01007 	mov	r1, r7
    1820:	eb001fa9 	bl	96cc <memcpy>
    1824:	e1a00007 	mov	r0, r7
    1828:	eb00088e 	bl	3a68 <free>
    182c:	e5946008 	ldr	r6, [r4, #8]
    1830:	e1a07009 	mov	r7, r9
    1834:	e5849004 	str	r9, [r4, #4]
    1838:	eaffffdc 	b	17b0 <proto_add+0x48>

0000183c <proto_add_int>:
    183c:	e1a0c00d 	mov	ip, sp
    1840:	e92dd800 	push	{fp, ip, lr, pc}
    1844:	e24cb004 	sub	fp, ip, #4
    1848:	e24b300c 	sub	r3, fp, #12
    184c:	e24dd008 	sub	sp, sp, #8
    1850:	e5231004 	str	r1, [r3, #-4]!
    1854:	e3a02004 	mov	r2, #4
    1858:	e1a01003 	mov	r1, r3
    185c:	ebffffc1 	bl	1768 <proto_add>
    1860:	e24bd00c 	sub	sp, fp, #12
    1864:	e89d6800 	ldm	sp, {fp, sp, lr}
    1868:	e12fff1e 	bx	lr

0000186c <proto_add_str>:
    186c:	e1a0c00d 	mov	ip, sp
    1870:	e92dd830 	push	{r4, r5, fp, ip, lr, pc}
    1874:	e1a05000 	mov	r5, r0
    1878:	e24cb004 	sub	fp, ip, #4
    187c:	e1a00001 	mov	r0, r1
    1880:	e1a04001 	mov	r4, r1
    1884:	eb0020ce 	bl	9bc4 <strlen>
    1888:	e1a01004 	mov	r1, r4
    188c:	e2802001 	add	r2, r0, #1
    1890:	e1a00005 	mov	r0, r5
    1894:	e24bd014 	sub	sp, fp, #20
    1898:	e89d6830 	ldm	sp, {r4, r5, fp, sp, lr}
    189c:	eaffffb1 	b	1768 <proto_add>

000018a0 <proto_read>:
    18a0:	e1a0c00d 	mov	ip, sp
    18a4:	e92dd8f0 	push	{r4, r5, r6, r7, fp, ip, lr, pc}
    18a8:	e24cb004 	sub	fp, ip, #4
    18ac:	e24dd008 	sub	sp, sp, #8
    18b0:	e2517000 	subs	r7, r1, #0
    18b4:	13a03000 	movne	r3, #0
    18b8:	e1a06000 	mov	r6, r0
    18bc:	e5900004 	ldr	r0, [r0, #4]
    18c0:	15873000 	strne	r3, [r7]
    18c4:	e3500000 	cmp	r0, #0
    18c8:	0a000016 	beq	1928 <proto_read+0x88>
    18cc:	e5963008 	ldr	r3, [r6, #8]
    18d0:	e3530000 	cmp	r3, #0
    18d4:	0a000013 	beq	1928 <proto_read+0x88>
    18d8:	e5965010 	ldr	r5, [r6, #16]
    18dc:	e1530005 	cmp	r3, r5
    18e0:	9a000010 	bls	1928 <proto_read+0x88>
    18e4:	e0804005 	add	r4, r0, r5
    18e8:	e1a01004 	mov	r1, r4
    18ec:	e24b0020 	sub	r0, fp, #32
    18f0:	e3a02004 	mov	r2, #4
    18f4:	eb001f74 	bl	96cc <memcpy>
    18f8:	e51b3020 	ldr	r3, [fp, #-32]
    18fc:	e2855004 	add	r5, r5, #4
    1900:	e3570000 	cmp	r7, #0
    1904:	e0855003 	add	r5, r5, r3
    1908:	e5865010 	str	r5, [r6, #16]
    190c:	15873000 	strne	r3, [r7]
    1910:	e3530000 	cmp	r3, #0
    1914:	0a000003 	beq	1928 <proto_read+0x88>
    1918:	e2840004 	add	r0, r4, #4
    191c:	e24bd01c 	sub	sp, fp, #28
    1920:	e89d68f0 	ldm	sp, {r4, r5, r6, r7, fp, sp, lr}
    1924:	e12fff1e 	bx	lr
    1928:	e3a00000 	mov	r0, #0
    192c:	e24bd01c 	sub	sp, fp, #28
    1930:	e89d68f0 	ldm	sp, {r4, r5, r6, r7, fp, sp, lr}
    1934:	e12fff1e 	bx	lr

00001938 <proto_read_to>:
    1938:	e1a0c00d 	mov	ip, sp
    193c:	e92dd830 	push	{r4, r5, fp, ip, lr, pc}
    1940:	e24cb004 	sub	fp, ip, #4
    1944:	e24dd008 	sub	sp, sp, #8
    1948:	e1a04002 	mov	r4, r2
    194c:	e1a05001 	mov	r5, r1
    1950:	e24b1018 	sub	r1, fp, #24
    1954:	ebffffd1 	bl	18a0 <proto_read>
    1958:	e51b3018 	ldr	r3, [fp, #-24]
    195c:	e1530004 	cmp	r3, r4
    1960:	c50b4018 	strgt	r4, [fp, #-24]
    1964:	e3550000 	cmp	r5, #0
    1968:	13500000 	cmpne	r0, #0
    196c:	e1a01000 	mov	r1, r0
    1970:	03a04000 	moveq	r4, #0
    1974:	0a000002 	beq	1984 <proto_read_to+0x4c>
    1978:	e51b4018 	ldr	r4, [fp, #-24]
    197c:	e3540000 	cmp	r4, #0
    1980:	1a000003 	bne	1994 <proto_read_to+0x5c>
    1984:	e1a00004 	mov	r0, r4
    1988:	e24bd014 	sub	sp, fp, #20
    198c:	e89d6830 	ldm	sp, {r4, r5, fp, sp, lr}
    1990:	e12fff1e 	bx	lr
    1994:	e1a00005 	mov	r0, r5
    1998:	e1a02004 	mov	r2, r4
    199c:	eb001f4a 	bl	96cc <memcpy>
    19a0:	e1a00004 	mov	r0, r4
    19a4:	e24bd014 	sub	sp, fp, #20
    19a8:	e89d6830 	ldm	sp, {r4, r5, fp, sp, lr}
    19ac:	e12fff1e 	bx	lr

000019b0 <proto_read_int>:
    19b0:	e1a0c00d 	mov	ip, sp
    19b4:	e3a01000 	mov	r1, #0
    19b8:	e92dd800 	push	{fp, ip, lr, pc}
    19bc:	e24cb004 	sub	fp, ip, #4
    19c0:	ebffffb6 	bl	18a0 <proto_read>
    19c4:	e3500000 	cmp	r0, #0
    19c8:	15900000 	ldrne	r0, [r0]
    19cc:	e24bd00c 	sub	sp, fp, #12
    19d0:	e89d6800 	ldm	sp, {fp, sp, lr}
    19d4:	e12fff1e 	bx	lr

000019d8 <proto_read_str>:
    19d8:	e3a01000 	mov	r1, #0
    19dc:	eaffffaf 	b	18a0 <proto_read>

000019e0 <proto_clear>:
    19e0:	e1a0c00d 	mov	ip, sp
    19e4:	e92dd818 	push	{r3, r4, fp, ip, lr, pc}
    19e8:	e5903014 	ldr	r3, [r0, #20]
    19ec:	e3530000 	cmp	r3, #0
    19f0:	e24cb004 	sub	fp, ip, #4
    19f4:	e1a04000 	mov	r4, r0
    19f8:	1a000007 	bne	1a1c <proto_clear+0x3c>
    19fc:	e5900004 	ldr	r0, [r0, #4]
    1a00:	e3500000 	cmp	r0, #0
    1a04:	e5843008 	str	r3, [r4, #8]
    1a08:	e584300c 	str	r3, [r4, #12]
    1a0c:	e5843010 	str	r3, [r4, #16]
    1a10:	1b000814 	blne	3a68 <free>
    1a14:	e3a03000 	mov	r3, #0
    1a18:	e5843004 	str	r3, [r4, #4]
    1a1c:	e24bd014 	sub	sp, fp, #20
    1a20:	e89d6818 	ldm	sp, {r3, r4, fp, sp, lr}
    1a24:	e12fff1e 	bx	lr

00001a28 <proto_free>:
    1a28:	e1a0c00d 	mov	ip, sp
    1a2c:	e92dd818 	push	{r3, r4, fp, ip, lr, pc}
    1a30:	e1a04000 	mov	r4, r0
    1a34:	e24cb004 	sub	fp, ip, #4
    1a38:	ebffffe8 	bl	19e0 <proto_clear>
    1a3c:	e1a00004 	mov	r0, r4
    1a40:	eb000808 	bl	3a68 <free>
    1a44:	e24bd014 	sub	sp, fp, #20
    1a48:	e89d6818 	ldm	sp, {r3, r4, fp, sp, lr}
    1a4c:	e12fff1e 	bx	lr

00001a50 <thread_entry>:
    1a50:	e1a0c00d 	mov	ip, sp
    1a54:	e1a03000 	mov	r3, r0
    1a58:	e92dd800 	push	{fp, ip, lr, pc}
    1a5c:	e1a00001 	mov	r0, r1
    1a60:	e24cb004 	sub	fp, ip, #4
    1a64:	e1a0e00f 	mov	lr, pc
    1a68:	e12fff13 	bx	r3
    1a6c:	e3a00000 	mov	r0, #0
    1a70:	eb000816 	bl	3ad0 <exit>
    1a74:	e24bd00c 	sub	sp, fp, #12
    1a78:	e89d6800 	ldm	sp, {fp, sp, lr}
    1a7c:	e12fff1e 	bx	lr

00001a80 <thread_create>:
    1a80:	e1a0c00d 	mov	ip, sp
    1a84:	e1a03001 	mov	r3, r1
    1a88:	e59f1020 	ldr	r1, [pc, #32]	; 1ab0 <thread_create+0x30>
    1a8c:	e92dd800 	push	{fp, ip, lr, pc}
    1a90:	e1a02000 	mov	r2, r0
    1a94:	e24cb004 	sub	fp, ip, #4
    1a98:	e08f1001 	add	r1, pc, r1
    1a9c:	e3a0003f 	mov	r0, #63	; 0x3f
    1aa0:	ebfff9c0 	bl	1a8 <syscall3>
    1aa4:	e24bd00c 	sub	sp, fp, #12
    1aa8:	e89d6800 	ldm	sp, {fp, sp, lr}
    1aac:	e12fff1e 	bx	lr
    1ab0:	ffffffb0 			; <UNDEFINED> instruction: 0xffffffb0

00001ab4 <div_u32>:
    1ab4:	e3510000 	cmp	r1, #0
    1ab8:	0a00001e 	beq	1b38 <div_u32+0x84>
    1abc:	e3510902 	cmp	r1, #32768	; 0x8000
    1ac0:	0a000087 	beq	1ce4 <div_u32+0x230>
    1ac4:	9a00000d 	bls	1b00 <div_u32+0x4c>
    1ac8:	e3510502 	cmp	r1, #8388608	; 0x800000
    1acc:	0a000080 	beq	1cd4 <div_u32+0x220>
    1ad0:	8a00001a 	bhi	1b40 <div_u32+0x8c>
    1ad4:	e3510702 	cmp	r1, #524288	; 0x80000
    1ad8:	0a00006d 	beq	1c94 <div_u32+0x1e0>
    1adc:	8a000035 	bhi	1bb8 <div_u32+0x104>
    1ae0:	e3510802 	cmp	r1, #131072	; 0x20000
    1ae4:	0a000052 	beq	1c34 <div_u32+0x180>
    1ae8:	e3510701 	cmp	r1, #262144	; 0x40000
    1aec:	0a00006e 	beq	1cac <div_u32+0x1f8>
    1af0:	e3510801 	cmp	r1, #65536	; 0x10000
    1af4:	1a00003d 	bne	1bf0 <div_u32+0x13c>
    1af8:	e1a00820 	lsr	r0, r0, #16
    1afc:	e12fff1e 	bx	lr
    1b00:	e3510080 	cmp	r1, #128	; 0x80
    1b04:	0a000074 	beq	1cdc <div_u32+0x228>
    1b08:	9a000017 	bls	1b6c <div_u32+0xb8>
    1b0c:	e3510b02 	cmp	r1, #2048	; 0x800
    1b10:	0a00006d 	beq	1ccc <div_u32+0x218>
    1b14:	8a00001f 	bhi	1b98 <div_u32+0xe4>
    1b18:	e3510c02 	cmp	r1, #512	; 0x200
    1b1c:	0a000046 	beq	1c3c <div_u32+0x188>
    1b20:	e3510b01 	cmp	r1, #1024	; 0x400
    1b24:	0a000058 	beq	1c8c <div_u32+0x1d8>
    1b28:	e3510c01 	cmp	r1, #256	; 0x100
    1b2c:	1a00002f 	bne	1bf0 <div_u32+0x13c>
    1b30:	e1a00420 	lsr	r0, r0, #8
    1b34:	e12fff1e 	bx	lr
    1b38:	e1a00001 	mov	r0, r1
    1b3c:	e12fff1e 	bx	lr
    1b40:	e3510302 	cmp	r1, #134217728	; 0x8000000
    1b44:	0a000054 	beq	1c9c <div_u32+0x1e8>
    1b48:	8a000022 	bhi	1bd8 <div_u32+0x124>
    1b4c:	e3510402 	cmp	r1, #33554432	; 0x2000000
    1b50:	0a00003d 	beq	1c4c <div_u32+0x198>
    1b54:	e3510301 	cmp	r1, #67108864	; 0x4000000
    1b58:	0a000051 	beq	1ca4 <div_u32+0x1f0>
    1b5c:	e3510401 	cmp	r1, #16777216	; 0x1000000
    1b60:	1a000022 	bne	1bf0 <div_u32+0x13c>
    1b64:	e1a00c20 	lsr	r0, r0, #24
    1b68:	e12fff1e 	bx	lr
    1b6c:	e3510008 	cmp	r1, #8
    1b70:	0a00003d 	beq	1c6c <div_u32+0x1b8>
    1b74:	9a000036 	bls	1c54 <div_u32+0x1a0>
    1b78:	e3510020 	cmp	r1, #32
    1b7c:	0a000030 	beq	1c44 <div_u32+0x190>
    1b80:	e3510040 	cmp	r1, #64	; 0x40
    1b84:	0a00003c 	beq	1c7c <div_u32+0x1c8>
    1b88:	e3510010 	cmp	r1, #16
    1b8c:	1a000017 	bne	1bf0 <div_u32+0x13c>
    1b90:	e1a00220 	lsr	r0, r0, #4
    1b94:	e12fff1e 	bx	lr
    1b98:	e3510a02 	cmp	r1, #8192	; 0x2000
    1b9c:	0a000020 	beq	1c24 <div_u32+0x170>
    1ba0:	e3510901 	cmp	r1, #16384	; 0x4000
    1ba4:	0a000036 	beq	1c84 <div_u32+0x1d0>
    1ba8:	e3510a01 	cmp	r1, #4096	; 0x1000
    1bac:	1a00000f 	bne	1bf0 <div_u32+0x13c>
    1bb0:	e1a00620 	lsr	r0, r0, #12
    1bb4:	e12fff1e 	bx	lr
    1bb8:	e3510602 	cmp	r1, #2097152	; 0x200000
    1bbc:	0a00001a 	beq	1c2c <div_u32+0x178>
    1bc0:	e3510501 	cmp	r1, #4194304	; 0x400000
    1bc4:	0a00003a 	beq	1cb4 <div_u32+0x200>
    1bc8:	e3510601 	cmp	r1, #1048576	; 0x100000
    1bcc:	1a000007 	bne	1bf0 <div_u32+0x13c>
    1bd0:	e1a00a20 	lsr	r0, r0, #20
    1bd4:	e12fff1e 	bx	lr
    1bd8:	e3510202 	cmp	r1, #536870912	; 0x20000000
    1bdc:	0a00000e 	beq	1c1c <div_u32+0x168>
    1be0:	e3510101 	cmp	r1, #1073741824	; 0x40000000
    1be4:	0a000036 	beq	1cc4 <div_u32+0x210>
    1be8:	e3510201 	cmp	r1, #268435456	; 0x10000000
    1bec:	0a000032 	beq	1cbc <div_u32+0x208>
    1bf0:	e1510000 	cmp	r1, r0
    1bf4:	83a02000 	movhi	r2, #0
    1bf8:	8a000005 	bhi	1c14 <div_u32+0x160>
    1bfc:	e1a03001 	mov	r3, r1
    1c00:	e3a02000 	mov	r2, #0
    1c04:	e0833001 	add	r3, r3, r1
    1c08:	e1500003 	cmp	r0, r3
    1c0c:	e2822001 	add	r2, r2, #1
    1c10:	2afffffb 	bcs	1c04 <div_u32+0x150>
    1c14:	e1a00002 	mov	r0, r2
    1c18:	e12fff1e 	bx	lr
    1c1c:	e1a00ea0 	lsr	r0, r0, #29
    1c20:	e12fff1e 	bx	lr
    1c24:	e1a006a0 	lsr	r0, r0, #13
    1c28:	e12fff1e 	bx	lr
    1c2c:	e1a00aa0 	lsr	r0, r0, #21
    1c30:	e12fff1e 	bx	lr
    1c34:	e1a008a0 	lsr	r0, r0, #17
    1c38:	e12fff1e 	bx	lr
    1c3c:	e1a004a0 	lsr	r0, r0, #9
    1c40:	e12fff1e 	bx	lr
    1c44:	e1a002a0 	lsr	r0, r0, #5
    1c48:	e12fff1e 	bx	lr
    1c4c:	e1a00ca0 	lsr	r0, r0, #25
    1c50:	e12fff1e 	bx	lr
    1c54:	e3510002 	cmp	r1, #2
    1c58:	0a000005 	beq	1c74 <div_u32+0x1c0>
    1c5c:	e3510004 	cmp	r1, #4
    1c60:	1affffe2 	bne	1bf0 <div_u32+0x13c>
    1c64:	e1a00120 	lsr	r0, r0, #2
    1c68:	e12fff1e 	bx	lr
    1c6c:	e1a001a0 	lsr	r0, r0, #3
    1c70:	e12fff1e 	bx	lr
    1c74:	e1a000a0 	lsr	r0, r0, #1
    1c78:	e12fff1e 	bx	lr
    1c7c:	e1a00320 	lsr	r0, r0, #6
    1c80:	e12fff1e 	bx	lr
    1c84:	e1a00720 	lsr	r0, r0, #14
    1c88:	e12fff1e 	bx	lr
    1c8c:	e1a00520 	lsr	r0, r0, #10
    1c90:	e12fff1e 	bx	lr
    1c94:	e1a009a0 	lsr	r0, r0, #19
    1c98:	e12fff1e 	bx	lr
    1c9c:	e1a00da0 	lsr	r0, r0, #27
    1ca0:	e12fff1e 	bx	lr
    1ca4:	e1a00d20 	lsr	r0, r0, #26
    1ca8:	e12fff1e 	bx	lr
    1cac:	e1a00920 	lsr	r0, r0, #18
    1cb0:	e12fff1e 	bx	lr
    1cb4:	e1a00b20 	lsr	r0, r0, #22
    1cb8:	e12fff1e 	bx	lr
    1cbc:	e1a00e20 	lsr	r0, r0, #28
    1cc0:	e12fff1e 	bx	lr
    1cc4:	e1a00f20 	lsr	r0, r0, #30
    1cc8:	e12fff1e 	bx	lr
    1ccc:	e1a005a0 	lsr	r0, r0, #11
    1cd0:	e12fff1e 	bx	lr
    1cd4:	e1a00ba0 	lsr	r0, r0, #23
    1cd8:	e12fff1e 	bx	lr
    1cdc:	e1a003a0 	lsr	r0, r0, #7
    1ce0:	e12fff1e 	bx	lr
    1ce4:	e1a007a0 	lsr	r0, r0, #15
    1ce8:	e12fff1e 	bx	lr

00001cec <mod_u32>:
    1cec:	e3510000 	cmp	r1, #0
    1cf0:	0a000012 	beq	1d40 <mod_u32+0x54>
    1cf4:	e3510902 	cmp	r1, #32768	; 0x8000
    1cf8:	0a000086 	beq	1f18 <mod_u32+0x22c>
    1cfc:	9a000011 	bls	1d48 <mod_u32+0x5c>
    1d00:	e3510502 	cmp	r1, #8388608	; 0x800000
    1d04:	0a00007e 	beq	1f04 <mod_u32+0x218>
    1d08:	8a00001e 	bhi	1d88 <mod_u32+0x9c>
    1d0c:	e3510702 	cmp	r1, #524288	; 0x80000
    1d10:	0a000075 	beq	1eec <mod_u32+0x200>
    1d14:	8a000042 	bhi	1e24 <mod_u32+0x138>
    1d18:	e3510802 	cmp	r1, #131072	; 0x20000
    1d1c:	0a000065 	beq	1eb8 <mod_u32+0x1cc>
    1d20:	e3510701 	cmp	r1, #262144	; 0x40000
    1d24:	01a01920 	lsreq	r1, r0, #18
    1d28:	01a01901 	lsleq	r1, r1, #18
    1d2c:	0a000003 	beq	1d40 <mod_u32+0x54>
    1d30:	e3510801 	cmp	r1, #65536	; 0x10000
    1d34:	1a00004e 	bne	1e74 <mod_u32+0x188>
    1d38:	e1a01820 	lsr	r1, r0, #16
    1d3c:	e1a01801 	lsl	r1, r1, #16
    1d40:	e0610000 	rsb	r0, r1, r0
    1d44:	e12fff1e 	bx	lr
    1d48:	e3510080 	cmp	r1, #128	; 0x80
    1d4c:	0a00006f 	beq	1f10 <mod_u32+0x224>
    1d50:	9a00001a 	bls	1dc0 <mod_u32+0xd4>
    1d54:	e3510b02 	cmp	r1, #2048	; 0x800
    1d58:	0a000066 	beq	1ef8 <mod_u32+0x20c>
    1d5c:	8a000025 	bhi	1df8 <mod_u32+0x10c>
    1d60:	e3510c02 	cmp	r1, #512	; 0x200
    1d64:	0a000056 	beq	1ec4 <mod_u32+0x1d8>
    1d68:	e3510b01 	cmp	r1, #1024	; 0x400
    1d6c:	01a01520 	lsreq	r1, r0, #10
    1d70:	01a01501 	lsleq	r1, r1, #10
    1d74:	0afffff1 	beq	1d40 <mod_u32+0x54>
    1d78:	e3510c01 	cmp	r1, #256	; 0x100
    1d7c:	1a00003c 	bne	1e74 <mod_u32+0x188>
    1d80:	e3c010ff 	bic	r1, r0, #255	; 0xff
    1d84:	eaffffed 	b	1d40 <mod_u32+0x54>
    1d88:	e3510302 	cmp	r1, #134217728	; 0x8000000
    1d8c:	0200133e 	andeq	r1, r0, #-134217728	; 0xf8000000
    1d90:	0affffea 	beq	1d40 <mod_u32+0x54>
    1d94:	8a00002d 	bhi	1e50 <mod_u32+0x164>
    1d98:	e3510402 	cmp	r1, #33554432	; 0x2000000
    1d9c:	020014fe 	andeq	r1, r0, #-33554432	; 0xfe000000
    1da0:	0affffe6 	beq	1d40 <mod_u32+0x54>
    1da4:	e3510301 	cmp	r1, #67108864	; 0x4000000
    1da8:	0200133f 	andeq	r1, r0, #-67108864	; 0xfc000000
    1dac:	0affffe3 	beq	1d40 <mod_u32+0x54>
    1db0:	e3510401 	cmp	r1, #16777216	; 0x1000000
    1db4:	1a00002e 	bne	1e74 <mod_u32+0x188>
    1db8:	e20014ff 	and	r1, r0, #-16777216	; 0xff000000
    1dbc:	eaffffdf 	b	1d40 <mod_u32+0x54>
    1dc0:	e3510008 	cmp	r1, #8
    1dc4:	03c01007 	biceq	r1, r0, #7
    1dc8:	0affffdc 	beq	1d40 <mod_u32+0x54>
    1dcc:	9a00003f 	bls	1ed0 <mod_u32+0x1e4>
    1dd0:	e3510020 	cmp	r1, #32
    1dd4:	03c0101f 	biceq	r1, r0, #31
    1dd8:	0affffd8 	beq	1d40 <mod_u32+0x54>
    1ddc:	e3510040 	cmp	r1, #64	; 0x40
    1de0:	03c0103f 	biceq	r1, r0, #63	; 0x3f
    1de4:	0affffd5 	beq	1d40 <mod_u32+0x54>
    1de8:	e3510010 	cmp	r1, #16
    1dec:	1a000020 	bne	1e74 <mod_u32+0x188>
    1df0:	e3c0100f 	bic	r1, r0, #15
    1df4:	eaffffd1 	b	1d40 <mod_u32+0x54>
    1df8:	e3510a02 	cmp	r1, #8192	; 0x2000
    1dfc:	0a000027 	beq	1ea0 <mod_u32+0x1b4>
    1e00:	e3510901 	cmp	r1, #16384	; 0x4000
    1e04:	01a01720 	lsreq	r1, r0, #14
    1e08:	01a01701 	lsleq	r1, r1, #14
    1e0c:	0affffcb 	beq	1d40 <mod_u32+0x54>
    1e10:	e3510a01 	cmp	r1, #4096	; 0x1000
    1e14:	1a000016 	bne	1e74 <mod_u32+0x188>
    1e18:	e1a01620 	lsr	r1, r0, #12
    1e1c:	e1a01601 	lsl	r1, r1, #12
    1e20:	eaffffc6 	b	1d40 <mod_u32+0x54>
    1e24:	e3510602 	cmp	r1, #2097152	; 0x200000
    1e28:	0a00001f 	beq	1eac <mod_u32+0x1c0>
    1e2c:	e3510501 	cmp	r1, #4194304	; 0x400000
    1e30:	01a01b20 	lsreq	r1, r0, #22
    1e34:	01a01b01 	lsleq	r1, r1, #22
    1e38:	0affffc0 	beq	1d40 <mod_u32+0x54>
    1e3c:	e3510601 	cmp	r1, #1048576	; 0x100000
    1e40:	1a00000b 	bne	1e74 <mod_u32+0x188>
    1e44:	e1a01a20 	lsr	r1, r0, #20
    1e48:	e1a01a01 	lsl	r1, r1, #20
    1e4c:	eaffffbb 	b	1d40 <mod_u32+0x54>
    1e50:	e3510202 	cmp	r1, #536870912	; 0x20000000
    1e54:	0200120e 	andeq	r1, r0, #-536870912	; 0xe0000000
    1e58:	0affffb8 	beq	1d40 <mod_u32+0x54>
    1e5c:	e3510101 	cmp	r1, #1073741824	; 0x40000000
    1e60:	02001103 	andeq	r1, r0, #-1073741824	; 0xc0000000
    1e64:	0affffb5 	beq	1d40 <mod_u32+0x54>
    1e68:	e3510201 	cmp	r1, #268435456	; 0x10000000
    1e6c:	0200120f 	andeq	r1, r0, #-268435456	; 0xf0000000
    1e70:	0affffb2 	beq	1d40 <mod_u32+0x54>
    1e74:	e1500001 	cmp	r0, r1
    1e78:	33a01000 	movcc	r1, #0
    1e7c:	3affffaf 	bcc	1d40 <mod_u32+0x54>
    1e80:	e1a03001 	mov	r3, r1
    1e84:	e3a02000 	mov	r2, #0
    1e88:	e0833001 	add	r3, r3, r1
    1e8c:	e1500003 	cmp	r0, r3
    1e90:	e2822001 	add	r2, r2, #1
    1e94:	2afffffb 	bcs	1e88 <mod_u32+0x19c>
    1e98:	e0010192 	mul	r1, r2, r1
    1e9c:	eaffffa7 	b	1d40 <mod_u32+0x54>
    1ea0:	e1a016a0 	lsr	r1, r0, #13
    1ea4:	e1a01681 	lsl	r1, r1, #13
    1ea8:	eaffffa4 	b	1d40 <mod_u32+0x54>
    1eac:	e1a01aa0 	lsr	r1, r0, #21
    1eb0:	e1a01a81 	lsl	r1, r1, #21
    1eb4:	eaffffa1 	b	1d40 <mod_u32+0x54>
    1eb8:	e1a018a0 	lsr	r1, r0, #17
    1ebc:	e1a01881 	lsl	r1, r1, #17
    1ec0:	eaffff9e 	b	1d40 <mod_u32+0x54>
    1ec4:	e1a014a0 	lsr	r1, r0, #9
    1ec8:	e1a01481 	lsl	r1, r1, #9
    1ecc:	eaffff9b 	b	1d40 <mod_u32+0x54>
    1ed0:	e3510002 	cmp	r1, #2
    1ed4:	03c01001 	biceq	r1, r0, #1
    1ed8:	0affff98 	beq	1d40 <mod_u32+0x54>
    1edc:	e3510004 	cmp	r1, #4
    1ee0:	03c01003 	biceq	r1, r0, #3
    1ee4:	0affff95 	beq	1d40 <mod_u32+0x54>
    1ee8:	eaffffe1 	b	1e74 <mod_u32+0x188>
    1eec:	e1a019a0 	lsr	r1, r0, #19
    1ef0:	e1a01981 	lsl	r1, r1, #19
    1ef4:	eaffff91 	b	1d40 <mod_u32+0x54>
    1ef8:	e1a015a0 	lsr	r1, r0, #11
    1efc:	e1a01581 	lsl	r1, r1, #11
    1f00:	eaffff8e 	b	1d40 <mod_u32+0x54>
    1f04:	e1a01ba0 	lsr	r1, r0, #23
    1f08:	e1a01b81 	lsl	r1, r1, #23
    1f0c:	eaffff8b 	b	1d40 <mod_u32+0x54>
    1f10:	e3c0107f 	bic	r1, r0, #127	; 0x7f
    1f14:	eaffff89 	b	1d40 <mod_u32+0x54>
    1f18:	e1a017a0 	lsr	r1, r0, #15
    1f1c:	e1a01781 	lsl	r1, r1, #15
    1f20:	eaffff86 	b	1d40 <mod_u32+0x54>

00001f24 <abs32>:
    1f24:	e3500000 	cmp	r0, #0
    1f28:	b2600000 	rsblt	r0, r0, #0
    1f2c:	e12fff1e 	bx	lr

00001f30 <shm_alloc>:
    1f30:	e1a0c00d 	mov	ip, sp
    1f34:	e1a03000 	mov	r3, r0
    1f38:	e92dd800 	push	{fp, ip, lr, pc}
    1f3c:	e1a02001 	mov	r2, r1
    1f40:	e24cb004 	sub	fp, ip, #4
    1f44:	e1a01003 	mov	r1, r3
    1f48:	e3a00037 	mov	r0, #55	; 0x37
    1f4c:	ebfff8ab 	bl	200 <syscall2>
    1f50:	e24bd00c 	sub	sp, fp, #12
    1f54:	e89d6800 	ldm	sp, {fp, sp, lr}
    1f58:	e12fff1e 	bx	lr

00001f5c <shm_map>:
    1f5c:	e1a0c00d 	mov	ip, sp
    1f60:	e1a01000 	mov	r1, r0
    1f64:	e92dd800 	push	{fp, ip, lr, pc}
    1f68:	e3a00038 	mov	r0, #56	; 0x38
    1f6c:	e24cb004 	sub	fp, ip, #4
    1f70:	ebfff8b8 	bl	258 <syscall1>
    1f74:	e24bd00c 	sub	sp, fp, #12
    1f78:	e89d6800 	ldm	sp, {fp, sp, lr}
    1f7c:	e12fff1e 	bx	lr

00001f80 <shm_unmap>:
    1f80:	e1a0c00d 	mov	ip, sp
    1f84:	e1a01000 	mov	r1, r0
    1f88:	e92dd800 	push	{fp, ip, lr, pc}
    1f8c:	e3a00039 	mov	r0, #57	; 0x39
    1f90:	e24cb004 	sub	fp, ip, #4
    1f94:	ebfff8af 	bl	258 <syscall1>
    1f98:	e24bd00c 	sub	sp, fp, #12
    1f9c:	e89d6800 	ldm	sp, {fp, sp, lr}
    1fa0:	e12fff1e 	bx	lr

00001fa4 <sd_read_sector>:
    1fa4:	e1a0c00d 	mov	ip, sp
    1fa8:	e92dd830 	push	{r4, r5, fp, ip, lr, pc}
    1fac:	e1a05000 	mov	r5, r0
    1fb0:	e59f20ec 	ldr	r2, [pc, #236]	; 20a4 <sd_read_sector+0x100>
    1fb4:	e08f2002 	add	r2, pc, r2
    1fb8:	e5920010 	ldr	r0, [r2, #16]
    1fbc:	e5923008 	ldr	r3, [r2, #8]
    1fc0:	e3500000 	cmp	r0, #0
    1fc4:	e24cb004 	sub	fp, ip, #4
    1fc8:	e1a04001 	mov	r4, r1
    1fcc:	e0633005 	rsb	r3, r3, r5
    1fd0:	0a00000d 	beq	200c <sd_read_sector+0x68>
    1fd4:	e5922014 	ldr	r2, [r2, #20]
    1fd8:	e1530002 	cmp	r3, r2
    1fdc:	2a00000a 	bcs	200c <sd_read_sector+0x68>
    1fe0:	e0803183 	add	r3, r0, r3, lsl #3
    1fe4:	e5931004 	ldr	r1, [r3, #4]
    1fe8:	e3510000 	cmp	r1, #0
    1fec:	0a000006 	beq	200c <sd_read_sector+0x68>
    1ff0:	e1a00004 	mov	r0, r4
    1ff4:	e3a02c02 	mov	r2, #512	; 0x200
    1ff8:	eb001db3 	bl	96cc <memcpy>
    1ffc:	e3a00c02 	mov	r0, #512	; 0x200
    2000:	e24bd014 	sub	sp, fp, #20
    2004:	e89d6830 	ldm	sp, {r4, r5, fp, sp, lr}
    2008:	e12fff1e 	bx	lr
    200c:	e3a00004 	mov	r0, #4
    2010:	e3a01001 	mov	r1, #1
    2014:	e1a02005 	mov	r2, r5
    2018:	ebfff878 	bl	200 <syscall2>
    201c:	e3500000 	cmp	r0, #0
    2020:	1a00001d 	bne	209c <sd_read_sector+0xf8>
    2024:	e3a00006 	mov	r0, #6
    2028:	e3a01001 	mov	r1, #1
    202c:	e1a02004 	mov	r2, r4
    2030:	ebfff872 	bl	200 <syscall2>
    2034:	e3500000 	cmp	r0, #0
    2038:	1afffff9 	bne	2024 <sd_read_sector+0x80>
    203c:	e59f3064 	ldr	r3, [pc, #100]	; 20a8 <sd_read_sector+0x104>
    2040:	e08f3003 	add	r3, pc, r3
    2044:	e5932010 	ldr	r2, [r3, #16]
    2048:	e3520000 	cmp	r2, #0
    204c:	e5931008 	ldr	r1, [r3, #8]
    2050:	0a00000f 	beq	2094 <sd_read_sector+0xf0>
    2054:	e5933014 	ldr	r3, [r3, #20]
    2058:	e0615005 	rsb	r5, r1, r5
    205c:	e1550003 	cmp	r5, r3
    2060:	2a00000b 	bcs	2094 <sd_read_sector+0xf0>
    2064:	e0825185 	add	r5, r2, r5, lsl #3
    2068:	e5950004 	ldr	r0, [r5, #4]
    206c:	e3500000 	cmp	r0, #0
    2070:	1b00067c 	blne	3a68 <free>
    2074:	e3a00c02 	mov	r0, #512	; 0x200
    2078:	eb000671 	bl	3a44 <malloc>
    207c:	e1a01004 	mov	r1, r4
    2080:	e5850004 	str	r0, [r5, #4]
    2084:	e3a02c02 	mov	r2, #512	; 0x200
    2088:	eb001d8f 	bl	96cc <memcpy>
    208c:	e3a00c02 	mov	r0, #512	; 0x200
    2090:	eaffffda 	b	2000 <sd_read_sector+0x5c>
    2094:	e3a00c02 	mov	r0, #512	; 0x200
    2098:	eaffffd8 	b	2000 <sd_read_sector+0x5c>
    209c:	e3a00000 	mov	r0, #0
    20a0:	eaffffd6 	b	2000 <sd_read_sector+0x5c>
    20a4:	00023e8c 	andeq	r3, r2, ip, lsl #29
    20a8:	00023e00 	andeq	r3, r2, r0, lsl #28

000020ac <sd_write_sector>:
    20ac:	e1a0c00d 	mov	ip, sp
    20b0:	e1a02000 	mov	r2, r0
    20b4:	e92dd800 	push	{fp, ip, lr, pc}
    20b8:	e1a03001 	mov	r3, r1
    20bc:	e24cb004 	sub	fp, ip, #4
    20c0:	e3a00005 	mov	r0, #5
    20c4:	e3a01001 	mov	r1, #1
    20c8:	ebfff836 	bl	1a8 <syscall3>
    20cc:	e3500000 	cmp	r0, #0
    20d0:	1a000008 	bne	20f8 <sd_write_sector+0x4c>
    20d4:	e3a00007 	mov	r0, #7
    20d8:	e3a01001 	mov	r1, #1
    20dc:	ebfff85d 	bl	258 <syscall1>
    20e0:	e3500000 	cmp	r0, #0
    20e4:	1afffffa 	bne	20d4 <sd_write_sector+0x28>
    20e8:	e3a00c02 	mov	r0, #512	; 0x200
    20ec:	e24bd00c 	sub	sp, fp, #12
    20f0:	e89d6800 	ldm	sp, {fp, sp, lr}
    20f4:	e12fff1e 	bx	lr
    20f8:	e3a00000 	mov	r0, #0
    20fc:	eafffffa 	b	20ec <sd_write_sector+0x40>

00002100 <sd_read>:
    2100:	e1a0c00d 	mov	ip, sp
    2104:	e92dd830 	push	{r4, r5, fp, ip, lr, pc}
    2108:	e59f3048 	ldr	r3, [pc, #72]	; 2158 <sd_read+0x58>
    210c:	e08f3003 	add	r3, pc, r3
    2110:	e5934008 	ldr	r4, [r3, #8]
    2114:	e0844080 	add	r4, r4, r0, lsl #1
    2118:	e24cb004 	sub	fp, ip, #4
    211c:	e1a00004 	mov	r0, r4
    2120:	e1a05001 	mov	r5, r1
    2124:	ebffff9e 	bl	1fa4 <sd_read_sector>
    2128:	e3500c02 	cmp	r0, #512	; 0x200
    212c:	1a000007 	bne	2150 <sd_read+0x50>
    2130:	e2840001 	add	r0, r4, #1
    2134:	e2851c02 	add	r1, r5, #512	; 0x200
    2138:	ebffff99 	bl	1fa4 <sd_read_sector>
    213c:	e2500c02 	subs	r0, r0, #512	; 0x200
    2140:	13e00000 	mvnne	r0, #0
    2144:	e24bd014 	sub	sp, fp, #20
    2148:	e89d6830 	ldm	sp, {r4, r5, fp, sp, lr}
    214c:	e12fff1e 	bx	lr
    2150:	e3e00000 	mvn	r0, #0
    2154:	eafffffa 	b	2144 <sd_read+0x44>
    2158:	00023d34 	andeq	r3, r2, r4, lsr sp

0000215c <sd_write>:
    215c:	e1a0c00d 	mov	ip, sp
    2160:	e92dd830 	push	{r4, r5, fp, ip, lr, pc}
    2164:	e59f3048 	ldr	r3, [pc, #72]	; 21b4 <sd_write+0x58>
    2168:	e08f3003 	add	r3, pc, r3
    216c:	e5934008 	ldr	r4, [r3, #8]
    2170:	e0844080 	add	r4, r4, r0, lsl #1
    2174:	e24cb004 	sub	fp, ip, #4
    2178:	e1a00004 	mov	r0, r4
    217c:	e1a05001 	mov	r5, r1
    2180:	ebffffc9 	bl	20ac <sd_write_sector>
    2184:	e3500c02 	cmp	r0, #512	; 0x200
    2188:	1a000007 	bne	21ac <sd_write+0x50>
    218c:	e2840001 	add	r0, r4, #1
    2190:	e2851c02 	add	r1, r5, #512	; 0x200
    2194:	ebffffc4 	bl	20ac <sd_write_sector>
    2198:	e2500c02 	subs	r0, r0, #512	; 0x200
    219c:	13e00000 	mvnne	r0, #0
    21a0:	e24bd014 	sub	sp, fp, #20
    21a4:	e89d6830 	ldm	sp, {r4, r5, fp, sp, lr}
    21a8:	e12fff1e 	bx	lr
    21ac:	e3e00000 	mvn	r0, #0
    21b0:	eafffffa 	b	21a0 <sd_write+0x44>
    21b4:	00023cd8 	ldrdeq	r3, [r2], -r8

000021b8 <read_partition>:
    21b8:	e1a0c00d 	mov	ip, sp
    21bc:	e92dd800 	push	{fp, ip, lr, pc}
    21c0:	e24cb004 	sub	fp, ip, #4
    21c4:	e24ddc02 	sub	sp, sp, #512	; 0x200
    21c8:	e3a00000 	mov	r0, #0
    21cc:	e24b1f83 	sub	r1, fp, #524	; 0x20c
    21d0:	ebffff73 	bl	1fa4 <sd_read_sector>
    21d4:	e3500c02 	cmp	r0, #512	; 0x200
    21d8:	1a00000f 	bne	221c <read_partition+0x64>
    21dc:	e55b300e 	ldrb	r3, [fp, #-14]
    21e0:	e3530055 	cmp	r3, #85	; 0x55
    21e4:	1a00000c 	bne	221c <read_partition+0x64>
    21e8:	e55b300d 	ldrb	r3, [fp, #-13]
    21ec:	e35300aa 	cmp	r3, #170	; 0xaa
    21f0:	1a000009 	bne	221c <read_partition+0x64>
    21f4:	e59f0030 	ldr	r0, [pc, #48]	; 222c <read_partition+0x74>
    21f8:	e08f0000 	add	r0, pc, r0
    21fc:	e24b104e 	sub	r1, fp, #78	; 0x4e
    2200:	e3a02040 	mov	r2, #64	; 0x40
    2204:	e2800018 	add	r0, r0, #24
    2208:	eb001d2f 	bl	96cc <memcpy>
    220c:	e3a00000 	mov	r0, #0
    2210:	e24bd00c 	sub	sp, fp, #12
    2214:	e89d6800 	ldm	sp, {fp, sp, lr}
    2218:	e12fff1e 	bx	lr
    221c:	e3e00000 	mvn	r0, #0
    2220:	e24bd00c 	sub	sp, fp, #12
    2224:	e89d6800 	ldm	sp, {fp, sp, lr}
    2228:	e12fff1e 	bx	lr
    222c:	00023c48 	andeq	r3, r2, r8, asr #24

00002230 <partition_get>:
    2230:	e1a0c00d 	mov	ip, sp
    2234:	e3500003 	cmp	r0, #3
    2238:	e92dd800 	push	{fp, ip, lr, pc}
    223c:	e24cb004 	sub	fp, ip, #4
    2240:	8a00000a 	bhi	2270 <partition_get+0x40>
    2244:	e59f302c 	ldr	r3, [pc, #44]	; 2278 <partition_get+0x48>
    2248:	e08f3003 	add	r3, pc, r3
    224c:	e0833200 	add	r3, r3, r0, lsl #4
    2250:	e3a02010 	mov	r2, #16
    2254:	e1a00001 	mov	r0, r1
    2258:	e2831018 	add	r1, r3, #24
    225c:	eb001d1a 	bl	96cc <memcpy>
    2260:	e3a00000 	mov	r0, #0
    2264:	e24bd00c 	sub	sp, fp, #12
    2268:	e89d6800 	ldm	sp, {fp, sp, lr}
    226c:	e12fff1e 	bx	lr
    2270:	e3e00000 	mvn	r0, #0
    2274:	eafffffa 	b	2264 <partition_get+0x34>
    2278:	00023bf8 	strdeq	r3, [r2], -r8

0000227c <sd_set_buffer>:
    227c:	e1a0c00d 	mov	ip, sp
    2280:	e92dd878 	push	{r3, r4, r5, r6, fp, ip, lr, pc}
    2284:	e1a05180 	lsl	r5, r0, #3
    2288:	e24cb004 	sub	fp, ip, #4
    228c:	e1a04000 	mov	r4, r0
    2290:	e1a00005 	mov	r0, r5
    2294:	eb0005ea 	bl	3a44 <malloc>
    2298:	e1a02005 	mov	r2, r5
    229c:	e3a01000 	mov	r1, #0
    22a0:	e1a06000 	mov	r6, r0
    22a4:	eb001d44 	bl	97bc <memset>
    22a8:	e3a00000 	mov	r0, #0
    22ac:	e59f3014 	ldr	r3, [pc, #20]	; 22c8 <sd_set_buffer+0x4c>
    22b0:	e08f3003 	add	r3, pc, r3
    22b4:	e5834014 	str	r4, [r3, #20]
    22b8:	e5836010 	str	r6, [r3, #16]
    22bc:	e24bd01c 	sub	sp, fp, #28
    22c0:	e89d6878 	ldm	sp, {r3, r4, r5, r6, fp, sp, lr}
    22c4:	e12fff1e 	bx	lr
    22c8:	00023b90 	muleq	r2, r0, fp

000022cc <sd_quit>:
    22cc:	e1a0c00d 	mov	ip, sp
    22d0:	e92dd878 	push	{r3, r4, r5, r6, fp, ip, lr, pc}
    22d4:	e59f3058 	ldr	r3, [pc, #88]	; 2334 <sd_quit+0x68>
    22d8:	e08f3003 	add	r3, pc, r3
    22dc:	e5934014 	ldr	r4, [r3, #20]
    22e0:	e3540000 	cmp	r4, #0
    22e4:	e24cb004 	sub	fp, ip, #4
    22e8:	e5936010 	ldr	r6, [r3, #16]
    22ec:	0a000006 	beq	230c <sd_quit+0x40>
    22f0:	e0865184 	add	r5, r6, r4, lsl #3
    22f4:	e5150004 	ldr	r0, [r5, #-4]
    22f8:	e3500000 	cmp	r0, #0
    22fc:	1b0005d9 	blne	3a68 <free>
    2300:	e2544001 	subs	r4, r4, #1
    2304:	e2455008 	sub	r5, r5, #8
    2308:	1afffff9 	bne	22f4 <sd_quit+0x28>
    230c:	e1a00006 	mov	r0, r6
    2310:	eb0005d4 	bl	3a68 <free>
    2314:	e3a00000 	mov	r0, #0
    2318:	e59f3018 	ldr	r3, [pc, #24]	; 2338 <sd_quit+0x6c>
    231c:	e08f3003 	add	r3, pc, r3
    2320:	e5830010 	str	r0, [r3, #16]
    2324:	e5830014 	str	r0, [r3, #20]
    2328:	e24bd01c 	sub	sp, fp, #28
    232c:	e89d6878 	ldm	sp, {r3, r4, r5, r6, fp, sp, lr}
    2330:	e12fff1e 	bx	lr
    2334:	00023b68 	andeq	r3, r2, r8, ror #22
    2338:	00023b24 	andeq	r3, r2, r4, lsr #22

0000233c <sd_init>:
    233c:	e1a0c00d 	mov	ip, sp
    2340:	e92dd818 	push	{r3, r4, fp, ip, lr, pc}
    2344:	e3a03000 	mov	r3, #0
    2348:	e59f4060 	ldr	r4, [pc, #96]	; 23b0 <sd_init+0x74>
    234c:	e08f4004 	add	r4, pc, r4
    2350:	e24cb004 	sub	fp, ip, #4
    2354:	e1a01003 	mov	r1, r3
    2358:	e3a02010 	mov	r2, #16
    235c:	e1a00004 	mov	r0, r4
    2360:	e5843010 	str	r3, [r4, #16]
    2364:	e5843014 	str	r3, [r4, #20]
    2368:	eb001d13 	bl	97bc <memset>
    236c:	ebffff91 	bl	21b8 <read_partition>
    2370:	e3500000 	cmp	r0, #0
    2374:	1a000004 	bne	238c <sd_init+0x50>
    2378:	e1a01004 	mov	r1, r4
    237c:	e3a00001 	mov	r0, #1
    2380:	ebffffaa 	bl	2230 <partition_get>
    2384:	e3500000 	cmp	r0, #0
    2388:	0a000004 	beq	23a0 <sd_init+0x64>
    238c:	e59f0020 	ldr	r0, [pc, #32]	; 23b4 <sd_init+0x78>
    2390:	e3a01000 	mov	r1, #0
    2394:	e08f0000 	add	r0, pc, r0
    2398:	e3a02010 	mov	r2, #16
    239c:	eb001d06 	bl	97bc <memset>
    23a0:	e3a00000 	mov	r0, #0
    23a4:	e24bd014 	sub	sp, fp, #20
    23a8:	e89d6818 	ldm	sp, {r3, r4, fp, sp, lr}
    23ac:	e12fff1e 	bx	lr
    23b0:	00023af4 	strdeq	r3, [r2], -r4
    23b4:	00023aac 	andeq	r3, r2, ip, lsr #21

000023b8 <gpio_config>:
    23b8:	e1a0c00d 	mov	ip, sp
    23bc:	e92dd8f0 	push	{r4, r5, r6, r7, fp, ip, lr, pc}
    23c0:	e1a07001 	mov	r7, r1
    23c4:	e3a01000 	mov	r1, #0
    23c8:	e1a06002 	mov	r6, r2
    23cc:	e24cb004 	sub	fp, ip, #4
    23d0:	e24dd018 	sub	sp, sp, #24
    23d4:	e24b4034 	sub	r4, fp, #52	; 0x34
    23d8:	e1a02001 	mov	r2, r1
    23dc:	e1a05000 	mov	r5, r0
    23e0:	e1a00004 	mov	r0, r4
    23e4:	ebfffca9 	bl	1690 <proto_init>
    23e8:	e1a00004 	mov	r0, r4
    23ec:	e1a01007 	mov	r1, r7
    23f0:	ebfffd11 	bl	183c <proto_add_int>
    23f4:	e1a00004 	mov	r0, r4
    23f8:	e1a01006 	mov	r1, r6
    23fc:	ebfffd0e 	bl	183c <proto_add_int>
    2400:	e3a01000 	mov	r1, #0
    2404:	e1a02004 	mov	r2, r4
    2408:	e1a03001 	mov	r3, r1
    240c:	e1a00005 	mov	r0, r5
    2410:	eb00073a 	bl	4100 <fcntl_raw>
    2414:	e1a05000 	mov	r5, r0
    2418:	e1a00004 	mov	r0, r4
    241c:	ebfffd6f 	bl	19e0 <proto_clear>
    2420:	e1a00005 	mov	r0, r5
    2424:	e24bd01c 	sub	sp, fp, #28
    2428:	e89d68f0 	ldm	sp, {r4, r5, r6, r7, fp, sp, lr}
    242c:	e12fff1e 	bx	lr

00002430 <gpio_pull>:
    2430:	e1a0c00d 	mov	ip, sp
    2434:	e92dd8f0 	push	{r4, r5, r6, r7, fp, ip, lr, pc}
    2438:	e1a07001 	mov	r7, r1
    243c:	e3a01000 	mov	r1, #0
    2440:	e1a06002 	mov	r6, r2
    2444:	e1a05000 	mov	r5, r0
    2448:	e24cb004 	sub	fp, ip, #4
    244c:	e24dd018 	sub	sp, sp, #24
    2450:	e24b4034 	sub	r4, fp, #52	; 0x34
    2454:	e1a02001 	mov	r2, r1
    2458:	e1a00004 	mov	r0, r4
    245c:	ebfffc8b 	bl	1690 <proto_init>
    2460:	e1a00004 	mov	r0, r4
    2464:	e1a01007 	mov	r1, r7
    2468:	ebfffcf3 	bl	183c <proto_add_int>
    246c:	e1a00004 	mov	r0, r4
    2470:	e1a01006 	mov	r1, r6
    2474:	ebfffcf0 	bl	183c <proto_add_int>
    2478:	e1a02004 	mov	r2, r4
    247c:	e3a01001 	mov	r1, #1
    2480:	e3a03000 	mov	r3, #0
    2484:	e1a00005 	mov	r0, r5
    2488:	eb00071c 	bl	4100 <fcntl_raw>
    248c:	e1a05000 	mov	r5, r0
    2490:	e1a00004 	mov	r0, r4
    2494:	ebfffd51 	bl	19e0 <proto_clear>
    2498:	e1a00005 	mov	r0, r5
    249c:	e24bd01c 	sub	sp, fp, #28
    24a0:	e89d68f0 	ldm	sp, {r4, r5, r6, r7, fp, sp, lr}
    24a4:	e12fff1e 	bx	lr

000024a8 <gpio_write>:
    24a8:	e1a0c00d 	mov	ip, sp
    24ac:	e92dd8f0 	push	{r4, r5, r6, r7, fp, ip, lr, pc}
    24b0:	e1a07001 	mov	r7, r1
    24b4:	e3a01000 	mov	r1, #0
    24b8:	e1a06002 	mov	r6, r2
    24bc:	e1a05000 	mov	r5, r0
    24c0:	e24cb004 	sub	fp, ip, #4
    24c4:	e24dd018 	sub	sp, sp, #24
    24c8:	e24b4034 	sub	r4, fp, #52	; 0x34
    24cc:	e1a02001 	mov	r2, r1
    24d0:	e1a00004 	mov	r0, r4
    24d4:	ebfffc6d 	bl	1690 <proto_init>
    24d8:	e1a00004 	mov	r0, r4
    24dc:	e1a01007 	mov	r1, r7
    24e0:	ebfffcd5 	bl	183c <proto_add_int>
    24e4:	e1a00004 	mov	r0, r4
    24e8:	e1a01006 	mov	r1, r6
    24ec:	ebfffcd2 	bl	183c <proto_add_int>
    24f0:	e1a02004 	mov	r2, r4
    24f4:	e3a01002 	mov	r1, #2
    24f8:	e3a03000 	mov	r3, #0
    24fc:	e1a00005 	mov	r0, r5
    2500:	eb0006fe 	bl	4100 <fcntl_raw>
    2504:	e1a05000 	mov	r5, r0
    2508:	e1a00004 	mov	r0, r4
    250c:	ebfffd33 	bl	19e0 <proto_clear>
    2510:	e1a00005 	mov	r0, r5
    2514:	e24bd01c 	sub	sp, fp, #28
    2518:	e89d68f0 	ldm	sp, {r4, r5, r6, r7, fp, sp, lr}
    251c:	e12fff1e 	bx	lr

00002520 <gpio_read>:
    2520:	e1a0c00d 	mov	ip, sp
    2524:	e92dd8f0 	push	{r4, r5, r6, r7, fp, ip, lr, pc}
    2528:	e1a07001 	mov	r7, r1
    252c:	e3a01000 	mov	r1, #0
    2530:	e24cb004 	sub	fp, ip, #4
    2534:	e24dd030 	sub	sp, sp, #48	; 0x30
    2538:	e24b404c 	sub	r4, fp, #76	; 0x4c
    253c:	e1a06000 	mov	r6, r0
    2540:	e1a02001 	mov	r2, r1
    2544:	e1a00004 	mov	r0, r4
    2548:	ebfffc50 	bl	1690 <proto_init>
    254c:	e3a01000 	mov	r1, #0
    2550:	e24b5034 	sub	r5, fp, #52	; 0x34
    2554:	e1a02001 	mov	r2, r1
    2558:	e1a00005 	mov	r0, r5
    255c:	ebfffc4b 	bl	1690 <proto_init>
    2560:	e1a00004 	mov	r0, r4
    2564:	e1a01007 	mov	r1, r7
    2568:	ebfffcb3 	bl	183c <proto_add_int>
    256c:	e1a00006 	mov	r0, r6
    2570:	e1a02004 	mov	r2, r4
    2574:	e1a03005 	mov	r3, r5
    2578:	e3a01003 	mov	r1, #3
    257c:	eb0006df 	bl	4100 <fcntl_raw>
    2580:	e3500000 	cmp	r0, #0
    2584:	13a06000 	movne	r6, #0
    2588:	1a000002 	bne	2598 <gpio_read+0x78>
    258c:	e1a00005 	mov	r0, r5
    2590:	ebfffd06 	bl	19b0 <proto_read_int>
    2594:	e1a06000 	mov	r6, r0
    2598:	e1a00004 	mov	r0, r4
    259c:	ebfffd0f 	bl	19e0 <proto_clear>
    25a0:	e1a00005 	mov	r0, r5
    25a4:	ebfffd0d 	bl	19e0 <proto_clear>
    25a8:	e1a00006 	mov	r0, r6
    25ac:	e24bd01c 	sub	sp, fp, #28
    25b0:	e89d68f0 	ldm	sp, {r4, r5, r6, r7, fp, sp, lr}
    25b4:	e12fff1e 	bx	lr

000025b8 <set_global>:
    25b8:	e1a0c00d 	mov	ip, sp
    25bc:	e1a03000 	mov	r3, r0
    25c0:	e92dd800 	push	{fp, ip, lr, pc}
    25c4:	e1a02001 	mov	r2, r1
    25c8:	e24cb004 	sub	fp, ip, #4
    25cc:	e1a01003 	mov	r1, r3
    25d0:	e3a0003d 	mov	r0, #61	; 0x3d
    25d4:	ebfff709 	bl	200 <syscall2>
    25d8:	e24bd00c 	sub	sp, fp, #12
    25dc:	e89d6800 	ldm	sp, {fp, sp, lr}
    25e0:	e12fff1e 	bx	lr

000025e4 <get_global>:
    25e4:	e1a0c00d 	mov	ip, sp
    25e8:	e92dd818 	push	{r3, r4, fp, ip, lr, pc}
    25ec:	e59f4034 	ldr	r4, [pc, #52]	; 2628 <get_global+0x44>
    25f0:	e08f4004 	add	r4, pc, r4
    25f4:	e1a01000 	mov	r1, r0
    25f8:	e24cb004 	sub	fp, ip, #4
    25fc:	e1a02004 	mov	r2, r4
    2600:	e3a0003e 	mov	r0, #62	; 0x3e
    2604:	e59f3020 	ldr	r3, [pc, #32]	; 262c <get_global+0x48>
    2608:	ebfff6e6 	bl	1a8 <syscall3>
    260c:	e3500000 	cmp	r0, #0
    2610:	01a00004 	moveq	r0, r4
    2614:	159f0014 	ldrne	r0, [pc, #20]	; 2630 <get_global+0x4c>
    2618:	108f0000 	addne	r0, pc, r0
    261c:	e24bd014 	sub	sp, fp, #20
    2620:	e89d6818 	ldm	sp, {r3, r4, fp, sp, lr}
    2624:	e12fff1e 	bx	lr
    2628:	000238a8 	andeq	r3, r2, r8, lsr #17
    262c:	000003ff 	strdeq	r0, [r0], -pc	; <UNPREDICTABLE>
    2630:	000082c8 	andeq	r8, r0, r8, asr #5

00002634 <proc_lock_new>:
    2634:	e1a0c00d 	mov	ip, sp
    2638:	e3a00012 	mov	r0, #18
    263c:	e92dd800 	push	{fp, ip, lr, pc}
    2640:	e24cb004 	sub	fp, ip, #4
    2644:	ebfff718 	bl	2ac <syscall0>
    2648:	e24bd00c 	sub	sp, fp, #12
    264c:	e89d6800 	ldm	sp, {fp, sp, lr}
    2650:	e12fff1e 	bx	lr

00002654 <proc_lock_free>:
    2654:	e1a0c00d 	mov	ip, sp
    2658:	e1a01000 	mov	r1, r0
    265c:	e92dd800 	push	{fp, ip, lr, pc}
    2660:	e3a00015 	mov	r0, #21
    2664:	e24cb004 	sub	fp, ip, #4
    2668:	ebfff6fa 	bl	258 <syscall1>
    266c:	e24bd00c 	sub	sp, fp, #12
    2670:	e89d6800 	ldm	sp, {fp, sp, lr}
    2674:	e12fff1e 	bx	lr

00002678 <proc_lock>:
    2678:	e1a0c00d 	mov	ip, sp
    267c:	e92dd818 	push	{r3, r4, fp, ip, lr, pc}
    2680:	e1a04000 	mov	r4, r0
    2684:	e24cb004 	sub	fp, ip, #4
    2688:	e3a00013 	mov	r0, #19
    268c:	e1a01004 	mov	r1, r4
    2690:	ebfff6f0 	bl	258 <syscall1>
    2694:	e3500000 	cmp	r0, #0
    2698:	1afffffa 	bne	2688 <proc_lock+0x10>
    269c:	e24bd014 	sub	sp, fp, #20
    26a0:	e89d6818 	ldm	sp, {r3, r4, fp, sp, lr}
    26a4:	e12fff1e 	bx	lr

000026a8 <proc_unlock>:
    26a8:	e1a0c00d 	mov	ip, sp
    26ac:	e1a01000 	mov	r1, r0
    26b0:	e92dd800 	push	{fp, ip, lr, pc}
    26b4:	e3a00014 	mov	r0, #20
    26b8:	e24cb004 	sub	fp, ip, #4
    26bc:	ebfff6e5 	bl	258 <syscall1>
    26c0:	e24bd00c 	sub	sp, fp, #12
    26c4:	e89d6800 	ldm	sp, {fp, sp, lr}
    26c8:	e12fff1e 	bx	lr

000026cc <waitpid>:
    26cc:	e1a0c00d 	mov	ip, sp
    26d0:	e1a01000 	mov	r1, r0
    26d4:	e92dd800 	push	{fp, ip, lr, pc}
    26d8:	e3a0000d 	mov	r0, #13
    26dc:	e24cb004 	sub	fp, ip, #4
    26e0:	ebfff6dc 	bl	258 <syscall1>
    26e4:	e24bd00c 	sub	sp, fp, #12
    26e8:	e89d6800 	ldm	sp, {fp, sp, lr}
    26ec:	e12fff1e 	bx	lr

000026f0 <critical_enter>:
    26f0:	e1a0c00d 	mov	ip, sp
    26f4:	e3a00042 	mov	r0, #66	; 0x42
    26f8:	e92dd800 	push	{fp, ip, lr, pc}
    26fc:	e24cb004 	sub	fp, ip, #4
    2700:	ebfff6e9 	bl	2ac <syscall0>
    2704:	e24bd00c 	sub	sp, fp, #12
    2708:	e89d6800 	ldm	sp, {fp, sp, lr}
    270c:	e12fff1e 	bx	lr

00002710 <critical_quit>:
    2710:	e1a0c00d 	mov	ip, sp
    2714:	e3a00043 	mov	r0, #67	; 0x43
    2718:	e92dd800 	push	{fp, ip, lr, pc}
    271c:	e24cb004 	sub	fp, ip, #4
    2720:	ebfff6e1 	bl	2ac <syscall0>
    2724:	e24bd00c 	sub	sp, fp, #12
    2728:	e89d6800 	ldm	sp, {fp, sp, lr}
    272c:	e12fff1e 	bx	lr

00002730 <proc_interrupt_entry>:
    2730:	e1a0c00d 	mov	ip, sp
    2734:	e1a03001 	mov	r3, r1
    2738:	e92dd800 	push	{fp, ip, lr, pc}
    273c:	e1a01002 	mov	r1, r2
    2740:	e24cb004 	sub	fp, ip, #4
    2744:	e1a0e00f 	mov	lr, pc
    2748:	e12fff13 	bx	r3
    274c:	e3a00000 	mov	r0, #0
    2750:	eb0004de 	bl	3ad0 <exit>
    2754:	e24bd00c 	sub	sp, fp, #12
    2758:	e89d6800 	ldm	sp, {fp, sp, lr}
    275c:	e12fff1e 	bx	lr

00002760 <proc_interrupt_setup>:
    2760:	e1a0c00d 	mov	ip, sp
    2764:	e1a03001 	mov	r3, r1
    2768:	e59f1020 	ldr	r1, [pc, #32]	; 2790 <proc_interrupt_setup+0x30>
    276c:	e92dd800 	push	{fp, ip, lr, pc}
    2770:	e1a02000 	mov	r2, r0
    2774:	e24cb004 	sub	fp, ip, #4
    2778:	e08f1001 	add	r1, pc, r1
    277c:	e3a00044 	mov	r0, #68	; 0x44
    2780:	ebfff688 	bl	1a8 <syscall3>
    2784:	e24bd00c 	sub	sp, fp, #12
    2788:	e89d6800 	ldm	sp, {fp, sp, lr}
    278c:	e12fff1e 	bx	lr
    2790:	ffffffb0 			; <UNDEFINED> instruction: 0xffffffb0

00002794 <proc_interrupt_register>:
    2794:	e1a0c00d 	mov	ip, sp
    2798:	e1a01000 	mov	r1, r0
    279c:	e92dd800 	push	{fp, ip, lr, pc}
    27a0:	e3a00045 	mov	r0, #69	; 0x45
    27a4:	e24cb004 	sub	fp, ip, #4
    27a8:	ebfff6aa 	bl	258 <syscall1>
    27ac:	e24bd00c 	sub	sp, fp, #12
    27b0:	e89d6800 	ldm	sp, {fp, sp, lr}
    27b4:	e12fff1e 	bx	lr

000027b8 <proc_interrupt>:
    27b8:	e1a0c00d 	mov	ip, sp
    27bc:	e1a03000 	mov	r3, r0
    27c0:	e92dd800 	push	{fp, ip, lr, pc}
    27c4:	e1a02001 	mov	r2, r1
    27c8:	e24cb004 	sub	fp, ip, #4
    27cc:	e1a01003 	mov	r1, r3
    27d0:	e3a00046 	mov	r0, #70	; 0x46
    27d4:	ebfff689 	bl	200 <syscall2>
    27d8:	e24bd00c 	sub	sp, fp, #12
    27dc:	e89d6800 	ldm	sp, {fp, sp, lr}
    27e0:	e12fff1e 	bx	lr

000027e4 <mmio_map>:
    27e4:	e1a0c00d 	mov	ip, sp
    27e8:	e3a00040 	mov	r0, #64	; 0x40
    27ec:	e92dd800 	push	{fp, ip, lr, pc}
    27f0:	e24cb004 	sub	fp, ip, #4
    27f4:	ebfff6ac 	bl	2ac <syscall0>
    27f8:	e24bd00c 	sub	sp, fp, #12
    27fc:	e89d6800 	ldm	sp, {fp, sp, lr}
    2800:	e12fff1e 	bx	lr

00002804 <sconf_parse>:
    2804:	e1a0c00d 	mov	ip, sp
    2808:	e92ddff0 	push	{r4, r5, r6, r7, r8, r9, sl, fp, ip, lr, pc}
    280c:	e24cb004 	sub	fp, ip, #4
    2810:	e24dd00c 	sub	sp, sp, #12
    2814:	e2504000 	subs	r4, r0, #0
    2818:	0a0000a6 	beq	2ab8 <sconf_parse+0x2b4>
    281c:	e5d43000 	ldrb	r3, [r4]
    2820:	e3530000 	cmp	r3, #0
    2824:	0a0000a3 	beq	2ab8 <sconf_parse+0x2b4>
    2828:	e3a00c01 	mov	r0, #256	; 0x100
    282c:	eb000484 	bl	3a44 <malloc>
    2830:	e2505000 	subs	r5, r0, #0
    2834:	0a00009f 	beq	2ab8 <sconf_parse+0x2b4>
    2838:	e59f62d8 	ldr	r6, [pc, #728]	; 2b18 <sconf_parse+0x314>
    283c:	e3a01000 	mov	r1, #0
    2840:	e08f6006 	add	r6, pc, r6
    2844:	e3a02c01 	mov	r2, #256	; 0x100
    2848:	eb001bdb 	bl	97bc <memset>
    284c:	e1a00006 	mov	r0, r6
    2850:	eb00167c 	bl	8248 <str_new>
    2854:	e5850000 	str	r0, [r5]
    2858:	e1a00006 	mov	r0, r6
    285c:	eb001679 	bl	8248 <str_new>
    2860:	e3a07000 	mov	r7, #0
    2864:	e59f32b0 	ldr	r3, [pc, #688]	; 2b1c <sconf_parse+0x318>
    2868:	e08f3003 	add	r3, pc, r3
    286c:	e50b3034 	str	r3, [fp, #-52]	; 0x34
    2870:	e59f32a8 	ldr	r3, [pc, #680]	; 2b20 <sconf_parse+0x31c>
    2874:	e08f3003 	add	r3, pc, r3
    2878:	e1a08007 	mov	r8, r7
    287c:	e1a06007 	mov	r6, r7
    2880:	e1a09007 	mov	r9, r7
    2884:	e1a0a005 	mov	sl, r5
    2888:	e5850004 	str	r0, [r5, #4]
    288c:	e50b3030 	str	r3, [fp, #-48]	; 0x30
    2890:	ea00000c 	b	28c8 <sconf_parse+0xc4>
    2894:	e351003d 	cmp	r1, #61	; 0x3d
    2898:	0a000067 	beq	2a3c <sconf_parse+0x238>
    289c:	e2410009 	sub	r0, r1, #9
    28a0:	e3510020 	cmp	r1, #32
    28a4:	13500001 	cmpne	r0, #1
    28a8:	9a000004 	bls	28c0 <sconf_parse+0xbc>
    28ac:	e351000d 	cmp	r1, #13
    28b0:	0a000002 	beq	28c0 <sconf_parse+0xbc>
    28b4:	e59a0000 	ldr	r0, [sl]
    28b8:	e2866001 	add	r6, r6, #1
    28bc:	eb0016ad 	bl	8378 <str_addc>
    28c0:	e358001f 	cmp	r8, #31
    28c4:	ca000017 	bgt	2928 <sconf_parse+0x124>
    28c8:	e4d41001 	ldrb	r1, [r4], #1
    28cc:	e3510000 	cmp	r1, #0
    28d0:	0a000014 	beq	2928 <sconf_parse+0x124>
    28d4:	e3560000 	cmp	r6, #0
    28d8:	1a000005 	bne	28f4 <sconf_parse+0xf0>
    28dc:	e2410009 	sub	r0, r1, #9
    28e0:	e3510020 	cmp	r1, #32
    28e4:	13500001 	cmpne	r0, #1
    28e8:	9afffff4 	bls	28c0 <sconf_parse+0xbc>
    28ec:	e351000d 	cmp	r1, #13
    28f0:	0afffff2 	beq	28c0 <sconf_parse+0xbc>
    28f4:	e3510023 	cmp	r1, #35	; 0x23
    28f8:	0a00000e 	beq	2938 <sconf_parse+0x134>
    28fc:	e3570000 	cmp	r7, #0
    2900:	0affffe3 	beq	2894 <sconf_parse+0x90>
    2904:	e3570001 	cmp	r7, #1
    2908:	0a00002a 	beq	29b8 <sconf_parse+0x1b4>
    290c:	e351000a 	cmp	r1, #10
    2910:	03a07000 	moveq	r7, #0
    2914:	01a06007 	moveq	r6, r7
    2918:	0affffe8 	beq	28c0 <sconf_parse+0xbc>
    291c:	e358001f 	cmp	r8, #31
    2920:	e3a07002 	mov	r7, #2
    2924:	daffffe7 	ble	28c8 <sconf_parse+0xc4>
    2928:	e1a00005 	mov	r0, r5
    292c:	e24bd028 	sub	sp, fp, #40	; 0x28
    2930:	e89d6ff0 	ldm	sp, {r4, r5, r6, r7, r8, r9, sl, fp, sp, lr}
    2934:	e12fff1e 	bx	lr
    2938:	e3570001 	cmp	r7, #1
    293c:	1afffff6 	bne	291c <sconf_parse+0x118>
    2940:	e59a0004 	ldr	r0, [sl, #4]
    2944:	e5901000 	ldr	r1, [r0]
    2948:	e3510000 	cmp	r1, #0
    294c:	0a00000b 	beq	2980 <sconf_parse+0x17c>
    2950:	e1d030b6 	ldrh	r3, [r0, #6]
    2954:	e3530000 	cmp	r3, #0
    2958:	0a000008 	beq	2980 <sconf_parse+0x17c>
    295c:	e2433001 	sub	r3, r3, #1
    2960:	e7d1c003 	ldrb	ip, [r1, r3]
    2964:	e24ce009 	sub	lr, ip, #9
    2968:	e35c0020 	cmp	ip, #32
    296c:	135e0001 	cmpne	lr, #1
    2970:	9a000054 	bls	2ac8 <sconf_parse+0x2c4>
    2974:	e35c000d 	cmp	ip, #13
    2978:	0a000052 	beq	2ac8 <sconf_parse+0x2c4>
    297c:	e59a0004 	ldr	r0, [sl, #4]
    2980:	e3a01000 	mov	r1, #0
    2984:	eb00167b 	bl	8378 <str_addc>
    2988:	e51b7030 	ldr	r7, [fp, #-48]	; 0x30
    298c:	e1a00007 	mov	r0, r7
    2990:	eb00162c 	bl	8248 <str_new>
    2994:	e085a188 	add	sl, r5, r8, lsl #3
    2998:	e58a0008 	str	r0, [sl, #8]
    299c:	e1a00007 	mov	r0, r7
    29a0:	eb001628 	bl	8248 <str_new>
    29a4:	e2888001 	add	r8, r8, #1
    29a8:	e58a000c 	str	r0, [sl, #12]
    29ac:	e3a07002 	mov	r7, #2
    29b0:	e085a188 	add	sl, r5, r8, lsl #3
    29b4:	eaffffc1 	b	28c0 <sconf_parse+0xbc>
    29b8:	e351000a 	cmp	r1, #10
    29bc:	e59a0004 	ldr	r0, [sl, #4]
    29c0:	1affffbc 	bne	28b8 <sconf_parse+0xb4>
    29c4:	e5902000 	ldr	r2, [r0]
    29c8:	e3520000 	cmp	r2, #0
    29cc:	0a00000b 	beq	2a00 <sconf_parse+0x1fc>
    29d0:	e1d030b6 	ldrh	r3, [r0, #6]
    29d4:	e3530000 	cmp	r3, #0
    29d8:	0a000008 	beq	2a00 <sconf_parse+0x1fc>
    29dc:	e2433001 	sub	r3, r3, #1
    29e0:	e7d21003 	ldrb	r1, [r2, r3]
    29e4:	e241c009 	sub	ip, r1, #9
    29e8:	e3510020 	cmp	r1, #32
    29ec:	135c0001 	cmpne	ip, #1
    29f0:	9a00003e 	bls	2af0 <sconf_parse+0x2ec>
    29f4:	e351000d 	cmp	r1, #13
    29f8:	0a00003c 	beq	2af0 <sconf_parse+0x2ec>
    29fc:	e59a0004 	ldr	r0, [sl, #4]
    2a00:	e3a01000 	mov	r1, #0
    2a04:	eb00165b 	bl	8378 <str_addc>
    2a08:	e51b6034 	ldr	r6, [fp, #-52]	; 0x34
    2a0c:	e1a00006 	mov	r0, r6
    2a10:	eb00160c 	bl	8248 <str_new>
    2a14:	e085a188 	add	sl, r5, r8, lsl #3
    2a18:	e58a0008 	str	r0, [sl, #8]
    2a1c:	e1a00006 	mov	r0, r6
    2a20:	eb001608 	bl	8248 <str_new>
    2a24:	e3a07000 	mov	r7, #0
    2a28:	e2888001 	add	r8, r8, #1
    2a2c:	e58a000c 	str	r0, [sl, #12]
    2a30:	e1a06007 	mov	r6, r7
    2a34:	e085a188 	add	sl, r5, r8, lsl #3
    2a38:	eaffffa0 	b	28c0 <sconf_parse+0xbc>
    2a3c:	e59a0000 	ldr	r0, [sl]
    2a40:	e5902000 	ldr	r2, [r0]
    2a44:	e3520000 	cmp	r2, #0
    2a48:	0a00000b 	beq	2a7c <sconf_parse+0x278>
    2a4c:	e1d030b6 	ldrh	r3, [r0, #6]
    2a50:	e3530000 	cmp	r3, #0
    2a54:	0a000008 	beq	2a7c <sconf_parse+0x278>
    2a58:	e2433001 	sub	r3, r3, #1
    2a5c:	e7d21003 	ldrb	r1, [r2, r3]
    2a60:	e241c009 	sub	ip, r1, #9
    2a64:	e3510020 	cmp	r1, #32
    2a68:	135c0001 	cmpne	ip, #1
    2a6c:	9a000007 	bls	2a90 <sconf_parse+0x28c>
    2a70:	e351000d 	cmp	r1, #13
    2a74:	0a000005 	beq	2a90 <sconf_parse+0x28c>
    2a78:	e59a0000 	ldr	r0, [sl]
    2a7c:	e3a01000 	mov	r1, #0
    2a80:	eb00163c 	bl	8378 <str_addc>
    2a84:	e3a07001 	mov	r7, #1
    2a88:	e3a06000 	mov	r6, #0
    2a8c:	eaffff8b 	b	28c0 <sconf_parse+0xbc>
    2a90:	e5901000 	ldr	r1, [r0]
    2a94:	e7c19003 	strb	r9, [r1, r3]
    2a98:	e1d030b6 	ldrh	r3, [r0, #6]
    2a9c:	e2433001 	sub	r3, r3, #1
    2aa0:	e1a03803 	lsl	r3, r3, #16
    2aa4:	e1a03823 	lsr	r3, r3, #16
    2aa8:	e3530000 	cmp	r3, #0
    2aac:	e1c030b6 	strh	r3, [r0, #6]
    2ab0:	1affffe8 	bne	2a58 <sconf_parse+0x254>
    2ab4:	eaffffef 	b	2a78 <sconf_parse+0x274>
    2ab8:	e3a00000 	mov	r0, #0
    2abc:	e24bd028 	sub	sp, fp, #40	; 0x28
    2ac0:	e89d6ff0 	ldm	sp, {r4, r5, r6, r7, r8, r9, sl, fp, sp, lr}
    2ac4:	e12fff1e 	bx	lr
    2ac8:	e590c000 	ldr	ip, [r0]
    2acc:	e7cc9003 	strb	r9, [ip, r3]
    2ad0:	e1d030b6 	ldrh	r3, [r0, #6]
    2ad4:	e2433001 	sub	r3, r3, #1
    2ad8:	e1a03803 	lsl	r3, r3, #16
    2adc:	e1a03823 	lsr	r3, r3, #16
    2ae0:	e3530000 	cmp	r3, #0
    2ae4:	e1c030b6 	strh	r3, [r0, #6]
    2ae8:	1affff9b 	bne	295c <sconf_parse+0x158>
    2aec:	eaffffa2 	b	297c <sconf_parse+0x178>
    2af0:	e5901000 	ldr	r1, [r0]
    2af4:	e7c19003 	strb	r9, [r1, r3]
    2af8:	e1d030b6 	ldrh	r3, [r0, #6]
    2afc:	e2433001 	sub	r3, r3, #1
    2b00:	e1a03803 	lsl	r3, r3, #16
    2b04:	e1a03823 	lsr	r3, r3, #16
    2b08:	e3530000 	cmp	r3, #0
    2b0c:	e1c030b6 	strh	r3, [r0, #6]
    2b10:	1affffb1 	bne	29dc <sconf_parse+0x1d8>
    2b14:	eaffffb8 	b	29fc <sconf_parse+0x1f8>
    2b18:	000080a0 	andeq	r8, r0, r0, lsr #1
    2b1c:	00008078 	andeq	r8, r0, r8, ror r0
    2b20:	0000806c 	andeq	r8, r0, ip, rrx

00002b24 <sconf_free>:
    2b24:	e1a0c00d 	mov	ip, sp
    2b28:	e92dd878 	push	{r3, r4, r5, r6, fp, ip, lr, pc}
    2b2c:	e2506000 	subs	r6, r0, #0
    2b30:	e24cb004 	sub	fp, ip, #4
    2b34:	0a00000d 	beq	2b70 <sconf_free+0x4c>
    2b38:	e1a04006 	mov	r4, r6
    2b3c:	e2865c01 	add	r5, r6, #256	; 0x100
    2b40:	ea000005 	b	2b5c <sconf_free+0x38>
    2b44:	eb00162c 	bl	83fc <str_free>
    2b48:	e2844008 	add	r4, r4, #8
    2b4c:	e5140004 	ldr	r0, [r4, #-4]
    2b50:	eb001629 	bl	83fc <str_free>
    2b54:	e1540005 	cmp	r4, r5
    2b58:	0a000002 	beq	2b68 <sconf_free+0x44>
    2b5c:	e5940000 	ldr	r0, [r4]
    2b60:	e3500000 	cmp	r0, #0
    2b64:	1afffff6 	bne	2b44 <sconf_free+0x20>
    2b68:	e1a00006 	mov	r0, r6
    2b6c:	eb0003bd 	bl	3a68 <free>
    2b70:	e24bd01c 	sub	sp, fp, #28
    2b74:	e89d6878 	ldm	sp, {r3, r4, r5, r6, fp, sp, lr}
    2b78:	e12fff1e 	bx	lr

00002b7c <sconf_get_at>:
    2b7c:	e351001f 	cmp	r1, #31
    2b80:	d0800181 	addle	r0, r0, r1, lsl #3
    2b84:	c3a00000 	movgt	r0, #0
    2b88:	e12fff1e 	bx	lr

00002b8c <sconf_get>:
    2b8c:	e1a0c00d 	mov	ip, sp
    2b90:	e3500000 	cmp	r0, #0
    2b94:	13510000 	cmpne	r1, #0
    2b98:	e92dd878 	push	{r3, r4, r5, r6, fp, ip, lr, pc}
    2b9c:	e24cb004 	sub	fp, ip, #4
    2ba0:	03a04001 	moveq	r4, #1
    2ba4:	13a04000 	movne	r4, #0
    2ba8:	e1a06001 	mov	r6, r1
    2bac:	e1a05000 	mov	r5, r0
    2bb0:	1a000003 	bne	2bc4 <sconf_get+0x38>
    2bb4:	ea000014 	b	2c0c <sconf_get+0x80>
    2bb8:	e2844001 	add	r4, r4, #1
    2bbc:	e3540020 	cmp	r4, #32
    2bc0:	0a000016 	beq	2c20 <sconf_get+0x94>
    2bc4:	e7953184 	ldr	r3, [r5, r4, lsl #3]
    2bc8:	e3530000 	cmp	r3, #0
    2bcc:	0afffff9 	beq	2bb8 <sconf_get+0x2c>
    2bd0:	e5930000 	ldr	r0, [r3]
    2bd4:	e3500000 	cmp	r0, #0
    2bd8:	0afffff6 	beq	2bb8 <sconf_get+0x2c>
    2bdc:	e1a01006 	mov	r1, r6
    2be0:	eb001b32 	bl	98b0 <strcmp>
    2be4:	e3500000 	cmp	r0, #0
    2be8:	1afffff2 	bne	2bb8 <sconf_get+0x2c>
    2bec:	e0854184 	add	r4, r5, r4, lsl #3
    2bf0:	e5943004 	ldr	r3, [r4, #4]
    2bf4:	e5930000 	ldr	r0, [r3]
    2bf8:	e3500000 	cmp	r0, #0
    2bfc:	0a00000c 	beq	2c34 <sconf_get+0xa8>
    2c00:	e24bd01c 	sub	sp, fp, #28
    2c04:	e89d6878 	ldm	sp, {r3, r4, r5, r6, fp, sp, lr}
    2c08:	e12fff1e 	bx	lr
    2c0c:	e59f002c 	ldr	r0, [pc, #44]	; 2c40 <sconf_get+0xb4>
    2c10:	e08f0000 	add	r0, pc, r0
    2c14:	e24bd01c 	sub	sp, fp, #28
    2c18:	e89d6878 	ldm	sp, {r3, r4, r5, r6, fp, sp, lr}
    2c1c:	e12fff1e 	bx	lr
    2c20:	e59f001c 	ldr	r0, [pc, #28]	; 2c44 <sconf_get+0xb8>
    2c24:	e08f0000 	add	r0, pc, r0
    2c28:	e24bd01c 	sub	sp, fp, #28
    2c2c:	e89d6878 	ldm	sp, {r3, r4, r5, r6, fp, sp, lr}
    2c30:	e12fff1e 	bx	lr
    2c34:	e59f000c 	ldr	r0, [pc, #12]	; 2c48 <sconf_get+0xbc>
    2c38:	e08f0000 	add	r0, pc, r0
    2c3c:	eaffffef 	b	2c00 <sconf_get+0x74>
    2c40:	00007cd0 	ldrdeq	r7, [r0], -r0
    2c44:	00007cbc 			; <UNDEFINED> instruction: 0x00007cbc
    2c48:	00007ca8 	andeq	r7, r0, r8, lsr #25

00002c4c <sconf_load>:
    2c4c:	e1a0c00d 	mov	ip, sp
    2c50:	e92dd830 	push	{r4, r5, fp, ip, lr, pc}
    2c54:	e24cb004 	sub	fp, ip, #4
    2c58:	e24dd008 	sub	sp, sp, #8
    2c5c:	e24b1018 	sub	r1, fp, #24
    2c60:	ebfff6b8 	bl	748 <vfs_readfile>
    2c64:	e2505000 	subs	r5, r0, #0
    2c68:	0a00000b 	beq	2c9c <sconf_load+0x50>
    2c6c:	e51b3018 	ldr	r3, [fp, #-24]
    2c70:	e3530000 	cmp	r3, #0
    2c74:	01a00003 	moveq	r0, r3
    2c78:	0a000004 	beq	2c90 <sconf_load+0x44>
    2c7c:	ebfffee0 	bl	2804 <sconf_parse>
    2c80:	e1a04000 	mov	r4, r0
    2c84:	e1a00005 	mov	r0, r5
    2c88:	eb000376 	bl	3a68 <free>
    2c8c:	e1a00004 	mov	r0, r4
    2c90:	e24bd014 	sub	sp, fp, #20
    2c94:	e89d6830 	ldm	sp, {r4, r5, fp, sp, lr}
    2c98:	e12fff1e 	bx	lr
    2c9c:	e1a00005 	mov	r0, r5
    2ca0:	eafffffa 	b	2c90 <sconf_load+0x44>

00002ca4 <read_raw>:
    2ca4:	e1a0c00d 	mov	ip, sp
    2ca8:	e92ddff0 	push	{r4, r5, r6, r7, r8, r9, sl, fp, ip, lr, pc}
    2cac:	e1a05001 	mov	r5, r1
    2cb0:	e24cb004 	sub	fp, ip, #4
    2cb4:	e24ddf93 	sub	sp, sp, #588	; 0x24c
    2cb8:	e1a09000 	mov	r9, r0
    2cbc:	e24b1f8d 	sub	r1, fp, #564	; 0x234
    2cc0:	e1a00005 	mov	r0, r5
    2cc4:	e1a08003 	mov	r8, r3
    2cc8:	e50b226c 	str	r2, [fp, #-620]	; 0x26c
    2ccc:	ebfff673 	bl	6a0 <vfs_get_mount>
    2cd0:	e59f3198 	ldr	r3, [pc, #408]	; 2e70 <read_raw+0x1cc>
    2cd4:	e2507000 	subs	r7, r0, #0
    2cd8:	e08f3003 	add	r3, pc, r3
    2cdc:	e50b3270 	str	r3, [fp, #-624]	; 0x270
    2ce0:	1a000040 	bne	2de8 <read_raw+0x144>
    2ce4:	e3a00029 	mov	r0, #41	; 0x29
    2ce8:	e1a01009 	mov	r1, r9
    2cec:	ebfff559 	bl	258 <syscall1>
    2cf0:	e358001f 	cmp	r8, #31
    2cf4:	e1c03fc0 	bic	r3, r0, r0, asr #31
    2cf8:	e50b3268 	str	r3, [fp, #-616]	; 0x268
    2cfc:	8a000031 	bhi	2dc8 <read_raw+0x124>
    2d00:	e3e0a000 	mvn	sl, #0
    2d04:	e3a01000 	mov	r1, #0
    2d08:	e24b4f99 	sub	r4, fp, #612	; 0x264
    2d0c:	e1a02001 	mov	r2, r1
    2d10:	e1a00004 	mov	r0, r4
    2d14:	ebfffa5d 	bl	1690 <proto_init>
    2d18:	e3a01000 	mov	r1, #0
    2d1c:	e24b6f93 	sub	r6, fp, #588	; 0x24c
    2d20:	e1a02001 	mov	r2, r1
    2d24:	e1a00006 	mov	r0, r6
    2d28:	ebfffa58 	bl	1690 <proto_init>
    2d2c:	e1a00004 	mov	r0, r4
    2d30:	e3a01006 	mov	r1, #6
    2d34:	ebfffac0 	bl	183c <proto_add_int>
    2d38:	e1a00004 	mov	r0, r4
    2d3c:	e1a01009 	mov	r1, r9
    2d40:	ebfffabd 	bl	183c <proto_add_int>
    2d44:	e3a02058 	mov	r2, #88	; 0x58
    2d48:	e1a01005 	mov	r1, r5
    2d4c:	e1a00004 	mov	r0, r4
    2d50:	ebfffa84 	bl	1768 <proto_add>
    2d54:	e1a00004 	mov	r0, r4
    2d58:	e1a01008 	mov	r1, r8
    2d5c:	ebfffab6 	bl	183c <proto_add_int>
    2d60:	e1a00004 	mov	r0, r4
    2d64:	e51b1268 	ldr	r1, [fp, #-616]	; 0x268
    2d68:	ebfffab3 	bl	183c <proto_add_int>
    2d6c:	e1a00004 	mov	r0, r4
    2d70:	e1a0100a 	mov	r1, sl
    2d74:	ebfffab0 	bl	183c <proto_add_int>
    2d78:	e1a01004 	mov	r1, r4
    2d7c:	e1a02006 	mov	r2, r6
    2d80:	e51b0234 	ldr	r0, [fp, #-564]	; 0x234
    2d84:	ebfff792 	bl	bd4 <ipc_call>
    2d88:	e3500000 	cmp	r0, #0
    2d8c:	13e05000 	mvnne	r5, #0
    2d90:	0a000018 	beq	2df8 <read_raw+0x154>
    2d94:	e1a00004 	mov	r0, r4
    2d98:	ebfffb10 	bl	19e0 <proto_clear>
    2d9c:	e1a00006 	mov	r0, r6
    2da0:	ebfffb0e 	bl	19e0 <proto_clear>
    2da4:	e3570000 	cmp	r7, #0
    2da8:	01a00005 	moveq	r0, r5
    2dac:	0a000002 	beq	2dbc <read_raw+0x118>
    2db0:	e1a0000a 	mov	r0, sl
    2db4:	ebfffc71 	bl	1f80 <shm_unmap>
    2db8:	e1a00005 	mov	r0, r5
    2dbc:	e24bd028 	sub	sp, fp, #40	; 0x28
    2dc0:	e89d6ff0 	ldm	sp, {r4, r5, r6, r7, r8, r9, sl, fp, sp, lr}
    2dc4:	e12fff1e 	bx	lr
    2dc8:	e1a00008 	mov	r0, r8
    2dcc:	e3a01001 	mov	r1, #1
    2dd0:	ebfffc56 	bl	1f30 <shm_alloc>
    2dd4:	e250a000 	subs	sl, r0, #0
    2dd8:	ba000002 	blt	2de8 <read_raw+0x144>
    2ddc:	ebfffc5e 	bl	1f5c <shm_map>
    2de0:	e2507000 	subs	r7, r0, #0
    2de4:	1affffc6 	bne	2d04 <read_raw+0x60>
    2de8:	e3e00000 	mvn	r0, #0
    2dec:	e24bd028 	sub	sp, fp, #40	; 0x28
    2df0:	e89d6ff0 	ldm	sp, {r4, r5, r6, r7, r8, r9, sl, fp, sp, lr}
    2df4:	e12fff1e 	bx	lr
    2df8:	e1a00006 	mov	r0, r6
    2dfc:	ebfffaeb 	bl	19b0 <proto_read_int>
    2e00:	e2505000 	subs	r5, r0, #0
    2e04:	da00000b 	ble	2e38 <read_raw+0x194>
    2e08:	e3570000 	cmp	r7, #0
    2e0c:	0a000012 	beq	2e5c <read_raw+0x1b8>
    2e10:	e51b026c 	ldr	r0, [fp, #-620]	; 0x26c
    2e14:	e1a01007 	mov	r1, r7
    2e18:	e1a02005 	mov	r2, r5
    2e1c:	eb001a2a 	bl	96cc <memcpy>
    2e20:	e51b3268 	ldr	r3, [fp, #-616]	; 0x268
    2e24:	e1a01009 	mov	r1, r9
    2e28:	e0852003 	add	r2, r5, r3
    2e2c:	e3a00028 	mov	r0, #40	; 0x28
    2e30:	ebfff4f2 	bl	200 <syscall2>
    2e34:	eaffffd6 	b	2d94 <read_raw+0xf0>
    2e38:	e3750002 	cmn	r5, #2
    2e3c:	1affffd4 	bne	2d94 <read_raw+0xf0>
    2e40:	e3a02001 	mov	r2, #1
    2e44:	e59f3028 	ldr	r3, [pc, #40]	; 2e74 <read_raw+0x1d0>
    2e48:	e51b1270 	ldr	r1, [fp, #-624]	; 0x270
    2e4c:	e7913003 	ldr	r3, [r1, r3]
    2e50:	e3e05000 	mvn	r5, #0
    2e54:	e5832000 	str	r2, [r3]
    2e58:	eaffffcd 	b	2d94 <read_raw+0xf0>
    2e5c:	e51b126c 	ldr	r1, [fp, #-620]	; 0x26c
    2e60:	e1a02008 	mov	r2, r8
    2e64:	e1a00006 	mov	r0, r6
    2e68:	ebfffab2 	bl	1938 <proto_read_to>
    2e6c:	eaffffeb 	b	2e20 <read_raw+0x17c>
    2e70:	000114d8 	ldrdeq	r1, [r1], -r8
    2e74:	0000000c 	andeq	r0, r0, ip

00002e78 <getpid>:
    2e78:	e1a0c00d 	mov	ip, sp
    2e7c:	e3a0000a 	mov	r0, #10
    2e80:	e92dd800 	push	{fp, ip, lr, pc}
    2e84:	e24cb004 	sub	fp, ip, #4
    2e88:	ebfff507 	bl	2ac <syscall0>
    2e8c:	e24bd00c 	sub	sp, fp, #12
    2e90:	e89d6800 	ldm	sp, {fp, sp, lr}
    2e94:	e12fff1e 	bx	lr

00002e98 <fork>:
    2e98:	e1a0c00d 	mov	ip, sp
    2e9c:	e3a0000b 	mov	r0, #11
    2ea0:	e92dd800 	push	{fp, ip, lr, pc}
    2ea4:	e24cb004 	sub	fp, ip, #4
    2ea8:	ebfff4ff 	bl	2ac <syscall0>
    2eac:	e24bd00c 	sub	sp, fp, #12
    2eb0:	e89d6800 	ldm	sp, {fp, sp, lr}
    2eb4:	e12fff1e 	bx	lr

00002eb8 <detach>:
    2eb8:	e1a0c00d 	mov	ip, sp
    2ebc:	e3a00011 	mov	r0, #17
    2ec0:	e92dd800 	push	{fp, ip, lr, pc}
    2ec4:	e24cb004 	sub	fp, ip, #4
    2ec8:	ebfff4f7 	bl	2ac <syscall0>
    2ecc:	e24bd00c 	sub	sp, fp, #12
    2ed0:	e89d6800 	ldm	sp, {fp, sp, lr}
    2ed4:	e12fff1e 	bx	lr

00002ed8 <usleep>:
    2ed8:	e1a0c00d 	mov	ip, sp
    2edc:	e2501000 	subs	r1, r0, #0
    2ee0:	e92dd800 	push	{fp, ip, lr, pc}
    2ee4:	e24cb004 	sub	fp, ip, #4
    2ee8:	0a000005 	beq	2f04 <usleep+0x2c>
    2eec:	e3a0000e 	mov	r0, #14
    2ef0:	ebfff4d8 	bl	258 <syscall1>
    2ef4:	e3a00000 	mov	r0, #0
    2ef8:	e24bd00c 	sub	sp, fp, #12
    2efc:	e89d6800 	ldm	sp, {fp, sp, lr}
    2f00:	e12fff1e 	bx	lr
    2f04:	e3a0000c 	mov	r0, #12
    2f08:	ebfff4e7 	bl	2ac <syscall0>
    2f0c:	e3a00000 	mov	r0, #0
    2f10:	e24bd00c 	sub	sp, fp, #12
    2f14:	e89d6800 	ldm	sp, {fp, sp, lr}
    2f18:	e12fff1e 	bx	lr

00002f1c <sleep>:
    2f1c:	e1a0c00d 	mov	ip, sp
    2f20:	e0603280 	rsb	r3, r0, r0, lsl #5
    2f24:	e0633303 	rsb	r3, r3, r3, lsl #6
    2f28:	e0800183 	add	r0, r0, r3, lsl #3
    2f2c:	e92dd800 	push	{fp, ip, lr, pc}
    2f30:	e1a00300 	lsl	r0, r0, #6
    2f34:	e24cb004 	sub	fp, ip, #4
    2f38:	ebffffe6 	bl	2ed8 <usleep>
    2f3c:	e3a00000 	mov	r0, #0
    2f40:	e24bd00c 	sub	sp, fp, #12
    2f44:	e89d6800 	ldm	sp, {fp, sp, lr}
    2f48:	e12fff1e 	bx	lr

00002f4c <read_nblock>:
    2f4c:	e1a0c00d 	mov	ip, sp
    2f50:	e92dd9f0 	push	{r4, r5, r6, r7, r8, fp, ip, lr, pc}
    2f54:	e24cb004 	sub	fp, ip, #4
    2f58:	e24dd064 	sub	sp, sp, #100	; 0x64
    2f5c:	e3a0e000 	mov	lr, #0
    2f60:	e59fc098 	ldr	ip, [pc, #152]	; 3000 <read_nblock+0xb4>
    2f64:	e59f3098 	ldr	r3, [pc, #152]	; 3004 <read_nblock+0xb8>
    2f68:	e08fc00c 	add	ip, pc, ip
    2f6c:	e79c5003 	ldr	r5, [ip, r3]
    2f70:	e24b407c 	sub	r4, fp, #124	; 0x7c
    2f74:	e1a07001 	mov	r7, r1
    2f78:	e1a01004 	mov	r1, r4
    2f7c:	e1a06002 	mov	r6, r2
    2f80:	e585e000 	str	lr, [r5]
    2f84:	e1a08000 	mov	r8, r0
    2f88:	ebfff5e3 	bl	71c <vfs_get_by_fd>
    2f8c:	e2503000 	subs	r3, r0, #0
    2f90:	1a000018 	bne	2ff8 <read_nblock+0xac>
    2f94:	e51b2038 	ldr	r2, [fp, #-56]	; 0x38
    2f98:	e3520002 	cmp	r2, #2
    2f9c:	0a000007 	beq	2fc0 <read_nblock+0x74>
    2fa0:	e1a00008 	mov	r0, r8
    2fa4:	e1a01004 	mov	r1, r4
    2fa8:	e1a02007 	mov	r2, r7
    2fac:	e1a03006 	mov	r3, r6
    2fb0:	ebffff3b 	bl	2ca4 <read_raw>
    2fb4:	e24bd020 	sub	sp, fp, #32
    2fb8:	e89d69f0 	ldm	sp, {r4, r5, r6, r7, r8, fp, sp, lr}
    2fbc:	e12fff1e 	bx	lr
    2fc0:	e24b2024 	sub	r2, fp, #36	; 0x24
    2fc4:	e5226060 	str	r6, [r2, #-96]!	; 0x60
    2fc8:	e1a01004 	mov	r1, r4
    2fcc:	e3a0002e 	mov	r0, #46	; 0x2e
    2fd0:	e50b7080 	str	r7, [fp, #-128]	; 0x80
    2fd4:	ebfff473 	bl	1a8 <syscall3>
    2fd8:	e3500000 	cmp	r0, #0
    2fdc:	03a03001 	moveq	r3, #1
    2fe0:	03e00000 	mvneq	r0, #0
    2fe4:	11c00fc0 	bicne	r0, r0, r0, asr #31
    2fe8:	05853000 	streq	r3, [r5]
    2fec:	e24bd020 	sub	sp, fp, #32
    2ff0:	e89d69f0 	ldm	sp, {r4, r5, r6, r7, r8, fp, sp, lr}
    2ff4:	e12fff1e 	bx	lr
    2ff8:	e3e00000 	mvn	r0, #0
    2ffc:	eaffffec 	b	2fb4 <read_nblock+0x68>
    3000:	00011248 	andeq	r1, r1, r8, asr #4
    3004:	0000000c 	andeq	r0, r0, ip

00003008 <read>:
    3008:	e1a0c00d 	mov	ip, sp
    300c:	e92ddbf0 	push	{r4, r5, r6, r7, r8, r9, fp, ip, lr, pc}
    3010:	e24cb004 	sub	fp, ip, #4
    3014:	e24dd060 	sub	sp, sp, #96	; 0x60
    3018:	e3a0e000 	mov	lr, #0
    301c:	e59fc0bc 	ldr	ip, [pc, #188]	; 30e0 <read+0xd8>
    3020:	e59f30bc 	ldr	r3, [pc, #188]	; 30e4 <read+0xdc>
    3024:	e08fc00c 	add	ip, pc, ip
    3028:	e79c7003 	ldr	r7, [ip, r3]
    302c:	e24b407c 	sub	r4, fp, #124	; 0x7c
    3030:	e1a05001 	mov	r5, r1
    3034:	e1a01004 	mov	r1, r4
    3038:	e1a06002 	mov	r6, r2
    303c:	e587e000 	str	lr, [r7]
    3040:	e1a08000 	mov	r8, r0
    3044:	ebfff5b4 	bl	71c <vfs_get_by_fd>
    3048:	e3500000 	cmp	r0, #0
    304c:	1a000021 	bne	30d8 <read+0xd0>
    3050:	e51b3038 	ldr	r3, [fp, #-56]	; 0x38
    3054:	e3530002 	cmp	r3, #2
    3058:	1a000003 	bne	306c <read+0x64>
    305c:	ea00000c 	b	3094 <read+0x8c>
    3060:	e5973000 	ldr	r3, [r7]
    3064:	e3530001 	cmp	r3, #1
    3068:	1a000006 	bne	3088 <read+0x80>
    306c:	e1a00008 	mov	r0, r8
    3070:	e1a01004 	mov	r1, r4
    3074:	e1a02005 	mov	r2, r5
    3078:	e1a03006 	mov	r3, r6
    307c:	ebffff08 	bl	2ca4 <read_raw>
    3080:	e3500000 	cmp	r0, #0
    3084:	bafffff5 	blt	3060 <read+0x58>
    3088:	e24bd024 	sub	sp, fp, #36	; 0x24
    308c:	e89d6bf0 	ldm	sp, {r4, r5, r6, r7, r8, r9, fp, sp, lr}
    3090:	e12fff1e 	bx	lr
    3094:	e3a09001 	mov	r9, #1
    3098:	e24b8084 	sub	r8, fp, #132	; 0x84
    309c:	e3a0002e 	mov	r0, #46	; 0x2e
    30a0:	e1a01004 	mov	r1, r4
    30a4:	e1a02008 	mov	r2, r8
    30a8:	e3a03001 	mov	r3, #1
    30ac:	e50b5080 	str	r5, [fp, #-128]	; 0x80
    30b0:	e50b6084 	str	r6, [fp, #-132]	; 0x84
    30b4:	ebfff43b 	bl	1a8 <syscall3>
    30b8:	e3500000 	cmp	r0, #0
    30bc:	0a000003 	beq	30d0 <read+0xc8>
    30c0:	e1c00fc0 	bic	r0, r0, r0, asr #31
    30c4:	e24bd024 	sub	sp, fp, #36	; 0x24
    30c8:	e89d6bf0 	ldm	sp, {r4, r5, r6, r7, r8, r9, fp, sp, lr}
    30cc:	e12fff1e 	bx	lr
    30d0:	e5879000 	str	r9, [r7]
    30d4:	eafffff0 	b	309c <read+0x94>
    30d8:	e3e00000 	mvn	r0, #0
    30dc:	eaffffe9 	b	3088 <read+0x80>
    30e0:	0001118c 	andeq	r1, r1, ip, lsl #3
    30e4:	0000000c 	andeq	r0, r0, ip

000030e8 <read_block>:
    30e8:	e1a0c00d 	mov	ip, sp
    30ec:	e92ddff0 	push	{r4, r5, r6, r7, r8, r9, sl, fp, ip, lr, pc}
    30f0:	e24cb004 	sub	fp, ip, #4
    30f4:	e24dd03c 	sub	sp, sp, #60	; 0x3c
    30f8:	e1a08000 	mov	r8, r0
    30fc:	e50b1060 	str	r1, [fp, #-96]	; 0x60
    3100:	e1a00002 	mov	r0, r2
    3104:	e3a01001 	mov	r1, #1
    3108:	e1a06002 	mov	r6, r2
    310c:	e1a09003 	mov	r9, r3
    3110:	ebfffb86 	bl	1f30 <shm_alloc>
    3114:	e59fa100 	ldr	sl, [pc, #256]	; 321c <read_block+0x134>
    3118:	e2507000 	subs	r7, r0, #0
    311c:	e08fa00a 	add	sl, pc, sl
    3120:	ba00003b 	blt	3214 <read_block+0x12c>
    3124:	ebfffb8c 	bl	1f5c <shm_map>
    3128:	e2503000 	subs	r3, r0, #0
    312c:	e50b3064 	str	r3, [fp, #-100]	; 0x64
    3130:	0a000037 	beq	3214 <read_block+0x12c>
    3134:	e3a01000 	mov	r1, #0
    3138:	e24b405c 	sub	r4, fp, #92	; 0x5c
    313c:	e1a02001 	mov	r2, r1
    3140:	e1a00004 	mov	r0, r4
    3144:	ebfff951 	bl	1690 <proto_init>
    3148:	e3a01000 	mov	r1, #0
    314c:	e24b5044 	sub	r5, fp, #68	; 0x44
    3150:	e1a02001 	mov	r2, r1
    3154:	e1a00005 	mov	r0, r5
    3158:	ebfff94c 	bl	1690 <proto_init>
    315c:	e1a00004 	mov	r0, r4
    3160:	e3a01008 	mov	r1, #8
    3164:	ebfff9b4 	bl	183c <proto_add_int>
    3168:	e1a01006 	mov	r1, r6
    316c:	e1a00004 	mov	r0, r4
    3170:	ebfff9b1 	bl	183c <proto_add_int>
    3174:	e1a00004 	mov	r0, r4
    3178:	e1a01009 	mov	r1, r9
    317c:	ebfff9ae 	bl	183c <proto_add_int>
    3180:	e1a00004 	mov	r0, r4
    3184:	e1a01007 	mov	r1, r7
    3188:	ebfff9ab 	bl	183c <proto_add_int>
    318c:	e1a00008 	mov	r0, r8
    3190:	e1a01004 	mov	r1, r4
    3194:	e1a02005 	mov	r2, r5
    3198:	ebfff68d 	bl	bd4 <ipc_call>
    319c:	e3500000 	cmp	r0, #0
    31a0:	13e06000 	mvnne	r6, #0
    31a4:	0a000009 	beq	31d0 <read_block+0xe8>
    31a8:	e1a00004 	mov	r0, r4
    31ac:	ebfffa0b 	bl	19e0 <proto_clear>
    31b0:	e1a00005 	mov	r0, r5
    31b4:	ebfffa09 	bl	19e0 <proto_clear>
    31b8:	e1a00007 	mov	r0, r7
    31bc:	ebfffb6f 	bl	1f80 <shm_unmap>
    31c0:	e1a00006 	mov	r0, r6
    31c4:	e24bd028 	sub	sp, fp, #40	; 0x28
    31c8:	e89d6ff0 	ldm	sp, {r4, r5, r6, r7, r8, r9, sl, fp, sp, lr}
    31cc:	e12fff1e 	bx	lr
    31d0:	e1a00005 	mov	r0, r5
    31d4:	ebfff9f5 	bl	19b0 <proto_read_int>
    31d8:	e2506000 	subs	r6, r0, #0
    31dc:	da000004 	ble	31f4 <read_block+0x10c>
    31e0:	e51b0060 	ldr	r0, [fp, #-96]	; 0x60
    31e4:	e51b1064 	ldr	r1, [fp, #-100]	; 0x64
    31e8:	e1a02006 	mov	r2, r6
    31ec:	eb001936 	bl	96cc <memcpy>
    31f0:	eaffffec 	b	31a8 <read_block+0xc0>
    31f4:	e3760002 	cmn	r6, #2
    31f8:	1affffea 	bne	31a8 <read_block+0xc0>
    31fc:	e3a02001 	mov	r2, #1
    3200:	e59f3018 	ldr	r3, [pc, #24]	; 3220 <read_block+0x138>
    3204:	e79a3003 	ldr	r3, [sl, r3]
    3208:	e3e06000 	mvn	r6, #0
    320c:	e5832000 	str	r2, [r3]
    3210:	eaffffe4 	b	31a8 <read_block+0xc0>
    3214:	e3e00000 	mvn	r0, #0
    3218:	eaffffe9 	b	31c4 <read_block+0xdc>
    321c:	00011094 	muleq	r1, r4, r0
    3220:	0000000c 	andeq	r0, r0, ip

00003224 <write_raw>:
    3224:	e1a0c00d 	mov	ip, sp
    3228:	e92ddff0 	push	{r4, r5, r6, r7, r8, r9, sl, fp, ip, lr, pc}
    322c:	e24cb004 	sub	fp, ip, #4
    3230:	e24ddf93 	sub	sp, sp, #588	; 0x24c
    3234:	e1a05001 	mov	r5, r1
    3238:	e1a07003 	mov	r7, r3
    323c:	e5911044 	ldr	r1, [r1, #68]	; 0x44
    3240:	e59f3264 	ldr	r3, [pc, #612]	; 34ac <write_raw+0x288>
    3244:	e3510000 	cmp	r1, #0
    3248:	e08f3003 	add	r3, pc, r3
    324c:	e50b3274 	str	r3, [fp, #-628]	; 0x274
    3250:	e1a09000 	mov	r9, r0
    3254:	e1a0a002 	mov	sl, r2
    3258:	0a00006e 	beq	3418 <write_raw+0x1f4>
    325c:	e1a00005 	mov	r0, r5
    3260:	e24b1f8d 	sub	r1, fp, #564	; 0x234
    3264:	ebfff50d 	bl	6a0 <vfs_get_mount>
    3268:	e2508000 	subs	r8, r0, #0
    326c:	1a000069 	bne	3418 <write_raw+0x1f4>
    3270:	e3a00029 	mov	r0, #41	; 0x29
    3274:	e1a01009 	mov	r1, r9
    3278:	ebfff3f6 	bl	258 <syscall1>
    327c:	e357001f 	cmp	r7, #31
    3280:	e1c03fc0 	bic	r3, r0, r0, asr #31
    3284:	e50b3268 	str	r3, [fp, #-616]	; 0x268
    3288:	9a00003a 	bls	3378 <write_raw+0x154>
    328c:	e1a00007 	mov	r0, r7
    3290:	e3a01001 	mov	r1, #1
    3294:	ebfffb25 	bl	1f30 <shm_alloc>
    3298:	e2503000 	subs	r3, r0, #0
    329c:	e50b326c 	str	r3, [fp, #-620]	; 0x26c
    32a0:	ba00005c 	blt	3418 <write_raw+0x1f4>
    32a4:	ebfffb2c 	bl	1f5c <shm_map>
    32a8:	e2502000 	subs	r2, r0, #0
    32ac:	e50b2270 	str	r2, [fp, #-624]	; 0x270
    32b0:	0a000058 	beq	3418 <write_raw+0x1f4>
    32b4:	e24b4f99 	sub	r4, fp, #612	; 0x264
    32b8:	e1a0100a 	mov	r1, sl
    32bc:	e1a02007 	mov	r2, r7
    32c0:	eb001901 	bl	96cc <memcpy>
    32c4:	e24b6f93 	sub	r6, fp, #588	; 0x24c
    32c8:	e1a00004 	mov	r0, r4
    32cc:	e1a01008 	mov	r1, r8
    32d0:	e1a02008 	mov	r2, r8
    32d4:	ebfff8ed 	bl	1690 <proto_init>
    32d8:	e1a02008 	mov	r2, r8
    32dc:	e1a00006 	mov	r0, r6
    32e0:	e1a01008 	mov	r1, r8
    32e4:	ebfff8e9 	bl	1690 <proto_init>
    32e8:	e1a00004 	mov	r0, r4
    32ec:	e3a01007 	mov	r1, #7
    32f0:	ebfff951 	bl	183c <proto_add_int>
    32f4:	e1a00004 	mov	r0, r4
    32f8:	e1a01009 	mov	r1, r9
    32fc:	ebfff94e 	bl	183c <proto_add_int>
    3300:	e3a02058 	mov	r2, #88	; 0x58
    3304:	e1a00004 	mov	r0, r4
    3308:	e1a01005 	mov	r1, r5
    330c:	ebfff915 	bl	1768 <proto_add>
    3310:	e1a00004 	mov	r0, r4
    3314:	e51b1268 	ldr	r1, [fp, #-616]	; 0x268
    3318:	ebfff947 	bl	183c <proto_add_int>
    331c:	e1a00004 	mov	r0, r4
    3320:	e51b126c 	ldr	r1, [fp, #-620]	; 0x26c
    3324:	ebfff944 	bl	183c <proto_add_int>
    3328:	e1a00004 	mov	r0, r4
    332c:	e1a01007 	mov	r1, r7
    3330:	ebfff941 	bl	183c <proto_add_int>
    3334:	e1a01004 	mov	r1, r4
    3338:	e1a02006 	mov	r2, r6
    333c:	e51b0234 	ldr	r0, [fp, #-564]	; 0x234
    3340:	ebfff623 	bl	bd4 <ipc_call>
    3344:	e3500000 	cmp	r0, #0
    3348:	0a000039 	beq	3434 <write_raw+0x210>
    334c:	e3e05000 	mvn	r5, #0
    3350:	e1a00004 	mov	r0, r4
    3354:	ebfff9a1 	bl	19e0 <proto_clear>
    3358:	e1a00006 	mov	r0, r6
    335c:	ebfff99f 	bl	19e0 <proto_clear>
    3360:	e51b026c 	ldr	r0, [fp, #-620]	; 0x26c
    3364:	ebfffb05 	bl	1f80 <shm_unmap>
    3368:	e1a00005 	mov	r0, r5
    336c:	e24bd028 	sub	sp, fp, #40	; 0x28
    3370:	e89d6ff0 	ldm	sp, {r4, r5, r6, r7, r8, r9, sl, fp, sp, lr}
    3374:	e12fff1e 	bx	lr
    3378:	e24b4f99 	sub	r4, fp, #612	; 0x264
    337c:	e1a00004 	mov	r0, r4
    3380:	e1a01008 	mov	r1, r8
    3384:	e1a02008 	mov	r2, r8
    3388:	e24b6f93 	sub	r6, fp, #588	; 0x24c
    338c:	ebfff8bf 	bl	1690 <proto_init>
    3390:	e1a02008 	mov	r2, r8
    3394:	e1a00006 	mov	r0, r6
    3398:	e1a01008 	mov	r1, r8
    339c:	ebfff8bb 	bl	1690 <proto_init>
    33a0:	e1a00004 	mov	r0, r4
    33a4:	e3a01007 	mov	r1, #7
    33a8:	ebfff923 	bl	183c <proto_add_int>
    33ac:	e1a00004 	mov	r0, r4
    33b0:	e1a01009 	mov	r1, r9
    33b4:	ebfff920 	bl	183c <proto_add_int>
    33b8:	e3a02058 	mov	r2, #88	; 0x58
    33bc:	e1a00004 	mov	r0, r4
    33c0:	e1a01005 	mov	r1, r5
    33c4:	ebfff8e7 	bl	1768 <proto_add>
    33c8:	e1a00004 	mov	r0, r4
    33cc:	e51b1268 	ldr	r1, [fp, #-616]	; 0x268
    33d0:	ebfff919 	bl	183c <proto_add_int>
    33d4:	e1a00004 	mov	r0, r4
    33d8:	e3e01000 	mvn	r1, #0
    33dc:	ebfff916 	bl	183c <proto_add_int>
    33e0:	e1a00004 	mov	r0, r4
    33e4:	e1a0100a 	mov	r1, sl
    33e8:	e1a02007 	mov	r2, r7
    33ec:	ebfff8dd 	bl	1768 <proto_add>
    33f0:	e1a01004 	mov	r1, r4
    33f4:	e1a02006 	mov	r2, r6
    33f8:	e51b0234 	ldr	r0, [fp, #-564]	; 0x234
    33fc:	ebfff5f4 	bl	bd4 <ipc_call>
    3400:	e3500000 	cmp	r0, #0
    3404:	0a000007 	beq	3428 <write_raw+0x204>
    3408:	e1a00004 	mov	r0, r4
    340c:	ebfff973 	bl	19e0 <proto_clear>
    3410:	e1a00006 	mov	r0, r6
    3414:	ebfff971 	bl	19e0 <proto_clear>
    3418:	e3e00000 	mvn	r0, #0
    341c:	e24bd028 	sub	sp, fp, #40	; 0x28
    3420:	e89d6ff0 	ldm	sp, {r4, r5, r6, r7, r8, r9, sl, fp, sp, lr}
    3424:	e12fff1e 	bx	lr
    3428:	e3e03000 	mvn	r3, #0
    342c:	e50b0270 	str	r0, [fp, #-624]	; 0x270
    3430:	e50b326c 	str	r3, [fp, #-620]	; 0x26c
    3434:	e1a00006 	mov	r0, r6
    3438:	ebfff95c 	bl	19b0 <proto_read_int>
    343c:	e2505000 	subs	r5, r0, #0
    3440:	da000010 	ble	3488 <write_raw+0x264>
    3444:	e51b3268 	ldr	r3, [fp, #-616]	; 0x268
    3448:	e1a01009 	mov	r1, r9
    344c:	e0852003 	add	r2, r5, r3
    3450:	e3a00028 	mov	r0, #40	; 0x28
    3454:	ebfff369 	bl	200 <syscall2>
    3458:	e1a00004 	mov	r0, r4
    345c:	ebfff95f 	bl	19e0 <proto_clear>
    3460:	e1a00006 	mov	r0, r6
    3464:	ebfff95d 	bl	19e0 <proto_clear>
    3468:	e51b3270 	ldr	r3, [fp, #-624]	; 0x270
    346c:	e3530000 	cmp	r3, #0
    3470:	01a00005 	moveq	r0, r5
    3474:	0affffbc 	beq	336c <write_raw+0x148>
    3478:	e51b026c 	ldr	r0, [fp, #-620]	; 0x26c
    347c:	ebfffabf 	bl	1f80 <shm_unmap>
    3480:	e1a00005 	mov	r0, r5
    3484:	eaffffb8 	b	336c <write_raw+0x148>
    3488:	e3750002 	cmn	r5, #2
    348c:	1afffff1 	bne	3458 <write_raw+0x234>
    3490:	e3a02001 	mov	r2, #1
    3494:	e59f3014 	ldr	r3, [pc, #20]	; 34b0 <write_raw+0x28c>
    3498:	e51b1274 	ldr	r1, [fp, #-628]	; 0x274
    349c:	e7913003 	ldr	r3, [r1, r3]
    34a0:	e3e05000 	mvn	r5, #0
    34a4:	e5832000 	str	r2, [r3]
    34a8:	eaffffea 	b	3458 <write_raw+0x234>
    34ac:	00010f68 	andeq	r0, r1, r8, ror #30
    34b0:	0000000c 	andeq	r0, r0, ip

000034b4 <write_nblock>:
    34b4:	e1a0c00d 	mov	ip, sp
    34b8:	e92dd9f0 	push	{r4, r5, r6, r7, r8, fp, ip, lr, pc}
    34bc:	e24cb004 	sub	fp, ip, #4
    34c0:	e24dd064 	sub	sp, sp, #100	; 0x64
    34c4:	e3a0e000 	mov	lr, #0
    34c8:	e59fc098 	ldr	ip, [pc, #152]	; 3568 <write_nblock+0xb4>
    34cc:	e59f3098 	ldr	r3, [pc, #152]	; 356c <write_nblock+0xb8>
    34d0:	e08fc00c 	add	ip, pc, ip
    34d4:	e79c5003 	ldr	r5, [ip, r3]
    34d8:	e24b407c 	sub	r4, fp, #124	; 0x7c
    34dc:	e1a07001 	mov	r7, r1
    34e0:	e1a01004 	mov	r1, r4
    34e4:	e1a06002 	mov	r6, r2
    34e8:	e585e000 	str	lr, [r5]
    34ec:	e1a08000 	mov	r8, r0
    34f0:	ebfff489 	bl	71c <vfs_get_by_fd>
    34f4:	e2503000 	subs	r3, r0, #0
    34f8:	1a000018 	bne	3560 <write_nblock+0xac>
    34fc:	e51b2038 	ldr	r2, [fp, #-56]	; 0x38
    3500:	e3520002 	cmp	r2, #2
    3504:	0a000007 	beq	3528 <write_nblock+0x74>
    3508:	e1a00008 	mov	r0, r8
    350c:	e1a01004 	mov	r1, r4
    3510:	e1a02007 	mov	r2, r7
    3514:	e1a03006 	mov	r3, r6
    3518:	ebffff41 	bl	3224 <write_raw>
    351c:	e24bd020 	sub	sp, fp, #32
    3520:	e89d69f0 	ldm	sp, {r4, r5, r6, r7, r8, fp, sp, lr}
    3524:	e12fff1e 	bx	lr
    3528:	e24b2024 	sub	r2, fp, #36	; 0x24
    352c:	e5226060 	str	r6, [r2, #-96]!	; 0x60
    3530:	e1a01004 	mov	r1, r4
    3534:	e3a0002f 	mov	r0, #47	; 0x2f
    3538:	e50b7080 	str	r7, [fp, #-128]	; 0x80
    353c:	ebfff319 	bl	1a8 <syscall3>
    3540:	e3500000 	cmp	r0, #0
    3544:	03a03001 	moveq	r3, #1
    3548:	03e00000 	mvneq	r0, #0
    354c:	11c00fc0 	bicne	r0, r0, r0, asr #31
    3550:	05853000 	streq	r3, [r5]
    3554:	e24bd020 	sub	sp, fp, #32
    3558:	e89d69f0 	ldm	sp, {r4, r5, r6, r7, r8, fp, sp, lr}
    355c:	e12fff1e 	bx	lr
    3560:	e3e00000 	mvn	r0, #0
    3564:	eaffffec 	b	351c <write_nblock+0x68>
    3568:	00010ce0 	andeq	r0, r1, r0, ror #25
    356c:	0000000c 	andeq	r0, r0, ip

00003570 <write>:
    3570:	e1a0c00d 	mov	ip, sp
    3574:	e92ddbf0 	push	{r4, r5, r6, r7, r8, r9, fp, ip, lr, pc}
    3578:	e24cb004 	sub	fp, ip, #4
    357c:	e24dd060 	sub	sp, sp, #96	; 0x60
    3580:	e3a0e000 	mov	lr, #0
    3584:	e59fc0bc 	ldr	ip, [pc, #188]	; 3648 <write+0xd8>
    3588:	e59f30bc 	ldr	r3, [pc, #188]	; 364c <write+0xdc>
    358c:	e08fc00c 	add	ip, pc, ip
    3590:	e79c7003 	ldr	r7, [ip, r3]
    3594:	e24b407c 	sub	r4, fp, #124	; 0x7c
    3598:	e1a05001 	mov	r5, r1
    359c:	e1a01004 	mov	r1, r4
    35a0:	e1a06002 	mov	r6, r2
    35a4:	e587e000 	str	lr, [r7]
    35a8:	e1a08000 	mov	r8, r0
    35ac:	ebfff45a 	bl	71c <vfs_get_by_fd>
    35b0:	e3500000 	cmp	r0, #0
    35b4:	1a000021 	bne	3640 <write+0xd0>
    35b8:	e51b3038 	ldr	r3, [fp, #-56]	; 0x38
    35bc:	e3530002 	cmp	r3, #2
    35c0:	1a000003 	bne	35d4 <write+0x64>
    35c4:	ea00000c 	b	35fc <write+0x8c>
    35c8:	e5973000 	ldr	r3, [r7]
    35cc:	e3530001 	cmp	r3, #1
    35d0:	1a000006 	bne	35f0 <write+0x80>
    35d4:	e1a00008 	mov	r0, r8
    35d8:	e1a01004 	mov	r1, r4
    35dc:	e1a02005 	mov	r2, r5
    35e0:	e1a03006 	mov	r3, r6
    35e4:	ebffff0e 	bl	3224 <write_raw>
    35e8:	e3500000 	cmp	r0, #0
    35ec:	bafffff5 	blt	35c8 <write+0x58>
    35f0:	e24bd024 	sub	sp, fp, #36	; 0x24
    35f4:	e89d6bf0 	ldm	sp, {r4, r5, r6, r7, r8, r9, fp, sp, lr}
    35f8:	e12fff1e 	bx	lr
    35fc:	e3a09001 	mov	r9, #1
    3600:	e24b8084 	sub	r8, fp, #132	; 0x84
    3604:	e3a0002f 	mov	r0, #47	; 0x2f
    3608:	e1a01004 	mov	r1, r4
    360c:	e1a02008 	mov	r2, r8
    3610:	e3a03001 	mov	r3, #1
    3614:	e50b5080 	str	r5, [fp, #-128]	; 0x80
    3618:	e50b6084 	str	r6, [fp, #-132]	; 0x84
    361c:	ebfff2e1 	bl	1a8 <syscall3>
    3620:	e3500000 	cmp	r0, #0
    3624:	0a000003 	beq	3638 <write+0xc8>
    3628:	e1c00fc0 	bic	r0, r0, r0, asr #31
    362c:	e24bd024 	sub	sp, fp, #36	; 0x24
    3630:	e89d6bf0 	ldm	sp, {r4, r5, r6, r7, r8, r9, fp, sp, lr}
    3634:	e12fff1e 	bx	lr
    3638:	e5879000 	str	r9, [r7]
    363c:	eafffff0 	b	3604 <write+0x94>
    3640:	e3e00000 	mvn	r0, #0
    3644:	eaffffe9 	b	35f0 <write+0x80>
    3648:	00010c24 	andeq	r0, r1, r4, lsr #24
    364c:	0000000c 	andeq	r0, r0, ip

00003650 <write_block>:
    3650:	e1a0c00d 	mov	ip, sp
    3654:	e92ddbf0 	push	{r4, r5, r6, r7, r8, r9, fp, ip, lr, pc}
    3658:	e1a09001 	mov	r9, r1
    365c:	e3a01000 	mov	r1, #0
    3660:	e24cb004 	sub	fp, ip, #4
    3664:	e24dd030 	sub	sp, sp, #48	; 0x30
    3668:	e24b4054 	sub	r4, fp, #84	; 0x54
    366c:	e1a06000 	mov	r6, r0
    3670:	e1a08002 	mov	r8, r2
    3674:	e1a00004 	mov	r0, r4
    3678:	e1a02001 	mov	r2, r1
    367c:	e1a07003 	mov	r7, r3
    3680:	ebfff802 	bl	1690 <proto_init>
    3684:	e3a01000 	mov	r1, #0
    3688:	e24b503c 	sub	r5, fp, #60	; 0x3c
    368c:	e1a02001 	mov	r2, r1
    3690:	e1a00005 	mov	r0, r5
    3694:	ebfff7fd 	bl	1690 <proto_init>
    3698:	e1a00004 	mov	r0, r4
    369c:	e3a01009 	mov	r1, #9
    36a0:	ebfff865 	bl	183c <proto_add_int>
    36a4:	e1a02008 	mov	r2, r8
    36a8:	e1a00004 	mov	r0, r4
    36ac:	e1a01009 	mov	r1, r9
    36b0:	ebfff82c 	bl	1768 <proto_add>
    36b4:	e1a01007 	mov	r1, r7
    36b8:	e1a00004 	mov	r0, r4
    36bc:	ebfff85e 	bl	183c <proto_add_int>
    36c0:	e1a00006 	mov	r0, r6
    36c4:	e1a01004 	mov	r1, r4
    36c8:	e1a02005 	mov	r2, r5
    36cc:	ebfff540 	bl	bd4 <ipc_call>
    36d0:	e59f705c 	ldr	r7, [pc, #92]	; 3734 <write_block+0xe4>
    36d4:	e3500000 	cmp	r0, #0
    36d8:	e08f7007 	add	r7, pc, r7
    36dc:	1a00000c 	bne	3714 <write_block+0xc4>
    36e0:	e1a00005 	mov	r0, r5
    36e4:	ebfff8b1 	bl	19b0 <proto_read_int>
    36e8:	e3700002 	cmn	r0, #2
    36ec:	e1a06000 	mov	r6, r0
    36f0:	0a000009 	beq	371c <write_block+0xcc>
    36f4:	e1a00004 	mov	r0, r4
    36f8:	ebfff8b8 	bl	19e0 <proto_clear>
    36fc:	e1a00005 	mov	r0, r5
    3700:	ebfff8b6 	bl	19e0 <proto_clear>
    3704:	e1a00006 	mov	r0, r6
    3708:	e24bd024 	sub	sp, fp, #36	; 0x24
    370c:	e89d6bf0 	ldm	sp, {r4, r5, r6, r7, r8, r9, fp, sp, lr}
    3710:	e12fff1e 	bx	lr
    3714:	e3e06000 	mvn	r6, #0
    3718:	eafffff5 	b	36f4 <write_block+0xa4>
    371c:	e3a02001 	mov	r2, #1
    3720:	e59f3010 	ldr	r3, [pc, #16]	; 3738 <write_block+0xe8>
    3724:	e7973003 	ldr	r3, [r7, r3]
    3728:	e3e06000 	mvn	r6, #0
    372c:	e5832000 	str	r2, [r3]
    3730:	eaffffef 	b	36f4 <write_block+0xa4>
    3734:	00010ad8 	ldrdeq	r0, [r1], -r8
    3738:	0000000c 	andeq	r0, r0, ip

0000373c <lseek>:
    373c:	e1a0c00d 	mov	ip, sp
    3740:	e92dd830 	push	{r4, r5, fp, ip, lr, pc}
    3744:	e3520001 	cmp	r2, #1
    3748:	e24cb004 	sub	fp, ip, #4
    374c:	e24dd058 	sub	sp, sp, #88	; 0x58
    3750:	e1a04001 	mov	r4, r1
    3754:	e1a05000 	mov	r5, r0
    3758:	0a00000f 	beq	379c <lseek+0x60>
    375c:	e3520002 	cmp	r2, #2
    3760:	0a000006 	beq	3780 <lseek+0x44>
    3764:	e1a01005 	mov	r1, r5
    3768:	e1a02004 	mov	r2, r4
    376c:	e3a00028 	mov	r0, #40	; 0x28
    3770:	ebfff2a2 	bl	200 <syscall2>
    3774:	e24bd014 	sub	sp, fp, #20
    3778:	e89d6830 	ldm	sp, {r4, r5, fp, sp, lr}
    377c:	e12fff1e 	bx	lr
    3780:	e24b106c 	sub	r1, fp, #108	; 0x6c
    3784:	ebfff3e4 	bl	71c <vfs_get_by_fd>
    3788:	e3500000 	cmp	r0, #0
    378c:	13a03000 	movne	r3, #0
    3790:	051b3024 	ldreq	r3, [fp, #-36]	; 0x24
    3794:	e0844003 	add	r4, r4, r3
    3798:	eafffff1 	b	3764 <lseek+0x28>
    379c:	e3a00029 	mov	r0, #41	; 0x29
    37a0:	e1a01005 	mov	r1, r5
    37a4:	ebfff2ab 	bl	258 <syscall1>
    37a8:	e3500000 	cmp	r0, #0
    37ac:	a0844000 	addge	r4, r4, r0
    37b0:	eaffffeb 	b	3764 <lseek+0x28>

000037b4 <exec_elf>:
    37b4:	e1a0c00d 	mov	ip, sp
    37b8:	e92dd800 	push	{fp, ip, lr, pc}
    37bc:	e24cb004 	sub	fp, ip, #4
    37c0:	e1a0c001 	mov	ip, r1
    37c4:	e1a03002 	mov	r3, r2
    37c8:	e1a01000 	mov	r1, r0
    37cc:	e1a0200c 	mov	r2, ip
    37d0:	e3a00016 	mov	r0, #22
    37d4:	ebfff273 	bl	1a8 <syscall3>
    37d8:	e24bd00c 	sub	sp, fp, #12
    37dc:	e89d6800 	ldm	sp, {fp, sp, lr}
    37e0:	e12fff1e 	bx	lr

000037e4 <exec>:
    37e4:	e1a0c00d 	mov	ip, sp
    37e8:	e92dd870 	push	{r4, r5, r6, fp, ip, lr, pc}
    37ec:	e1a06000 	mov	r6, r0
    37f0:	e59f008c 	ldr	r0, [pc, #140]	; 3884 <exec+0xa0>
    37f4:	e24cb004 	sub	fp, ip, #4
    37f8:	e24dd00c 	sub	sp, sp, #12
    37fc:	e08f0000 	add	r0, pc, r0
    3800:	eb001290 	bl	8248 <str_new>
    3804:	e5d61000 	ldrb	r1, [r6]
    3808:	e31100df 	tst	r1, #223	; 0xdf
    380c:	e1a05000 	mov	r5, r0
    3810:	11a04006 	movne	r4, r6
    3814:	0a000004 	beq	382c <exec+0x48>
    3818:	e1a00005 	mov	r0, r5
    381c:	eb0012d5 	bl	8378 <str_addc>
    3820:	e5f41001 	ldrb	r1, [r4, #1]!
    3824:	e31100df 	tst	r1, #223	; 0xdf
    3828:	1afffffa 	bne	3818 <exec+0x34>
    382c:	e3a01000 	mov	r1, #0
    3830:	e1a00005 	mov	r0, r5
    3834:	eb0012cf 	bl	8378 <str_addc>
    3838:	e5950000 	ldr	r0, [r5]
    383c:	e24b1020 	sub	r1, fp, #32
    3840:	ebfff3c0 	bl	748 <vfs_readfile>
    3844:	e2504000 	subs	r4, r0, #0
    3848:	0a000009 	beq	3874 <exec+0x90>
    384c:	e1a00006 	mov	r0, r6
    3850:	e1a01004 	mov	r1, r4
    3854:	e51b2020 	ldr	r2, [fp, #-32]
    3858:	ebffffd5 	bl	37b4 <exec_elf>
    385c:	e1a00004 	mov	r0, r4
    3860:	eb000080 	bl	3a68 <free>
    3864:	e3a00000 	mov	r0, #0
    3868:	e24bd018 	sub	sp, fp, #24
    386c:	e89d6870 	ldm	sp, {r4, r5, r6, fp, sp, lr}
    3870:	e12fff1e 	bx	lr
    3874:	e1a00005 	mov	r0, r5
    3878:	eb0012df 	bl	83fc <str_free>
    387c:	e3e00000 	mvn	r0, #0
    3880:	eafffff8 	b	3868 <exec+0x84>
    3884:	000070e4 	andeq	r7, r0, r4, ror #1

00003888 <getcwd>:
    3888:	e1a0c00d 	mov	ip, sp
    388c:	e92dd818 	push	{r3, r4, fp, ip, lr, pc}
    3890:	e1a04000 	mov	r4, r0
    3894:	e1a02001 	mov	r2, r1
    3898:	e24cb004 	sub	fp, ip, #4
    389c:	e1a01004 	mov	r1, r4
    38a0:	e3a00032 	mov	r0, #50	; 0x32
    38a4:	ebfff255 	bl	200 <syscall2>
    38a8:	e1a00004 	mov	r0, r4
    38ac:	e24bd014 	sub	sp, fp, #20
    38b0:	e89d6818 	ldm	sp, {r3, r4, fp, sp, lr}
    38b4:	e12fff1e 	bx	lr

000038b8 <chdir>:
    38b8:	e1a0c00d 	mov	ip, sp
    38bc:	e1a01000 	mov	r1, r0
    38c0:	e92dd800 	push	{fp, ip, lr, pc}
    38c4:	e3a00031 	mov	r0, #49	; 0x31
    38c8:	e24cb004 	sub	fp, ip, #4
    38cc:	ebfff261 	bl	258 <syscall1>
    38d0:	e24bd00c 	sub	sp, fp, #12
    38d4:	e89d6800 	ldm	sp, {fp, sp, lr}
    38d8:	e12fff1e 	bx	lr

000038dc <dup2>:
    38dc:	e1a0c00d 	mov	ip, sp
    38e0:	e1a03000 	mov	r3, r0
    38e4:	e92dd800 	push	{fp, ip, lr, pc}
    38e8:	e1a02001 	mov	r2, r1
    38ec:	e24cb004 	sub	fp, ip, #4
    38f0:	e1a01003 	mov	r1, r3
    38f4:	e3a0002c 	mov	r0, #44	; 0x2c
    38f8:	ebfff240 	bl	200 <syscall2>
    38fc:	e24bd00c 	sub	sp, fp, #12
    3900:	e89d6800 	ldm	sp, {fp, sp, lr}
    3904:	e12fff1e 	bx	lr

00003908 <dup>:
    3908:	e1a0c00d 	mov	ip, sp
    390c:	e1a01000 	mov	r1, r0
    3910:	e92dd800 	push	{fp, ip, lr, pc}
    3914:	e3a0002b 	mov	r0, #43	; 0x2b
    3918:	e24cb004 	sub	fp, ip, #4
    391c:	ebfff24d 	bl	258 <syscall1>
    3920:	e24bd00c 	sub	sp, fp, #12
    3924:	e89d6800 	ldm	sp, {fp, sp, lr}
    3928:	e12fff1e 	bx	lr

0000392c <pipe>:
    392c:	e1a0c00d 	mov	ip, sp
    3930:	e1a01000 	mov	r1, r0
    3934:	e92dd800 	push	{fp, ip, lr, pc}
    3938:	e2812004 	add	r2, r1, #4
    393c:	e24cb004 	sub	fp, ip, #4
    3940:	e3a0002d 	mov	r0, #45	; 0x2d
    3944:	ebfff22d 	bl	200 <syscall2>
    3948:	e24bd00c 	sub	sp, fp, #12
    394c:	e89d6800 	ldm	sp, {fp, sp, lr}
    3950:	e12fff1e 	bx	lr

00003954 <unlink>:
    3954:	e1a0c00d 	mov	ip, sp
    3958:	e92dd9f0 	push	{r4, r5, r6, r7, r8, fp, ip, lr, pc}
    395c:	e24cb004 	sub	fp, ip, #4
    3960:	e24ddfa5 	sub	sp, sp, #660	; 0x294
    3964:	e24b6fa1 	sub	r6, fp, #644	; 0x284
    3968:	e1a01006 	mov	r1, r6
    396c:	e1a08000 	mov	r8, r0
    3970:	ebfff2f7 	bl	554 <vfs_get>
    3974:	e3500000 	cmp	r0, #0
    3978:	1a00002d 	bne	3a34 <unlink+0xe0>
    397c:	e51b3240 	ldr	r3, [fp, #-576]	; 0x240
    3980:	e3530001 	cmp	r3, #1
    3984:	1a00002a 	bne	3a34 <unlink+0xe0>
    3988:	e1a00006 	mov	r0, r6
    398c:	e24b1f8b 	sub	r1, fp, #556	; 0x22c
    3990:	ebfff342 	bl	6a0 <vfs_get_mount>
    3994:	e2507000 	subs	r7, r0, #0
    3998:	1a000025 	bne	3a34 <unlink+0xe0>
    399c:	e24b5fad 	sub	r5, fp, #692	; 0x2b4
    39a0:	e24b4fa7 	sub	r4, fp, #668	; 0x29c
    39a4:	e1a00005 	mov	r0, r5
    39a8:	e1a01007 	mov	r1, r7
    39ac:	e1a02007 	mov	r2, r7
    39b0:	ebfff736 	bl	1690 <proto_init>
    39b4:	e1a02007 	mov	r2, r7
    39b8:	e1a00004 	mov	r0, r4
    39bc:	e1a01007 	mov	r1, r7
    39c0:	ebfff732 	bl	1690 <proto_init>
    39c4:	e1a00005 	mov	r0, r5
    39c8:	e3a0100e 	mov	r1, #14
    39cc:	ebfff79a 	bl	183c <proto_add_int>
    39d0:	e1a00005 	mov	r0, r5
    39d4:	e3a02058 	mov	r2, #88	; 0x58
    39d8:	e1a01006 	mov	r1, r6
    39dc:	ebfff761 	bl	1768 <proto_add>
    39e0:	e1a00005 	mov	r0, r5
    39e4:	e1a01008 	mov	r1, r8
    39e8:	ebfff79f 	bl	186c <proto_add_str>
    39ec:	e1a01005 	mov	r1, r5
    39f0:	e1a02004 	mov	r2, r4
    39f4:	e51b022c 	ldr	r0, [fp, #-556]	; 0x22c
    39f8:	ebfff475 	bl	bd4 <ipc_call>
    39fc:	e1a00005 	mov	r0, r5
    3a00:	ebfff7f6 	bl	19e0 <proto_clear>
    3a04:	e1a00004 	mov	r0, r4
    3a08:	ebfff7e8 	bl	19b0 <proto_read_int>
    3a0c:	e1a05000 	mov	r5, r0
    3a10:	e1a00004 	mov	r0, r4
    3a14:	ebfff7f1 	bl	19e0 <proto_clear>
    3a18:	e3550000 	cmp	r5, #0
    3a1c:	1a000004 	bne	3a34 <unlink+0xe0>
    3a20:	e1a00006 	mov	r0, r6
    3a24:	ebfff314 	bl	67c <vfs_del>
    3a28:	e24bd020 	sub	sp, fp, #32
    3a2c:	e89d69f0 	ldm	sp, {r4, r5, r6, r7, r8, fp, sp, lr}
    3a30:	e12fff1e 	bx	lr
    3a34:	e3e00000 	mvn	r0, #0
    3a38:	e24bd020 	sub	sp, fp, #32
    3a3c:	e89d69f0 	ldm	sp, {r4, r5, r6, r7, r8, fp, sp, lr}
    3a40:	e12fff1e 	bx	lr

00003a44 <malloc>:
    3a44:	e1a0c00d 	mov	ip, sp
    3a48:	e1a01000 	mov	r1, r0
    3a4c:	e92dd800 	push	{fp, ip, lr, pc}
    3a50:	e3a00008 	mov	r0, #8
    3a54:	e24cb004 	sub	fp, ip, #4
    3a58:	ebfff1fe 	bl	258 <syscall1>
    3a5c:	e24bd00c 	sub	sp, fp, #12
    3a60:	e89d6800 	ldm	sp, {fp, sp, lr}
    3a64:	e12fff1e 	bx	lr

00003a68 <free>:
    3a68:	e1a0c00d 	mov	ip, sp
    3a6c:	e1a01000 	mov	r1, r0
    3a70:	e92dd800 	push	{fp, ip, lr, pc}
    3a74:	e3a00009 	mov	r0, #9
    3a78:	e24cb004 	sub	fp, ip, #4
    3a7c:	ebfff1f5 	bl	258 <syscall1>
    3a80:	e24bd00c 	sub	sp, fp, #12
    3a84:	e89d6800 	ldm	sp, {fp, sp, lr}
    3a88:	e12fff1e 	bx	lr

00003a8c <realloc_raw>:
    3a8c:	e1a0c00d 	mov	ip, sp
    3a90:	e92dd878 	push	{r3, r4, r5, r6, fp, ip, lr, pc}
    3a94:	e24cb004 	sub	fp, ip, #4
    3a98:	e1a04000 	mov	r4, r0
    3a9c:	e1a00002 	mov	r0, r2
    3aa0:	e1a06001 	mov	r6, r1
    3aa4:	ebffffe6 	bl	3a44 <malloc>
    3aa8:	e1a05000 	mov	r5, r0
    3aac:	e1a01004 	mov	r1, r4
    3ab0:	e1a02006 	mov	r2, r6
    3ab4:	eb001704 	bl	96cc <memcpy>
    3ab8:	e1a00004 	mov	r0, r4
    3abc:	ebffffe9 	bl	3a68 <free>
    3ac0:	e1a00005 	mov	r0, r5
    3ac4:	e24bd01c 	sub	sp, fp, #28
    3ac8:	e89d6878 	ldm	sp, {r3, r4, r5, r6, fp, sp, lr}
    3acc:	e12fff1e 	bx	lr

00003ad0 <exit>:
    3ad0:	e1a0c00d 	mov	ip, sp
    3ad4:	e1a01000 	mov	r1, r0
    3ad8:	e92dd800 	push	{fp, ip, lr, pc}
    3adc:	e3a0000f 	mov	r0, #15
    3ae0:	e24cb004 	sub	fp, ip, #4
    3ae4:	ebfff1db 	bl	258 <syscall1>
    3ae8:	e24bd00c 	sub	sp, fp, #12
    3aec:	e89d6800 	ldm	sp, {fp, sp, lr}
    3af0:	e12fff1e 	bx	lr

00003af4 <execl>:
    3af4:	e92d000e 	push	{r1, r2, r3}
    3af8:	e3a00000 	mov	r0, #0
    3afc:	e28dd00c 	add	sp, sp, #12
    3b00:	e12fff1e 	bx	lr

00003b04 <getenv>:
    3b04:	e1a0c00d 	mov	ip, sp
    3b08:	e92dd818 	push	{r3, r4, fp, ip, lr, pc}
    3b0c:	e59f4028 	ldr	r4, [pc, #40]	; 3b3c <getenv+0x38>
    3b10:	e08f4004 	add	r4, pc, r4
    3b14:	e1a01000 	mov	r1, r0
    3b18:	e24cb004 	sub	fp, ip, #4
    3b1c:	e1a02004 	mov	r2, r4
    3b20:	e59f3018 	ldr	r3, [pc, #24]	; 3b40 <getenv+0x3c>
    3b24:	e3a00034 	mov	r0, #52	; 0x34
    3b28:	ebfff19e 	bl	1a8 <syscall3>
    3b2c:	e1a00004 	mov	r0, r4
    3b30:	e24bd014 	sub	sp, fp, #20
    3b34:	e89d6818 	ldm	sp, {r3, r4, fp, sp, lr}
    3b38:	e12fff1e 	bx	lr
    3b3c:	0002278c 	andeq	r2, r2, ip, lsl #15
    3b40:	000003ff 	strdeq	r0, [r0], -pc	; <UNPREDICTABLE>

00003b44 <setenv>:
    3b44:	e1a0c00d 	mov	ip, sp
    3b48:	e1a03000 	mov	r3, r0
    3b4c:	e92dd800 	push	{fp, ip, lr, pc}
    3b50:	e1a02001 	mov	r2, r1
    3b54:	e24cb004 	sub	fp, ip, #4
    3b58:	e1a01003 	mov	r1, r3
    3b5c:	e3a00033 	mov	r0, #51	; 0x33
    3b60:	ebfff1a6 	bl	200 <syscall2>
    3b64:	e24bd00c 	sub	sp, fp, #12
    3b68:	e89d6800 	ldm	sp, {fp, sp, lr}
    3b6c:	e12fff1e 	bx	lr

00003b70 <atoi_base>:
    3b70:	e92d4070 	push	{r4, r5, r6, lr}
    3b74:	e5d03000 	ldrb	r3, [r0]
    3b78:	e3530000 	cmp	r3, #0
    3b7c:	0a00004c 	beq	3cb4 <atoi_base+0x144>
    3b80:	e3a06000 	mov	r6, #0
    3b84:	e1a0e000 	mov	lr, r0
    3b88:	e1a05006 	mov	r5, r6
    3b8c:	e1a00006 	mov	r0, r6
    3b90:	e1a04006 	mov	r4, r6
    3b94:	ea00000a 	b	3bc4 <atoi_base+0x54>
    3b98:	e3510008 	cmp	r1, #8
    3b9c:	0a00002f 	beq	3c60 <atoi_base+0xf0>
    3ba0:	e351000a 	cmp	r1, #10
    3ba4:	0a000010 	beq	3bec <atoi_base+0x7c>
    3ba8:	e3510010 	cmp	r1, #16
    3bac:	0a000016 	beq	3c0c <atoi_base+0x9c>
    3bb0:	e5fe3001 	ldrb	r3, [lr, #1]!
    3bb4:	e3530000 	cmp	r3, #0
    3bb8:	e2844001 	add	r4, r4, #1
    3bbc:	e0800005 	add	r0, r0, r5
    3bc0:	0a000030 	beq	3c88 <atoi_base+0x118>
    3bc4:	e3510002 	cmp	r1, #2
    3bc8:	1afffff2 	bne	3b98 <atoi_base+0x28>
    3bcc:	e2432030 	sub	r2, r3, #48	; 0x30
    3bd0:	e202c0ff 	and	ip, r2, #255	; 0xff
    3bd4:	e35c0001 	cmp	ip, #1
    3bd8:	91a05002 	movls	r5, r2
    3bdc:	91a00080 	lslls	r0, r0, #1
    3be0:	9afffff2 	bls	3bb0 <atoi_base+0x40>
    3be4:	e3a06001 	mov	r6, #1
    3be8:	eafffff0 	b	3bb0 <atoi_base+0x40>
    3bec:	e2432030 	sub	r2, r3, #48	; 0x30
    3bf0:	e20230ff 	and	r3, r2, #255	; 0xff
    3bf4:	e3530009 	cmp	r3, #9
    3bf8:	8afffff9 	bhi	3be4 <atoi_base+0x74>
    3bfc:	e0800100 	add	r0, r0, r0, lsl #2
    3c00:	e1a00080 	lsl	r0, r0, #1
    3c04:	e1a05002 	mov	r5, r2
    3c08:	eaffffe8 	b	3bb0 <atoi_base+0x40>
    3c0c:	e3540000 	cmp	r4, #0
    3c10:	1a000020 	bne	3c98 <atoi_base+0x128>
    3c14:	e3530030 	cmp	r3, #48	; 0x30
    3c18:	0a000028 	beq	3cc0 <atoi_base+0x150>
    3c1c:	e2432030 	sub	r2, r3, #48	; 0x30
    3c20:	e202c0ff 	and	ip, r2, #255	; 0xff
    3c24:	e35c0009 	cmp	ip, #9
    3c28:	9a000003 	bls	3c3c <atoi_base+0xcc>
    3c2c:	e3c3c020 	bic	ip, r3, #32
    3c30:	e24cc041 	sub	ip, ip, #65	; 0x41
    3c34:	e35c0005 	cmp	ip, #5
    3c38:	8affffe9 	bhi	3be4 <atoi_base+0x74>
    3c3c:	e243c041 	sub	ip, r3, #65	; 0x41
    3c40:	e35c0005 	cmp	ip, #5
    3c44:	81a05002 	movhi	r5, r2
    3c48:	e2432061 	sub	r2, r3, #97	; 0x61
    3c4c:	92435037 	subls	r5, r3, #55	; 0x37
    3c50:	e3520005 	cmp	r2, #5
    3c54:	92435057 	subls	r5, r3, #87	; 0x57
    3c58:	e1a00200 	lsl	r0, r0, #4
    3c5c:	eaffffd3 	b	3bb0 <atoi_base+0x40>
    3c60:	e3540000 	cmp	r4, #0
    3c64:	03530030 	cmpeq	r3, #48	; 0x30
    3c68:	0a00000f 	beq	3cac <atoi_base+0x13c>
    3c6c:	e2432030 	sub	r2, r3, #48	; 0x30
    3c70:	e20230ff 	and	r3, r2, #255	; 0xff
    3c74:	e3530007 	cmp	r3, #7
    3c78:	91a05002 	movls	r5, r2
    3c7c:	91a00180 	lslls	r0, r0, #3
    3c80:	9affffca 	bls	3bb0 <atoi_base+0x40>
    3c84:	eaffffd6 	b	3be4 <atoi_base+0x74>
    3c88:	e3560000 	cmp	r6, #0
    3c8c:	1a000008 	bne	3cb4 <atoi_base+0x144>
    3c90:	e8bd4070 	pop	{r4, r5, r6, lr}
    3c94:	e12fff1e 	bx	lr
    3c98:	e3540001 	cmp	r4, #1
    3c9c:	1affffde 	bne	3c1c <atoi_base+0xac>
    3ca0:	e20320df 	and	r2, r3, #223	; 0xdf
    3ca4:	e3520058 	cmp	r2, #88	; 0x58
    3ca8:	1affffdb 	bne	3c1c <atoi_base+0xac>
    3cac:	e3a05000 	mov	r5, #0
    3cb0:	eaffffbe 	b	3bb0 <atoi_base+0x40>
    3cb4:	e1a00003 	mov	r0, r3
    3cb8:	e8bd4070 	pop	{r4, r5, r6, lr}
    3cbc:	e12fff1e 	bx	lr
    3cc0:	e1a05004 	mov	r5, r4
    3cc4:	eaffffb9 	b	3bb0 <atoi_base+0x40>

00003cc8 <atoi>:
    3cc8:	e3a0100a 	mov	r1, #10
    3ccc:	eaffffa7 	b	3b70 <atoi_base>

00003cd0 <atof>:
    3cd0:	e3a00000 	mov	r0, #0
    3cd4:	e12fff1e 	bx	lr

00003cd8 <dev_ping>:
    3cd8:	e1a0c00d 	mov	ip, sp
    3cdc:	e3a01000 	mov	r1, #0
    3ce0:	e92dd870 	push	{r4, r5, r6, fp, ip, lr, pc}
    3ce4:	e24cb004 	sub	fp, ip, #4
    3ce8:	e24dd034 	sub	sp, sp, #52	; 0x34
    3cec:	e24b404c 	sub	r4, fp, #76	; 0x4c
    3cf0:	e1a02001 	mov	r2, r1
    3cf4:	e1a06000 	mov	r6, r0
    3cf8:	e1a00004 	mov	r0, r4
    3cfc:	ebfff663 	bl	1690 <proto_init>
    3d00:	e3a01000 	mov	r1, #0
    3d04:	e24b5034 	sub	r5, fp, #52	; 0x34
    3d08:	e1a02001 	mov	r2, r1
    3d0c:	e1a00005 	mov	r0, r5
    3d10:	ebfff65e 	bl	1690 <proto_init>
    3d14:	e1a00004 	mov	r0, r4
    3d18:	e3a01001 	mov	r1, #1
    3d1c:	ebfff6c6 	bl	183c <proto_add_int>
    3d20:	e1a00006 	mov	r0, r6
    3d24:	e1a01004 	mov	r1, r4
    3d28:	e1a02005 	mov	r2, r5
    3d2c:	ebfff3a8 	bl	bd4 <ipc_call>
    3d30:	e3500000 	cmp	r0, #0
    3d34:	1a00000a 	bne	3d64 <dev_ping+0x8c>
    3d38:	e1a00005 	mov	r0, r5
    3d3c:	ebfff71b 	bl	19b0 <proto_read_int>
    3d40:	e1a06000 	mov	r6, r0
    3d44:	e1a00004 	mov	r0, r4
    3d48:	ebfff724 	bl	19e0 <proto_clear>
    3d4c:	e1a00005 	mov	r0, r5
    3d50:	ebfff722 	bl	19e0 <proto_clear>
    3d54:	e1a00006 	mov	r0, r6
    3d58:	e24bd018 	sub	sp, fp, #24
    3d5c:	e89d6870 	ldm	sp, {r4, r5, r6, fp, sp, lr}
    3d60:	e12fff1e 	bx	lr
    3d64:	e3e06000 	mvn	r6, #0
    3d68:	eafffff5 	b	3d44 <dev_ping+0x6c>

00003d6c <open>:
    3d6c:	e1a0c00d 	mov	ip, sp
    3d70:	e92dd9f0 	push	{r4, r5, r6, r7, r8, fp, ip, lr, pc}
    3d74:	e24cb004 	sub	fp, ip, #4
    3d78:	e24ddfa5 	sub	sp, sp, #660	; 0x294
    3d7c:	e24b5fa1 	sub	r5, fp, #644	; 0x284
    3d80:	e1a08001 	mov	r8, r1
    3d84:	e1a01005 	mov	r1, r5
    3d88:	e1a04000 	mov	r4, r0
    3d8c:	ebfff1f0 	bl	554 <vfs_get>
    3d90:	e3500000 	cmp	r0, #0
    3d94:	0a000007 	beq	3db8 <open+0x4c>
    3d98:	e3180008 	tst	r8, #8
    3d9c:	0a000031 	beq	3e68 <open+0xfc>
    3da0:	e1a00004 	mov	r0, r4
    3da4:	e1a01005 	mov	r1, r5
    3da8:	e3a02001 	mov	r2, #1
    3dac:	ebfff2db 	bl	920 <vfs_create>
    3db0:	e3500000 	cmp	r0, #0
    3db4:	1a00002b 	bne	3e68 <open+0xfc>
    3db8:	e1a00005 	mov	r0, r5
    3dbc:	e24b1f8b 	sub	r1, fp, #556	; 0x22c
    3dc0:	ebfff236 	bl	6a0 <vfs_get_mount>
    3dc4:	e2507000 	subs	r7, r0, #0
    3dc8:	1a000026 	bne	3e68 <open+0xfc>
    3dcc:	e24b4fad 	sub	r4, fp, #692	; 0x2b4
    3dd0:	e1a00004 	mov	r0, r4
    3dd4:	e1a01007 	mov	r1, r7
    3dd8:	e1a02007 	mov	r2, r7
    3ddc:	e24b6fa7 	sub	r6, fp, #668	; 0x29c
    3de0:	ebfff62a 	bl	1690 <proto_init>
    3de4:	e1a02007 	mov	r2, r7
    3de8:	e1a00006 	mov	r0, r6
    3dec:	e1a01007 	mov	r1, r7
    3df0:	ebfff626 	bl	1690 <proto_init>
    3df4:	e1a00004 	mov	r0, r4
    3df8:	e3a01002 	mov	r1, #2
    3dfc:	ebfff68e 	bl	183c <proto_add_int>
    3e00:	e1a01005 	mov	r1, r5
    3e04:	e3a02058 	mov	r2, #88	; 0x58
    3e08:	e1a00004 	mov	r0, r4
    3e0c:	ebfff655 	bl	1768 <proto_add>
    3e10:	e1a00004 	mov	r0, r4
    3e14:	e1a01008 	mov	r1, r8
    3e18:	ebfff687 	bl	183c <proto_add_int>
    3e1c:	e1a01004 	mov	r1, r4
    3e20:	e1a02006 	mov	r2, r6
    3e24:	e51b022c 	ldr	r0, [fp, #-556]	; 0x22c
    3e28:	ebfff369 	bl	bd4 <ipc_call>
    3e2c:	e3500000 	cmp	r0, #0
    3e30:	13e05000 	mvnne	r5, #0
    3e34:	0a000007 	beq	3e58 <open+0xec>
    3e38:	e1a00004 	mov	r0, r4
    3e3c:	ebfff6e7 	bl	19e0 <proto_clear>
    3e40:	e1a00006 	mov	r0, r6
    3e44:	ebfff6e5 	bl	19e0 <proto_clear>
    3e48:	e1a00005 	mov	r0, r5
    3e4c:	e24bd020 	sub	sp, fp, #32
    3e50:	e89d69f0 	ldm	sp, {r4, r5, r6, r7, r8, fp, sp, lr}
    3e54:	e12fff1e 	bx	lr
    3e58:	e1a00006 	mov	r0, r6
    3e5c:	ebfff6d3 	bl	19b0 <proto_read_int>
    3e60:	e1a05000 	mov	r5, r0
    3e64:	eafffff3 	b	3e38 <open+0xcc>
    3e68:	e3e00000 	mvn	r0, #0
    3e6c:	e24bd020 	sub	sp, fp, #32
    3e70:	e89d69f0 	ldm	sp, {r4, r5, r6, r7, r8, fp, sp, lr}
    3e74:	e12fff1e 	bx	lr

00003e78 <close>:
    3e78:	e1a0c00d 	mov	ip, sp
    3e7c:	e92dd8f0 	push	{r4, r5, r6, r7, fp, ip, lr, pc}
    3e80:	e24cb004 	sub	fp, ip, #4
    3e84:	e24ddf9e 	sub	sp, sp, #632	; 0x278
    3e88:	e24b4f9f 	sub	r4, fp, #636	; 0x27c
    3e8c:	e1a01004 	mov	r1, r4
    3e90:	e1a05000 	mov	r5, r0
    3e94:	ebfff220 	bl	71c <vfs_get_by_fd>
    3e98:	e3500000 	cmp	r0, #0
    3e9c:	0a000002 	beq	3eac <close+0x34>
    3ea0:	e24bd01c 	sub	sp, fp, #28
    3ea4:	e89d68f0 	ldm	sp, {r4, r5, r6, r7, fp, sp, lr}
    3ea8:	e12fff1e 	bx	lr
    3eac:	e1a00004 	mov	r0, r4
    3eb0:	e24b1f89 	sub	r1, fp, #548	; 0x224
    3eb4:	ebfff1f9 	bl	6a0 <vfs_get_mount>
    3eb8:	e2507000 	subs	r7, r0, #0
    3ebc:	0a000005 	beq	3ed8 <close+0x60>
    3ec0:	e1a01005 	mov	r1, r5
    3ec4:	e3a00027 	mov	r0, #39	; 0x27
    3ec8:	ebfff0e2 	bl	258 <syscall1>
    3ecc:	e24bd01c 	sub	sp, fp, #28
    3ed0:	e89d68f0 	ldm	sp, {r4, r5, r6, r7, fp, sp, lr}
    3ed4:	e12fff1e 	bx	lr
    3ed8:	e24b6fa5 	sub	r6, fp, #660	; 0x294
    3edc:	e1a02007 	mov	r2, r7
    3ee0:	e1a00006 	mov	r0, r6
    3ee4:	e1a01007 	mov	r1, r7
    3ee8:	ebfff5e8 	bl	1690 <proto_init>
    3eec:	e1a00006 	mov	r0, r6
    3ef0:	e3a01004 	mov	r1, #4
    3ef4:	ebfff650 	bl	183c <proto_add_int>
    3ef8:	e1a00006 	mov	r0, r6
    3efc:	e1a01005 	mov	r1, r5
    3f00:	ebfff64d 	bl	183c <proto_add_int>
    3f04:	e1a00006 	mov	r0, r6
    3f08:	e1a01004 	mov	r1, r4
    3f0c:	e3a02058 	mov	r2, #88	; 0x58
    3f10:	ebfff614 	bl	1768 <proto_add>
    3f14:	e1a01006 	mov	r1, r6
    3f18:	e1a02007 	mov	r2, r7
    3f1c:	e51b0224 	ldr	r0, [fp, #-548]	; 0x224
    3f20:	ebfff32b 	bl	bd4 <ipc_call>
    3f24:	e1a00006 	mov	r0, r6
    3f28:	ebfff6ac 	bl	19e0 <proto_clear>
    3f2c:	e1a01005 	mov	r1, r5
    3f30:	e3a00027 	mov	r0, #39	; 0x27
    3f34:	ebfff0c7 	bl	258 <syscall1>
    3f38:	eaffffe3 	b	3ecc <close+0x54>

00003f3c <dma>:
    3f3c:	e1a0c00d 	mov	ip, sp
    3f40:	e92ddbf0 	push	{r4, r5, r6, r7, r8, r9, fp, ip, lr, pc}
    3f44:	e24cb004 	sub	fp, ip, #4
    3f48:	e24dde29 	sub	sp, sp, #656	; 0x290
    3f4c:	e24b5fa1 	sub	r5, fp, #644	; 0x284
    3f50:	e1a09001 	mov	r9, r1
    3f54:	e1a01005 	mov	r1, r5
    3f58:	e1a08000 	mov	r8, r0
    3f5c:	ebfff1ee 	bl	71c <vfs_get_by_fd>
    3f60:	e3500000 	cmp	r0, #0
    3f64:	1a000030 	bne	402c <dma+0xf0>
    3f68:	e1a00005 	mov	r0, r5
    3f6c:	e24b1f8b 	sub	r1, fp, #556	; 0x22c
    3f70:	ebfff1ca 	bl	6a0 <vfs_get_mount>
    3f74:	e2507000 	subs	r7, r0, #0
    3f78:	1a00002b 	bne	402c <dma+0xf0>
    3f7c:	e24b4fad 	sub	r4, fp, #692	; 0x2b4
    3f80:	e1a00004 	mov	r0, r4
    3f84:	e1a01007 	mov	r1, r7
    3f88:	e1a02007 	mov	r2, r7
    3f8c:	e24b6fa7 	sub	r6, fp, #668	; 0x29c
    3f90:	ebfff5be 	bl	1690 <proto_init>
    3f94:	e1a02007 	mov	r2, r7
    3f98:	e1a00006 	mov	r0, r6
    3f9c:	e1a01007 	mov	r1, r7
    3fa0:	ebfff5ba 	bl	1690 <proto_init>
    3fa4:	e1a00004 	mov	r0, r4
    3fa8:	e3a0100b 	mov	r1, #11
    3fac:	ebfff622 	bl	183c <proto_add_int>
    3fb0:	e1a00004 	mov	r0, r4
    3fb4:	e1a01008 	mov	r1, r8
    3fb8:	ebfff61f 	bl	183c <proto_add_int>
    3fbc:	e1a01005 	mov	r1, r5
    3fc0:	e1a00004 	mov	r0, r4
    3fc4:	e3a02058 	mov	r2, #88	; 0x58
    3fc8:	ebfff5e6 	bl	1768 <proto_add>
    3fcc:	e1a01004 	mov	r1, r4
    3fd0:	e1a02006 	mov	r2, r6
    3fd4:	e51b022c 	ldr	r0, [fp, #-556]	; 0x22c
    3fd8:	ebfff2fd 	bl	bd4 <ipc_call>
    3fdc:	e3500000 	cmp	r0, #0
    3fe0:	13e05000 	mvnne	r5, #0
    3fe4:	0a000007 	beq	4008 <dma+0xcc>
    3fe8:	e1a00004 	mov	r0, r4
    3fec:	ebfff67b 	bl	19e0 <proto_clear>
    3ff0:	e1a00006 	mov	r0, r6
    3ff4:	ebfff679 	bl	19e0 <proto_clear>
    3ff8:	e1a00005 	mov	r0, r5
    3ffc:	e24bd024 	sub	sp, fp, #36	; 0x24
    4000:	e89d6bf0 	ldm	sp, {r4, r5, r6, r7, r8, r9, fp, sp, lr}
    4004:	e12fff1e 	bx	lr
    4008:	e1a00006 	mov	r0, r6
    400c:	ebfff667 	bl	19b0 <proto_read_int>
    4010:	e3590000 	cmp	r9, #0
    4014:	e1a05000 	mov	r5, r0
    4018:	0afffff2 	beq	3fe8 <dma+0xac>
    401c:	e1a00006 	mov	r0, r6
    4020:	ebfff662 	bl	19b0 <proto_read_int>
    4024:	e5890000 	str	r0, [r9]
    4028:	eaffffee 	b	3fe8 <dma+0xac>
    402c:	e3e00000 	mvn	r0, #0
    4030:	e24bd024 	sub	sp, fp, #36	; 0x24
    4034:	e89d6bf0 	ldm	sp, {r4, r5, r6, r7, r8, r9, fp, sp, lr}
    4038:	e12fff1e 	bx	lr

0000403c <flush>:
    403c:	e1a0c00d 	mov	ip, sp
    4040:	e92dd9f0 	push	{r4, r5, r6, r7, r8, fp, ip, lr, pc}
    4044:	e24cb004 	sub	fp, ip, #4
    4048:	e24ddfa5 	sub	sp, sp, #660	; 0x294
    404c:	e24b4fa1 	sub	r4, fp, #644	; 0x284
    4050:	e1a01004 	mov	r1, r4
    4054:	e1a05000 	mov	r5, r0
    4058:	ebfff1af 	bl	71c <vfs_get_by_fd>
    405c:	e3500000 	cmp	r0, #0
    4060:	0a000002 	beq	4070 <flush+0x34>
    4064:	e24bd020 	sub	sp, fp, #32
    4068:	e89d69f0 	ldm	sp, {r4, r5, r6, r7, r8, fp, sp, lr}
    406c:	e12fff1e 	bx	lr
    4070:	e1a00004 	mov	r0, r4
    4074:	e24b1f8b 	sub	r1, fp, #556	; 0x22c
    4078:	ebfff188 	bl	6a0 <vfs_get_mount>
    407c:	e2508000 	subs	r8, r0, #0
    4080:	1afffff7 	bne	4064 <flush+0x28>
    4084:	e24b6fad 	sub	r6, fp, #692	; 0x2b4
    4088:	e24b7fa7 	sub	r7, fp, #668	; 0x29c
    408c:	e1a00006 	mov	r0, r6
    4090:	e1a01008 	mov	r1, r8
    4094:	e1a02008 	mov	r2, r8
    4098:	ebfff57c 	bl	1690 <proto_init>
    409c:	e1a02008 	mov	r2, r8
    40a0:	e1a00007 	mov	r0, r7
    40a4:	e1a01008 	mov	r1, r8
    40a8:	ebfff578 	bl	1690 <proto_init>
    40ac:	e1a00006 	mov	r0, r6
    40b0:	e3a01010 	mov	r1, #16
    40b4:	ebfff5e0 	bl	183c <proto_add_int>
    40b8:	e1a00006 	mov	r0, r6
    40bc:	e1a01005 	mov	r1, r5
    40c0:	ebfff5dd 	bl	183c <proto_add_int>
    40c4:	e1a00006 	mov	r0, r6
    40c8:	e1a01004 	mov	r1, r4
    40cc:	e3a02058 	mov	r2, #88	; 0x58
    40d0:	ebfff5a4 	bl	1768 <proto_add>
    40d4:	e1a01006 	mov	r1, r6
    40d8:	e1a02007 	mov	r2, r7
    40dc:	e51b022c 	ldr	r0, [fp, #-556]	; 0x22c
    40e0:	ebfff2bb 	bl	bd4 <ipc_call>
    40e4:	e1a00006 	mov	r0, r6
    40e8:	ebfff63c 	bl	19e0 <proto_clear>
    40ec:	e1a00007 	mov	r0, r7
    40f0:	ebfff63a 	bl	19e0 <proto_clear>
    40f4:	e24bd020 	sub	sp, fp, #32
    40f8:	e89d69f0 	ldm	sp, {r4, r5, r6, r7, r8, fp, sp, lr}
    40fc:	e12fff1e 	bx	lr

00004100 <fcntl_raw>:
    4100:	e1a0c00d 	mov	ip, sp
    4104:	e92ddff0 	push	{r4, r5, r6, r7, r8, r9, sl, fp, ip, lr, pc}
    4108:	e24cb004 	sub	fp, ip, #4
    410c:	e24ddfa9 	sub	sp, sp, #676	; 0x2a4
    4110:	e24b5fa3 	sub	r5, fp, #652	; 0x28c
    4114:	e1a08001 	mov	r8, r1
    4118:	e1a01005 	mov	r1, r5
    411c:	e1a07002 	mov	r7, r2
    4120:	e50b32c8 	str	r3, [fp, #-712]	; 0x2c8
    4124:	e1a0a000 	mov	sl, r0
    4128:	ebfff17b 	bl	71c <vfs_get_by_fd>
    412c:	e3500000 	cmp	r0, #0
    4130:	1a00003e 	bne	4230 <fcntl_raw+0x130>
    4134:	e1a00005 	mov	r0, r5
    4138:	e24b1f8d 	sub	r1, fp, #564	; 0x234
    413c:	ebfff157 	bl	6a0 <vfs_get_mount>
    4140:	e2509000 	subs	r9, r0, #0
    4144:	1a000039 	bne	4230 <fcntl_raw+0x130>
    4148:	e24b4faf 	sub	r4, fp, #700	; 0x2bc
    414c:	e1a00004 	mov	r0, r4
    4150:	e1a01009 	mov	r1, r9
    4154:	e1a02009 	mov	r2, r9
    4158:	e24b6fa9 	sub	r6, fp, #676	; 0x2a4
    415c:	ebfff54b 	bl	1690 <proto_init>
    4160:	e1a02009 	mov	r2, r9
    4164:	e1a00006 	mov	r0, r6
    4168:	e1a01009 	mov	r1, r9
    416c:	ebfff547 	bl	1690 <proto_init>
    4170:	e1a00004 	mov	r0, r4
    4174:	e3a0100c 	mov	r1, #12
    4178:	ebfff5af 	bl	183c <proto_add_int>
    417c:	e1a00004 	mov	r0, r4
    4180:	e1a0100a 	mov	r1, sl
    4184:	ebfff5ac 	bl	183c <proto_add_int>
    4188:	e3a02058 	mov	r2, #88	; 0x58
    418c:	e1a01005 	mov	r1, r5
    4190:	e1a00004 	mov	r0, r4
    4194:	ebfff573 	bl	1768 <proto_add>
    4198:	e1a01008 	mov	r1, r8
    419c:	e1a00004 	mov	r0, r4
    41a0:	ebfff5a5 	bl	183c <proto_add_int>
    41a4:	e3570000 	cmp	r7, #0
    41a8:	01a01007 	moveq	r1, r7
    41ac:	19970006 	ldmibne	r7, {r1, r2}
    41b0:	01a02001 	moveq	r2, r1
    41b4:	e1a00004 	mov	r0, r4
    41b8:	ebfff56a 	bl	1768 <proto_add>
    41bc:	e51b0234 	ldr	r0, [fp, #-564]	; 0x234
    41c0:	e1a01004 	mov	r1, r4
    41c4:	e1a02006 	mov	r2, r6
    41c8:	ebfff281 	bl	bd4 <ipc_call>
    41cc:	e3500000 	cmp	r0, #0
    41d0:	13e05000 	mvnne	r5, #0
    41d4:	0a000007 	beq	41f8 <fcntl_raw+0xf8>
    41d8:	e1a00004 	mov	r0, r4
    41dc:	ebfff5ff 	bl	19e0 <proto_clear>
    41e0:	e1a00006 	mov	r0, r6
    41e4:	ebfff5fd 	bl	19e0 <proto_clear>
    41e8:	e1a00005 	mov	r0, r5
    41ec:	e24bd028 	sub	sp, fp, #40	; 0x28
    41f0:	e89d6ff0 	ldm	sp, {r4, r5, r6, r7, r8, r9, sl, fp, sp, lr}
    41f4:	e12fff1e 	bx	lr
    41f8:	e1a00006 	mov	r0, r6
    41fc:	ebfff5eb 	bl	19b0 <proto_read_int>
    4200:	e51b72c8 	ldr	r7, [fp, #-712]	; 0x2c8
    4204:	e3570000 	cmp	r7, #0
    4208:	e1a05000 	mov	r5, r0
    420c:	0afffff1 	beq	41d8 <fcntl_raw+0xd8>
    4210:	e24b1d0b 	sub	r1, fp, #704	; 0x2c0
    4214:	e1a00006 	mov	r0, r6
    4218:	ebfff5a0 	bl	18a0 <proto_read>
    421c:	e51b22c0 	ldr	r2, [fp, #-704]	; 0x2c0
    4220:	e1a01000 	mov	r1, r0
    4224:	e1a00007 	mov	r0, r7
    4228:	ebfff525 	bl	16c4 <proto_copy>
    422c:	eaffffe9 	b	41d8 <fcntl_raw+0xd8>
    4230:	e3e00000 	mvn	r0, #0
    4234:	e24bd028 	sub	sp, fp, #40	; 0x28
    4238:	e89d6ff0 	ldm	sp, {r4, r5, r6, r7, r8, r9, sl, fp, sp, lr}
    423c:	e12fff1e 	bx	lr

00004240 <print_uint_in_base_raw>:
    4240:	e1a0c00d 	mov	ip, sp
    4244:	e92dd8f0 	push	{r4, r5, r6, r7, fp, ip, lr, pc}
    4248:	e3a0e000 	mov	lr, #0
    424c:	e1a05003 	mov	r5, r3
    4250:	e1a06000 	mov	r6, r0
    4254:	e1a0400e 	mov	r4, lr
    4258:	e3a0301f 	mov	r3, #31
    425c:	e3a07001 	mov	r7, #1
    4260:	e24cb004 	sub	fp, ip, #4
    4264:	e1a00317 	lsl	r0, r7, r3
    4268:	e1100001 	tst	r0, r1
    426c:	13a0c001 	movne	ip, #1
    4270:	03a0c000 	moveq	ip, #0
    4274:	e18c4084 	orr	r4, ip, r4, lsl #1
    4278:	e1520004 	cmp	r2, r4
    427c:	e2433001 	sub	r3, r3, #1
    4280:	90624004 	rsbls	r4, r2, r4
    4284:	918ee000 	orrls	lr, lr, r0
    4288:	e3730001 	cmn	r3, #1
    428c:	1afffff4 	bne	4264 <print_uint_in_base_raw+0x24>
    4290:	e35e0000 	cmp	lr, #0
    4294:	1a00000f 	bne	42d8 <print_uint_in_base_raw+0x98>
    4298:	e3550000 	cmp	r5, #0
    429c:	1a000006 	bne	42bc <print_uint_in_base_raw+0x7c>
    42a0:	e59f3044 	ldr	r3, [pc, #68]	; 42ec <print_uint_in_base_raw+0xac>
    42a4:	e08f3003 	add	r3, pc, r3
    42a8:	e7d33004 	ldrb	r3, [r3, r4]
    42ac:	e5c63000 	strb	r3, [r6]
    42b0:	e24bd01c 	sub	sp, fp, #28
    42b4:	e89d68f0 	ldm	sp, {r4, r5, r6, r7, fp, sp, lr}
    42b8:	e12fff1e 	bx	lr
    42bc:	e59f302c 	ldr	r3, [pc, #44]	; 42f0 <print_uint_in_base_raw+0xb0>
    42c0:	e08f3003 	add	r3, pc, r3
    42c4:	e7d33004 	ldrb	r3, [r3, r4]
    42c8:	e5c63000 	strb	r3, [r6]
    42cc:	e24bd01c 	sub	sp, fp, #28
    42d0:	e89d68f0 	ldm	sp, {r4, r5, r6, r7, fp, sp, lr}
    42d4:	e12fff1e 	bx	lr
    42d8:	e1a0100e 	mov	r1, lr
    42dc:	e2860001 	add	r0, r6, #1
    42e0:	e1a03005 	mov	r3, r5
    42e4:	ebffffd5 	bl	4240 <print_uint_in_base_raw>
    42e8:	eaffffea 	b	4298 <print_uint_in_base_raw+0x58>
    42ec:	000065d0 	ldrdeq	r6, [r0], -r0
    42f0:	000065c8 	andeq	r6, r0, r8, asr #11

000042f4 <outc_sn>:
    42f4:	e5913004 	ldr	r3, [r1, #4]
    42f8:	e5912008 	ldr	r2, [r1, #8]
    42fc:	e1530002 	cmp	r3, r2
    4300:	35912000 	ldrcc	r2, [r1]
    4304:	37c20003 	strbcc	r0, [r2, r3]
    4308:	35913004 	ldrcc	r3, [r1, #4]
    430c:	32833001 	addcc	r3, r3, #1
    4310:	35813004 	strcc	r3, [r1, #4]
    4314:	e12fff1e 	bx	lr

00004318 <print_uint_in_base>:
    4318:	e1a0c00d 	mov	ip, sp
    431c:	e92ddff0 	push	{r4, r5, r6, r7, r8, r9, sl, fp, ip, lr, pc}
    4320:	e24cb004 	sub	fp, ip, #4
    4324:	e24dd02c 	sub	sp, sp, #44	; 0x2c
    4328:	e1a0a003 	mov	sl, r3
    432c:	e24b804c 	sub	r8, fp, #76	; 0x4c
    4330:	e50b2050 	str	r2, [fp, #-80]	; 0x50
    4334:	e1a06000 	mov	r6, r0
    4338:	e3a02020 	mov	r2, #32
    433c:	e1a07001 	mov	r7, r1
    4340:	e1a00008 	mov	r0, r8
    4344:	e3a01000 	mov	r1, #0
    4348:	e5db500c 	ldrb	r5, [fp, #12]
    434c:	e5db4008 	ldrb	r4, [fp, #8]
    4350:	e59b9004 	ldr	r9, [fp, #4]
    4354:	eb001518 	bl	97bc <memset>
    4358:	e51bc050 	ldr	ip, [fp, #-80]	; 0x50
    435c:	e1a00008 	mov	r0, r8
    4360:	e1a0100c 	mov	r1, ip
    4364:	e1a0200a 	mov	r2, sl
    4368:	e1a03005 	mov	r3, r5
    436c:	ebffffb3 	bl	4240 <print_uint_in_base_raw>
    4370:	e1a00008 	mov	r0, r8
    4374:	eb001612 	bl	9bc4 <strlen>
    4378:	e3540000 	cmp	r4, #0
    437c:	0a00000c 	beq	43b4 <print_uint_in_base+0x9c>
    4380:	e0604009 	rsb	r4, r0, r9
    4384:	e3540000 	cmp	r4, #0
    4388:	da000033 	ble	445c <print_uint_in_base+0x144>
    438c:	e3a05000 	mov	r5, #0
    4390:	e2855001 	add	r5, r5, #1
    4394:	e3a00030 	mov	r0, #48	; 0x30
    4398:	e1a01007 	mov	r1, r7
    439c:	e1a0e00f 	mov	lr, pc
    43a0:	e12fff16 	bx	r6
    43a4:	e1550004 	cmp	r5, r4
    43a8:	1afffff8 	bne	4390 <print_uint_in_base+0x78>
    43ac:	e1a00008 	mov	r0, r8
    43b0:	eb001603 	bl	9bc4 <strlen>
    43b4:	e2505001 	subs	r5, r0, #1
    43b8:	4a00001b 	bmi	442c <print_uint_in_base+0x114>
    43bc:	e24b302c 	sub	r3, fp, #44	; 0x2c
    43c0:	e0833005 	add	r3, r3, r5
    43c4:	e5530020 	ldrb	r0, [r3, #-32]
    43c8:	e3500000 	cmp	r0, #0
    43cc:	0a000016 	beq	442c <print_uint_in_base+0x114>
    43d0:	e3590000 	cmp	r9, #0
    43d4:	d3a0a000 	movle	sl, #0
    43d8:	c3a0a001 	movgt	sl, #1
    43dc:	e1540009 	cmp	r4, r9
    43e0:	a3590000 	cmpge	r9, #0
    43e4:	ca000019 	bgt	4450 <print_uint_in_base+0x138>
    43e8:	e0888005 	add	r8, r8, r5
    43ec:	ea000007 	b	4410 <print_uint_in_base+0xf8>
    43f0:	e5780001 	ldrb	r0, [r8, #-1]!
    43f4:	e3500000 	cmp	r0, #0
    43f8:	0a00000b 	beq	442c <print_uint_in_base+0x114>
    43fc:	e1590004 	cmp	r9, r4
    4400:	c3a03000 	movgt	r3, #0
    4404:	d20a3001 	andle	r3, sl, #1
    4408:	e3530000 	cmp	r3, #0
    440c:	1a00000f 	bne	4450 <print_uint_in_base+0x138>
    4410:	e2455001 	sub	r5, r5, #1
    4414:	e1a01007 	mov	r1, r7
    4418:	e1a0e00f 	mov	lr, pc
    441c:	e12fff16 	bx	r6
    4420:	e3750001 	cmn	r5, #1
    4424:	e2844001 	add	r4, r4, #1
    4428:	1afffff0 	bne	43f0 <print_uint_in_base+0xd8>
    442c:	e1590004 	cmp	r9, r4
    4430:	da000006 	ble	4450 <print_uint_in_base+0x138>
    4434:	e2844001 	add	r4, r4, #1
    4438:	e3a00020 	mov	r0, #32
    443c:	e1a01007 	mov	r1, r7
    4440:	e1a0e00f 	mov	lr, pc
    4444:	e12fff16 	bx	r6
    4448:	e1540009 	cmp	r4, r9
    444c:	1afffff8 	bne	4434 <print_uint_in_base+0x11c>
    4450:	e24bd028 	sub	sp, fp, #40	; 0x28
    4454:	e89d6ff0 	ldm	sp, {r4, r5, r6, r7, r8, r9, sl, fp, sp, lr}
    4458:	e12fff1e 	bx	lr
    445c:	e3a04000 	mov	r4, #0
    4460:	eaffffd3 	b	43b4 <print_uint_in_base+0x9c>

00004464 <v_printf>:
    4464:	e1a0c00d 	mov	ip, sp
    4468:	e92ddff0 	push	{r4, r5, r6, r7, r8, r9, sl, fp, ip, lr, pc}
    446c:	e24cb004 	sub	fp, ip, #4
    4470:	e24dd02c 	sub	sp, sp, #44	; 0x2c
    4474:	e1a07002 	mov	r7, r2
    4478:	e5d22000 	ldrb	r2, [r2]
    447c:	e3520000 	cmp	r2, #0
    4480:	e1a08003 	mov	r8, r3
    4484:	124b3034 	subne	r3, fp, #52	; 0x34
    4488:	e1a05000 	mov	r5, r0
    448c:	e1a06001 	mov	r6, r1
    4490:	13a04000 	movne	r4, #0
    4494:	11a00002 	movne	r0, r2
    4498:	150b3038 	strne	r3, [fp, #-56]	; 0x38
    449c:	0a000077 	beq	4680 <v_printf+0x21c>
    44a0:	e3500025 	cmp	r0, #37	; 0x25
    44a4:	0a00000a 	beq	44d4 <v_printf+0x70>
    44a8:	e0879004 	add	r9, r7, r4
    44ac:	e1a01006 	mov	r1, r6
    44b0:	e1a0e00f 	mov	lr, pc
    44b4:	e12fff15 	bx	r5
    44b8:	e5f90001 	ldrb	r0, [r9, #1]!
    44bc:	e3500000 	cmp	r0, #0
    44c0:	13500025 	cmpne	r0, #37	; 0x25
    44c4:	e2844001 	add	r4, r4, #1
    44c8:	1afffff7 	bne	44ac <v_printf+0x48>
    44cc:	e3500000 	cmp	r0, #0
    44d0:	0a00006a 	beq	4680 <v_printf+0x21c>
    44d4:	e0873004 	add	r3, r7, r4
    44d8:	e5d33001 	ldrb	r3, [r3, #1]
    44dc:	e3530000 	cmp	r3, #0
    44e0:	0a000066 	beq	4680 <v_printf+0x21c>
    44e4:	e284e001 	add	lr, r4, #1
    44e8:	e7d7300e 	ldrb	r3, [r7, lr]
    44ec:	e3530030 	cmp	r3, #48	; 0x30
    44f0:	0284e002 	addeq	lr, r4, #2
    44f4:	07d7300e 	ldrbeq	r3, [r7, lr]
    44f8:	03a09001 	moveq	r9, #1
    44fc:	13a09000 	movne	r9, #0
    4500:	e353002d 	cmp	r3, #45	; 0x2d
    4504:	13a03000 	movne	r3, #0
    4508:	054b3034 	strbeq	r3, [fp, #-52]	; 0x34
    450c:	03a03001 	moveq	r3, #1
    4510:	e51b2038 	ldr	r2, [fp, #-56]	; 0x38
    4514:	e08ec003 	add	ip, lr, r3
    4518:	e24c0001 	sub	r0, ip, #1
    451c:	e2431001 	sub	r1, r3, #1
    4520:	e0870000 	add	r0, r7, r0
    4524:	e0821001 	add	r1, r2, r1
    4528:	ea000000 	b	4530 <v_printf+0xcc>
    452c:	e08ec003 	add	ip, lr, r3
    4530:	e5f02001 	ldrb	r2, [r0, #1]!
    4534:	e2424030 	sub	r4, r2, #48	; 0x30
    4538:	e3540009 	cmp	r4, #9
    453c:	8a00009d 	bhi	47b8 <v_printf+0x354>
    4540:	e2833001 	add	r3, r3, #1
    4544:	e3530008 	cmp	r3, #8
    4548:	e5e12001 	strb	r2, [r1, #1]!
    454c:	1afffff6 	bne	452c <v_printf+0xc8>
    4550:	e28ea008 	add	sl, lr, #8
    4554:	e7d7200a 	ldrb	r2, [r7, sl]
    4558:	e24b102c 	sub	r1, fp, #44	; 0x2c
    455c:	e0813003 	add	r3, r1, r3
    4560:	e3a01000 	mov	r1, #0
    4564:	e5431008 	strb	r1, [r3, #-8]
    4568:	e55b3034 	ldrb	r3, [fp, #-52]	; 0x34
    456c:	e353002d 	cmp	r3, #45	; 0x2d
    4570:	024b102c 	subeq	r1, fp, #44	; 0x2c
    4574:	05713007 	ldrbeq	r3, [r1, #-7]!
    4578:	e2433030 	sub	r3, r3, #48	; 0x30
    457c:	e20300ff 	and	r0, r3, #255	; 0xff
    4580:	03e0e000 	mvneq	lr, #0
    4584:	13a0e001 	movne	lr, #1
    4588:	151b1038 	ldrne	r1, [fp, #-56]	; 0x38
    458c:	e3500009 	cmp	r0, #9
    4590:	e3a04000 	mov	r4, #0
    4594:	8a000007 	bhi	45b8 <v_printf+0x154>
    4598:	e5f10001 	ldrb	r0, [r1, #1]!
    459c:	e0844104 	add	r4, r4, r4, lsl #2
    45a0:	e0834084 	add	r4, r3, r4, lsl #1
    45a4:	e2403030 	sub	r3, r0, #48	; 0x30
    45a8:	e20300ff 	and	r0, r3, #255	; 0xff
    45ac:	e3500009 	cmp	r0, #9
    45b0:	9afffff8 	bls	4598 <v_printf+0x134>
    45b4:	e004049e 	mul	r4, lr, r4
    45b8:	e2422058 	sub	r2, r2, #88	; 0x58
    45bc:	e3520020 	cmp	r2, #32
    45c0:	908ff102 	addls	pc, pc, r2, lsl #2
    45c4:	ea000029 	b	4670 <v_printf+0x20c>
    45c8:	ea000039 	b	46b4 <v_printf+0x250>
    45cc:	ea000027 	b	4670 <v_printf+0x20c>
    45d0:	ea000026 	b	4670 <v_printf+0x20c>
    45d4:	ea000025 	b	4670 <v_printf+0x20c>
    45d8:	ea000024 	b	4670 <v_printf+0x20c>
    45dc:	ea000023 	b	4670 <v_printf+0x20c>
    45e0:	ea000022 	b	4670 <v_printf+0x20c>
    45e4:	ea000021 	b	4670 <v_printf+0x20c>
    45e8:	ea000020 	b	4670 <v_printf+0x20c>
    45ec:	ea00001f 	b	4670 <v_printf+0x20c>
    45f0:	ea00001e 	b	4670 <v_printf+0x20c>
    45f4:	ea000047 	b	4718 <v_printf+0x2b4>
    45f8:	ea000032 	b	46c8 <v_printf+0x264>
    45fc:	ea00001b 	b	4670 <v_printf+0x20c>
    4600:	ea00001a 	b	4670 <v_printf+0x20c>
    4604:	ea000019 	b	4670 <v_printf+0x20c>
    4608:	ea000018 	b	4670 <v_printf+0x20c>
    460c:	ea000017 	b	4670 <v_printf+0x20c>
    4610:	ea000016 	b	4670 <v_printf+0x20c>
    4614:	ea000015 	b	4670 <v_printf+0x20c>
    4618:	ea000014 	b	4670 <v_printf+0x20c>
    461c:	ea000013 	b	4670 <v_printf+0x20c>
    4620:	ea000012 	b	4670 <v_printf+0x20c>
    4624:	ea000011 	b	4670 <v_printf+0x20c>
    4628:	ea000010 	b	4670 <v_printf+0x20c>
    462c:	ea00000f 	b	4670 <v_printf+0x20c>
    4630:	ea00000e 	b	4670 <v_printf+0x20c>
    4634:	ea00003e 	b	4734 <v_printf+0x2d0>
    4638:	ea00000c 	b	4670 <v_printf+0x20c>
    463c:	ea000012 	b	468c <v_printf+0x228>
    4640:	ea00000a 	b	4670 <v_printf+0x20c>
    4644:	ea000009 	b	4670 <v_printf+0x20c>
    4648:	eaffffff 	b	464c <v_printf+0x1e8>
    464c:	e3a03000 	mov	r3, #0
    4650:	e5982000 	ldr	r2, [r8]
    4654:	e88d0210 	stm	sp, {r4, r9}
    4658:	e2888004 	add	r8, r8, #4
    465c:	e58d3008 	str	r3, [sp, #8]
    4660:	e1a00005 	mov	r0, r5
    4664:	e1a01006 	mov	r1, r6
    4668:	e3a03010 	mov	r3, #16
    466c:	ebffff29 	bl	4318 <print_uint_in_base>
    4670:	e28a4001 	add	r4, sl, #1
    4674:	e7d70004 	ldrb	r0, [r7, r4]
    4678:	e3500000 	cmp	r0, #0
    467c:	1affff87 	bne	44a0 <v_printf+0x3c>
    4680:	e24bd028 	sub	sp, fp, #40	; 0x28
    4684:	e89d6ff0 	ldm	sp, {r4, r5, r6, r7, r8, r9, sl, fp, sp, lr}
    4688:	e12fff1e 	bx	lr
    468c:	e5982000 	ldr	r2, [r8]
    4690:	e2888004 	add	r8, r8, #4
    4694:	e3a03000 	mov	r3, #0
    4698:	e88d0210 	stm	sp, {r4, r9}
    469c:	e58d3008 	str	r3, [sp, #8]
    46a0:	e1a00005 	mov	r0, r5
    46a4:	e1a01006 	mov	r1, r6
    46a8:	e3a0300a 	mov	r3, #10
    46ac:	ebffff19 	bl	4318 <print_uint_in_base>
    46b0:	eaffffee 	b	4670 <v_printf+0x20c>
    46b4:	e5982000 	ldr	r2, [r8]
    46b8:	e3a03001 	mov	r3, #1
    46bc:	e2888004 	add	r8, r8, #4
    46c0:	e88d0210 	stm	sp, {r4, r9}
    46c4:	eaffffe4 	b	465c <v_printf+0x1f8>
    46c8:	e5982000 	ldr	r2, [r8]
    46cc:	e3520000 	cmp	r2, #0
    46d0:	e2888004 	add	r8, r8, #4
    46d4:	aaffffee 	bge	4694 <v_printf+0x230>
    46d8:	e50b203c 	str	r2, [fp, #-60]	; 0x3c
    46dc:	e1a01006 	mov	r1, r6
    46e0:	e3a0002d 	mov	r0, #45	; 0x2d
    46e4:	e1a0e00f 	mov	lr, pc
    46e8:	e12fff15 	bx	r5
    46ec:	e3a03000 	mov	r3, #0
    46f0:	e51b203c 	ldr	r2, [fp, #-60]	; 0x3c
    46f4:	e2444001 	sub	r4, r4, #1
    46f8:	e58d3008 	str	r3, [sp, #8]
    46fc:	e88d0210 	stm	sp, {r4, r9}
    4700:	e2622000 	rsb	r2, r2, #0
    4704:	e1a00005 	mov	r0, r5
    4708:	e1a01006 	mov	r1, r6
    470c:	e3a0300a 	mov	r3, #10
    4710:	ebffff00 	bl	4318 <print_uint_in_base>
    4714:	eaffffd5 	b	4670 <v_printf+0x20c>
    4718:	e2883004 	add	r3, r8, #4
    471c:	e5d80000 	ldrb	r0, [r8]
    4720:	e1a01006 	mov	r1, r6
    4724:	e1a08003 	mov	r8, r3
    4728:	e1a0e00f 	mov	lr, pc
    472c:	e12fff15 	bx	r5
    4730:	eaffffce 	b	4670 <v_printf+0x20c>
    4734:	e5983000 	ldr	r3, [r8]
    4738:	e1a00003 	mov	r0, r3
    473c:	e50b3040 	str	r3, [fp, #-64]	; 0x40
    4740:	eb00151f 	bl	9bc4 <strlen>
    4744:	e2883004 	add	r3, r8, #4
    4748:	e3540000 	cmp	r4, #0
    474c:	e50b303c 	str	r3, [fp, #-60]	; 0x3c
    4750:	ba00001a 	blt	47c0 <v_printf+0x35c>
    4754:	e3a08000 	mov	r8, #0
    4758:	e51b3040 	ldr	r3, [fp, #-64]	; 0x40
    475c:	e2439001 	sub	r9, r3, #1
    4760:	ea000006 	b	4780 <v_printf+0x31c>
    4764:	e2888001 	add	r8, r8, #1
    4768:	e1a01006 	mov	r1, r6
    476c:	e1a0e00f 	mov	lr, pc
    4770:	e12fff15 	bx	r5
    4774:	e1580004 	cmp	r8, r4
    4778:	a3540000 	cmpge	r4, #0
    477c:	ca000002 	bgt	478c <v_printf+0x328>
    4780:	e5f90001 	ldrb	r0, [r9, #1]!
    4784:	e3500000 	cmp	r0, #0
    4788:	1afffff5 	bne	4764 <v_printf+0x300>
    478c:	e1580004 	cmp	r8, r4
    4790:	aa000006 	bge	47b0 <v_printf+0x34c>
    4794:	e2888001 	add	r8, r8, #1
    4798:	e3a00020 	mov	r0, #32
    479c:	e1a01006 	mov	r1, r6
    47a0:	e1a0e00f 	mov	lr, pc
    47a4:	e12fff15 	bx	r5
    47a8:	e1580004 	cmp	r8, r4
    47ac:	1afffff8 	bne	4794 <v_printf+0x330>
    47b0:	e51b803c 	ldr	r8, [fp, #-60]	; 0x3c
    47b4:	eaffffad 	b	4670 <v_printf+0x20c>
    47b8:	e1a0a00c 	mov	sl, ip
    47bc:	eaffff65 	b	4558 <v_printf+0xf4>
    47c0:	e2644000 	rsb	r4, r4, #0
    47c4:	e0608004 	rsb	r8, r0, r4
    47c8:	e3580000 	cmp	r8, #0
    47cc:	daffffe0 	ble	4754 <v_printf+0x2f0>
    47d0:	e3a09000 	mov	r9, #0
    47d4:	e2899001 	add	r9, r9, #1
    47d8:	e3a00020 	mov	r0, #32
    47dc:	e1a01006 	mov	r1, r6
    47e0:	e1a0e00f 	mov	lr, pc
    47e4:	e12fff15 	bx	r5
    47e8:	e1590008 	cmp	r9, r8
    47ec:	1afffff8 	bne	47d4 <v_printf+0x370>
    47f0:	eaffffd8 	b	4758 <v_printf+0x2f4>

000047f4 <snprintf>:
    47f4:	e1a0c00d 	mov	ip, sp
    47f8:	e92d000c 	push	{r2, r3}
    47fc:	e92dd810 	push	{r4, fp, ip, lr, pc}
    4800:	e3a04000 	mov	r4, #0
    4804:	e24cb00c 	sub	fp, ip, #12
    4808:	e24dd014 	sub	sp, sp, #20
    480c:	e50b0020 	str	r0, [fp, #-32]
    4810:	e59f003c 	ldr	r0, [pc, #60]	; 4854 <snprintf+0x60>
    4814:	e28bc008 	add	ip, fp, #8
    4818:	e50b1018 	str	r1, [fp, #-24]
    481c:	e1a0300c 	mov	r3, ip
    4820:	e59b2004 	ldr	r2, [fp, #4]
    4824:	e08f0000 	add	r0, pc, r0
    4828:	e24b1020 	sub	r1, fp, #32
    482c:	e50b401c 	str	r4, [fp, #-28]
    4830:	e50bc024 	str	ip, [fp, #-36]	; 0x24
    4834:	ebffff0a 	bl	4464 <v_printf>
    4838:	e24b2020 	sub	r2, fp, #32
    483c:	e892000c 	ldm	r2, {r2, r3}
    4840:	e7c24003 	strb	r4, [r2, r3]
    4844:	e51b001c 	ldr	r0, [fp, #-28]
    4848:	e24bd010 	sub	sp, fp, #16
    484c:	e89d6810 	ldm	sp, {r4, fp, sp, lr}
    4850:	e12fff1e 	bx	lr
    4854:	fffffac8 			; <UNDEFINED> instruction: 0xfffffac8

00004858 <outc>:
    4858:	e1a0c00d 	mov	ip, sp
    485c:	e1a03000 	mov	r3, r0
    4860:	e92dd800 	push	{fp, ip, lr, pc}
    4864:	e1a00001 	mov	r0, r1
    4868:	e24cb004 	sub	fp, ip, #4
    486c:	e1a01003 	mov	r1, r3
    4870:	eb000ec0 	bl	8378 <str_addc>
    4874:	e24bd00c 	sub	sp, fp, #12
    4878:	e89d6800 	ldm	sp, {fp, sp, lr}
    487c:	e12fff1e 	bx	lr

00004880 <dprintf>:
    4880:	e1a0c00d 	mov	ip, sp
    4884:	e92d000e 	push	{r1, r2, r3}
    4888:	e92dd830 	push	{r4, r5, fp, ip, lr, pc}
    488c:	e1a05000 	mov	r5, r0
    4890:	e59f0054 	ldr	r0, [pc, #84]	; 48ec <dprintf+0x6c>
    4894:	e24cb010 	sub	fp, ip, #16
    4898:	e24dd00c 	sub	sp, sp, #12
    489c:	e28b3008 	add	r3, fp, #8
    48a0:	e08f0000 	add	r0, pc, r0
    48a4:	e50b301c 	str	r3, [fp, #-28]
    48a8:	eb000e66 	bl	8248 <str_new>
    48ac:	e1a04000 	mov	r4, r0
    48b0:	e1a01000 	mov	r1, r0
    48b4:	e59f0034 	ldr	r0, [pc, #52]	; 48f0 <dprintf+0x70>
    48b8:	e51b301c 	ldr	r3, [fp, #-28]
    48bc:	e59b2004 	ldr	r2, [fp, #4]
    48c0:	e08f0000 	add	r0, pc, r0
    48c4:	ebfffee6 	bl	4464 <v_printf>
    48c8:	e5941000 	ldr	r1, [r4]
    48cc:	e1d420b6 	ldrh	r2, [r4, #6]
    48d0:	e1a00005 	mov	r0, r5
    48d4:	ebfffb25 	bl	3570 <write>
    48d8:	e1a00004 	mov	r0, r4
    48dc:	eb000ec6 	bl	83fc <str_free>
    48e0:	e24bd014 	sub	sp, fp, #20
    48e4:	e89d6830 	ldm	sp, {r4, r5, fp, sp, lr}
    48e8:	e12fff1e 	bx	lr
    48ec:	00006040 	andeq	r6, r0, r0, asr #32
    48f0:	ffffff90 			; <UNDEFINED> instruction: 0xffffff90

000048f4 <printf>:
    48f4:	e1a0c00d 	mov	ip, sp
    48f8:	e92d000f 	push	{r0, r1, r2, r3}
    48fc:	e92dd810 	push	{r4, fp, ip, lr, pc}
    4900:	e59f0054 	ldr	r0, [pc, #84]	; 495c <printf+0x68>
    4904:	e24cb014 	sub	fp, ip, #20
    4908:	e24dd00c 	sub	sp, sp, #12
    490c:	e08f0000 	add	r0, pc, r0
    4910:	eb000e4c 	bl	8248 <str_new>
    4914:	e1a04000 	mov	r4, r0
    4918:	e1a01000 	mov	r1, r0
    491c:	e59f003c 	ldr	r0, [pc, #60]	; 4960 <printf+0x6c>
    4920:	e28bc008 	add	ip, fp, #8
    4924:	e1a0300c 	mov	r3, ip
    4928:	e59b2004 	ldr	r2, [fp, #4]
    492c:	e08f0000 	add	r0, pc, r0
    4930:	e50bc018 	str	ip, [fp, #-24]
    4934:	ebfffeca 	bl	4464 <v_printf>
    4938:	e5941000 	ldr	r1, [r4]
    493c:	e1d420b6 	ldrh	r2, [r4, #6]
    4940:	e3a00001 	mov	r0, #1
    4944:	ebfffb09 	bl	3570 <write>
    4948:	e1a00004 	mov	r0, r4
    494c:	eb000eaa 	bl	83fc <str_free>
    4950:	e24bd010 	sub	sp, fp, #16
    4954:	e89d6810 	ldm	sp, {r4, fp, sp, lr}
    4958:	e12fff1e 	bx	lr
    495c:	00005fd4 	ldrdeq	r5, [r0], -r4
    4960:	ffffff24 			; <UNDEFINED> instruction: 0xffffff24

00004964 <kprintf>:
    4964:	e1a0c00d 	mov	ip, sp
    4968:	e92d000f 	push	{r0, r1, r2, r3}
    496c:	e92dd810 	push	{r4, fp, ip, lr, pc}
    4970:	e59f0054 	ldr	r0, [pc, #84]	; 49cc <kprintf+0x68>
    4974:	e24cb014 	sub	fp, ip, #20
    4978:	e24dd00c 	sub	sp, sp, #12
    497c:	e08f0000 	add	r0, pc, r0
    4980:	eb000e30 	bl	8248 <str_new>
    4984:	e1a04000 	mov	r4, r0
    4988:	e1a01000 	mov	r1, r0
    498c:	e59f003c 	ldr	r0, [pc, #60]	; 49d0 <kprintf+0x6c>
    4990:	e28bc008 	add	ip, fp, #8
    4994:	e1a0300c 	mov	r3, ip
    4998:	e59b2004 	ldr	r2, [fp, #4]
    499c:	e08f0000 	add	r0, pc, r0
    49a0:	e50bc018 	str	ip, [fp, #-24]
    49a4:	ebfffeae 	bl	4464 <v_printf>
    49a8:	e5941000 	ldr	r1, [r4]
    49ac:	e1d420b6 	ldrh	r2, [r4, #6]
    49b0:	e3a00001 	mov	r0, #1
    49b4:	ebffee11 	bl	200 <syscall2>
    49b8:	e1a00004 	mov	r0, r4
    49bc:	eb000e8e 	bl	83fc <str_free>
    49c0:	e24bd010 	sub	sp, fp, #16
    49c4:	e89d6810 	ldm	sp, {r4, fp, sp, lr}
    49c8:	e12fff1e 	bx	lr
    49cc:	00005f64 	andeq	r5, r0, r4, ror #30
    49d0:	fffffeb4 			; <UNDEFINED> instruction: 0xfffffeb4

000049d4 <getch>:
    49d4:	e1a0c00d 	mov	ip, sp
    49d8:	e92dd830 	push	{r4, r5, fp, ip, lr, pc}
    49dc:	e59f5060 	ldr	r5, [pc, #96]	; 4a44 <getch+0x70>
    49e0:	e24cb004 	sub	fp, ip, #4
    49e4:	e24dd008 	sub	sp, sp, #8
    49e8:	e24b4015 	sub	r4, fp, #21
    49ec:	e08f5005 	add	r5, pc, r5
    49f0:	e3a00000 	mov	r0, #0
    49f4:	e1a01004 	mov	r1, r4
    49f8:	e3a02001 	mov	r2, #1
    49fc:	ebfff981 	bl	3008 <read>
    4a00:	e3500001 	cmp	r0, #1
    4a04:	0a00000a 	beq	4a34 <getch+0x60>
    4a08:	e3500000 	cmp	r0, #0
    4a0c:	cafffff7 	bgt	49f0 <getch+0x1c>
    4a10:	e59f3030 	ldr	r3, [pc, #48]	; 4a48 <getch+0x74>
    4a14:	e7953003 	ldr	r3, [r5, r3]
    4a18:	e5933000 	ldr	r3, [r3]
    4a1c:	e3530001 	cmp	r3, #1
    4a20:	0afffff2 	beq	49f0 <getch+0x1c>
    4a24:	e3a00000 	mov	r0, #0
    4a28:	e24bd014 	sub	sp, fp, #20
    4a2c:	e89d6830 	ldm	sp, {r4, r5, fp, sp, lr}
    4a30:	e12fff1e 	bx	lr
    4a34:	e55b0015 	ldrb	r0, [fp, #-21]
    4a38:	e24bd014 	sub	sp, fp, #20
    4a3c:	e89d6830 	ldm	sp, {r4, r5, fp, sp, lr}
    4a40:	e12fff1e 	bx	lr
    4a44:	0000f7c4 	andeq	pc, r0, r4, asr #15
    4a48:	0000000c 	andeq	r0, r0, ip

00004a4c <putch>:
    4a4c:	e1a0c00d 	mov	ip, sp
    4a50:	e92dd800 	push	{fp, ip, lr, pc}
    4a54:	e24cb004 	sub	fp, ip, #4
    4a58:	e24dd008 	sub	sp, sp, #8
    4a5c:	e24b100c 	sub	r1, fp, #12
    4a60:	e5210004 	str	r0, [r1, #-4]!
    4a64:	e3a00001 	mov	r0, #1
    4a68:	e1a02000 	mov	r2, r0
    4a6c:	ebfffabf 	bl	3570 <write>
    4a70:	e24bd00c 	sub	sp, fp, #12
    4a74:	e89d6800 	ldm	sp, {fp, sp, lr}
    4a78:	e12fff1e 	bx	lr

00004a7c <fopen>:
    4a7c:	e1a0c00d 	mov	ip, sp
    4a80:	e92dd8f0 	push	{r4, r5, r6, r7, fp, ip, lr, pc}
    4a84:	e24cb004 	sub	fp, ip, #4
    4a88:	e1a07000 	mov	r7, r0
    4a8c:	e3a00008 	mov	r0, #8
    4a90:	e1a06001 	mov	r6, r1
    4a94:	ebfffbea 	bl	3a44 <malloc>
    4a98:	e2504000 	subs	r4, r0, #0
    4a9c:	0a000027 	beq	4b40 <fopen+0xc4>
    4aa0:	e59f10b0 	ldr	r1, [pc, #176]	; 4b58 <fopen+0xdc>
    4aa4:	e1a00006 	mov	r0, r6
    4aa8:	e08f1001 	add	r1, pc, r1
    4aac:	eb00137f 	bl	98b0 <strcmp>
    4ab0:	e3500000 	cmp	r0, #0
    4ab4:	01a05000 	moveq	r5, r0
    4ab8:	1a00000a 	bne	4ae8 <fopen+0x6c>
    4abc:	e1a00007 	mov	r0, r7
    4ac0:	e1a01005 	mov	r1, r5
    4ac4:	ebfffca8 	bl	3d6c <open>
    4ac8:	e3500000 	cmp	r0, #0
    4acc:	e5840000 	str	r0, [r4]
    4ad0:	a5845004 	strge	r5, [r4, #4]
    4ad4:	a1a00004 	movge	r0, r4
    4ad8:	ba00001a 	blt	4b48 <fopen+0xcc>
    4adc:	e24bd01c 	sub	sp, fp, #28
    4ae0:	e89d68f0 	ldm	sp, {r4, r5, r6, r7, fp, sp, lr}
    4ae4:	e12fff1e 	bx	lr
    4ae8:	e59f106c 	ldr	r1, [pc, #108]	; 4b5c <fopen+0xe0>
    4aec:	e1a00006 	mov	r0, r6
    4af0:	e08f1001 	add	r1, pc, r1
    4af4:	eb00136d 	bl	98b0 <strcmp>
    4af8:	e3500000 	cmp	r0, #0
    4afc:	03a05003 	moveq	r5, #3
    4b00:	0affffed 	beq	4abc <fopen+0x40>
    4b04:	e59f1054 	ldr	r1, [pc, #84]	; 4b60 <fopen+0xe4>
    4b08:	e1a00006 	mov	r0, r6
    4b0c:	e08f1001 	add	r1, pc, r1
    4b10:	eb001366 	bl	98b0 <strcmp>
    4b14:	e3500000 	cmp	r0, #0
    4b18:	03a05002 	moveq	r5, #2
    4b1c:	0affffe6 	beq	4abc <fopen+0x40>
    4b20:	e59f103c 	ldr	r1, [pc, #60]	; 4b64 <fopen+0xe8>
    4b24:	e1a00006 	mov	r0, r6
    4b28:	e08f1001 	add	r1, pc, r1
    4b2c:	eb00135f 	bl	98b0 <strcmp>
    4b30:	e3500000 	cmp	r0, #0
    4b34:	03a0500a 	moveq	r5, #10
    4b38:	13a05000 	movne	r5, #0
    4b3c:	eaffffde 	b	4abc <fopen+0x40>
    4b40:	e1a00004 	mov	r0, r4
    4b44:	eaffffe4 	b	4adc <fopen+0x60>
    4b48:	e1a00004 	mov	r0, r4
    4b4c:	ebfffbc5 	bl	3a68 <free>
    4b50:	e3a00000 	mov	r0, #0
    4b54:	eaffffe0 	b	4adc <fopen+0x60>
    4b58:	00005df4 	strdeq	r5, [r0], -r4
    4b5c:	00005db0 			; <UNDEFINED> instruction: 0x00005db0
    4b60:	00005d98 	muleq	r0, r8, sp
    4b64:	00005d80 	andeq	r5, r0, r0, lsl #27

00004b68 <fclose>:
    4b68:	e1a0c00d 	mov	ip, sp
    4b6c:	e92dd818 	push	{r3, r4, fp, ip, lr, pc}
    4b70:	e2504000 	subs	r4, r0, #0
    4b74:	e24cb004 	sub	fp, ip, #4
    4b78:	0a000003 	beq	4b8c <fclose+0x24>
    4b7c:	e5940000 	ldr	r0, [r4]
    4b80:	ebfffcbc 	bl	3e78 <close>
    4b84:	e1a00004 	mov	r0, r4
    4b88:	ebfffbb6 	bl	3a68 <free>
    4b8c:	e24bd014 	sub	sp, fp, #20
    4b90:	e89d6818 	ldm	sp, {r3, r4, fp, sp, lr}
    4b94:	e12fff1e 	bx	lr

00004b98 <fread>:
    4b98:	e1a0c00d 	mov	ip, sp
    4b9c:	e3530000 	cmp	r3, #0
    4ba0:	13510000 	cmpne	r1, #0
    4ba4:	e92dd818 	push	{r3, r4, fp, ip, lr, pc}
    4ba8:	e24cb004 	sub	fp, ip, #4
    4bac:	e1a04001 	mov	r4, r1
    4bb0:	e1a0c000 	mov	ip, r0
    4bb4:	03a00000 	moveq	r0, #0
    4bb8:	0a000006 	beq	4bd8 <fread+0x40>
    4bbc:	e1a0100c 	mov	r1, ip
    4bc0:	e5930000 	ldr	r0, [r3]
    4bc4:	e0020294 	mul	r2, r4, r2
    4bc8:	ebfff90e 	bl	3008 <read>
    4bcc:	e1a01004 	mov	r1, r4
    4bd0:	e1c00fc0 	bic	r0, r0, r0, asr #31
    4bd4:	ebfff3b6 	bl	1ab4 <div_u32>
    4bd8:	e24bd014 	sub	sp, fp, #20
    4bdc:	e89d6818 	ldm	sp, {r3, r4, fp, sp, lr}
    4be0:	e12fff1e 	bx	lr

00004be4 <fwrite>:
    4be4:	e1a0c00d 	mov	ip, sp
    4be8:	e92dd818 	push	{r3, r4, fp, ip, lr, pc}
    4bec:	e2514000 	subs	r4, r1, #0
    4bf0:	e24cb004 	sub	fp, ip, #4
    4bf4:	e1a01000 	mov	r1, r0
    4bf8:	01a00004 	moveq	r0, r4
    4bfc:	0a000005 	beq	4c18 <fwrite+0x34>
    4c00:	e5930000 	ldr	r0, [r3]
    4c04:	e0020294 	mul	r2, r4, r2
    4c08:	ebfffa58 	bl	3570 <write>
    4c0c:	e1a01004 	mov	r1, r4
    4c10:	e1c00fc0 	bic	r0, r0, r0, asr #31
    4c14:	ebfff3a6 	bl	1ab4 <div_u32>
    4c18:	e24bd014 	sub	sp, fp, #20
    4c1c:	e89d6818 	ldm	sp, {r3, r4, fp, sp, lr}
    4c20:	e12fff1e 	bx	lr

00004c24 <fseek>:
    4c24:	e1a0c00d 	mov	ip, sp
    4c28:	e3500000 	cmp	r0, #0
    4c2c:	e92dd800 	push	{fp, ip, lr, pc}
    4c30:	e24cb004 	sub	fp, ip, #4
    4c34:	0a000004 	beq	4c4c <fseek+0x28>
    4c38:	e5900000 	ldr	r0, [r0]
    4c3c:	ebfffabe 	bl	373c <lseek>
    4c40:	e24bd00c 	sub	sp, fp, #12
    4c44:	e89d6800 	ldm	sp, {fp, sp, lr}
    4c48:	e12fff1e 	bx	lr
    4c4c:	e3e00000 	mvn	r0, #0
    4c50:	eafffffa 	b	4c40 <fseek+0x1c>

00004c54 <graph_insect>:
    4c54:	e3500000 	cmp	r0, #0
    4c58:	e92d4070 	push	{r4, r5, r6, lr}
    4c5c:	0a000026 	beq	4cfc <graph_insect+0xa8>
    4c60:	e5912000 	ldr	r2, [r1]
    4c64:	e5903004 	ldr	r3, [r0, #4]
    4c68:	e1520003 	cmp	r2, r3
    4c6c:	aa000022 	bge	4cfc <graph_insect+0xa8>
    4c70:	e590e008 	ldr	lr, [r0, #8]
    4c74:	e5910004 	ldr	r0, [r1, #4]
    4c78:	e150000e 	cmp	r0, lr
    4c7c:	aa00001e 	bge	4cfc <graph_insect+0xa8>
    4c80:	e591c008 	ldr	ip, [r1, #8]
    4c84:	e082600c 	add	r6, r2, ip
    4c88:	e1530006 	cmp	r3, r6
    4c8c:	e591400c 	ldr	r4, [r1, #12]
    4c90:	d08c3003 	addle	r3, ip, r3
    4c94:	d066c003 	rsble	ip, r6, r3
    4c98:	e0805004 	add	r5, r0, r4
    4c9c:	d581c008 	strle	ip, [r1, #8]
    4ca0:	e15e0005 	cmp	lr, r5
    4ca4:	d084e00e 	addle	lr, r4, lr
    4ca8:	d065e00e 	rsble	lr, r5, lr
    4cac:	d581e00c 	strle	lr, [r1, #12]
    4cb0:	e3520000 	cmp	r2, #0
    4cb4:	b3a03000 	movlt	r3, #0
    4cb8:	b08cc002 	addlt	ip, ip, r2
    4cbc:	b5813000 	strlt	r3, [r1]
    4cc0:	b581c008 	strlt	ip, [r1, #8]
    4cc4:	e3500000 	cmp	r0, #0
    4cc8:	b3a02000 	movlt	r2, #0
    4ccc:	b591300c 	ldrlt	r3, [r1, #12]
    4cd0:	b0830000 	addlt	r0, r3, r0
    4cd4:	b581000c 	strlt	r0, [r1, #12]
    4cd8:	b5812004 	strlt	r2, [r1, #4]
    4cdc:	e35c0000 	cmp	ip, #0
    4ce0:	da000005 	ble	4cfc <graph_insect+0xa8>
    4ce4:	e591000c 	ldr	r0, [r1, #12]
    4ce8:	e3500000 	cmp	r0, #0
    4cec:	d3a00000 	movle	r0, #0
    4cf0:	c3a00001 	movgt	r0, #1
    4cf4:	e8bd4070 	pop	{r4, r5, r6, lr}
    4cf8:	e12fff1e 	bx	lr
    4cfc:	e3a00000 	mov	r0, #0
    4d00:	e8bd4070 	pop	{r4, r5, r6, lr}
    4d04:	e12fff1e 	bx	lr

00004d08 <insect>:
    4d08:	e1a0c00d 	mov	ip, sp
    4d0c:	e92dd878 	push	{r3, r4, r5, r6, fp, ip, lr, pc}
    4d10:	e1a04001 	mov	r4, r1
    4d14:	e1a05003 	mov	r5, r3
    4d18:	e5911000 	ldr	r1, [r1]
    4d1c:	e5933000 	ldr	r3, [r3]
    4d20:	e1510003 	cmp	r1, r3
    4d24:	a1a0e003 	movge	lr, r3
    4d28:	b1a0e001 	movlt	lr, r1
    4d2c:	e5943004 	ldr	r3, [r4, #4]
    4d30:	e24cb004 	sub	fp, ip, #4
    4d34:	e595c004 	ldr	ip, [r5, #4]
    4d38:	e153000c 	cmp	r3, ip
    4d3c:	b1a0c003 	movlt	ip, r3
    4d40:	e35e0000 	cmp	lr, #0
    4d44:	e1a06002 	mov	r6, r2
    4d48:	ba000031 	blt	4e14 <insect+0x10c>
    4d4c:	e35c0000 	cmp	ip, #0
    4d50:	ba000023 	blt	4de4 <insect+0xdc>
    4d54:	e1a01004 	mov	r1, r4
    4d58:	ebffffbd 	bl	4c54 <graph_insect>
    4d5c:	e3500000 	cmp	r0, #0
    4d60:	1a000003 	bne	4d74 <insect+0x6c>
    4d64:	e3a00000 	mov	r0, #0
    4d68:	e24bd01c 	sub	sp, fp, #28
    4d6c:	e89d6878 	ldm	sp, {r3, r4, r5, r6, fp, sp, lr}
    4d70:	e12fff1e 	bx	lr
    4d74:	e1a00006 	mov	r0, r6
    4d78:	e1a01005 	mov	r1, r5
    4d7c:	ebffffb4 	bl	4c54 <graph_insect>
    4d80:	e3500000 	cmp	r0, #0
    4d84:	0afffff6 	beq	4d64 <insect+0x5c>
    4d88:	e5943008 	ldr	r3, [r4, #8]
    4d8c:	e3530000 	cmp	r3, #0
    4d90:	dafffff3 	ble	4d64 <insect+0x5c>
    4d94:	e594200c 	ldr	r2, [r4, #12]
    4d98:	e3520000 	cmp	r2, #0
    4d9c:	dafffff0 	ble	4d64 <insect+0x5c>
    4da0:	e5951008 	ldr	r1, [r5, #8]
    4da4:	e3510000 	cmp	r1, #0
    4da8:	daffffed 	ble	4d64 <insect+0x5c>
    4dac:	e595000c 	ldr	r0, [r5, #12]
    4db0:	e3500000 	cmp	r0, #0
    4db4:	daffffea 	ble	4d64 <insect+0x5c>
    4db8:	e1530001 	cmp	r3, r1
    4dbc:	c5841008 	strgt	r1, [r4, #8]
    4dc0:	d5853008 	strle	r3, [r5, #8]
    4dc4:	e1520000 	cmp	r2, r0
    4dc8:	c584000c 	strgt	r0, [r4, #12]
    4dcc:	d3a00001 	movle	r0, #1
    4dd0:	c3a00001 	movgt	r0, #1
    4dd4:	d585200c 	strle	r2, [r5, #12]
    4dd8:	e24bd01c 	sub	sp, fp, #28
    4ddc:	e89d6878 	ldm	sp, {r3, r4, r5, r6, fp, sp, lr}
    4de0:	e12fff1e 	bx	lr
    4de4:	e06c3003 	rsb	r3, ip, r3
    4de8:	e5843004 	str	r3, [r4, #4]
    4dec:	e594300c 	ldr	r3, [r4, #12]
    4df0:	e5952004 	ldr	r2, [r5, #4]
    4df4:	e083300c 	add	r3, r3, ip
    4df8:	e06c2002 	rsb	r2, ip, r2
    4dfc:	e5852004 	str	r2, [r5, #4]
    4e00:	e584300c 	str	r3, [r4, #12]
    4e04:	e595300c 	ldr	r3, [r5, #12]
    4e08:	e083c00c 	add	ip, r3, ip
    4e0c:	e585c00c 	str	ip, [r5, #12]
    4e10:	eaffffcf 	b	4d54 <insect+0x4c>
    4e14:	e06e1001 	rsb	r1, lr, r1
    4e18:	e5841000 	str	r1, [r4]
    4e1c:	e5942008 	ldr	r2, [r4, #8]
    4e20:	e5951000 	ldr	r1, [r5]
    4e24:	e082200e 	add	r2, r2, lr
    4e28:	e06e1001 	rsb	r1, lr, r1
    4e2c:	e5851000 	str	r1, [r5]
    4e30:	e5842008 	str	r2, [r4, #8]
    4e34:	e5952008 	ldr	r2, [r5, #8]
    4e38:	e082e00e 	add	lr, r2, lr
    4e3c:	e585e008 	str	lr, [r5, #8]
    4e40:	eaffffc1 	b	4d4c <insect+0x44>

00004e44 <argb>:
    4e44:	e1812402 	orr	r2, r1, r2, lsl #8
    4e48:	e1823803 	orr	r3, r2, r3, lsl #16
    4e4c:	e1830c00 	orr	r0, r3, r0, lsl #24
    4e50:	e12fff1e 	bx	lr

00004e54 <has_alpha>:
    4e54:	e1a00c20 	lsr	r0, r0, #24
    4e58:	e25000ff 	subs	r0, r0, #255	; 0xff
    4e5c:	13a00001 	movne	r0, #1
    4e60:	e12fff1e 	bx	lr

00004e64 <argb_int>:
    4e64:	e1a02400 	lsl	r2, r0, #8
    4e68:	e20034ff 	and	r3, r0, #-16777216	; 0xff000000
    4e6c:	e1833c22 	orr	r3, r3, r2, lsr #24
    4e70:	e20020ff 	and	r2, r0, #255	; 0xff
    4e74:	e1833802 	orr	r3, r3, r2, lsl #16
    4e78:	e2000cff 	and	r0, r0, #65280	; 0xff00
    4e7c:	e1830000 	orr	r0, r3, r0
    4e80:	e12fff1e 	bx	lr

00004e84 <graph_new>:
    4e84:	e1a0c00d 	mov	ip, sp
    4e88:	e92dd8f0 	push	{r4, r5, r6, r7, fp, ip, lr, pc}
    4e8c:	e1a05000 	mov	r5, r0
    4e90:	e24cb004 	sub	fp, ip, #4
    4e94:	e3a00010 	mov	r0, #16
    4e98:	e1a07001 	mov	r7, r1
    4e9c:	e1a06002 	mov	r6, r2
    4ea0:	ebfffae7 	bl	3a44 <malloc>
    4ea4:	e3550000 	cmp	r5, #0
    4ea8:	e1a04000 	mov	r4, r0
    4eac:	e5807004 	str	r7, [r0, #4]
    4eb0:	e5806008 	str	r6, [r0, #8]
    4eb4:	0a000006 	beq	4ed4 <graph_new+0x50>
    4eb8:	e3a03000 	mov	r3, #0
    4ebc:	e5805000 	str	r5, [r0]
    4ec0:	e580300c 	str	r3, [r0, #12]
    4ec4:	e1a00004 	mov	r0, r4
    4ec8:	e24bd01c 	sub	sp, fp, #28
    4ecc:	e89d68f0 	ldm	sp, {r4, r5, r6, r7, fp, sp, lr}
    4ed0:	e12fff1e 	bx	lr
    4ed4:	e1a00106 	lsl	r0, r6, #2
    4ed8:	e0000097 	mul	r0, r7, r0
    4edc:	ebfffad8 	bl	3a44 <malloc>
    4ee0:	e3a03001 	mov	r3, #1
    4ee4:	e5840000 	str	r0, [r4]
    4ee8:	e1a00004 	mov	r0, r4
    4eec:	e584300c 	str	r3, [r4, #12]
    4ef0:	e24bd01c 	sub	sp, fp, #28
    4ef4:	e89d68f0 	ldm	sp, {r4, r5, r6, r7, fp, sp, lr}
    4ef8:	e12fff1e 	bx	lr

00004efc <graph_free>:
    4efc:	e1a0c00d 	mov	ip, sp
    4f00:	e92dd818 	push	{r3, r4, fp, ip, lr, pc}
    4f04:	e2504000 	subs	r4, r0, #0
    4f08:	e24cb004 	sub	fp, ip, #4
    4f0c:	0a000007 	beq	4f30 <graph_free+0x34>
    4f10:	e5940000 	ldr	r0, [r4]
    4f14:	e3500000 	cmp	r0, #0
    4f18:	0a000002 	beq	4f28 <graph_free+0x2c>
    4f1c:	e594300c 	ldr	r3, [r4, #12]
    4f20:	e3530001 	cmp	r3, #1
    4f24:	0a000004 	beq	4f3c <graph_free+0x40>
    4f28:	e1a00004 	mov	r0, r4
    4f2c:	ebfffacd 	bl	3a68 <free>
    4f30:	e24bd014 	sub	sp, fp, #20
    4f34:	e89d6818 	ldm	sp, {r3, r4, fp, sp, lr}
    4f38:	e12fff1e 	bx	lr
    4f3c:	ebfffac9 	bl	3a68 <free>
    4f40:	eafffff8 	b	4f28 <graph_free+0x2c>

00004f44 <pixel>:
    4f44:	e590c004 	ldr	ip, [r0, #4]
    4f48:	e022129c 	mla	r2, ip, r2, r1
    4f4c:	e5901000 	ldr	r1, [r0]
    4f50:	e7813102 	str	r3, [r1, r2, lsl #2]
    4f54:	e12fff1e 	bx	lr

00004f58 <pixel_safe>:
    4f58:	e270c001 	rsbs	ip, r0, #1
    4f5c:	33a0c000 	movcc	ip, #0
    4f60:	e19ccfa1 	orrs	ip, ip, r1, lsr #31
    4f64:	e52de004 	push	{lr}		; (str lr, [sp, #-4]!)
    4f68:	1a00000a 	bne	4f98 <pixel_safe+0x40>
    4f6c:	e590c004 	ldr	ip, [r0, #4]
    4f70:	e151000c 	cmp	r1, ip
    4f74:	33a0e000 	movcc	lr, #0
    4f78:	23a0e001 	movcs	lr, #1
    4f7c:	e19eefa2 	orrs	lr, lr, r2, lsr #31
    4f80:	1a000004 	bne	4f98 <pixel_safe+0x40>
    4f84:	e590e008 	ldr	lr, [r0, #8]
    4f88:	e152000e 	cmp	r2, lr
    4f8c:	3021129c 	mlacc	r1, ip, r2, r1
    4f90:	35902000 	ldrcc	r2, [r0]
    4f94:	37823101 	strcc	r3, [r2, r1, lsl #2]
    4f98:	e49de004 	pop	{lr}		; (ldr lr, [sp], #4)
    4f9c:	e12fff1e 	bx	lr

00004fa0 <clear>:
    4fa0:	e1a0c00d 	mov	ip, sp
    4fa4:	e92dd8f0 	push	{r4, r5, r6, r7, fp, ip, lr, pc}
    4fa8:	e2505000 	subs	r5, r0, #0
    4fac:	e24cb004 	sub	fp, ip, #4
    4fb0:	e1a04001 	mov	r4, r1
    4fb4:	0a000002 	beq	4fc4 <clear+0x24>
    4fb8:	e5953004 	ldr	r3, [r5, #4]
    4fbc:	e3530000 	cmp	r3, #0
    4fc0:	1a000002 	bne	4fd0 <clear+0x30>
    4fc4:	e24bd01c 	sub	sp, fp, #28
    4fc8:	e89d68f0 	ldm	sp, {r4, r5, r6, r7, fp, sp, lr}
    4fcc:	e12fff1e 	bx	lr
    4fd0:	ebfff5c6 	bl	26f0 <critical_enter>
    4fd4:	e5956004 	ldr	r6, [r5, #4]
    4fd8:	e3560000 	cmp	r6, #0
    4fdc:	05957000 	ldreq	r7, [r5]
    4fe0:	e1a06106 	lsl	r6, r6, #2
    4fe4:	0a000007 	beq	5008 <clear+0x68>
    4fe8:	e3a03000 	mov	r3, #0
    4fec:	e5957000 	ldr	r7, [r5]
    4ff0:	e2472004 	sub	r2, r7, #4
    4ff4:	e5a24004 	str	r4, [r2, #4]!
    4ff8:	e5950004 	ldr	r0, [r5, #4]
    4ffc:	e2833001 	add	r3, r3, #1
    5000:	e1500003 	cmp	r0, r3
    5004:	8afffffa 	bhi	4ff4 <clear+0x54>
    5008:	e5953008 	ldr	r3, [r5, #8]
    500c:	e3530001 	cmp	r3, #1
    5010:	83a04001 	movhi	r4, #1
    5014:	80873006 	addhi	r3, r7, r6
    5018:	9a000008 	bls	5040 <clear+0xa0>
    501c:	e1a00003 	mov	r0, r3
    5020:	e1a02006 	mov	r2, r6
    5024:	e1a01007 	mov	r1, r7
    5028:	eb0011a7 	bl	96cc <memcpy>
    502c:	e5952008 	ldr	r2, [r5, #8]
    5030:	e2844001 	add	r4, r4, #1
    5034:	e1520004 	cmp	r2, r4
    5038:	e0803006 	add	r3, r0, r6
    503c:	8afffff6 	bhi	501c <clear+0x7c>
    5040:	ebfff5b2 	bl	2710 <critical_quit>
    5044:	e24bd01c 	sub	sp, fp, #28
    5048:	e89d68f0 	ldm	sp, {r4, r5, r6, r7, fp, sp, lr}
    504c:	e12fff1e 	bx	lr

00005050 <reverse>:
    5050:	e3500000 	cmp	r0, #0
    5054:	e92d4010 	push	{r4, lr}
    5058:	0a000017 	beq	50bc <reverse+0x6c>
    505c:	e990000c 	ldmib	r0, {r2, r3}
    5060:	e0110392 	muls	r1, r2, r3
    5064:	0a000014 	beq	50bc <reverse+0x6c>
    5068:	e3a0e000 	mov	lr, #0
    506c:	e590c000 	ldr	ip, [r0]
    5070:	e24cc004 	sub	ip, ip, #4
    5074:	e5bc3004 	ldr	r3, [ip, #4]!
    5078:	e1e04003 	mvn	r4, r3
    507c:	e1a01004 	mov	r1, r4
    5080:	e1a02004 	mov	r2, r4
    5084:	e20334ff 	and	r3, r3, #-16777216	; 0xff000000
    5088:	e20440ff 	and	r4, r4, #255	; 0xff
    508c:	e1843003 	orr	r3, r4, r3
    5090:	e20118ff 	and	r1, r1, #16711680	; 0xff0000
    5094:	e2022cff 	and	r2, r2, #65280	; 0xff00
    5098:	e1833001 	orr	r3, r3, r1
    509c:	e1833002 	orr	r3, r3, r2
    50a0:	e58c3000 	str	r3, [ip]
    50a4:	e5902008 	ldr	r2, [r0, #8]
    50a8:	e5903004 	ldr	r3, [r0, #4]
    50ac:	e0030392 	mul	r3, r2, r3
    50b0:	e28ee001 	add	lr, lr, #1
    50b4:	e153000e 	cmp	r3, lr
    50b8:	8affffed 	bhi	5074 <reverse+0x24>
    50bc:	e8bd4010 	pop	{r4, lr}
    50c0:	e12fff1e 	bx	lr

000050c4 <line>:
    50c4:	e92d47f0 	push	{r4, r5, r6, r7, r8, r9, sl, lr}
    50c8:	e2507000 	subs	r7, r0, #0
    50cc:	e24dd040 	sub	sp, sp, #64	; 0x40
    50d0:	e1a04001 	mov	r4, r1
    50d4:	e1a09002 	mov	r9, r2
    50d8:	e59da064 	ldr	sl, [sp, #100]	; 0x64
    50dc:	0a0000b2 	beq	53ac <line+0x2e8>
    50e0:	e59d2060 	ldr	r2, [sp, #96]	; 0x60
    50e4:	e0522009 	subs	r2, r2, r9
    50e8:	42622000 	rsbmi	r2, r2, #0
    50ec:	43e06000 	mvnmi	r6, #0
    50f0:	53a06001 	movpl	r6, #1
    50f4:	e0533001 	subs	r3, r3, r1
    50f8:	42633000 	rsbmi	r3, r3, #0
    50fc:	43e08000 	mvnmi	r8, #0
    5100:	53a08001 	movpl	r8, #1
    5104:	e1530002 	cmp	r3, r2
    5108:	a3a01000 	movge	r1, #0
    510c:	a58d1000 	strge	r1, [sp]
    5110:	ba0000a8 	blt	53b8 <line+0x2f4>
    5114:	e1a00c2a 	lsr	r0, sl, #24
    5118:	e1a02082 	lsl	r2, r2, #1
    511c:	e35000ff 	cmp	r0, #255	; 0xff
    5120:	e58d2004 	str	r2, [sp, #4]
    5124:	e58d000c 	str	r0, [sp, #12]
    5128:	e0632002 	rsb	r2, r3, r2
    512c:	0a0000a7 	beq	53d0 <line+0x30c>
    5130:	e20a50ff 	and	r5, sl, #255	; 0xff
    5134:	e1a0c82a 	lsr	ip, sl, #16
    5138:	e1a0042a 	lsr	r0, sl, #8
    513c:	e59da00c 	ldr	sl, [sp, #12]
    5140:	e1a0e00a 	mov	lr, sl
    5144:	e20cc0ff 	and	ip, ip, #255	; 0xff
    5148:	e00e0e9c 	mul	lr, ip, lr
    514c:	e1a0c00a 	mov	ip, sl
    5150:	e20000ff 	and	r0, r0, #255	; 0xff
    5154:	e00c0c90 	mul	ip, r0, ip
    5158:	e1a0000a 	mov	r0, sl
    515c:	e3a01000 	mov	r1, #0
    5160:	e0000095 	mul	r0, r5, r0
    5164:	e1a0a000 	mov	sl, r0
    5168:	e59f0308 	ldr	r0, [pc, #776]	; 5478 <line+0x3b4>
    516c:	e58d1010 	str	r1, [sp, #16]
    5170:	e0c15e90 	smull	r5, r1, r0, lr
    5174:	e1a0500c 	mov	r5, ip
    5178:	e58dc014 	str	ip, [sp, #20]
    517c:	e58da018 	str	sl, [sp, #24]
    5180:	e0caca90 	smull	ip, sl, r0, sl
    5184:	e0c5c590 	smull	ip, r5, r0, r5
    5188:	e1a0000a 	mov	r0, sl
    518c:	e081c00e 	add	ip, r1, lr
    5190:	e58dc008 	str	ip, [sp, #8]
    5194:	e1a0cfce 	asr	ip, lr, #31
    5198:	e59de014 	ldr	lr, [sp, #20]
    519c:	e085500e 	add	r5, r5, lr
    51a0:	e1a0efce 	asr	lr, lr, #31
    51a4:	e1a0100e 	mov	r1, lr
    51a8:	e59da018 	ldr	sl, [sp, #24]
    51ac:	e1a0efca 	asr	lr, sl, #31
    51b0:	e080000a 	add	r0, r0, sl
    51b4:	e59da008 	ldr	sl, [sp, #8]
    51b8:	e06cc3ca 	rsb	ip, ip, sl, asr #7
    51bc:	e3a0a000 	mov	sl, #0
    51c0:	e06153c5 	rsb	r5, r1, r5, asr #7
    51c4:	e20cc0ff 	and	ip, ip, #255	; 0xff
    51c8:	e06e03c0 	rsb	r0, lr, r0, asr #7
    51cc:	e58dc030 	str	ip, [sp, #48]	; 0x30
    51d0:	e205c0ff 	and	ip, r5, #255	; 0xff
    51d4:	e58dc034 	str	ip, [sp, #52]	; 0x34
    51d8:	e200c0ff 	and	ip, r0, #255	; 0xff
    51dc:	e59d000c 	ldr	r0, [sp, #12]
    51e0:	e063ef83 	rsb	lr, r3, r3, lsl #31
    51e4:	e2833001 	add	r3, r3, #1
    51e8:	e1a0508e 	lsl	r5, lr, #1
    51ec:	e58d3008 	str	r3, [sp, #8]
    51f0:	e26030ff 	rsb	r3, r0, #255	; 0xff
    51f4:	e59d1000 	ldr	r1, [sp]
    51f8:	e58dc038 	str	ip, [sp, #56]	; 0x38
    51fc:	e58d303c 	str	r3, [sp, #60]	; 0x3c
    5200:	e58d5000 	str	r5, [sp]
    5204:	e3540000 	cmp	r4, #0
    5208:	ba000055 	blt	5364 <line+0x2a0>
    520c:	e5973004 	ldr	r3, [r7, #4]
    5210:	e1540003 	cmp	r4, r3
    5214:	33a00000 	movcc	r0, #0
    5218:	23a00001 	movcs	r0, #1
    521c:	e1900fa9 	orrs	r0, r0, r9, lsr #31
    5220:	1a00004f 	bne	5364 <line+0x2a0>
    5224:	e5970008 	ldr	r0, [r7, #8]
    5228:	e1590000 	cmp	r9, r0
    522c:	2a00004c 	bcs	5364 <line+0x2a0>
    5230:	e0204993 	mla	r0, r3, r9, r4
    5234:	e59d503c 	ldr	r5, [sp, #60]	; 0x3c
    5238:	e5973000 	ldr	r3, [r7]
    523c:	e58d001c 	str	r0, [sp, #28]
    5240:	e793e100 	ldr	lr, [r3, r0, lsl #2]
    5244:	e1a00005 	mov	r0, r5
    5248:	e1a0382e 	lsr	r3, lr, #16
    524c:	e20330ff 	and	r3, r3, #255	; 0xff
    5250:	e0000093 	mul	r0, r3, r0
    5254:	e1a0cc2e 	lsr	ip, lr, #24
    5258:	e59d300c 	ldr	r3, [sp, #12]
    525c:	e58dc018 	str	ip, [sp, #24]
    5260:	e26cc0ff 	rsb	ip, ip, #255	; 0xff
    5264:	e003039c 	mul	r3, ip, r3
    5268:	e1a0c003 	mov	ip, r3
    526c:	e1a03005 	mov	r3, r5
    5270:	e58d0010 	str	r0, [sp, #16]
    5274:	e20e00ff 	and	r0, lr, #255	; 0xff
    5278:	e0030390 	mul	r3, r0, r3
    527c:	e1a00005 	mov	r0, r5
    5280:	e1a0e42e 	lsr	lr, lr, #8
    5284:	e20ee0ff 	and	lr, lr, #255	; 0xff
    5288:	e000009e 	mul	r0, lr, r0
    528c:	e59fe1e4 	ldr	lr, [pc, #484]	; 5478 <line+0x3b4>
    5290:	e58d0014 	str	r0, [sp, #20]
    5294:	e59d0010 	ldr	r0, [sp, #16]
    5298:	e0c0509e 	smull	r5, r0, lr, r0
    529c:	e59fe1d4 	ldr	lr, [pc, #468]	; 5478 <line+0x3b4>
    52a0:	e0ce5e9c 	smull	r5, lr, ip, lr
    52a4:	e58de020 	str	lr, [sp, #32]
    52a8:	e59fe1c8 	ldr	lr, [pc, #456]	; 5478 <line+0x3b4>
    52ac:	e0ce5e93 	smull	r5, lr, r3, lr
    52b0:	e58d3024 	str	r3, [sp, #36]	; 0x24
    52b4:	e59f51bc 	ldr	r5, [pc, #444]	; 5478 <line+0x3b4>
    52b8:	e59d3014 	ldr	r3, [sp, #20]
    52bc:	e58de028 	str	lr, [sp, #40]	; 0x28
    52c0:	e0c5e593 	smull	lr, r5, r3, r5
    52c4:	e59d3010 	ldr	r3, [sp, #16]
    52c8:	e0800003 	add	r0, r0, r3
    52cc:	e1a03fc3 	asr	r3, r3, #31
    52d0:	e06333c0 	rsb	r3, r3, r0, asr #7
    52d4:	e59d0038 	ldr	r0, [sp, #56]	; 0x38
    52d8:	e0803003 	add	r3, r0, r3
    52dc:	e59d0020 	ldr	r0, [sp, #32]
    52e0:	e080000c 	add	r0, r0, ip
    52e4:	e1a0e000 	mov	lr, r0
    52e8:	e28d0024 	add	r0, sp, #36	; 0x24
    52ec:	e58d502c 	str	r5, [sp, #44]	; 0x2c
    52f0:	e8900021 	ldm	r0, {r0, r5}
    52f4:	e1a0cfcc 	asr	ip, ip, #31
    52f8:	e0855000 	add	r5, r5, r0
    52fc:	e1a00fc0 	asr	r0, r0, #31
    5300:	e06cc3ce 	rsb	ip, ip, lr, asr #7
    5304:	e06003c5 	rsb	r0, r0, r5, asr #7
    5308:	e59de014 	ldr	lr, [sp, #20]
    530c:	e59d502c 	ldr	r5, [sp, #44]	; 0x2c
    5310:	e085500e 	add	r5, r5, lr
    5314:	e58d5010 	str	r5, [sp, #16]
    5318:	e59d5018 	ldr	r5, [sp, #24]
    531c:	e085c00c 	add	ip, r5, ip
    5320:	e59d5030 	ldr	r5, [sp, #48]	; 0x30
    5324:	e20330ff 	and	r3, r3, #255	; 0xff
    5328:	e0850000 	add	r0, r5, r0
    532c:	e1a03803 	lsl	r3, r3, #16
    5330:	e59d5010 	ldr	r5, [sp, #16]
    5334:	e1833c0c 	orr	r3, r3, ip, lsl #24
    5338:	e1a0efce 	asr	lr, lr, #31
    533c:	e59dc034 	ldr	ip, [sp, #52]	; 0x34
    5340:	e06ee3c5 	rsb	lr, lr, r5, asr #7
    5344:	e20000ff 	and	r0, r0, #255	; 0xff
    5348:	e08ce00e 	add	lr, ip, lr
    534c:	e1833000 	orr	r3, r3, r0
    5350:	e20ee0ff 	and	lr, lr, #255	; 0xff
    5354:	e597c000 	ldr	ip, [r7]
    5358:	e59d001c 	ldr	r0, [sp, #28]
    535c:	e183340e 	orr	r3, r3, lr, lsl #8
    5360:	e78c3100 	str	r3, [ip, r0, lsl #2]
    5364:	e3520000 	cmp	r2, #0
    5368:	ba000006 	blt	5388 <line+0x2c4>
    536c:	e59d5000 	ldr	r5, [sp]
    5370:	e3510001 	cmp	r1, #1
    5374:	00844008 	addeq	r4, r4, r8
    5378:	10899006 	addne	r9, r9, r6
    537c:	e0922005 	adds	r2, r2, r5
    5380:	5afffffa 	bpl	5370 <line+0x2ac>
    5384:	e58d5000 	str	r5, [sp]
    5388:	e59d3008 	ldr	r3, [sp, #8]
    538c:	e3510001 	cmp	r1, #1
    5390:	e28aa001 	add	sl, sl, #1
    5394:	00899006 	addeq	r9, r9, r6
    5398:	10844008 	addne	r4, r4, r8
    539c:	e15a0003 	cmp	sl, r3
    53a0:	e59d3004 	ldr	r3, [sp, #4]
    53a4:	e0822003 	add	r2, r2, r3
    53a8:	1affff95 	bne	5204 <line+0x140>
    53ac:	e28dd040 	add	sp, sp, #64	; 0x40
    53b0:	e8bd47f0 	pop	{r4, r5, r6, r7, r8, r9, sl, lr}
    53b4:	e12fff1e 	bx	lr
    53b8:	e1a00003 	mov	r0, r3
    53bc:	e3a03001 	mov	r3, #1
    53c0:	e58d3000 	str	r3, [sp]
    53c4:	e1a03002 	mov	r3, r2
    53c8:	e1a02000 	mov	r2, r0
    53cc:	eaffff50 	b	5114 <line+0x50>
    53d0:	e3530000 	cmp	r3, #0
    53d4:	bafffff4 	blt	53ac <line+0x2e8>
    53d8:	e3a0c000 	mov	ip, #0
    53dc:	e0630f83 	rsb	r0, r3, r3, lsl #31
    53e0:	e1a00080 	lsl	r0, r0, #1
    53e4:	e89d0022 	ldm	sp, {r1, r5}
    53e8:	e58da064 	str	sl, [sp, #100]	; 0x64
    53ec:	e58d0000 	str	r0, [sp]
    53f0:	e2833001 	add	r3, r3, #1
    53f4:	e3540000 	cmp	r4, #0
    53f8:	ba00000b 	blt	542c <line+0x368>
    53fc:	e5970004 	ldr	r0, [r7, #4]
    5400:	e1540000 	cmp	r4, r0
    5404:	33a0a000 	movcc	sl, #0
    5408:	23a0a001 	movcs	sl, #1
    540c:	e19aefa9 	orrs	lr, sl, r9, lsr #31
    5410:	1a000005 	bne	542c <line+0x368>
    5414:	e597a008 	ldr	sl, [r7, #8]
    5418:	e159000a 	cmp	r9, sl
    541c:	302e4099 	mlacc	lr, r9, r0, r4
    5420:	3597a000 	ldrcc	sl, [r7]
    5424:	359d0064 	ldrcc	r0, [sp, #100]	; 0x64
    5428:	378a010e 	strcc	r0, [sl, lr, lsl #2]
    542c:	e3520000 	cmp	r2, #0
    5430:	ba000006 	blt	5450 <line+0x38c>
    5434:	e59d0000 	ldr	r0, [sp]
    5438:	e3510001 	cmp	r1, #1
    543c:	00844008 	addeq	r4, r4, r8
    5440:	10899006 	addne	r9, r9, r6
    5444:	e0922000 	adds	r2, r2, r0
    5448:	5afffffa 	bpl	5438 <line+0x374>
    544c:	e58d0000 	str	r0, [sp]
    5450:	e3510001 	cmp	r1, #1
    5454:	e28cc001 	add	ip, ip, #1
    5458:	00899006 	addeq	r9, r9, r6
    545c:	10844008 	addne	r4, r4, r8
    5460:	e15c0003 	cmp	ip, r3
    5464:	e0822005 	add	r2, r2, r5
    5468:	1affffe1 	bne	53f4 <line+0x330>
    546c:	e28dd040 	add	sp, sp, #64	; 0x40
    5470:	e8bd47f0 	pop	{r4, r5, r6, r7, r8, r9, sl, lr}
    5474:	e12fff1e 	bx	lr
    5478:	80808081 	addhi	r8, r0, r1, lsl #1

0000547c <box>:
    547c:	e1a0c00d 	mov	ip, sp
    5480:	e92ddbf0 	push	{r4, r5, r6, r7, r8, r9, fp, ip, lr, pc}
    5484:	e24cb004 	sub	fp, ip, #4
    5488:	e24dd008 	sub	sp, sp, #8
    548c:	e59b4004 	ldr	r4, [fp, #4]
    5490:	e3540000 	cmp	r4, #0
    5494:	c3530000 	cmpgt	r3, #0
    5498:	d3a0c001 	movle	ip, #1
    549c:	c3a0c000 	movgt	ip, #0
    54a0:	e3500000 	cmp	r0, #0
    54a4:	038cc001 	orreq	ip, ip, #1
    54a8:	e35c0000 	cmp	ip, #0
    54ac:	e1a09001 	mov	r9, r1
    54b0:	e1a06002 	mov	r6, r2
    54b4:	e59b7008 	ldr	r7, [fp, #8]
    54b8:	e1a08000 	mov	r8, r0
    54bc:	1a00001c 	bne	5534 <box+0xb8>
    54c0:	e0813003 	add	r3, r1, r3
    54c4:	e2435001 	sub	r5, r3, #1
    54c8:	e0864004 	add	r4, r6, r4
    54cc:	e2444001 	sub	r4, r4, #1
    54d0:	e88d00c0 	stm	sp, {r6, r7}
    54d4:	e1a03005 	mov	r3, r5
    54d8:	e2866001 	add	r6, r6, #1
    54dc:	ebfffef8 	bl	50c4 <line>
    54e0:	e1a02006 	mov	r2, r6
    54e4:	e1a00008 	mov	r0, r8
    54e8:	e1a01009 	mov	r1, r9
    54ec:	e1a03009 	mov	r3, r9
    54f0:	e88d0090 	stm	sp, {r4, r7}
    54f4:	ebfffef2 	bl	50c4 <line>
    54f8:	e2891001 	add	r1, r9, #1
    54fc:	e1a02004 	mov	r2, r4
    5500:	e1a03005 	mov	r3, r5
    5504:	e1a00008 	mov	r0, r8
    5508:	e88d0090 	stm	sp, {r4, r7}
    550c:	ebfffeec 	bl	50c4 <line>
    5510:	e1a02006 	mov	r2, r6
    5514:	e1a00008 	mov	r0, r8
    5518:	e1a01005 	mov	r1, r5
    551c:	e1a03005 	mov	r3, r5
    5520:	e58b4004 	str	r4, [fp, #4]
    5524:	e58b7008 	str	r7, [fp, #8]
    5528:	e24bd024 	sub	sp, fp, #36	; 0x24
    552c:	e89d6bf0 	ldm	sp, {r4, r5, r6, r7, r8, r9, fp, sp, lr}
    5530:	eafffee3 	b	50c4 <line>
    5534:	e24bd024 	sub	sp, fp, #36	; 0x24
    5538:	e89d6bf0 	ldm	sp, {r4, r5, r6, r7, r8, r9, fp, sp, lr}
    553c:	e12fff1e 	bx	lr

00005540 <fill>:
    5540:	e1a0c00d 	mov	ip, sp
    5544:	e92ddff0 	push	{r4, r5, r6, r7, r8, r9, sl, fp, ip, lr, pc}
    5548:	e24cb004 	sub	fp, ip, #4
    554c:	e24dd03c 	sub	sp, sp, #60	; 0x3c
    5550:	e59be004 	ldr	lr, [fp, #4]
    5554:	e35e0000 	cmp	lr, #0
    5558:	c3530000 	cmpgt	r3, #0
    555c:	d3a0c001 	movle	ip, #1
    5560:	c3a0c000 	movgt	ip, #0
    5564:	e3500000 	cmp	r0, #0
    5568:	038cc001 	orreq	ip, ip, #1
    556c:	e35c0000 	cmp	ip, #0
    5570:	e59b4008 	ldr	r4, [fp, #8]
    5574:	e1a0c001 	mov	ip, r1
    5578:	e1a07000 	mov	r7, r0
    557c:	1a000007 	bne	55a0 <fill+0x60>
    5580:	e24b103c 	sub	r1, fp, #60	; 0x3c
    5584:	e50bc03c 	str	ip, [fp, #-60]	; 0x3c
    5588:	e50b2038 	str	r2, [fp, #-56]	; 0x38
    558c:	e50b3034 	str	r3, [fp, #-52]	; 0x34
    5590:	e50be030 	str	lr, [fp, #-48]	; 0x30
    5594:	ebfffdae 	bl	4c54 <graph_insect>
    5598:	e3500000 	cmp	r0, #0
    559c:	1a000002 	bne	55ac <fill+0x6c>
    55a0:	e24bd028 	sub	sp, fp, #40	; 0x28
    55a4:	e89d6ff0 	ldm	sp, {r4, r5, r6, r7, r8, r9, sl, fp, sp, lr}
    55a8:	e12fff1e 	bx	lr
    55ac:	e51b3038 	ldr	r3, [fp, #-56]	; 0x38
    55b0:	e1a00003 	mov	r0, r3
    55b4:	e51b203c 	ldr	r2, [fp, #-60]	; 0x3c
    55b8:	e50b3044 	str	r3, [fp, #-68]	; 0x44
    55bc:	e51b1030 	ldr	r1, [fp, #-48]	; 0x30
    55c0:	e51b3034 	ldr	r3, [fp, #-52]	; 0x34
    55c4:	e0801001 	add	r1, r0, r1
    55c8:	e0823003 	add	r3, r2, r3
    55cc:	e50b3048 	str	r3, [fp, #-72]	; 0x48
    55d0:	e50b1064 	str	r1, [fp, #-100]	; 0x64
    55d4:	ebfff445 	bl	26f0 <critical_enter>
    55d8:	e1a03c24 	lsr	r3, r4, #24
    55dc:	e35300ff 	cmp	r3, #255	; 0xff
    55e0:	e50b3050 	str	r3, [fp, #-80]	; 0x50
    55e4:	e51b2064 	ldr	r2, [fp, #-100]	; 0x64
    55e8:	e51b3044 	ldr	r3, [fp, #-68]	; 0x44
    55ec:	0a000074 	beq	57c4 <fill+0x284>
    55f0:	e1530002 	cmp	r3, r2
    55f4:	e1a02824 	lsr	r2, r4, #16
    55f8:	e1a03424 	lsr	r3, r4, #8
    55fc:	aa00006e 	bge	57bc <fill+0x27c>
    5600:	e51b5050 	ldr	r5, [fp, #-80]	; 0x50
    5604:	e1a00005 	mov	r0, r5
    5608:	e1a0c005 	mov	ip, r5
    560c:	e1a0e005 	mov	lr, r5
    5610:	e20310ff 	and	r1, r3, #255	; 0xff
    5614:	e20220ff 	and	r2, r2, #255	; 0xff
    5618:	e20430ff 	and	r3, r4, #255	; 0xff
    561c:	e00c0c91 	mul	ip, r1, ip
    5620:	e0000092 	mul	r0, r2, r0
    5624:	e00e0e93 	mul	lr, r3, lr
    5628:	e1a0100c 	mov	r1, ip
    562c:	e1a02000 	mov	r2, r0
    5630:	e1a0300e 	mov	r3, lr
    5634:	e59f01d4 	ldr	r0, [pc, #468]	; 5810 <fill+0x2d0>
    5638:	e0cec290 	smull	ip, lr, r0, r2
    563c:	e0c4c190 	smull	ip, r4, r0, r1
    5640:	e0cc6390 	smull	r6, ip, r0, r3
    5644:	e08cc003 	add	ip, ip, r3
    5648:	e1a03fc3 	asr	r3, r3, #31
    564c:	e06333cc 	rsb	r3, r3, ip, asr #7
    5650:	e1a0c000 	mov	ip, r0
    5654:	e08ee002 	add	lr, lr, r2
    5658:	e1a02fc2 	asr	r2, r2, #31
    565c:	e0844001 	add	r4, r4, r1
    5660:	e06223ce 	rsb	r2, r2, lr, asr #7
    5664:	e1a01fc1 	asr	r1, r1, #31
    5668:	e20220ff 	and	r2, r2, #255	; 0xff
    566c:	e20330ff 	and	r3, r3, #255	; 0xff
    5670:	e06113c4 	rsb	r1, r1, r4, asr #7
    5674:	e50b2054 	str	r2, [fp, #-84]	; 0x54
    5678:	e50b305c 	str	r3, [fp, #-92]	; 0x5c
    567c:	e20120ff 	and	r2, r1, #255	; 0xff
    5680:	e26530ff 	rsb	r3, r5, #255	; 0xff
    5684:	e50b2058 	str	r2, [fp, #-88]	; 0x58
    5688:	e50b3060 	str	r3, [fp, #-96]	; 0x60
    568c:	e50b704c 	str	r7, [fp, #-76]	; 0x4c
    5690:	e51b903c 	ldr	r9, [fp, #-60]	; 0x3c
    5694:	e51b3048 	ldr	r3, [fp, #-72]	; 0x48
    5698:	e1530009 	cmp	r3, r9
    569c:	da000040 	ble	57a4 <fill+0x264>
    56a0:	e51b304c 	ldr	r3, [fp, #-76]	; 0x4c
    56a4:	e593a000 	ldr	sl, [r3]
    56a8:	e51b304c 	ldr	r3, [fp, #-76]	; 0x4c
    56ac:	e593e004 	ldr	lr, [r3, #4]
    56b0:	e51b3044 	ldr	r3, [fp, #-68]	; 0x44
    56b4:	e023939e 	mla	r3, lr, r3, r9
    56b8:	e51b4060 	ldr	r4, [fp, #-96]	; 0x60
    56bc:	e1a02004 	mov	r2, r4
    56c0:	e1a0e003 	mov	lr, r3
    56c4:	e79a3103 	ldr	r3, [sl, r3, lsl #2]
    56c8:	e51b5050 	ldr	r5, [fp, #-80]	; 0x50
    56cc:	e1a08c23 	lsr	r8, r3, #24
    56d0:	e26800ff 	rsb	r0, r8, #255	; 0xff
    56d4:	e0050590 	mul	r5, r0, r5
    56d8:	e1a01823 	lsr	r1, r3, #16
    56dc:	e20110ff 	and	r1, r1, #255	; 0xff
    56e0:	e0020291 	mul	r2, r1, r2
    56e4:	e1a00005 	mov	r0, r5
    56e8:	e1a05004 	mov	r5, r4
    56ec:	e1a01002 	mov	r1, r2
    56f0:	e20320ff 	and	r2, r3, #255	; 0xff
    56f4:	e0040492 	mul	r4, r2, r4
    56f8:	e1a02004 	mov	r2, r4
    56fc:	e1a04005 	mov	r4, r5
    5700:	e1a03423 	lsr	r3, r3, #8
    5704:	e20330ff 	and	r3, r3, #255	; 0xff
    5708:	e0040493 	mul	r4, r3, r4
    570c:	e1a03004 	mov	r3, r4
    5710:	e0c5429c 	smull	r4, r5, ip, r2
    5714:	e0c7419c 	smull	r4, r7, ip, r1
    5718:	e0c6409c 	smull	r4, r6, ip, r0
    571c:	e50b5040 	str	r5, [fp, #-64]	; 0x40
    5720:	e0c4539c 	smull	r5, r4, ip, r3
    5724:	e0877001 	add	r7, r7, r1
    5728:	e51b5040 	ldr	r5, [fp, #-64]	; 0x40
    572c:	e1a01fc1 	asr	r1, r1, #31
    5730:	e06113c7 	rsb	r1, r1, r7, asr #7
    5734:	e51b705c 	ldr	r7, [fp, #-92]	; 0x5c
    5738:	e0855002 	add	r5, r5, r2
    573c:	e1a02fc2 	asr	r2, r2, #31
    5740:	e0866000 	add	r6, r6, r0
    5744:	e06253c5 	rsb	r5, r2, r5, asr #7
    5748:	e0844003 	add	r4, r4, r3
    574c:	e0871001 	add	r1, r7, r1
    5750:	e1a03fc3 	asr	r3, r3, #31
    5754:	e1a00fc0 	asr	r0, r0, #31
    5758:	e51b2054 	ldr	r2, [fp, #-84]	; 0x54
    575c:	e06343c4 	rsb	r4, r3, r4, asr #7
    5760:	e20110ff 	and	r1, r1, #255	; 0xff
    5764:	e51b3058 	ldr	r3, [fp, #-88]	; 0x58
    5768:	e06063c6 	rsb	r6, r0, r6, asr #7
    576c:	e1a01801 	lsl	r1, r1, #16
    5770:	e0886006 	add	r6, r8, r6
    5774:	e0825005 	add	r5, r2, r5
    5778:	e0834004 	add	r4, r3, r4
    577c:	e1811c06 	orr	r1, r1, r6, lsl #24
    5780:	e20550ff 	and	r5, r5, #255	; 0xff
    5784:	e51b3048 	ldr	r3, [fp, #-72]	; 0x48
    5788:	e2899001 	add	r9, r9, #1
    578c:	e1811005 	orr	r1, r1, r5
    5790:	e20440ff 	and	r4, r4, #255	; 0xff
    5794:	e1811404 	orr	r1, r1, r4, lsl #8
    5798:	e1590003 	cmp	r9, r3
    579c:	e78a110e 	str	r1, [sl, lr, lsl #2]
    57a0:	1affffc0 	bne	56a8 <fill+0x168>
    57a4:	e51b3044 	ldr	r3, [fp, #-68]	; 0x44
    57a8:	e51b2064 	ldr	r2, [fp, #-100]	; 0x64
    57ac:	e2833001 	add	r3, r3, #1
    57b0:	e1530002 	cmp	r3, r2
    57b4:	e50b3044 	str	r3, [fp, #-68]	; 0x44
    57b8:	1affffb4 	bne	5690 <fill+0x150>
    57bc:	ebfff3d3 	bl	2710 <critical_quit>
    57c0:	eaffff76 	b	55a0 <fill+0x60>
    57c4:	e1530002 	cmp	r3, r2
    57c8:	aafffffb 	bge	57bc <fill+0x27c>
    57cc:	e51b0048 	ldr	r0, [fp, #-72]	; 0x48
    57d0:	e51be064 	ldr	lr, [fp, #-100]	; 0x64
    57d4:	e51b1044 	ldr	r1, [fp, #-68]	; 0x44
    57d8:	e51b303c 	ldr	r3, [fp, #-60]	; 0x3c
    57dc:	e1500003 	cmp	r0, r3
    57e0:	c597c000 	ldrgt	ip, [r7]
    57e4:	da000005 	ble	5800 <fill+0x2c0>
    57e8:	e5972004 	ldr	r2, [r7, #4]
    57ec:	e0223291 	mla	r2, r1, r2, r3
    57f0:	e2833001 	add	r3, r3, #1
    57f4:	e1530000 	cmp	r3, r0
    57f8:	e78c4102 	str	r4, [ip, r2, lsl #2]
    57fc:	1afffff9 	bne	57e8 <fill+0x2a8>
    5800:	e2811001 	add	r1, r1, #1
    5804:	e151000e 	cmp	r1, lr
    5808:	1afffff2 	bne	57d8 <fill+0x298>
    580c:	eaffffea 	b	57bc <fill+0x27c>
    5810:	80808081 	addhi	r8, r0, r1, lsl #1

00005814 <draw_char>:
    5814:	e92d47f0 	push	{r4, r5, r6, r7, r8, r9, sl, lr}
    5818:	e3500000 	cmp	r0, #0
    581c:	e24dd048 	sub	sp, sp, #72	; 0x48
    5820:	e58d1008 	str	r1, [sp, #8]
    5824:	e58d200c 	str	r2, [sp, #12]
    5828:	e1a0c003 	mov	ip, r3
    582c:	e59d806c 	ldr	r8, [sp, #108]	; 0x6c
    5830:	0a000005 	beq	584c <draw_char+0x38>
    5834:	e59d3068 	ldr	r3, [sp, #104]	; 0x68
    5838:	e5931004 	ldr	r1, [r3, #4]
    583c:	e3510008 	cmp	r1, #8
    5840:	9a00015b 	bls	5db4 <draw_char+0x5a0>
    5844:	e3510010 	cmp	r1, #16
    5848:	9a000002 	bls	5858 <draw_char+0x44>
    584c:	e28dd048 	add	sp, sp, #72	; 0x48
    5850:	e8bd47f0 	pop	{r4, r5, r6, r7, r8, r9, sl, lr}
    5854:	e12fff1e 	bx	lr
    5858:	e59d3068 	ldr	r3, [sp, #104]	; 0x68
    585c:	e5931008 	ldr	r1, [r3, #8]
    5860:	e1a03c28 	lsr	r3, r8, #24
    5864:	e1a02003 	mov	r2, r3
    5868:	e58d301c 	str	r3, [sp, #28]
    586c:	e1a0308c 	lsl	r3, ip, #1
    5870:	e35200ff 	cmp	r2, #255	; 0xff
    5874:	e0020391 	mul	r2, r1, r3
    5878:	e59d3068 	ldr	r3, [sp, #104]	; 0x68
    587c:	e593700c 	ldr	r7, [r3, #12]
    5880:	0a000101 	beq	5c8c <draw_char+0x478>
    5884:	e3510000 	cmp	r1, #0
    5888:	e1a03428 	lsr	r3, r8, #8
    588c:	e1a01828 	lsr	r1, r8, #16
    5890:	0affffed 	beq	584c <draw_char+0x38>
    5894:	e201c0ff 	and	ip, r1, #255	; 0xff
    5898:	e20310ff 	and	r1, r3, #255	; 0xff
    589c:	e20830ff 	and	r3, r8, #255	; 0xff
    58a0:	e59d801c 	ldr	r8, [sp, #28]
    58a4:	e1a0e008 	mov	lr, r8
    58a8:	e1a04008 	mov	r4, r8
    58ac:	e1a05008 	mov	r5, r8
    58b0:	e00e0e9c 	mul	lr, ip, lr
    58b4:	e0040491 	mul	r4, r1, r4
    58b8:	e0050593 	mul	r5, r3, r5
    58bc:	e1a0c00e 	mov	ip, lr
    58c0:	e1a03005 	mov	r3, r5
    58c4:	e1a01004 	mov	r1, r4
    58c8:	e59f6808 	ldr	r6, [pc, #2056]	; 60d8 <draw_char+0x8c4>
    58cc:	e0c5ec96 	smull	lr, r5, r6, ip
    58d0:	e0c4e196 	smull	lr, r4, r6, r1
    58d4:	e0ce9396 	smull	r9, lr, r6, r3
    58d8:	e08ee003 	add	lr, lr, r3
    58dc:	e1a03fc3 	asr	r3, r3, #31
    58e0:	e06333ce 	rsb	r3, r3, lr, asr #7
    58e4:	e20330ff 	and	r3, r3, #255	; 0xff
    58e8:	e0844001 	add	r4, r4, r1
    58ec:	e58d3028 	str	r3, [sp, #40]	; 0x28
    58f0:	e1a01fc1 	asr	r1, r1, #31
    58f4:	e28d3008 	add	r3, sp, #8
    58f8:	e06113c4 	rsb	r1, r1, r4, asr #7
    58fc:	e8930018 	ldm	r3, {r3, r4}
    5900:	e0872002 	add	r2, r7, r2
    5904:	e283a008 	add	sl, r3, #8
    5908:	e2837010 	add	r7, r3, #16
    590c:	e1a0e00a 	mov	lr, sl
    5910:	e58d7018 	str	r7, [sp, #24]
    5914:	e1a0a004 	mov	sl, r4
    5918:	e1a07000 	mov	r7, r0
    591c:	e085500c 	add	r5, r5, ip
    5920:	e1a0cfcc 	asr	ip, ip, #31
    5924:	e06cc3c5 	rsb	ip, ip, r5, asr #7
    5928:	e58d2004 	str	r2, [sp, #4]
    592c:	e20c20ff 	and	r2, ip, #255	; 0xff
    5930:	e58d2020 	str	r2, [sp, #32]
    5934:	e26830ff 	rsb	r3, r8, #255	; 0xff
    5938:	e20120ff 	and	r2, r1, #255	; 0xff
    593c:	e58d2024 	str	r2, [sp, #36]	; 0x24
    5940:	e58d6030 	str	r6, [sp, #48]	; 0x30
    5944:	e58d302c 	str	r3, [sp, #44]	; 0x2c
    5948:	e3a03080 	mov	r3, #128	; 0x80
    594c:	e1a0100a 	mov	r1, sl
    5950:	e59d2004 	ldr	r2, [sp, #4]
    5954:	e59d6008 	ldr	r6, [sp, #8]
    5958:	e5d28000 	ldrb	r8, [r2]
    595c:	e1a00faa 	lsr	r0, sl, #31
    5960:	e1130008 	tst	r3, r8
    5964:	03a02001 	moveq	r2, #1
    5968:	13a02000 	movne	r2, #0
    596c:	e1922fa6 	orrs	r2, r2, r6, lsr #31
    5970:	1a000052 	bne	5ac0 <draw_char+0x2ac>
    5974:	e5972004 	ldr	r2, [r7, #4]
    5978:	e1560002 	cmp	r6, r2
    597c:	31a0c000 	movcc	ip, r0
    5980:	2380c001 	orrcs	ip, r0, #1
    5984:	e35c0000 	cmp	ip, #0
    5988:	1a00004c 	bne	5ac0 <draw_char+0x2ac>
    598c:	e597c008 	ldr	ip, [r7, #8]
    5990:	e151000c 	cmp	r1, ip
    5994:	2a000049 	bcs	5ac0 <draw_char+0x2ac>
    5998:	e02c6192 	mla	ip, r2, r1, r6
    599c:	e59da02c 	ldr	sl, [sp, #44]	; 0x2c
    59a0:	e5972000 	ldr	r2, [r7]
    59a4:	e58dc038 	str	ip, [sp, #56]	; 0x38
    59a8:	e792410c 	ldr	r4, [r2, ip, lsl #2]
    59ac:	e1a0c00a 	mov	ip, sl
    59b0:	e1a02824 	lsr	r2, r4, #16
    59b4:	e20220ff 	and	r2, r2, #255	; 0xff
    59b8:	e00c0c92 	mul	ip, r2, ip
    59bc:	e1a05c24 	lsr	r5, r4, #24
    59c0:	e59d901c 	ldr	r9, [sp, #28]
    59c4:	e58dc010 	str	ip, [sp, #16]
    59c8:	e265c0ff 	rsb	ip, r5, #255	; 0xff
    59cc:	e009099c 	mul	r9, ip, r9
    59d0:	e1a0c009 	mov	ip, r9
    59d4:	e1a0900a 	mov	r9, sl
    59d8:	e58d5034 	str	r5, [sp, #52]	; 0x34
    59dc:	e20450ff 	and	r5, r4, #255	; 0xff
    59e0:	e0090995 	mul	r9, r5, r9
    59e4:	e1a0500a 	mov	r5, sl
    59e8:	e1a04424 	lsr	r4, r4, #8
    59ec:	e20440ff 	and	r4, r4, #255	; 0xff
    59f0:	e0050594 	mul	r5, r4, r5
    59f4:	e1a02009 	mov	r2, r9
    59f8:	e58d5014 	str	r5, [sp, #20]
    59fc:	e59d9030 	ldr	r9, [sp, #48]	; 0x30
    5a00:	e59d5010 	ldr	r5, [sp, #16]
    5a04:	e0c54599 	smull	r4, r5, r9, r5
    5a08:	e1a04009 	mov	r4, r9
    5a0c:	e1a0a005 	mov	sl, r5
    5a10:	e0c9599c 	smull	r5, r9, ip, r9
    5a14:	e1a05004 	mov	r5, r4
    5a18:	e58d903c 	str	r9, [sp, #60]	; 0x3c
    5a1c:	e1a09004 	mov	r9, r4
    5a20:	e1a04002 	mov	r4, r2
    5a24:	e58d2040 	str	r2, [sp, #64]	; 0x40
    5a28:	e0c52594 	smull	r2, r5, r4, r5
    5a2c:	e59d4014 	ldr	r4, [sp, #20]
    5a30:	e0c92994 	smull	r2, r9, r4, r9
    5a34:	e1a04009 	mov	r4, r9
    5a38:	e59d2010 	ldr	r2, [sp, #16]
    5a3c:	e59d9028 	ldr	r9, [sp, #40]	; 0x28
    5a40:	e08aa002 	add	sl, sl, r2
    5a44:	e1a02fc2 	asr	r2, r2, #31
    5a48:	e06223ca 	rsb	r2, r2, sl, asr #7
    5a4c:	e0892002 	add	r2, r9, r2
    5a50:	e59d903c 	ldr	r9, [sp, #60]	; 0x3c
    5a54:	e59da040 	ldr	sl, [sp, #64]	; 0x40
    5a58:	e089900c 	add	r9, r9, ip
    5a5c:	e1a0cfcc 	asr	ip, ip, #31
    5a60:	e06c93c9 	rsb	r9, ip, r9, asr #7
    5a64:	e59dc014 	ldr	ip, [sp, #20]
    5a68:	e085500a 	add	r5, r5, sl
    5a6c:	e1a0afca 	asr	sl, sl, #31
    5a70:	e06a53c5 	rsb	r5, sl, r5, asr #7
    5a74:	e084400c 	add	r4, r4, ip
    5a78:	e1a0afcc 	asr	sl, ip, #31
    5a7c:	e59dc034 	ldr	ip, [sp, #52]	; 0x34
    5a80:	e20220ff 	and	r2, r2, #255	; 0xff
    5a84:	e08c9009 	add	r9, ip, r9
    5a88:	e1a02802 	lsl	r2, r2, #16
    5a8c:	e59dc020 	ldr	ip, [sp, #32]
    5a90:	e1822c09 	orr	r2, r2, r9, lsl #24
    5a94:	e59d9024 	ldr	r9, [sp, #36]	; 0x24
    5a98:	e08c5005 	add	r5, ip, r5
    5a9c:	e06a43c4 	rsb	r4, sl, r4, asr #7
    5aa0:	e20550ff 	and	r5, r5, #255	; 0xff
    5aa4:	e0894004 	add	r4, r9, r4
    5aa8:	e20440ff 	and	r4, r4, #255	; 0xff
    5aac:	e1822005 	orr	r2, r2, r5
    5ab0:	e1822404 	orr	r2, r2, r4, lsl #8
    5ab4:	e59dc038 	ldr	ip, [sp, #56]	; 0x38
    5ab8:	e5974000 	ldr	r4, [r7]
    5abc:	e784210c 	str	r2, [r4, ip, lsl #2]
    5ac0:	e2866001 	add	r6, r6, #1
    5ac4:	e156000e 	cmp	r6, lr
    5ac8:	e1a030c3 	asr	r3, r3, #1
    5acc:	1affffa3 	bne	5960 <draw_char+0x14c>
    5ad0:	e59d3004 	ldr	r3, [sp, #4]
    5ad4:	e1a0000e 	mov	r0, lr
    5ad8:	e5d38001 	ldrb	r8, [r3, #1]
    5adc:	e3a03080 	mov	r3, #128	; 0x80
    5ae0:	e1a02fa1 	lsr	r2, r1, #31
    5ae4:	e1a0a001 	mov	sl, r1
    5ae8:	e58d2010 	str	r2, [sp, #16]
    5aec:	e58de014 	str	lr, [sp, #20]
    5af0:	e59d1018 	ldr	r1, [sp, #24]
    5af4:	e1130008 	tst	r3, r8
    5af8:	03a02001 	moveq	r2, #1
    5afc:	13a02000 	movne	r2, #0
    5b00:	e1922fa0 	orrs	r2, r2, r0, lsr #31
    5b04:	1a00004e 	bne	5c44 <draw_char+0x430>
    5b08:	e5972004 	ldr	r2, [r7, #4]
    5b0c:	e59dc010 	ldr	ip, [sp, #16]
    5b10:	e1500002 	cmp	r0, r2
    5b14:	238cc001 	orrcs	ip, ip, #1
    5b18:	e35c0000 	cmp	ip, #0
    5b1c:	1a000048 	bne	5c44 <draw_char+0x430>
    5b20:	e597c008 	ldr	ip, [r7, #8]
    5b24:	e15a000c 	cmp	sl, ip
    5b28:	2a000045 	bcs	5c44 <draw_char+0x430>
    5b2c:	e02c0a92 	mla	ip, r2, sl, r0
    5b30:	e59d602c 	ldr	r6, [sp, #44]	; 0x2c
    5b34:	e5972000 	ldr	r2, [r7]
    5b38:	e792510c 	ldr	r5, [r2, ip, lsl #2]
    5b3c:	e1a02006 	mov	r2, r6
    5b40:	e58dc038 	str	ip, [sp, #56]	; 0x38
    5b44:	e1a0c825 	lsr	ip, r5, #16
    5b48:	e20cc0ff 	and	ip, ip, #255	; 0xff
    5b4c:	e002029c 	mul	r2, ip, r2
    5b50:	e59d901c 	ldr	r9, [sp, #28]
    5b54:	e1a0c002 	mov	ip, r2
    5b58:	e1a02c25 	lsr	r2, r5, #24
    5b5c:	e26240ff 	rsb	r4, r2, #255	; 0xff
    5b60:	e0090994 	mul	r9, r4, r9
    5b64:	e1a04009 	mov	r4, r9
    5b68:	e1a09006 	mov	r9, r6
    5b6c:	e58d2034 	str	r2, [sp, #52]	; 0x34
    5b70:	e20520ff 	and	r2, r5, #255	; 0xff
    5b74:	e0060692 	mul	r6, r2, r6
    5b78:	e1a02006 	mov	r2, r6
    5b7c:	e1a06009 	mov	r6, r9
    5b80:	e1a05425 	lsr	r5, r5, #8
    5b84:	e20550ff 	and	r5, r5, #255	; 0xff
    5b88:	e0060695 	mul	r6, r5, r6
    5b8c:	e59d9030 	ldr	r9, [sp, #48]	; 0x30
    5b90:	e1a05006 	mov	r5, r6
    5b94:	e1a06009 	mov	r6, r9
    5b98:	e0c6e69c 	smull	lr, r6, ip, r6
    5b9c:	e58d6040 	str	r6, [sp, #64]	; 0x40
    5ba0:	e1a06009 	mov	r6, r9
    5ba4:	e0c9e994 	smull	lr, r9, r4, r9
    5ba8:	e58d903c 	str	r9, [sp, #60]	; 0x3c
    5bac:	e1a09006 	mov	r9, r6
    5bb0:	e0c9e995 	smull	lr, r9, r5, r9
    5bb4:	e58d5044 	str	r5, [sp, #68]	; 0x44
    5bb8:	e1a05009 	mov	r5, r9
    5bbc:	e0c6e692 	smull	lr, r6, r2, r6
    5bc0:	e59d9040 	ldr	r9, [sp, #64]	; 0x40
    5bc4:	e089900c 	add	r9, r9, ip
    5bc8:	e1a0cfcc 	asr	ip, ip, #31
    5bcc:	e06cc3c9 	rsb	ip, ip, r9, asr #7
    5bd0:	e59de03c 	ldr	lr, [sp, #60]	; 0x3c
    5bd4:	e59d9028 	ldr	r9, [sp, #40]	; 0x28
    5bd8:	e0866002 	add	r6, r6, r2
    5bdc:	e089c00c 	add	ip, r9, ip
    5be0:	e1a02fc2 	asr	r2, r2, #31
    5be4:	e08e9004 	add	r9, lr, r4
    5be8:	e1a04fc4 	asr	r4, r4, #31
    5bec:	e06493c9 	rsb	r9, r4, r9, asr #7
    5bf0:	e06263c6 	rsb	r6, r2, r6, asr #7
    5bf4:	e59d4034 	ldr	r4, [sp, #52]	; 0x34
    5bf8:	e59d2044 	ldr	r2, [sp, #68]	; 0x44
    5bfc:	e0849009 	add	r9, r4, r9
    5c00:	e0855002 	add	r5, r5, r2
    5c04:	e59d4020 	ldr	r4, [sp, #32]
    5c08:	e1a02fc2 	asr	r2, r2, #31
    5c0c:	e06253c5 	rsb	r5, r2, r5, asr #7
    5c10:	e20cc0ff 	and	ip, ip, #255	; 0xff
    5c14:	e59d2024 	ldr	r2, [sp, #36]	; 0x24
    5c18:	e0846006 	add	r6, r4, r6
    5c1c:	e1a0c80c 	lsl	ip, ip, #16
    5c20:	e0825005 	add	r5, r2, r5
    5c24:	e18ccc09 	orr	ip, ip, r9, lsl #24
    5c28:	e20660ff 	and	r6, r6, #255	; 0xff
    5c2c:	e18cc006 	orr	ip, ip, r6
    5c30:	e20550ff 	and	r5, r5, #255	; 0xff
    5c34:	e18c2405 	orr	r2, ip, r5, lsl #8
    5c38:	e5974000 	ldr	r4, [r7]
    5c3c:	e59dc038 	ldr	ip, [sp, #56]	; 0x38
    5c40:	e784210c 	str	r2, [r4, ip, lsl #2]
    5c44:	e2800001 	add	r0, r0, #1
    5c48:	e1500001 	cmp	r0, r1
    5c4c:	e1a030c3 	asr	r3, r3, #1
    5c50:	1affffa7 	bne	5af4 <draw_char+0x2e0>
    5c54:	e59d3068 	ldr	r3, [sp, #104]	; 0x68
    5c58:	e5932008 	ldr	r2, [r3, #8]
    5c5c:	e59d300c 	ldr	r3, [sp, #12]
    5c60:	e28aa001 	add	sl, sl, #1
    5c64:	e063300a 	rsb	r3, r3, sl
    5c68:	e1520003 	cmp	r2, r3
    5c6c:	e59d3004 	ldr	r3, [sp, #4]
    5c70:	e2833002 	add	r3, r3, #2
    5c74:	e59de014 	ldr	lr, [sp, #20]
    5c78:	e58d3004 	str	r3, [sp, #4]
    5c7c:	8affff31 	bhi	5948 <draw_char+0x134>
    5c80:	e28dd048 	add	sp, sp, #72	; 0x48
    5c84:	e8bd47f0 	pop	{r4, r5, r6, r7, r8, r9, sl, lr}
    5c88:	e12fff1e 	bx	lr
    5c8c:	e3510000 	cmp	r1, #0
    5c90:	0afffeed 	beq	584c <draw_char+0x38>
    5c94:	e0879002 	add	r9, r7, r2
    5c98:	e1a0e009 	mov	lr, r9
    5c9c:	e3a0c000 	mov	ip, #0
    5ca0:	e59d3008 	ldr	r3, [sp, #8]
    5ca4:	e58d9010 	str	r9, [sp, #16]
    5ca8:	e59d400c 	ldr	r4, [sp, #12]
    5cac:	e59d5068 	ldr	r5, [sp, #104]	; 0x68
    5cb0:	e58d806c 	str	r8, [sp, #108]	; 0x6c
    5cb4:	e283a008 	add	sl, r3, #8
    5cb8:	e2837010 	add	r7, r3, #16
    5cbc:	e3a02080 	mov	r2, #128	; 0x80
    5cc0:	e59d1010 	ldr	r1, [sp, #16]
    5cc4:	e59d3008 	ldr	r3, [sp, #8]
    5cc8:	e7d1108c 	ldrb	r1, [r1, ip, lsl #1]
    5ccc:	e58dc004 	str	ip, [sp, #4]
    5cd0:	e1a08fa4 	lsr	r8, r4, #31
    5cd4:	e1120001 	tst	r2, r1
    5cd8:	03a06001 	moveq	r6, #1
    5cdc:	13a06000 	movne	r6, #0
    5ce0:	e1966fa3 	orrs	r6, r6, r3, lsr #31
    5ce4:	1a00000b 	bne	5d18 <draw_char+0x504>
    5ce8:	e590c004 	ldr	ip, [r0, #4]
    5cec:	e153000c 	cmp	r3, ip
    5cf0:	31a09008 	movcc	r9, r8
    5cf4:	23889001 	orrcs	r9, r8, #1
    5cf8:	e3590000 	cmp	r9, #0
    5cfc:	1a000005 	bne	5d18 <draw_char+0x504>
    5d00:	e5909008 	ldr	r9, [r0, #8]
    5d04:	e1540009 	cmp	r4, r9
    5d08:	30263c94 	mlacc	r6, r4, ip, r3
    5d0c:	35909000 	ldrcc	r9, [r0]
    5d10:	359dc06c 	ldrcc	ip, [sp, #108]	; 0x6c
    5d14:	3789c106 	strcc	ip, [r9, r6, lsl #2]
    5d18:	e2833001 	add	r3, r3, #1
    5d1c:	e153000a 	cmp	r3, sl
    5d20:	e1a020c2 	asr	r2, r2, #1
    5d24:	1affffea 	bne	5cd4 <draw_char+0x4c0>
    5d28:	e1a0300a 	mov	r3, sl
    5d2c:	e3a02080 	mov	r2, #128	; 0x80
    5d30:	e5de1001 	ldrb	r1, [lr, #1]
    5d34:	e1a08fa4 	lsr	r8, r4, #31
    5d38:	e1120001 	tst	r2, r1
    5d3c:	03a06001 	moveq	r6, #1
    5d40:	13a06000 	movne	r6, #0
    5d44:	e1966fa3 	orrs	r6, r6, r3, lsr #31
    5d48:	1a00000b 	bne	5d7c <draw_char+0x568>
    5d4c:	e590c004 	ldr	ip, [r0, #4]
    5d50:	e153000c 	cmp	r3, ip
    5d54:	31a09008 	movcc	r9, r8
    5d58:	23889001 	orrcs	r9, r8, #1
    5d5c:	e3590000 	cmp	r9, #0
    5d60:	1a000005 	bne	5d7c <draw_char+0x568>
    5d64:	e5909008 	ldr	r9, [r0, #8]
    5d68:	e1540009 	cmp	r4, r9
    5d6c:	30263c94 	mlacc	r6, r4, ip, r3
    5d70:	35909000 	ldrcc	r9, [r0]
    5d74:	359dc06c 	ldrcc	ip, [sp, #108]	; 0x6c
    5d78:	3789c106 	strcc	ip, [r9, r6, lsl #2]
    5d7c:	e2833001 	add	r3, r3, #1
    5d80:	e1530007 	cmp	r3, r7
    5d84:	e1a020c2 	asr	r2, r2, #1
    5d88:	1affffea 	bne	5d38 <draw_char+0x524>
    5d8c:	e59dc004 	ldr	ip, [sp, #4]
    5d90:	e5953008 	ldr	r3, [r5, #8]
    5d94:	e28cc001 	add	ip, ip, #1
    5d98:	e15c0003 	cmp	ip, r3
    5d9c:	e2844001 	add	r4, r4, #1
    5da0:	e28ee002 	add	lr, lr, #2
    5da4:	3affffc4 	bcc	5cbc <draw_char+0x4a8>
    5da8:	e28dd048 	add	sp, sp, #72	; 0x48
    5dac:	e8bd47f0 	pop	{r4, r5, r6, r7, r8, r9, sl, lr}
    5db0:	e12fff1e 	bx	lr
    5db4:	e5932008 	ldr	r2, [r3, #8]
    5db8:	e59d1068 	ldr	r1, [sp, #104]	; 0x68
    5dbc:	e1a03c28 	lsr	r3, r8, #24
    5dc0:	e35300ff 	cmp	r3, #255	; 0xff
    5dc4:	e58d3028 	str	r3, [sp, #40]	; 0x28
    5dc8:	e591500c 	ldr	r5, [r1, #12]
    5dcc:	e0030c92 	mul	r3, r2, ip
    5dd0:	0a000095 	beq	602c <draw_char+0x818>
    5dd4:	e3520000 	cmp	r2, #0
    5dd8:	e1a01828 	lsr	r1, r8, #16
    5ddc:	e1a02428 	lsr	r2, r8, #8
    5de0:	0afffe99 	beq	584c <draw_char+0x38>
    5de4:	e208c0ff 	and	ip, r8, #255	; 0xff
    5de8:	e59d8028 	ldr	r8, [sp, #40]	; 0x28
    5dec:	e1a0e008 	mov	lr, r8
    5df0:	e1a04008 	mov	r4, r8
    5df4:	e20110ff 	and	r1, r1, #255	; 0xff
    5df8:	e00e0e91 	mul	lr, r1, lr
    5dfc:	e20220ff 	and	r2, r2, #255	; 0xff
    5e00:	e0040492 	mul	r4, r2, r4
    5e04:	e1a07008 	mov	r7, r8
    5e08:	e1a0100e 	mov	r1, lr
    5e0c:	e1a02004 	mov	r2, r4
    5e10:	e007079c 	mul	r7, ip, r7
    5e14:	e59fc2bc 	ldr	ip, [pc, #700]	; 60d8 <draw_char+0x8c4>
    5e18:	e0c6e19c 	smull	lr, r6, ip, r1
    5e1c:	e0c4e29c 	smull	lr, r4, ip, r2
    5e20:	e0ce979c 	smull	r9, lr, ip, r7
    5e24:	e0866001 	add	r6, r6, r1
    5e28:	e1a01fc1 	asr	r1, r1, #31
    5e2c:	e0844002 	add	r4, r4, r2
    5e30:	e0853003 	add	r3, r5, r3
    5e34:	e1a02fc2 	asr	r2, r2, #31
    5e38:	e06113c6 	rsb	r1, r1, r6, asr #7
    5e3c:	e08ee007 	add	lr, lr, r7
    5e40:	e06223c4 	rsb	r2, r2, r4, asr #7
    5e44:	e1a07fc7 	asr	r7, r7, #31
    5e48:	e58d3004 	str	r3, [sp, #4]
    5e4c:	e20130ff 	and	r3, r1, #255	; 0xff
    5e50:	e067e3ce 	rsb	lr, r7, lr, asr #7
    5e54:	e58d302c 	str	r3, [sp, #44]	; 0x2c
    5e58:	e20230ff 	and	r3, r2, #255	; 0xff
    5e5c:	e58d3030 	str	r3, [sp, #48]	; 0x30
    5e60:	e20e30ff 	and	r3, lr, #255	; 0xff
    5e64:	e58d3034 	str	r3, [sp, #52]	; 0x34
    5e68:	e28d3008 	add	r3, sp, #8
    5e6c:	e8930018 	ldm	r3, {r3, r4}
    5e70:	e283a008 	add	sl, r3, #8
    5e74:	e1a0e00a 	mov	lr, sl
    5e78:	e1a07000 	mov	r7, r0
    5e7c:	e1a0a004 	mov	sl, r4
    5e80:	e26830ff 	rsb	r3, r8, #255	; 0xff
    5e84:	e58dc03c 	str	ip, [sp, #60]	; 0x3c
    5e88:	e58d3038 	str	r3, [sp, #56]	; 0x38
    5e8c:	e3a03080 	mov	r3, #128	; 0x80
    5e90:	e59d2004 	ldr	r2, [sp, #4]
    5e94:	e4d28001 	ldrb	r8, [r2], #1
    5e98:	e59d0008 	ldr	r0, [sp, #8]
    5e9c:	e58d2004 	str	r2, [sp, #4]
    5ea0:	e1a01faa 	lsr	r1, sl, #31
    5ea4:	e1130008 	tst	r3, r8
    5ea8:	03a02001 	moveq	r2, #1
    5eac:	13a02000 	movne	r2, #0
    5eb0:	e1922fa0 	orrs	r2, r2, r0, lsr #31
    5eb4:	1a000050 	bne	5ffc <draw_char+0x7e8>
    5eb8:	e5972004 	ldr	r2, [r7, #4]
    5ebc:	e1500002 	cmp	r0, r2
    5ec0:	31a0c001 	movcc	ip, r1
    5ec4:	2381c001 	orrcs	ip, r1, #1
    5ec8:	e35c0000 	cmp	ip, #0
    5ecc:	1a00004a 	bne	5ffc <draw_char+0x7e8>
    5ed0:	e597c008 	ldr	ip, [r7, #8]
    5ed4:	e15a000c 	cmp	sl, ip
    5ed8:	2a000047 	bcs	5ffc <draw_char+0x7e8>
    5edc:	e02c0a92 	mla	ip, r2, sl, r0
    5ee0:	e59d6038 	ldr	r6, [sp, #56]	; 0x38
    5ee4:	e5972000 	ldr	r2, [r7]
    5ee8:	e792510c 	ldr	r5, [r2, ip, lsl #2]
    5eec:	e1a02006 	mov	r2, r6
    5ef0:	e58dc018 	str	ip, [sp, #24]
    5ef4:	e1a0c825 	lsr	ip, r5, #16
    5ef8:	e20cc0ff 	and	ip, ip, #255	; 0xff
    5efc:	e002029c 	mul	r2, ip, r2
    5f00:	e59d9028 	ldr	r9, [sp, #40]	; 0x28
    5f04:	e1a0c002 	mov	ip, r2
    5f08:	e1a02c25 	lsr	r2, r5, #24
    5f0c:	e26240ff 	rsb	r4, r2, #255	; 0xff
    5f10:	e0090994 	mul	r9, r4, r9
    5f14:	e1a04009 	mov	r4, r9
    5f18:	e1a09006 	mov	r9, r6
    5f1c:	e58d2014 	str	r2, [sp, #20]
    5f20:	e20520ff 	and	r2, r5, #255	; 0xff
    5f24:	e0060692 	mul	r6, r2, r6
    5f28:	e1a02006 	mov	r2, r6
    5f2c:	e1a06009 	mov	r6, r9
    5f30:	e1a05425 	lsr	r5, r5, #8
    5f34:	e20550ff 	and	r5, r5, #255	; 0xff
    5f38:	e0060695 	mul	r6, r5, r6
    5f3c:	e59d903c 	ldr	r9, [sp, #60]	; 0x3c
    5f40:	e58d6010 	str	r6, [sp, #16]
    5f44:	e1a06009 	mov	r6, r9
    5f48:	e0c6569c 	smull	r5, r6, ip, r6
    5f4c:	e58d6020 	str	r6, [sp, #32]
    5f50:	e1a06009 	mov	r6, r9
    5f54:	e0c95994 	smull	r5, r9, r4, r9
    5f58:	e58d901c 	str	r9, [sp, #28]
    5f5c:	e1a09006 	mov	r9, r6
    5f60:	e0c65692 	smull	r5, r6, r2, r6
    5f64:	e59d5010 	ldr	r5, [sp, #16]
    5f68:	e58d6024 	str	r6, [sp, #36]	; 0x24
    5f6c:	e0c96995 	smull	r6, r9, r5, r9
    5f70:	e1a05009 	mov	r5, r9
    5f74:	e59d9020 	ldr	r9, [sp, #32]
    5f78:	e089900c 	add	r9, r9, ip
    5f7c:	e1a0cfcc 	asr	ip, ip, #31
    5f80:	e06cc3c9 	rsb	ip, ip, r9, asr #7
    5f84:	e59d9034 	ldr	r9, [sp, #52]	; 0x34
    5f88:	e59d6024 	ldr	r6, [sp, #36]	; 0x24
    5f8c:	e089c00c 	add	ip, r9, ip
    5f90:	e59d901c 	ldr	r9, [sp, #28]
    5f94:	e0866002 	add	r6, r6, r2
    5f98:	e0899004 	add	r9, r9, r4
    5f9c:	e1a02fc2 	asr	r2, r2, #31
    5fa0:	e1a04fc4 	asr	r4, r4, #31
    5fa4:	e06493c9 	rsb	r9, r4, r9, asr #7
    5fa8:	e06263c6 	rsb	r6, r2, r6, asr #7
    5fac:	e59d4014 	ldr	r4, [sp, #20]
    5fb0:	e59d2010 	ldr	r2, [sp, #16]
    5fb4:	e0849009 	add	r9, r4, r9
    5fb8:	e0855002 	add	r5, r5, r2
    5fbc:	e59d402c 	ldr	r4, [sp, #44]	; 0x2c
    5fc0:	e1a02fc2 	asr	r2, r2, #31
    5fc4:	e06253c5 	rsb	r5, r2, r5, asr #7
    5fc8:	e20cc0ff 	and	ip, ip, #255	; 0xff
    5fcc:	e59d2030 	ldr	r2, [sp, #48]	; 0x30
    5fd0:	e0846006 	add	r6, r4, r6
    5fd4:	e1a0c80c 	lsl	ip, ip, #16
    5fd8:	e18ccc09 	orr	ip, ip, r9, lsl #24
    5fdc:	e20660ff 	and	r6, r6, #255	; 0xff
    5fe0:	e0825005 	add	r5, r2, r5
    5fe4:	e18cc006 	orr	ip, ip, r6
    5fe8:	e20520ff 	and	r2, r5, #255	; 0xff
    5fec:	e18c2402 	orr	r2, ip, r2, lsl #8
    5ff0:	e5974000 	ldr	r4, [r7]
    5ff4:	e59dc018 	ldr	ip, [sp, #24]
    5ff8:	e784210c 	str	r2, [r4, ip, lsl #2]
    5ffc:	e2800001 	add	r0, r0, #1
    6000:	e150000e 	cmp	r0, lr
    6004:	e1a030c3 	asr	r3, r3, #1
    6008:	1affffa5 	bne	5ea4 <draw_char+0x690>
    600c:	e59d3068 	ldr	r3, [sp, #104]	; 0x68
    6010:	e5932008 	ldr	r2, [r3, #8]
    6014:	e59d300c 	ldr	r3, [sp, #12]
    6018:	e28aa001 	add	sl, sl, #1
    601c:	e063300a 	rsb	r3, r3, sl
    6020:	e1520003 	cmp	r2, r3
    6024:	8affff98 	bhi	5e8c <draw_char+0x678>
    6028:	eafffe07 	b	584c <draw_char+0x38>
    602c:	e3520000 	cmp	r2, #0
    6030:	0afffe05 	beq	584c <draw_char+0x38>
    6034:	e59d700c 	ldr	r7, [sp, #12]
    6038:	e0855003 	add	r5, r5, r3
    603c:	e59d3008 	ldr	r3, [sp, #8]
    6040:	e1a0c007 	mov	ip, r7
    6044:	e1a06003 	mov	r6, r3
    6048:	e58d806c 	str	r8, [sp, #108]	; 0x6c
    604c:	e59d8068 	ldr	r8, [sp, #104]	; 0x68
    6050:	e283a008 	add	sl, r3, #8
    6054:	e1a03006 	mov	r3, r6
    6058:	e3a02080 	mov	r2, #128	; 0x80
    605c:	e4d51001 	ldrb	r1, [r5], #1
    6060:	e58d5004 	str	r5, [sp, #4]
    6064:	e1a04fac 	lsr	r4, ip, #31
    6068:	e1120001 	tst	r2, r1
    606c:	03a0e001 	moveq	lr, #1
    6070:	13a0e000 	movne	lr, #0
    6074:	e19eefa3 	orrs	lr, lr, r3, lsr #31
    6078:	1a00000b 	bne	60ac <draw_char+0x898>
    607c:	e5905004 	ldr	r5, [r0, #4]
    6080:	e1530005 	cmp	r3, r5
    6084:	31a09004 	movcc	r9, r4
    6088:	23849001 	orrcs	r9, r4, #1
    608c:	e3590000 	cmp	r9, #0
    6090:	1a000005 	bne	60ac <draw_char+0x898>
    6094:	e5909008 	ldr	r9, [r0, #8]
    6098:	e15c0009 	cmp	ip, r9
    609c:	302e359c 	mlacc	lr, ip, r5, r3
    60a0:	35909000 	ldrcc	r9, [r0]
    60a4:	359d506c 	ldrcc	r5, [sp, #108]	; 0x6c
    60a8:	3789510e 	strcc	r5, [r9, lr, lsl #2]
    60ac:	e2833001 	add	r3, r3, #1
    60b0:	e153000a 	cmp	r3, sl
    60b4:	e1a020c2 	asr	r2, r2, #1
    60b8:	1affffea 	bne	6068 <draw_char+0x854>
    60bc:	e28cc001 	add	ip, ip, #1
    60c0:	e5982008 	ldr	r2, [r8, #8]
    60c4:	e067300c 	rsb	r3, r7, ip
    60c8:	e1520003 	cmp	r2, r3
    60cc:	e59d5004 	ldr	r5, [sp, #4]
    60d0:	8affffdf 	bhi	6054 <draw_char+0x840>
    60d4:	eafffddc 	b	584c <draw_char+0x38>
    60d8:	80808081 	addhi	r8, r0, r1, lsl #1

000060dc <draw_text>:
    60dc:	e1a0c00d 	mov	ip, sp
    60e0:	e92ddbf0 	push	{r4, r5, r6, r7, r8, r9, fp, ip, lr, pc}
    60e4:	e24cb004 	sub	fp, ip, #4
    60e8:	e24dd008 	sub	sp, sp, #8
    60ec:	e2507000 	subs	r7, r0, #0
    60f0:	e1a04001 	mov	r4, r1
    60f4:	e1a08002 	mov	r8, r2
    60f8:	e1a05003 	mov	r5, r3
    60fc:	e99b0240 	ldmib	fp, {r6, r9}
    6100:	0a00000c 	beq	6138 <draw_text+0x5c>
    6104:	e5d33000 	ldrb	r3, [r3]
    6108:	e3530000 	cmp	r3, #0
    610c:	0a000009 	beq	6138 <draw_text+0x5c>
    6110:	e1a01004 	mov	r1, r4
    6114:	e1a02008 	mov	r2, r8
    6118:	e88d0240 	stm	sp, {r6, r9}
    611c:	e1a00007 	mov	r0, r7
    6120:	ebfffdbb 	bl	5814 <draw_char>
    6124:	e5f53001 	ldrb	r3, [r5, #1]!
    6128:	e5962004 	ldr	r2, [r6, #4]
    612c:	e3530000 	cmp	r3, #0
    6130:	e0844002 	add	r4, r4, r2
    6134:	1afffff5 	bne	6110 <draw_text+0x34>
    6138:	e24bd024 	sub	sp, fp, #36	; 0x24
    613c:	e89d6bf0 	ldm	sp, {r4, r5, r6, r7, r8, r9, fp, sp, lr}
    6140:	e12fff1e 	bx	lr

00006144 <blt>:
    6144:	e1a0c00d 	mov	ip, sp
    6148:	e92ddff0 	push	{r4, r5, r6, r7, r8, r9, sl, fp, ip, lr, pc}
    614c:	e24cb004 	sub	fp, ip, #4
    6150:	e24dd024 	sub	sp, sp, #36	; 0x24
    6154:	e59b4008 	ldr	r4, [fp, #8]
    6158:	e28b5010 	add	r5, fp, #16
    615c:	e8954020 	ldm	r5, {r5, lr}
    6160:	e59b7004 	ldr	r7, [fp, #4]
    6164:	e59b600c 	ldr	r6, [fp, #12]
    6168:	e59bc018 	ldr	ip, [fp, #24]
    616c:	e50b104c 	str	r1, [fp, #-76]	; 0x4c
    6170:	e50b2048 	str	r2, [fp, #-72]	; 0x48
    6174:	e50b3044 	str	r3, [fp, #-68]	; 0x44
    6178:	e1a02004 	mov	r2, r4
    617c:	e24b104c 	sub	r1, fp, #76	; 0x4c
    6180:	e24b303c 	sub	r3, fp, #60	; 0x3c
    6184:	e50b5038 	str	r5, [fp, #-56]	; 0x38
    6188:	e50b7040 	str	r7, [fp, #-64]	; 0x40
    618c:	e50b603c 	str	r6, [fp, #-60]	; 0x3c
    6190:	e50be034 	str	lr, [fp, #-52]	; 0x34
    6194:	e50bc030 	str	ip, [fp, #-48]	; 0x30
    6198:	e1a05000 	mov	r5, r0
    619c:	ebfffad9 	bl	4d08 <insect>
    61a0:	e3500000 	cmp	r0, #0
    61a4:	0a00001e 	beq	6224 <blt+0xe0>
    61a8:	e51b0048 	ldr	r0, [fp, #-72]	; 0x48
    61ac:	e51b8040 	ldr	r8, [fp, #-64]	; 0x40
    61b0:	e51b304c 	ldr	r3, [fp, #-76]	; 0x4c
    61b4:	e0808008 	add	r8, r0, r8
    61b8:	e51be044 	ldr	lr, [fp, #-68]	; 0x44
    61bc:	e1500008 	cmp	r0, r8
    61c0:	e083e00e 	add	lr, r3, lr
    61c4:	e51b9038 	ldr	r9, [fp, #-56]	; 0x38
    61c8:	aa000015 	bge	6224 <blt+0xe0>
    61cc:	e0609009 	rsb	r9, r0, r9
    61d0:	e15e0003 	cmp	lr, r3
    61d4:	e51bc03c 	ldr	ip, [fp, #-60]	; 0x3c
    61d8:	da00000d 	ble	6214 <blt+0xd0>
    61dc:	e594a000 	ldr	sl, [r4]
    61e0:	e5957000 	ldr	r7, [r5]
    61e4:	e063c00c 	rsb	ip, r3, ip
    61e8:	e0896000 	add	r6, r9, r0
    61ec:	e5951004 	ldr	r1, [r5, #4]
    61f0:	e5942004 	ldr	r2, [r4, #4]
    61f4:	e0213190 	mla	r1, r0, r1, r3
    61f8:	e0223296 	mla	r2, r6, r2, r3
    61fc:	e7971101 	ldr	r1, [r7, r1, lsl #2]
    6200:	e2833001 	add	r3, r3, #1
    6204:	e082200c 	add	r2, r2, ip
    6208:	e153000e 	cmp	r3, lr
    620c:	e78a1102 	str	r1, [sl, r2, lsl #2]
    6210:	1afffff5 	bne	61ec <blt+0xa8>
    6214:	e2800001 	add	r0, r0, #1
    6218:	e1500008 	cmp	r0, r8
    621c:	151b304c 	ldrne	r3, [fp, #-76]	; 0x4c
    6220:	1affffea 	bne	61d0 <blt+0x8c>
    6224:	e24bd028 	sub	sp, fp, #40	; 0x28
    6228:	e89d6ff0 	ldm	sp, {r4, r5, r6, r7, r8, r9, sl, fp, sp, lr}
    622c:	e12fff1e 	bx	lr

00006230 <blt_alpha>:
    6230:	e1a0c00d 	mov	ip, sp
    6234:	e92ddff0 	push	{r4, r5, r6, r7, r8, r9, sl, fp, ip, lr, pc}
    6238:	e24cb004 	sub	fp, ip, #4
    623c:	e24dd064 	sub	sp, sp, #100	; 0x64
    6240:	e59bc018 	ldr	ip, [fp, #24]
    6244:	e28b4010 	add	r4, fp, #16
    6248:	e8944010 	ldm	r4, {r4, lr}
    624c:	e59b6004 	ldr	r6, [fp, #4]
    6250:	e59b500c 	ldr	r5, [fp, #12]
    6254:	e50bc030 	str	ip, [fp, #-48]	; 0x30
    6258:	e5dbc01c 	ldrb	ip, [fp, #28]
    625c:	e50b104c 	str	r1, [fp, #-76]	; 0x4c
    6260:	e50b2048 	str	r2, [fp, #-72]	; 0x48
    6264:	e50b3044 	str	r3, [fp, #-68]	; 0x44
    6268:	e59b2008 	ldr	r2, [fp, #8]
    626c:	e24b104c 	sub	r1, fp, #76	; 0x4c
    6270:	e24b303c 	sub	r3, fp, #60	; 0x3c
    6274:	e50b6040 	str	r6, [fp, #-64]	; 0x40
    6278:	e50b503c 	str	r5, [fp, #-60]	; 0x3c
    627c:	e50b4038 	str	r4, [fp, #-56]	; 0x38
    6280:	e50be034 	str	lr, [fp, #-52]	; 0x34
    6284:	e50b007c 	str	r0, [fp, #-124]	; 0x7c
    6288:	e50bc080 	str	ip, [fp, #-128]	; 0x80
    628c:	ebfffa9d 	bl	4d08 <insect>
    6290:	e3500000 	cmp	r0, #0
    6294:	1a000002 	bne	62a4 <blt_alpha+0x74>
    6298:	e24bd028 	sub	sp, fp, #40	; 0x28
    629c:	e89d6ff0 	ldm	sp, {r4, r5, r6, r7, r8, r9, sl, fp, sp, lr}
    62a0:	e12fff1e 	bx	lr
    62a4:	ebfff111 	bl	26f0 <critical_enter>
    62a8:	e51b3048 	ldr	r3, [fp, #-72]	; 0x48
    62ac:	e51b2040 	ldr	r2, [fp, #-64]	; 0x40
    62b0:	e0832002 	add	r2, r3, r2
    62b4:	e1a01002 	mov	r1, r2
    62b8:	e51b804c 	ldr	r8, [fp, #-76]	; 0x4c
    62bc:	e50b2084 	str	r2, [fp, #-132]	; 0x84
    62c0:	e51b2044 	ldr	r2, [fp, #-68]	; 0x44
    62c4:	e1530001 	cmp	r3, r1
    62c8:	e0882002 	add	r2, r8, r2
    62cc:	e50b2070 	str	r2, [fp, #-112]	; 0x70
    62d0:	e51b2038 	ldr	r2, [fp, #-56]	; 0x38
    62d4:	aa000080 	bge	64dc <blt_alpha+0x2ac>
    62d8:	e50b306c 	str	r3, [fp, #-108]	; 0x6c
    62dc:	e0633002 	rsb	r3, r3, r2
    62e0:	e50b3088 	str	r3, [fp, #-136]	; 0x88
    62e4:	e59fa200 	ldr	sl, [pc, #512]	; 64ec <blt_alpha+0x2bc>
    62e8:	e51b3070 	ldr	r3, [fp, #-112]	; 0x70
    62ec:	e1530008 	cmp	r3, r8
    62f0:	e51b303c 	ldr	r3, [fp, #-60]	; 0x3c
    62f4:	da000071 	ble	64c0 <blt_alpha+0x290>
    62f8:	e51b2088 	ldr	r2, [fp, #-136]	; 0x88
    62fc:	e51b106c 	ldr	r1, [fp, #-108]	; 0x6c
    6300:	e0683003 	rsb	r3, r8, r3
    6304:	e0822001 	add	r2, r2, r1
    6308:	e50b2074 	str	r2, [fp, #-116]	; 0x74
    630c:	e50b3078 	str	r3, [fp, #-120]	; 0x78
    6310:	e50b8050 	str	r8, [fp, #-80]	; 0x50
    6314:	e51b107c 	ldr	r1, [fp, #-124]	; 0x7c
    6318:	e51b4050 	ldr	r4, [fp, #-80]	; 0x50
    631c:	e5913004 	ldr	r3, [r1, #4]
    6320:	e51b006c 	ldr	r0, [fp, #-108]	; 0x6c
    6324:	e0204093 	mla	r0, r3, r0, r4
    6328:	e5912000 	ldr	r2, [r1]
    632c:	e7920100 	ldr	r0, [r2, r0, lsl #2]
    6330:	ebfffacb 	bl	4e64 <argb_int>
    6334:	e51b2080 	ldr	r2, [fp, #-128]	; 0x80
    6338:	e1a03c20 	lsr	r3, r0, #24
    633c:	e0020293 	mul	r2, r3, r2
    6340:	e1a03002 	mov	r3, r2
    6344:	e59b2008 	ldr	r2, [fp, #8]
    6348:	e51bc078 	ldr	ip, [fp, #-120]	; 0x78
    634c:	e5921004 	ldr	r1, [r2, #4]
    6350:	e51be074 	ldr	lr, [fp, #-116]	; 0x74
    6354:	e084200c 	add	r2, r4, ip
    6358:	e02e2e91 	mla	lr, r1, lr, r2
    635c:	e083139a 	umull	r1, r3, sl, r3
    6360:	e59b1008 	ldr	r1, [fp, #8]
    6364:	e5911000 	ldr	r1, [r1]
    6368:	e791610e 	ldr	r6, [r1, lr, lsl #2]
    636c:	e1a0cc26 	lsr	ip, r6, #24
    6370:	e50be058 	str	lr, [fp, #-88]	; 0x58
    6374:	e1a0e00c 	mov	lr, ip
    6378:	e1a05820 	lsr	r5, r0, #16
    637c:	e1a033a3 	lsr	r3, r3, #7
    6380:	e20330ff 	and	r3, r3, #255	; 0xff
    6384:	e20550ff 	and	r5, r5, #255	; 0xff
    6388:	e00c0395 	mul	ip, r5, r3
    638c:	e20020ff 	and	r2, r0, #255	; 0xff
    6390:	e1a00420 	lsr	r0, r0, #8
    6394:	e20000ff 	and	r0, r0, #255	; 0xff
    6398:	e0070390 	mul	r7, r0, r3
    639c:	e1a0500c 	mov	r5, ip
    63a0:	e26ec0ff 	rsb	ip, lr, #255	; 0xff
    63a4:	e0020293 	mul	r2, r3, r2
    63a8:	e00c0c93 	mul	ip, r3, ip
    63ac:	e50b4050 	str	r4, [fp, #-80]	; 0x50
    63b0:	e26340ff 	rsb	r4, r3, #255	; 0xff
    63b4:	e20630ff 	and	r3, r6, #255	; 0xff
    63b8:	e0030394 	mul	r3, r4, r3
    63bc:	e50be054 	str	lr, [fp, #-84]	; 0x54
    63c0:	e1a0e007 	mov	lr, r7
    63c4:	e50b105c 	str	r1, [fp, #-92]	; 0x5c
    63c8:	e1a01826 	lsr	r1, r6, #16
    63cc:	e20110ff 	and	r1, r1, #255	; 0xff
    63d0:	e0010194 	mul	r1, r4, r1
    63d4:	e1a00426 	lsr	r0, r6, #8
    63d8:	e20000ff 	and	r0, r0, #255	; 0xff
    63dc:	e0000094 	mul	r0, r4, r0
    63e0:	e0c6439a 	smull	r4, r6, sl, r3
    63e4:	e0c9419a 	smull	r4, r9, sl, r1
    63e8:	e0c8429a 	smull	r4, r8, sl, r2
    63ec:	e50b6060 	str	r6, [fp, #-96]	; 0x60
    63f0:	e50be068 	str	lr, [fp, #-104]	; 0x68
    63f4:	e0ce6e9a 	smull	r6, lr, sl, lr
    63f8:	e0899001 	add	r9, r9, r1
    63fc:	e0888002 	add	r8, r8, r2
    6400:	e1a01fc1 	asr	r1, r1, #31
    6404:	e1a02fc2 	asr	r2, r2, #31
    6408:	e06113c9 	rsb	r1, r1, r9, asr #7
    640c:	e06223c8 	rsb	r2, r2, r8, asr #7
    6410:	e0812002 	add	r2, r1, r2
    6414:	e51b1060 	ldr	r1, [fp, #-96]	; 0x60
    6418:	e0c74c9a 	smull	r4, r7, sl, ip
    641c:	e50b5064 	str	r5, [fp, #-100]	; 0x64
    6420:	e0c5459a 	smull	r4, r5, sl, r5
    6424:	e0c4609a 	smull	r6, r4, sl, r0
    6428:	e0816003 	add	r6, r1, r3
    642c:	e1a03fc3 	asr	r3, r3, #31
    6430:	e06363c6 	rsb	r6, r3, r6, asr #7
    6434:	e1a0300e 	mov	r3, lr
    6438:	e51b1064 	ldr	r1, [fp, #-100]	; 0x64
    643c:	e51be068 	ldr	lr, [fp, #-104]	; 0x68
    6440:	e087700c 	add	r7, r7, ip
    6444:	e1a0cfcc 	asr	ip, ip, #31
    6448:	e0855001 	add	r5, r5, r1
    644c:	e1a08fc1 	asr	r8, r1, #31
    6450:	e06c73c7 	rsb	r7, ip, r7, asr #7
    6454:	e0844000 	add	r4, r4, r0
    6458:	e1a09fc0 	asr	r9, r0, #31
    645c:	e1a01fce 	asr	r1, lr, #31
    6460:	e083000e 	add	r0, r3, lr
    6464:	e51bc054 	ldr	ip, [fp, #-84]	; 0x54
    6468:	e06103c0 	rsb	r0, r1, r0, asr #7
    646c:	e51b3050 	ldr	r3, [fp, #-80]	; 0x50
    6470:	e20220ff 	and	r2, r2, #255	; 0xff
    6474:	e06853c5 	rsb	r5, r8, r5, asr #7
    6478:	e06943c4 	rsb	r4, r9, r4, asr #7
    647c:	e0844000 	add	r4, r4, r0
    6480:	e1a02802 	lsl	r2, r2, #16
    6484:	e08c7007 	add	r7, ip, r7
    6488:	e0866005 	add	r6, r6, r5
    648c:	e51b0070 	ldr	r0, [fp, #-112]	; 0x70
    6490:	e2833001 	add	r3, r3, #1
    6494:	e1822c07 	orr	r2, r2, r7, lsl #24
    6498:	e20660ff 	and	r6, r6, #255	; 0xff
    649c:	e24b105c 	sub	r1, fp, #92	; 0x5c
    64a0:	e50b3050 	str	r3, [fp, #-80]	; 0x50
    64a4:	e1822006 	orr	r2, r2, r6
    64a8:	e20440ff 	and	r4, r4, #255	; 0xff
    64ac:	e1530000 	cmp	r3, r0
    64b0:	e891000a 	ldm	r1, {r1, r3}
    64b4:	e1822404 	orr	r2, r2, r4, lsl #8
    64b8:	e7812103 	str	r2, [r1, r3, lsl #2]
    64bc:	1affff94 	bne	6314 <blt_alpha+0xe4>
    64c0:	e51b306c 	ldr	r3, [fp, #-108]	; 0x6c
    64c4:	e51b2084 	ldr	r2, [fp, #-132]	; 0x84
    64c8:	e2833001 	add	r3, r3, #1
    64cc:	e1530002 	cmp	r3, r2
    64d0:	e50b306c 	str	r3, [fp, #-108]	; 0x6c
    64d4:	151b804c 	ldrne	r8, [fp, #-76]	; 0x4c
    64d8:	1affff82 	bne	62e8 <blt_alpha+0xb8>
    64dc:	ebfff08b 	bl	2710 <critical_quit>
    64e0:	e24bd028 	sub	sp, fp, #40	; 0x28
    64e4:	e89d6ff0 	ldm	sp, {r4, r5, r6, r7, r8, r9, sl, fp, sp, lr}
    64e8:	e12fff1e 	bx	lr
    64ec:	80808081 	addhi	r8, r0, r1, lsl #1

000064f0 <check_in_rect>:
    64f0:	e5923000 	ldr	r3, [r2]
    64f4:	e1530000 	cmp	r3, r0
    64f8:	ca00000c 	bgt	6530 <check_in_rect+0x40>
    64fc:	e592c008 	ldr	ip, [r2, #8]
    6500:	e083300c 	add	r3, r3, ip
    6504:	e1500003 	cmp	r0, r3
    6508:	aa000008 	bge	6530 <check_in_rect+0x40>
    650c:	e5923004 	ldr	r3, [r2, #4]
    6510:	e1530001 	cmp	r3, r1
    6514:	ca000005 	bgt	6530 <check_in_rect+0x40>
    6518:	e592000c 	ldr	r0, [r2, #12]
    651c:	e0830000 	add	r0, r3, r0
    6520:	e1510000 	cmp	r1, r0
    6524:	b3a00000 	movlt	r0, #0
    6528:	a3e00000 	mvnge	r0, #0
    652c:	e12fff1e 	bx	lr
    6530:	e3e00000 	mvn	r0, #0
    6534:	e12fff1e 	bx	lr

00006538 <get_text_size>:
    6538:	e1a0c00d 	mov	ip, sp
    653c:	e3520000 	cmp	r2, #0
    6540:	13510000 	cmpne	r1, #0
    6544:	e92dd878 	push	{r3, r4, r5, r6, fp, ip, lr, pc}
    6548:	e24cb004 	sub	fp, ip, #4
    654c:	03a04001 	moveq	r4, #1
    6550:	13a04000 	movne	r4, #0
    6554:	e1a06001 	mov	r6, r1
    6558:	e1a05002 	mov	r5, r2
    655c:	0a000009 	beq	6588 <get_text_size+0x50>
    6560:	eb000d97 	bl	9bc4 <strlen>
    6564:	e5963004 	ldr	r3, [r6, #4]
    6568:	e0030390 	mul	r3, r0, r3
    656c:	e1a00004 	mov	r0, r4
    6570:	e5962008 	ldr	r2, [r6, #8]
    6574:	e5853000 	str	r3, [r5]
    6578:	e5852004 	str	r2, [r5, #4]
    657c:	e24bd01c 	sub	sp, fp, #28
    6580:	e89d6878 	ldm	sp, {r3, r4, r5, r6, fp, sp, lr}
    6584:	e12fff1e 	bx	lr
    6588:	e3e00000 	mvn	r0, #0
    658c:	eafffffa 	b	657c <get_text_size+0x44>

00006590 <dup16>:
    6590:	e1a0c00d 	mov	ip, sp
    6594:	e92dd878 	push	{r3, r4, r5, r6, fp, ip, lr, pc}
    6598:	e1a04000 	mov	r4, r0
    659c:	e0060293 	mul	r6, r3, r2
    65a0:	e24cb004 	sub	fp, ip, #4
    65a4:	e1a05001 	mov	r5, r1
    65a8:	ebfff050 	bl	26f0 <critical_enter>
    65ac:	e3560000 	cmp	r6, #0
    65b0:	c1a00004 	movgt	r0, r4
    65b4:	c2451004 	subgt	r1, r5, #4
    65b8:	c0803086 	addgt	r3, r0, r6, lsl #1
    65bc:	da00000a 	ble	65ec <dup16+0x5c>
    65c0:	e5b1c004 	ldr	ip, [r1, #4]!
    65c4:	e1a0e40c 	lsl	lr, ip, #8
    65c8:	e1a0440c 	lsl	r4, ip, #8
    65cc:	e20eeb3e 	and	lr, lr, #63488	; 0xf800
    65d0:	e1a0c2ac 	lsr	ip, ip, #5
    65d4:	e18eeda4 	orr	lr, lr, r4, lsr #27
    65d8:	e20ccd1f 	and	ip, ip, #1984	; 0x7c0
    65dc:	e18ec00c 	orr	ip, lr, ip
    65e0:	e0c0c0b2 	strh	ip, [r0], #2
    65e4:	e1500003 	cmp	r0, r3
    65e8:	1afffff4 	bne	65c0 <dup16+0x30>
    65ec:	ebfff047 	bl	2710 <critical_quit>
    65f0:	e24bd01c 	sub	sp, fp, #28
    65f4:	e89d6878 	ldm	sp, {r3, r4, r5, r6, fp, sp, lr}
    65f8:	e12fff1e 	bx	lr

000065fc <tga_image_next_pixel>:
    65fc:	e1a0c00d 	mov	ip, sp
    6600:	e92dd830 	push	{r4, r5, fp, ip, lr, pc}
    6604:	e3510010 	cmp	r1, #16
    6608:	e24cb004 	sub	fp, ip, #4
    660c:	e24dd008 	sub	sp, sp, #8
    6610:	e1a04000 	mov	r4, r0
    6614:	e1a05002 	mov	r5, r2
    6618:	0a000018 	beq	6680 <tga_image_next_pixel+0x84>
    661c:	e3510018 	cmp	r1, #24
    6620:	0a00001c 	beq	6698 <tga_image_next_pixel+0x9c>
    6624:	e3510020 	cmp	r1, #32
    6628:	0a000003 	beq	663c <tga_image_next_pixel+0x40>
    662c:	e1a00004 	mov	r0, r4
    6630:	e24bd014 	sub	sp, fp, #20
    6634:	e89d6830 	ldm	sp, {r4, r5, fp, sp, lr}
    6638:	e12fff1e 	bx	lr
    663c:	e1a01004 	mov	r1, r4
    6640:	e24b0018 	sub	r0, fp, #24
    6644:	e3a02004 	mov	r2, #4
    6648:	eb000c1f 	bl	96cc <memcpy>
    664c:	e51b3018 	ldr	r3, [fp, #-24]
    6650:	e2844004 	add	r4, r4, #4
    6654:	e1a00c43 	asr	r0, r3, #24
    6658:	e5c50003 	strb	r0, [r5, #3]
    665c:	e1a00004 	mov	r0, r4
    6660:	e1a01843 	asr	r1, r3, #16
    6664:	e1a02443 	asr	r2, r3, #8
