
build/rootfs/sbin/init:     file format elf32-littlearm


Disassembly of section .text:

00000100 <main>:
     100:	e1a0c00d 	mov	ip, sp
     104:	e92dd878 	push	{r3, r4, r5, r6, fp, ip, lr, pc}
     108:	e3e04000 	mvn	r4, #0
     10c:	e59f3278 	ldr	r3, [pc, #632]	; 38c <main+0x28c>
     110:	e24cb004 	sub	fp, ip, #4
     114:	e08f3003 	add	r3, pc, r3
     118:	e5834000 	str	r4, [r3]
     11c:	eb003302 	bl	cd2c <getuid>
     120:	e59f6268 	ldr	r6, [pc, #616]	; 390 <main+0x290>
     124:	e3500000 	cmp	r0, #0
     128:	e08f6006 	add	r6, pc, r6
     12c:	ba000006 	blt	14c <main+0x4c>
     130:	e59f025c 	ldr	r0, [pc, #604]	; 394 <main+0x294>
     134:	e08f0000 	add	r0, pc, r0
     138:	eb0000ac 	bl	3f0 <out>
     13c:	e1a00004 	mov	r0, r4
     140:	e24bd01c 	sub	sp, fp, #28
     144:	e89d6878 	ldm	sp, {r3, r4, r5, r6, fp, sp, lr}
     148:	e12fff1e 	bx	lr
     14c:	e59f0244 	ldr	r0, [pc, #580]	; 398 <main+0x298>
     150:	e08f0000 	add	r0, pc, r0
     154:	eb0000a5 	bl	3f0 <out>
     158:	e59f123c 	ldr	r1, [pc, #572]	; 39c <main+0x29c>
     15c:	e3a00017 	mov	r0, #23
     160:	e08f1001 	add	r1, pc, r1
     164:	eb001e78 	bl	7b4c <syscall1>
     168:	e59f0230 	ldr	r0, [pc, #560]	; 3a0 <main+0x2a0>
     16c:	e08f0000 	add	r0, pc, r0
     170:	eb00009e 	bl	3f0 <out>
     174:	eb0032bd 	bl	cc70 <fork>
     178:	e3500000 	cmp	r0, #0
     17c:	0a00007c 	beq	374 <main+0x274>
     180:	eb003207 	bl	c9a4 <proc_wait_ready>
     184:	e59f0218 	ldr	r0, [pc, #536]	; 3a4 <main+0x2a4>
     188:	e08f0000 	add	r0, pc, r0
     18c:	eb000097 	bl	3f0 <out>
     190:	e59f0210 	ldr	r0, [pc, #528]	; 3a8 <main+0x2a8>
     194:	e08f0000 	add	r0, pc, r0
     198:	eb000094 	bl	3f0 <out>
     19c:	eb0032b3 	bl	cc70 <fork>
     1a0:	e3500000 	cmp	r0, #0
     1a4:	0a00006c 	beq	35c <main+0x25c>
     1a8:	eb0031fd 	bl	c9a4 <proc_wait_ready>
     1ac:	e59f01f8 	ldr	r0, [pc, #504]	; 3ac <main+0x2ac>
     1b0:	e08f0000 	add	r0, pc, r0
     1b4:	eb00008d 	bl	3f0 <out>
     1b8:	e59f01f0 	ldr	r0, [pc, #496]	; 3b0 <main+0x2b0>
     1bc:	e08f0000 	add	r0, pc, r0
     1c0:	eb00008a 	bl	3f0 <out>
     1c4:	eb0032a9 	bl	cc70 <fork>
     1c8:	e2501000 	subs	r1, r0, #0
     1cc:	1a000060 	bne	354 <main+0x254>
     1d0:	e3a0002f 	mov	r0, #47	; 0x2f
     1d4:	e1a02001 	mov	r2, r1
     1d8:	e1a03001 	mov	r3, r1
     1dc:	eb001e57 	bl	7b40 <syscall3>
     1e0:	e3500000 	cmp	r0, #0
     1e4:	e3a00017 	mov	r0, #23
     1e8:	ba000054 	blt	340 <main+0x240>
     1ec:	e59f11c0 	ldr	r1, [pc, #448]	; 3b4 <main+0x2b4>
     1f0:	e08f1001 	add	r1, pc, r1
     1f4:	eb001e54 	bl	7b4c <syscall1>
     1f8:	eb000a4c 	bl	2b30 <romfsd_main>
     1fc:	e59f01b4 	ldr	r0, [pc, #436]	; 3b8 <main+0x2b8>
     200:	e08f0000 	add	r0, pc, r0
     204:	eb000079 	bl	3f0 <out>
     208:	e3a00000 	mov	r0, #0
     20c:	eb003332 	bl	cedc <setuid>
     210:	eb000144 	bl	728 <load_arch_devs>
     214:	eb000159 	bl	780 <load_extra_devs>
     218:	e59f019c 	ldr	r0, [pc, #412]	; 3bc <main+0x2bc>
     21c:	e08f0000 	add	r0, pc, r0
     220:	eb000125 	bl	6bc <load_devs>
     224:	e59f0194 	ldr	r0, [pc, #404]	; 3c0 <main+0x2c0>
     228:	e3a01002 	mov	r1, #2
     22c:	e08f0000 	add	r0, pc, r0
     230:	eb0035e6 	bl	d9d0 <open>
     234:	e59f3188 	ldr	r3, [pc, #392]	; 3c4 <main+0x2c4>
     238:	e3500000 	cmp	r0, #0
     23c:	e08f3003 	add	r3, pc, r3
     240:	e5830000 	str	r0, [r3]
     244:	c59f117c 	ldrgt	r1, [pc, #380]	; 3c8 <main+0x2c8>
     248:	c08f1001 	addgt	r1, pc, r1
     24c:	cb0035c2 	blgt	d95c <dprintf>
     250:	e59f0174 	ldr	r0, [pc, #372]	; 3cc <main+0x2cc>
     254:	e3a01000 	mov	r1, #0
     258:	e08f0000 	add	r0, pc, r0
     25c:	eb0035db 	bl	d9d0 <open>
     260:	e1a04000 	mov	r4, r0
     264:	e59f5164 	ldr	r5, [pc, #356]	; 3d0 <main+0x2d0>
     268:	e3a01000 	mov	r1, #0
     26c:	eb00324e 	bl	cbac <dup2>
     270:	e08f5005 	add	r5, pc, r5
     274:	e1a00004 	mov	r0, r4
     278:	e3a01001 	mov	r1, #1
     27c:	eb00324a 	bl	cbac <dup2>
     280:	e5950000 	ldr	r0, [r5]
     284:	e3500000 	cmp	r0, #0
     288:	da000028 	ble	330 <main+0x230>
     28c:	e3a01002 	mov	r1, #2
     290:	eb003245 	bl	cbac <dup2>
     294:	e5950000 	ldr	r0, [r5]
     298:	eb003631 	bl	db64 <close>
     29c:	e59f3130 	ldr	r3, [pc, #304]	; 3d4 <main+0x2d4>
     2a0:	e5853000 	str	r3, [r5]
     2a4:	e1a00004 	mov	r0, r4
     2a8:	eb00362d 	bl	db64 <close>
     2ac:	e59f0124 	ldr	r0, [pc, #292]	; 3d8 <main+0x2d8>
     2b0:	e08f0000 	add	r0, pc, r0
     2b4:	eb000100 	bl	6bc <load_devs>
     2b8:	e59f011c 	ldr	r0, [pc, #284]	; 3dc <main+0x2dc>
     2bc:	e3a01000 	mov	r1, #0
     2c0:	e08f0000 	add	r0, pc, r0
     2c4:	eb0035c1 	bl	d9d0 <open>
     2c8:	e2504000 	subs	r4, r0, #0
     2cc:	ba000011 	blt	318 <main+0x218>
     2d0:	e1a00004 	mov	r0, r4
     2d4:	eb00007c 	bl	4cc <read_line>
     2d8:	e2503000 	subs	r3, r0, #0
     2dc:	0a00000b 	beq	310 <main+0x210>
     2e0:	e5d31000 	ldrb	r1, [r3]
     2e4:	e3510000 	cmp	r1, #0
     2e8:	13510023 	cmpne	r1, #35	; 0x23
     2ec:	03a01001 	moveq	r1, #1
     2f0:	13a01000 	movne	r1, #0
     2f4:	0afffff5 	beq	2d0 <main+0x1d0>
     2f8:	e1a02001 	mov	r2, r1
     2fc:	eb000097 	bl	560 <run>
     300:	e1a00004 	mov	r0, r4
     304:	eb000070 	bl	4cc <read_line>
     308:	e2503000 	subs	r3, r0, #0
     30c:	1afffff3 	bne	2e0 <main+0x1e0>
     310:	e1a00004 	mov	r0, r4
     314:	eb003612 	bl	db64 <close>
     318:	e59f30c0 	ldr	r3, [pc, #192]	; 3e0 <main+0x2e0>
     31c:	e7964003 	ldr	r4, [r6, r3]
     320:	eb003289 	bl	cd4c <getpid>
     324:	e1a01004 	mov	r1, r4
     328:	eb0031ad 	bl	c9e4 <proc_block>
     32c:	eafffffb 	b	320 <main+0x220>
     330:	e1a00004 	mov	r0, r4
     334:	e3a01002 	mov	r1, #2
     338:	eb00321b 	bl	cbac <dup2>
     33c:	eaffffd8 	b	2a4 <main+0x1a4>
     340:	e59f109c 	ldr	r1, [pc, #156]	; 3e4 <main+0x2e4>
     344:	e08f1001 	add	r1, pc, r1
     348:	eb001dff 	bl	7b4c <syscall1>
     34c:	eb000b48 	bl	3074 <sdfsd_main>
     350:	eaffffa9 	b	1fc <main+0xfc>
     354:	eb003192 	bl	c9a4 <proc_wait_ready>
     358:	eaffffa7 	b	1fc <main+0xfc>
     35c:	e59f1084 	ldr	r1, [pc, #132]	; 3e8 <main+0x2e8>
     360:	e3a00017 	mov	r0, #23
     364:	e08f1001 	add	r1, pc, r1
     368:	eb001df7 	bl	7b4c <syscall1>
     36c:	eb0008e7 	bl	2710 <vfsd_main>
     370:	eaffff8d 	b	1ac <main+0xac>
     374:	e59f1070 	ldr	r1, [pc, #112]	; 3ec <main+0x2ec>
     378:	e3a00017 	mov	r0, #23
     37c:	e08f1001 	add	r1, pc, r1
     380:	eb001df1 	bl	7b4c <syscall1>
     384:	eb000281 	bl	d90 <core>
     388:	eaffff7d 	b	184 <main+0x84>
     38c:	0001793c 	andeq	r7, r1, ip, lsr r9
     390:	000178d0 	ldrdeq	r7, [r1], -r0
     394:	0000f0e0 	andeq	pc, r0, r0, ror #1
     398:	0000f0f0 	strdeq	pc, [r0], -r0
     39c:	0000f0fc 	strdeq	pc, [r0], -ip
     3a0:	0000f0f8 	strdeq	pc, [r0], -r8
     3a4:	0000f050 	andeq	pc, r0, r0, asr r0	; <UNPREDICTABLE>
     3a8:	0000f0f0 	strdeq	pc, [r0], -r0
     3ac:	0000f028 	andeq	pc, r0, r8, lsr #32
     3b0:	0000f0e8 	andeq	pc, r0, r8, ror #1
     3b4:	0000f0d8 	ldrdeq	pc, [r0], -r8
     3b8:	0000efd8 	ldrdeq	lr, [r0], -r8
     3bc:	0000f0b8 	strheq	pc, [r0], -r8	; <UNPREDICTABLE>
     3c0:	0000f0c0 	andeq	pc, r0, r0, asr #1
     3c4:	00017814 	andeq	r7, r1, r4, lsl r8
     3c8:	0000f0b4 	strheq	pc, [r0], -r4	; <UNPREDICTABLE>
     3cc:	0000f1d8 	ldrdeq	pc, [r0], -r8
     3d0:	000177e0 	andeq	r7, r1, r0, ror #15
     3d4:	fffffb2e 			; <UNDEFINED> instruction: 0xfffffb2e
     3d8:	0000f18c 	andeq	pc, r0, ip, lsl #3
     3dc:	0000f190 	muleq	r0, r0, r1
     3e0:	0000003c 	andeq	r0, r0, ip, lsr r0
     3e4:	0000ef78 	andeq	lr, r0, r8, ror pc
     3e8:	0000ef34 	andeq	lr, r0, r4, lsr pc
     3ec:	0000eefc 	strdeq	lr, [r0], -ip

000003f0 <out>:
     3f0:	e1a0c00d 	mov	ip, sp
     3f4:	e92d000f 	push	{r0, r1, r2, r3}
     3f8:	e92dd830 	push	{r4, r5, fp, ip, lr, pc}
     3fc:	e24cb014 	sub	fp, ip, #20
     400:	e24dd008 	sub	sp, sp, #8
     404:	e3a00000 	mov	r0, #0
     408:	eb001e1f 	bl	7c8c <str_new>
     40c:	e1a04000 	mov	r4, r0
     410:	e1a01000 	mov	r1, r0
     414:	e59f5078 	ldr	r5, [pc, #120]	; 494 <out+0xa4>
     418:	e59f0078 	ldr	r0, [pc, #120]	; 498 <out+0xa8>
     41c:	e28bc008 	add	ip, fp, #8
     420:	e59b2004 	ldr	r2, [fp, #4]
     424:	e1a0300c 	mov	r3, ip
     428:	e08f0000 	add	r0, pc, r0
     42c:	e08f5005 	add	r5, pc, r5
     430:	e50bc018 	str	ip, [fp, #-24]
     434:	eb003438 	bl	d51c <v_printf>
     438:	e1a00005 	mov	r0, r5
     43c:	e5941000 	ldr	r1, [r4]
     440:	eb001f9d 	bl	82bc <klog>
     444:	e59f3050 	ldr	r3, [pc, #80]	; 49c <out+0xac>
     448:	e08f3003 	add	r3, pc, r3
     44c:	e59f204c 	ldr	r2, [pc, #76]	; 4a0 <out+0xb0>
     450:	e5930000 	ldr	r0, [r3]
     454:	e1500002 	cmp	r0, r2
     458:	0a000008 	beq	480 <out+0x90>
     45c:	e3500000 	cmp	r0, #0
     460:	c1a01005 	movgt	r1, r5
     464:	c5942000 	ldrgt	r2, [r4]
     468:	cb00353b 	blgt	d95c <dprintf>
     46c:	e1a00004 	mov	r0, r4
     470:	eb001e78 	bl	7e58 <str_free>
     474:	e24bd014 	sub	sp, fp, #20
     478:	e89d6830 	ldm	sp, {r4, r5, fp, sp, lr}
     47c:	e12fff1e 	bx	lr
     480:	e1a01005 	mov	r1, r5
     484:	e3a00002 	mov	r0, #2
     488:	e5942000 	ldr	r2, [r4]
     48c:	eb003532 	bl	d95c <dprintf>
     490:	eafffff5 	b	46c <out+0x7c>
     494:	0000ed74 	andeq	lr, r0, r4, ror sp
     498:	00000074 	andeq	r0, r0, r4, ror r0
     49c:	00017608 	andeq	r7, r1, r8, lsl #12
     4a0:	fffffb2e 			; <UNDEFINED> instruction: 0xfffffb2e

000004a4 <outc>:
     4a4:	e1a0c00d 	mov	ip, sp
     4a8:	e1a03000 	mov	r3, r0
     4ac:	e92dd800 	push	{fp, ip, lr, pc}
     4b0:	e1a00001 	mov	r0, r1
     4b4:	e24cb004 	sub	fp, ip, #4
     4b8:	e1a01003 	mov	r1, r3
     4bc:	eb001e3b 	bl	7db0 <str_addc>
     4c0:	e24bd00c 	sub	sp, fp, #12
     4c4:	e89d6800 	ldm	sp, {fp, sp, lr}
     4c8:	e12fff1e 	bx	lr

000004cc <read_line>:
     4cc:	e1a0c00d 	mov	ip, sp
     4d0:	e92dd8f0 	push	{r4, r5, r6, r7, fp, ip, lr, pc}
     4d4:	e59f507c 	ldr	r5, [pc, #124]	; 558 <read_line+0x8c>
     4d8:	e24cb004 	sub	fp, ip, #4
     4dc:	e24dd008 	sub	sp, sp, #8
     4e0:	e08f5005 	add	r5, pc, r5
     4e4:	e1a07000 	mov	r7, r0
     4e8:	e3a04000 	mov	r4, #0
     4ec:	e24b601d 	sub	r6, fp, #29
     4f0:	e2455001 	sub	r5, r5, #1
     4f4:	ea000006 	b	514 <read_line+0x48>
     4f8:	e55b301d 	ldrb	r3, [fp, #-29]
     4fc:	e353000a 	cmp	r3, #10
     500:	0a00000c 	beq	538 <read_line+0x6c>
     504:	e2844001 	add	r4, r4, #1
     508:	e35400ff 	cmp	r4, #255	; 0xff
     50c:	e5e53001 	strb	r3, [r5, #1]!
     510:	0a000008 	beq	538 <read_line+0x6c>
     514:	e1a00007 	mov	r0, r7
     518:	e1a01006 	mov	r1, r6
     51c:	e3a02001 	mov	r2, #1
     520:	eb003211 	bl	cd6c <read>
     524:	e3500000 	cmp	r0, #0
     528:	cafffff2 	bgt	4f8 <read_line+0x2c>
     52c:	e3540000 	cmp	r4, #0
     530:	01a00004 	moveq	r0, r4
     534:	0a000004 	beq	54c <read_line+0x80>
     538:	e59f301c 	ldr	r3, [pc, #28]	; 55c <read_line+0x90>
     53c:	e3a02000 	mov	r2, #0
     540:	e08f3003 	add	r3, pc, r3
     544:	e1a00003 	mov	r0, r3
     548:	e7c32004 	strb	r2, [r3, r4]
     54c:	e24bd01c 	sub	sp, fp, #28
     550:	e89d68f0 	ldm	sp, {r4, r5, r6, r7, fp, sp, lr}
     554:	e12fff1e 	bx	lr
     558:	00017578 	andeq	r7, r1, r8, ror r5
     55c:	00017518 	andeq	r7, r1, r8, lsl r5

00000560 <run>:
     560:	e1a0c00d 	mov	ip, sp
     564:	e92dd9f8 	push	{r3, r4, r5, r6, r7, r8, fp, ip, lr, pc}
     568:	e1a07000 	mov	r7, r0
     56c:	e59f0130 	ldr	r0, [pc, #304]	; 6a4 <run+0x144>
     570:	e24cb004 	sub	fp, ip, #4
     574:	e08f0000 	add	r0, pc, r0
     578:	e1a06001 	mov	r6, r1
     57c:	e1a08002 	mov	r8, r2
     580:	eb001dc1 	bl	7c8c <str_new>
     584:	e5d71000 	ldrb	r1, [r7]
     588:	e31100df 	tst	r1, #223	; 0xdf
     58c:	e1a05000 	mov	r5, r0
     590:	11a04007 	movne	r4, r7
     594:	0a000004 	beq	5ac <run+0x4c>
     598:	e1a00005 	mov	r0, r5
     59c:	eb001e03 	bl	7db0 <str_addc>
     5a0:	e5f41001 	ldrb	r1, [r4, #1]!
     5a4:	e31100df 	tst	r1, #223	; 0xdf
     5a8:	1afffffa 	bne	598 <run+0x38>
     5ac:	e3a01000 	mov	r1, #0
     5b0:	e1a00005 	mov	r0, r5
     5b4:	eb001dfd 	bl	7db0 <str_addc>
     5b8:	e5950000 	ldr	r0, [r5]
     5bc:	eb002150 	bl	8b04 <vfs_access>
     5c0:	e1a04000 	mov	r4, r0
     5c4:	e1a00005 	mov	r0, r5
     5c8:	eb001e22 	bl	7e58 <str_free>
     5cc:	e3540000 	cmp	r4, #0
     5d0:	1a00002d 	bne	68c <run+0x12c>
     5d4:	e3560000 	cmp	r6, #0
     5d8:	1a000020 	bne	660 <run+0x100>
     5dc:	eb0031a3 	bl	cc70 <fork>
     5e0:	e3500000 	cmp	r0, #0
     5e4:	1a000011 	bne	630 <run+0xd0>
     5e8:	e59f40b8 	ldr	r4, [pc, #184]	; 6a8 <run+0x148>
     5ec:	e08f4004 	add	r4, pc, r4
     5f0:	e5940000 	ldr	r0, [r4]
     5f4:	e3500000 	cmp	r0, #0
     5f8:	da000002 	ble	608 <run+0xa8>
     5fc:	eb003558 	bl	db64 <close>
     600:	e3e03000 	mvn	r3, #0
     604:	e5843000 	str	r3, [r4]
     608:	eb0030cc 	bl	c940 <proc_detach>
     60c:	e1a00007 	mov	r0, r7
     610:	eb00316c 	bl	cbc8 <exec>
     614:	e3500000 	cmp	r0, #0
     618:	0a000006 	beq	638 <run+0xd8>
     61c:	e3560000 	cmp	r6, #0
     620:	1a000013 	bne	674 <run+0x114>
     624:	e3e00000 	mvn	r0, #0
     628:	eb003315 	bl	d284 <exit>
     62c:	ea000001 	b	638 <run+0xd8>
     630:	e3580000 	cmp	r8, #0
     634:	1a000012 	bne	684 <run+0x124>
     638:	e3560000 	cmp	r6, #0
     63c:	01a00006 	moveq	r0, r6
     640:	0a000003 	beq	654 <run+0xf4>
     644:	e59f0060 	ldr	r0, [pc, #96]	; 6ac <run+0x14c>
     648:	e08f0000 	add	r0, pc, r0
     64c:	ebffff67 	bl	3f0 <out>
     650:	e3a00000 	mov	r0, #0
     654:	e24bd024 	sub	sp, fp, #36	; 0x24
     658:	e89d69f8 	ldm	sp, {r3, r4, r5, r6, r7, r8, fp, sp, lr}
     65c:	e12fff1e 	bx	lr
     660:	e59f0048 	ldr	r0, [pc, #72]	; 6b0 <run+0x150>
     664:	e1a01007 	mov	r1, r7
     668:	e08f0000 	add	r0, pc, r0
     66c:	ebffff5f 	bl	3f0 <out>
     670:	eaffffd9 	b	5dc <run+0x7c>
     674:	e59f0038 	ldr	r0, [pc, #56]	; 6b4 <run+0x154>
     678:	e08f0000 	add	r0, pc, r0
     67c:	ebffff5b 	bl	3f0 <out>
     680:	eaffffe7 	b	624 <run+0xc4>
     684:	eb0030c6 	bl	c9a4 <proc_wait_ready>
     688:	eaffffea 	b	638 <run+0xd8>
     68c:	e59f0024 	ldr	r0, [pc, #36]	; 6b8 <run+0x158>
     690:	e1a01007 	mov	r1, r7
     694:	e08f0000 	add	r0, pc, r0
     698:	ebffff54 	bl	3f0 <out>
     69c:	e3e00000 	mvn	r0, #0
     6a0:	eaffffeb 	b	654 <run+0xf4>
     6a4:	0000ef78 	andeq	lr, r0, r8, ror pc
     6a8:	00017464 	andeq	r7, r1, r4, ror #8
     6ac:	0000eb90 	muleq	r0, r0, fp
     6b0:	0000eb58 	andeq	lr, r0, r8, asr fp
     6b4:	0000eb54 	andeq	lr, r0, r4, asr fp
     6b8:	0000eb10 	andeq	lr, r0, r0, lsl fp

000006bc <load_devs>:
     6bc:	e1a0c00d 	mov	ip, sp
     6c0:	e3a01000 	mov	r1, #0
     6c4:	e92dd818 	push	{r3, r4, fp, ip, lr, pc}
     6c8:	e24cb004 	sub	fp, ip, #4
     6cc:	eb0034bf 	bl	d9d0 <open>
     6d0:	e2504000 	subs	r4, r0, #0
     6d4:	ba000010 	blt	71c <load_devs+0x60>
     6d8:	e1a00004 	mov	r0, r4
     6dc:	ebffff7a 	bl	4cc <read_line>
     6e0:	e2503000 	subs	r3, r0, #0
     6e4:	0a00000a 	beq	714 <load_devs+0x58>
     6e8:	e5d33000 	ldrb	r3, [r3]
     6ec:	e3530000 	cmp	r3, #0
     6f0:	13530023 	cmpne	r3, #35	; 0x23
     6f4:	0afffff7 	beq	6d8 <load_devs+0x1c>
     6f8:	e3a01001 	mov	r1, #1
     6fc:	e1a02001 	mov	r2, r1
     700:	ebffff96 	bl	560 <run>
     704:	e1a00004 	mov	r0, r4
     708:	ebffff6f 	bl	4cc <read_line>
     70c:	e2503000 	subs	r3, r0, #0
     710:	1afffff4 	bne	6e8 <load_devs+0x2c>
     714:	e1a00004 	mov	r0, r4
     718:	eb003511 	bl	db64 <close>
     71c:	e24bd014 	sub	sp, fp, #20
     720:	e89d6818 	ldm	sp, {r3, r4, fp, sp, lr}
     724:	e12fff1e 	bx	lr

00000728 <load_arch_devs>:
     728:	e1a0c00d 	mov	ip, sp
     72c:	e92dd810 	push	{r4, fp, ip, lr, pc}
     730:	e24cb004 	sub	fp, ip, #4
     734:	e24ddf91 	sub	sp, sp, #580	; 0x244
     738:	e24b4f95 	sub	r4, fp, #596	; 0x254
     73c:	e1a01004 	mov	r1, r4
     740:	e3a0001e 	mov	r0, #30
     744:	eb001d00 	bl	7b4c <syscall1>
     748:	e59f2028 	ldr	r2, [pc, #40]	; 778 <load_arch_devs+0x50>
     74c:	e1a03004 	mov	r3, r4
     750:	e24b4f85 	sub	r4, fp, #532	; 0x214
     754:	e59f1020 	ldr	r1, [pc, #32]	; 77c <load_arch_devs+0x54>
     758:	e08f2002 	add	r2, pc, r2
     75c:	e1a00004 	mov	r0, r4
     760:	eb00345a 	bl	d8d0 <snprintf>
     764:	e1a00004 	mov	r0, r4
     768:	ebffffd3 	bl	6bc <load_devs>
     76c:	e24bd010 	sub	sp, fp, #16
     770:	e89d6810 	ldm	sp, {r4, fp, sp, lr}
     774:	e12fff1e 	bx	lr
     778:	0000ea88 	andeq	lr, r0, r8, lsl #21
     77c:	000001ff 	strdeq	r0, [r0], -pc	; <UNPREDICTABLE>

00000780 <load_extra_devs>:
     780:	e1a0c00d 	mov	ip, sp
     784:	e92dd8f0 	push	{r4, r5, r6, r7, fp, ip, lr, pc}
     788:	e59f0074 	ldr	r0, [pc, #116]	; 804 <load_extra_devs+0x84>
     78c:	e24cb004 	sub	fp, ip, #4
     790:	e24ddf82 	sub	sp, sp, #520	; 0x208
     794:	e08f0000 	add	r0, pc, r0
     798:	eb0031f5 	bl	cf74 <opendir>
     79c:	e2505000 	subs	r5, r0, #0
     7a0:	0a000014 	beq	7f8 <load_extra_devs+0x78>
     7a4:	e59f705c 	ldr	r7, [pc, #92]	; 808 <load_extra_devs+0x88>
     7a8:	e59f605c 	ldr	r6, [pc, #92]	; 80c <load_extra_devs+0x8c>
     7ac:	e08f7007 	add	r7, pc, r7
     7b0:	e08f6006 	add	r6, pc, r6
     7b4:	e24b4f87 	sub	r4, fp, #540	; 0x21c
     7b8:	ea000006 	b	7d8 <load_extra_devs+0x58>
     7bc:	e58d0000 	str	r0, [sp]
     7c0:	e1a02007 	mov	r2, r7
     7c4:	e1a00004 	mov	r0, r4
     7c8:	e1a03006 	mov	r3, r6
     7cc:	eb00343f 	bl	d8d0 <snprintf>
     7d0:	e1a00004 	mov	r0, r4
     7d4:	ebffffb8 	bl	6bc <load_devs>
     7d8:	e1a00005 	mov	r0, r5
     7dc:	eb003218 	bl	d044 <readdir>
     7e0:	e3500000 	cmp	r0, #0
     7e4:	e59f1024 	ldr	r1, [pc, #36]	; 810 <load_extra_devs+0x90>
     7e8:	e280000b 	add	r0, r0, #11
     7ec:	1afffff2 	bne	7bc <load_extra_devs+0x3c>
     7f0:	e1a00005 	mov	r0, r5
     7f4:	eb003202 	bl	d004 <closedir>
     7f8:	e24bd01c 	sub	sp, fp, #28
     7fc:	e89d68f0 	ldm	sp, {r4, r5, r6, r7, fp, sp, lr}
     800:	e12fff1e 	bx	lr
     804:	0000ea68 	andeq	lr, r0, r8, ror #20
     808:	0000ea60 	andeq	lr, r0, r0, ror #20
     80c:	0000ea4c 	andeq	lr, r0, ip, asr #20
     810:	000001ff 	strdeq	r0, [r0], -pc	; <UNPREDICTABLE>

00000814 <get_envs>:
     814:	e1a0c00d 	mov	ip, sp
     818:	e92dd878 	push	{r3, r4, r5, r6, fp, ip, lr, pc}
     81c:	e24cb004 	sub	fp, ip, #4
     820:	e1a04002 	mov	r4, r2
     824:	e1a05001 	mov	r5, r1
     828:	e1a06000 	mov	r6, r0
     82c:	eb002d05 	bl	bc48 <get_proto_factor>
     830:	e1a01006 	mov	r1, r6
     834:	e5903018 	ldr	r3, [r0, #24]
     838:	e1a00004 	mov	r0, r4
     83c:	e1a0e00f 	mov	lr, pc
     840:	e12fff13 	bx	r3
     844:	e5951000 	ldr	r1, [r5]
     848:	e5903018 	ldr	r3, [r0, #24]
     84c:	e1a00004 	mov	r0, r4
     850:	e1a0e00f 	mov	lr, pc
     854:	e12fff13 	bx	r3
     858:	e3a00000 	mov	r0, #0
     85c:	e24bd01c 	sub	sp, fp, #28
     860:	e89d6878 	ldm	sp, {r3, r4, r5, r6, fp, sp, lr}
     864:	e12fff1e 	bx	lr

00000868 <get_ipc_serv>:
     868:	e1a0c00d 	mov	ip, sp
     86c:	e92dd800 	push	{fp, ip, lr, pc}
     870:	e24cb004 	sub	fp, ip, #4
     874:	e24dd008 	sub	sp, sp, #8
     878:	e59f3028 	ldr	r3, [pc, #40]	; 8a8 <get_ipc_serv+0x40>
     87c:	e1a01000 	mov	r1, r0
     880:	e24b2010 	sub	r2, fp, #16
     884:	e79f0003 	ldr	r0, [pc, r3]
     888:	eb001bd9 	bl	77f4 <hashmap_get>
     88c:	e3700003 	cmn	r0, #3
     890:	03e00000 	mvneq	r0, #0
     894:	151b3010 	ldrne	r3, [fp, #-16]
     898:	15930000 	ldrne	r0, [r3]
     89c:	e24bd00c 	sub	sp, fp, #12
     8a0:	e89d6800 	ldm	sp, {fp, sp, lr}
     8a4:	e12fff1e 	bx	lr
     8a8:	000172d4 	ldrdeq	r7, [r1], -r4

000008ac <free_envs>:
     8ac:	e1a0c00d 	mov	ip, sp
     8b0:	e92dd818 	push	{r3, r4, fp, ip, lr, pc}
     8b4:	e1a03000 	mov	r3, r0
     8b8:	e1a04001 	mov	r4, r1
     8bc:	e24cb004 	sub	fp, ip, #4
     8c0:	e1a00002 	mov	r0, r2
     8c4:	e1a01003 	mov	r1, r3
     8c8:	eb001bef 	bl	788c <hashmap_remove>
     8cc:	e1a00004 	mov	r0, r4
     8d0:	eb001d60 	bl	7e58 <str_free>
     8d4:	e3a00000 	mov	r0, #0
     8d8:	e24bd014 	sub	sp, fp, #20
     8dc:	e89d6818 	ldm	sp, {r3, r4, fp, sp, lr}
     8e0:	e12fff1e 	bx	lr

000008e4 <set_env>:
     8e4:	e1a0c00d 	mov	ip, sp
     8e8:	e92dd870 	push	{r4, r5, r6, fp, ip, lr, pc}
     8ec:	e24cb004 	sub	fp, ip, #4
     8f0:	e3a0c000 	mov	ip, #0
     8f4:	e24b301c 	sub	r3, fp, #28
     8f8:	e24dd00c 	sub	sp, sp, #12
     8fc:	e523c004 	str	ip, [r3, #-4]!
     900:	e1a04002 	mov	r4, r2
     904:	e1a02003 	mov	r2, r3
     908:	e1a06000 	mov	r6, r0
     90c:	e1a05001 	mov	r5, r1
     910:	eb001bb7 	bl	77f4 <hashmap_get>
     914:	e3500000 	cmp	r0, #0
     918:	0a000008 	beq	940 <set_env+0x5c>
     91c:	e1a00004 	mov	r0, r4
     920:	eb001cd9 	bl	7c8c <str_new>
     924:	e1a01005 	mov	r1, r5
     928:	e1a02000 	mov	r2, r0
     92c:	e1a00006 	mov	r0, r6
     930:	eb001b59 	bl	769c <hashmap_put>
     934:	e24bd018 	sub	sp, fp, #24
     938:	e89d6870 	ldm	sp, {r4, r5, r6, fp, sp, lr}
     93c:	e12fff1e 	bx	lr
     940:	e51b0020 	ldr	r0, [fp, #-32]
     944:	e3500000 	cmp	r0, #0
     948:	0afffff3 	beq	91c <set_env+0x38>
     94c:	e1a01004 	mov	r1, r4
     950:	eb001cc2 	bl	7c60 <str_cpy>
     954:	e24bd018 	sub	sp, fp, #24
     958:	e89d6870 	ldm	sp, {r4, r5, r6, fp, sp, lr}
     95c:	e12fff1e 	bx	lr

00000960 <handle_ipc>:
     960:	e1a0c00d 	mov	ip, sp
     964:	e92dd8f0 	push	{r4, r5, r6, r7, fp, ip, lr, pc}
     968:	e24cb004 	sub	fp, ip, #4
     96c:	e24dd008 	sub	sp, sp, #8
     970:	e1a04001 	mov	r4, r1
     974:	e1a07002 	mov	r7, r2
     978:	e1a05003 	mov	r5, r3
     97c:	eb002fe6 	bl	c91c <proc_getpid>
     980:	e1a06000 	mov	r6, r0
     984:	e3540007 	cmp	r4, #7
     988:	908ff104 	addls	pc, pc, r4, lsl #2
     98c:	ea00002f 	b	a50 <handle_ipc+0xf0>
     990:	ea00004e 	b	ad0 <handle_ipc+0x170>
     994:	ea000066 	b	b34 <handle_ipc+0x1d4>
     998:	ea000083 	b	bac <handle_ipc+0x24c>
     99c:	ea000091 	b	be8 <handle_ipc+0x288>
     9a0:	ea0000a1 	b	c2c <handle_ipc+0x2cc>
     9a4:	ea0000bc 	b	c9c <handle_ipc+0x33c>
     9a8:	ea000000 	b	9b0 <handle_ipc+0x50>
     9ac:	ea00002a 	b	a5c <handle_ipc+0xfc>
     9b0:	eb002ca4 	bl	bc48 <get_proto_factor>
     9b4:	e3e01000 	mvn	r1, #0
     9b8:	e5903014 	ldr	r3, [r0, #20]
     9bc:	e1a00005 	mov	r0, r5
     9c0:	e1a0e00f 	mov	lr, pc
     9c4:	e12fff13 	bx	r3
     9c8:	e356007f 	cmp	r6, #127	; 0x7f
     9cc:	8a00001f 	bhi	a50 <handle_ipc+0xf0>
     9d0:	e1a00007 	mov	r0, r7
     9d4:	eb002d86 	bl	bff4 <proto_read_str>
     9d8:	e1a01000 	mov	r1, r0
     9dc:	e3a00000 	mov	r0, #0
     9e0:	e59f3354 	ldr	r3, [pc, #852]	; d3c <handle_ipc+0x3dc>
     9e4:	e08f3003 	add	r3, pc, r3
     9e8:	e0836186 	add	r6, r3, r6, lsl #3
     9ec:	e5963008 	ldr	r3, [r6, #8]
     9f0:	e24b201c 	sub	r2, fp, #28
     9f4:	e5220004 	str	r0, [r2, #-4]!
     9f8:	e1a00003 	mov	r0, r3
     9fc:	eb001b7c 	bl	77f4 <hashmap_get>
     a00:	e2504000 	subs	r4, r0, #0
     a04:	1a000011 	bne	a50 <handle_ipc+0xf0>
     a08:	e51b6020 	ldr	r6, [fp, #-32]
     a0c:	e3560000 	cmp	r6, #0
     a10:	0a00000e 	beq	a50 <handle_ipc+0xf0>
     a14:	eb002c8b 	bl	bc48 <get_proto_factor>
     a18:	e590300c 	ldr	r3, [r0, #12]
     a1c:	e1a00005 	mov	r0, r5
     a20:	e1a0e00f 	mov	lr, pc
     a24:	e12fff13 	bx	r3
     a28:	e1a01004 	mov	r1, r4
     a2c:	e5903014 	ldr	r3, [r0, #20]
     a30:	e1a00005 	mov	r0, r5
     a34:	e1a0e00f 	mov	lr, pc
     a38:	e12fff13 	bx	r3
     a3c:	e5961000 	ldr	r1, [r6]
     a40:	e5903018 	ldr	r3, [r0, #24]
     a44:	e1a00005 	mov	r0, r5
     a48:	e1a0e00f 	mov	lr, pc
     a4c:	e12fff13 	bx	r3
     a50:	e24bd01c 	sub	sp, fp, #28
     a54:	e89d68f0 	ldm	sp, {r4, r5, r6, r7, fp, sp, lr}
     a58:	e12fff1e 	bx	lr
     a5c:	eb002c79 	bl	bc48 <get_proto_factor>
     a60:	e3e01000 	mvn	r1, #0
     a64:	e5903014 	ldr	r3, [r0, #20]
     a68:	e1a00005 	mov	r0, r5
     a6c:	e1a0e00f 	mov	lr, pc
     a70:	e12fff13 	bx	r3
     a74:	e356007f 	cmp	r6, #127	; 0x7f
     a78:	8afffff4 	bhi	a50 <handle_ipc+0xf0>
     a7c:	eb002c71 	bl	bc48 <get_proto_factor>
     a80:	e590300c 	ldr	r3, [r0, #12]
     a84:	e1a00005 	mov	r0, r5
     a88:	e1a0e00f 	mov	lr, pc
     a8c:	e12fff13 	bx	r3
     a90:	e59f32a8 	ldr	r3, [pc, #680]	; d40 <handle_ipc+0x3e0>
     a94:	e08f3003 	add	r3, pc, r3
     a98:	e0836186 	add	r6, r3, r6, lsl #3
     a9c:	e5904014 	ldr	r4, [r0, #20]
     aa0:	e5960008 	ldr	r0, [r6, #8]
     aa4:	eb001be5 	bl	7a40 <hashmap_length>
     aa8:	e1a01000 	mov	r1, r0
     aac:	e1a00005 	mov	r0, r5
     ab0:	e1a0e00f 	mov	lr, pc
     ab4:	e12fff14 	bx	r4
     ab8:	e59f1284 	ldr	r1, [pc, #644]	; d44 <handle_ipc+0x3e4>
     abc:	e5960008 	ldr	r0, [r6, #8]
     ac0:	e1a02005 	mov	r2, r5
     ac4:	e08f1001 	add	r1, pc, r1
     ac8:	eb001bdf 	bl	7a4c <hashmap_iterate>
     acc:	eaffffdf 	b	a50 <handle_ipc+0xf0>
     ad0:	e1a00007 	mov	r0, r7
     ad4:	eb002d46 	bl	bff4 <proto_read_str>
     ad8:	e5d03000 	ldrb	r3, [r0]
     adc:	e3530000 	cmp	r3, #0
     ae0:	e1a04000 	mov	r4, r0
     ae4:	0a00008b 	beq	d18 <handle_ipc+0x3b8>
     ae8:	e3a00004 	mov	r0, #4
     aec:	eb0031f6 	bl	d2cc <malloc>
     af0:	e1a0c000 	mov	ip, r0
     af4:	e59f324c 	ldr	r3, [pc, #588]	; d48 <handle_ipc+0x3e8>
     af8:	e08f3003 	add	r3, pc, r3
     afc:	e1a02000 	mov	r2, r0
     b00:	e1a01004 	mov	r1, r4
     b04:	e5930000 	ldr	r0, [r3]
     b08:	e58c6000 	str	r6, [ip]
     b0c:	eb001ae2 	bl	769c <hashmap_put>
     b10:	e2504000 	subs	r4, r0, #0
     b14:	1a00007f 	bne	d18 <handle_ipc+0x3b8>
     b18:	eb002c4a 	bl	bc48 <get_proto_factor>
     b1c:	e1a01004 	mov	r1, r4
     b20:	e5903014 	ldr	r3, [r0, #20]
     b24:	e1a00005 	mov	r0, r5
     b28:	e1a0e00f 	mov	lr, pc
     b2c:	e12fff13 	bx	r3
     b30:	eaffffc6 	b	a50 <handle_ipc+0xf0>
     b34:	e1a00007 	mov	r0, r7
     b38:	eb002d2d 	bl	bff4 <proto_read_str>
     b3c:	e5d03000 	ldrb	r3, [r0]
     b40:	e3530000 	cmp	r3, #0
     b44:	e1a04000 	mov	r4, r0
     b48:	0a000072 	beq	d18 <handle_ipc+0x3b8>
     b4c:	e59f71f8 	ldr	r7, [pc, #504]	; d4c <handle_ipc+0x3ec>
     b50:	e08f7007 	add	r7, pc, r7
     b54:	e1a01000 	mov	r1, r0
     b58:	e24b2020 	sub	r2, fp, #32
     b5c:	e5970000 	ldr	r0, [r7]
     b60:	eb001b23 	bl	77f4 <hashmap_get>
     b64:	e3700003 	cmn	r0, #3
     b68:	0a00006a 	beq	d18 <handle_ipc+0x3b8>
     b6c:	e51b3020 	ldr	r3, [fp, #-32]
     b70:	e5933000 	ldr	r3, [r3]
     b74:	e1560003 	cmp	r6, r3
     b78:	1a000066 	bne	d18 <handle_ipc+0x3b8>
     b7c:	e1a01004 	mov	r1, r4
     b80:	e5970000 	ldr	r0, [r7]
     b84:	eb001b40 	bl	788c <hashmap_remove>
     b88:	e51b0020 	ldr	r0, [fp, #-32]
     b8c:	eb0031c5 	bl	d2a8 <free>
     b90:	eb002c2c 	bl	bc48 <get_proto_factor>
     b94:	e3a01000 	mov	r1, #0
     b98:	e5903014 	ldr	r3, [r0, #20]
     b9c:	e1a00005 	mov	r0, r5
     ba0:	e1a0e00f 	mov	lr, pc
     ba4:	e12fff13 	bx	r3
     ba8:	eaffffa8 	b	a50 <handle_ipc+0xf0>
     bac:	e1a00007 	mov	r0, r7
     bb0:	eb002d0f 	bl	bff4 <proto_read_str>
     bb4:	e5d03000 	ldrb	r3, [r0]
     bb8:	e3530000 	cmp	r3, #0
     bbc:	e1a04000 	mov	r4, r0
     bc0:	0a000054 	beq	d18 <handle_ipc+0x3b8>
     bc4:	eb002c1f 	bl	bc48 <get_proto_factor>
     bc8:	e5906014 	ldr	r6, [r0, #20]
     bcc:	e1a00004 	mov	r0, r4
     bd0:	ebffff24 	bl	868 <get_ipc_serv>
     bd4:	e1a01000 	mov	r1, r0
     bd8:	e1a00005 	mov	r0, r5
     bdc:	e1a0e00f 	mov	lr, pc
     be0:	e12fff16 	bx	r6
     be4:	eaffff99 	b	a50 <handle_ipc+0xf0>
     be8:	eb002c16 	bl	bc48 <get_proto_factor>
     bec:	e3e01000 	mvn	r1, #0
     bf0:	e5903014 	ldr	r3, [r0, #20]
     bf4:	e1a00005 	mov	r0, r5
     bf8:	e1a0e00f 	mov	lr, pc
     bfc:	e12fff13 	bx	r3
     c00:	e1a00007 	mov	r0, r7
     c04:	eb002cfa 	bl	bff4 <proto_read_str>
     c08:	e356007f 	cmp	r6, #127	; 0x7f
     c0c:	8affff8f 	bhi	a50 <handle_ipc+0xf0>
     c10:	e59f3138 	ldr	r3, [pc, #312]	; d50 <handle_ipc+0x3f0>
     c14:	e08f3003 	add	r3, pc, r3
     c18:	e0836186 	add	r6, r3, r6, lsl #3
     c1c:	e1a01000 	mov	r1, r0
     c20:	e5960004 	ldr	r0, [r6, #4]
     c24:	eb001c0d 	bl	7c60 <str_cpy>
     c28:	ea00002f 	b	cec <handle_ipc+0x38c>
     c2c:	eb002c05 	bl	bc48 <get_proto_factor>
     c30:	e3e01000 	mvn	r1, #0
     c34:	e5903014 	ldr	r3, [r0, #20]
     c38:	e1a00005 	mov	r0, r5
     c3c:	e1a0e00f 	mov	lr, pc
     c40:	e12fff13 	bx	r3
     c44:	e356007f 	cmp	r6, #127	; 0x7f
     c48:	8affff80 	bhi	a50 <handle_ipc+0xf0>
     c4c:	eb002bfd 	bl	bc48 <get_proto_factor>
     c50:	e590300c 	ldr	r3, [r0, #12]
     c54:	e1a00005 	mov	r0, r5
     c58:	e1a0e00f 	mov	lr, pc
     c5c:	e12fff13 	bx	r3
     c60:	e3a01000 	mov	r1, #0
     c64:	e5903014 	ldr	r3, [r0, #20]
     c68:	e1a00005 	mov	r0, r5
     c6c:	e1a0e00f 	mov	lr, pc
     c70:	e12fff13 	bx	r3
     c74:	e59f30d8 	ldr	r3, [pc, #216]	; d54 <handle_ipc+0x3f4>
     c78:	e08f3003 	add	r3, pc, r3
     c7c:	e0836186 	add	r6, r3, r6, lsl #3
     c80:	e5962004 	ldr	r2, [r6, #4]
     c84:	e5903018 	ldr	r3, [r0, #24]
     c88:	e5921000 	ldr	r1, [r2]
     c8c:	e1a00005 	mov	r0, r5
     c90:	e1a0e00f 	mov	lr, pc
     c94:	e12fff13 	bx	r3
     c98:	eaffff6c 	b	a50 <handle_ipc+0xf0>
     c9c:	eb002be9 	bl	bc48 <get_proto_factor>
     ca0:	e3e01000 	mvn	r1, #0
     ca4:	e5903014 	ldr	r3, [r0, #20]
     ca8:	e1a00005 	mov	r0, r5
     cac:	e1a0e00f 	mov	lr, pc
     cb0:	e12fff13 	bx	r3
     cb4:	e356007f 	cmp	r6, #127	; 0x7f
     cb8:	8affff64 	bhi	a50 <handle_ipc+0xf0>
     cbc:	e1a00007 	mov	r0, r7
     cc0:	eb002ccb 	bl	bff4 <proto_read_str>
     cc4:	e1a04000 	mov	r4, r0
     cc8:	e1a00007 	mov	r0, r7
     ccc:	eb002cc8 	bl	bff4 <proto_read_str>
     cd0:	e59f3080 	ldr	r3, [pc, #128]	; d58 <handle_ipc+0x3f8>
     cd4:	e08f3003 	add	r3, pc, r3
     cd8:	e0836186 	add	r6, r3, r6, lsl #3
     cdc:	e1a02000 	mov	r2, r0
     ce0:	e1a01004 	mov	r1, r4
     ce4:	e5960008 	ldr	r0, [r6, #8]
     ce8:	ebfffefd 	bl	8e4 <set_env>
     cec:	eb002bd5 	bl	bc48 <get_proto_factor>
     cf0:	e590300c 	ldr	r3, [r0, #12]
     cf4:	e1a00005 	mov	r0, r5
     cf8:	e1a0e00f 	mov	lr, pc
     cfc:	e12fff13 	bx	r3
     d00:	e3a01000 	mov	r1, #0
     d04:	e5903014 	ldr	r3, [r0, #20]
     d08:	e1a00005 	mov	r0, r5
     d0c:	e1a0e00f 	mov	lr, pc
     d10:	e12fff13 	bx	r3
     d14:	eaffff4d 	b	a50 <handle_ipc+0xf0>
     d18:	eb002bca 	bl	bc48 <get_proto_factor>
     d1c:	e3e01000 	mvn	r1, #0
     d20:	e5903014 	ldr	r3, [r0, #20]
     d24:	e1a00005 	mov	r0, r5
     d28:	e1a0e00f 	mov	lr, pc
     d2c:	e12fff13 	bx	r3
     d30:	e24bd01c 	sub	sp, fp, #28
     d34:	e89d68f0 	ldm	sp, {r4, r5, r6, r7, fp, sp, lr}
     d38:	e12fff1e 	bx	lr
     d3c:	00017174 	andeq	r7, r1, r4, ror r1
     d40:	000170c4 	andeq	r7, r1, r4, asr #1
     d44:	fffffd48 			; <UNDEFINED> instruction: 0xfffffd48
     d48:	00017060 	andeq	r7, r1, r0, rrx
     d4c:	00017008 	andeq	r7, r1, r8
     d50:	00016f44 	andeq	r6, r1, r4, asr #30
     d54:	00016ee0 	andeq	r6, r1, r0, ror #29
     d58:	00016e84 	andeq	r6, r1, r4, lsl #29

00000d5c <copy_envs>:
     d5c:	e1a0c00d 	mov	ip, sp
     d60:	e92dd800 	push	{fp, ip, lr, pc}
     d64:	e24cb004 	sub	fp, ip, #4
     d68:	e1a0c000 	mov	ip, r0
     d6c:	e5913000 	ldr	r3, [r1]
     d70:	e1a00002 	mov	r0, r2
     d74:	e1a0100c 	mov	r1, ip
     d78:	e1a02003 	mov	r2, r3
     d7c:	ebfffed8 	bl	8e4 <set_env>
     d80:	e3a00000 	mov	r0, #0
     d84:	e24bd00c 	sub	sp, fp, #12
     d88:	e89d6800 	ldm	sp, {fp, sp, lr}
     d8c:	e12fff1e 	bx	lr

00000d90 <core>:
     d90:	e1a0c00d 	mov	ip, sp
     d94:	e92ddff0 	push	{r4, r5, r6, r7, r8, r9, sl, fp, ip, lr, pc}
     d98:	e24cb004 	sub	fp, ip, #4
     d9c:	e24dd02c 	sub	sp, sp, #44	; 0x2c
     da0:	e59f4210 	ldr	r4, [pc, #528]	; fb8 <core+0x228>
     da4:	e59f6210 	ldr	r6, [pc, #528]	; fbc <core+0x22c>
     da8:	e08f4004 	add	r4, pc, r4
     dac:	e2844004 	add	r4, r4, #4
     db0:	e08f6006 	add	r6, pc, r6
     db4:	e2845b01 	add	r5, r4, #1024	; 0x400
     db8:	e1a00006 	mov	r0, r6
     dbc:	eb001bb2 	bl	7c8c <str_new>
     dc0:	e5840000 	str	r0, [r4]
     dc4:	eb001b00 	bl	79cc <hashmap_new>
     dc8:	e2844008 	add	r4, r4, #8
     dcc:	e5040004 	str	r0, [r4, #-4]
     dd0:	e1540005 	cmp	r4, r5
     dd4:	1afffff7 	bne	db8 <core+0x28>
     dd8:	eb001afb 	bl	79cc <hashmap_new>
     ddc:	e59f31dc 	ldr	r3, [pc, #476]	; fc0 <core+0x230>
     de0:	e08f3003 	add	r3, pc, r3
     de4:	e5830000 	str	r0, [r3]
     de8:	e59f01d4 	ldr	r0, [pc, #468]	; fc4 <core+0x234>
     dec:	e3a01000 	mov	r1, #0
     df0:	e3a02001 	mov	r2, #1
     df4:	e08f0000 	add	r0, pc, r0
     df8:	eb00273d 	bl	aaf4 <ipc_serv_run>
     dfc:	e3a0002b 	mov	r0, #43	; 0x2b
     e00:	eb001b54 	bl	7b58 <syscall0>
     e04:	e59f31bc 	ldr	r3, [pc, #444]	; fc8 <core+0x238>
     e08:	e08f3003 	add	r3, pc, r3
     e0c:	e50b3048 	str	r3, [fp, #-72]	; 0x48
     e10:	e59f31b4 	ldr	r3, [pc, #436]	; fcc <core+0x23c>
     e14:	e08f3003 	add	r3, pc, r3
     e18:	e50b304c 	str	r3, [fp, #-76]	; 0x4c
     e1c:	e59f31ac 	ldr	r3, [pc, #428]	; fd0 <core+0x240>
     e20:	e59f81ac 	ldr	r8, [pc, #428]	; fd4 <core+0x244>
     e24:	e59f71ac 	ldr	r7, [pc, #428]	; fd8 <core+0x248>
     e28:	e08f3003 	add	r3, pc, r3
     e2c:	e08f8008 	add	r8, pc, r8
     e30:	e08f7007 	add	r7, pc, r7
     e34:	e50b3050 	str	r3, [fp, #-80]	; 0x50
     e38:	e24b5044 	sub	r5, fp, #68	; 0x44
     e3c:	ea000029 	b	ee8 <core+0x158>
     e40:	e3530003 	cmp	r3, #3
     e44:	1a000025 	bne	ee0 <core+0x150>
     e48:	e5949008 	ldr	r9, [r4, #8]
     e4c:	eb002b7d 	bl	bc48 <get_proto_factor>
     e50:	e5903004 	ldr	r3, [r0, #4]
     e54:	e1a00005 	mov	r0, r5
     e58:	e1a0e00f 	mov	lr, pc
     e5c:	e12fff13 	bx	r3
     e60:	e5941004 	ldr	r1, [r4, #4]
     e64:	e5903014 	ldr	r3, [r0, #20]
     e68:	e1a00005 	mov	r0, r5
     e6c:	e1a0e00f 	mov	lr, pc
     e70:	e12fff13 	bx	r3
     e74:	e5941008 	ldr	r1, [r4, #8]
     e78:	e5903014 	ldr	r3, [r0, #20]
     e7c:	e1a00005 	mov	r0, r5
     e80:	e1a0e00f 	mov	lr, pc
     e84:	e12fff13 	bx	r3
     e88:	e1a00007 	mov	r0, r7
     e8c:	ebfffe75 	bl	868 <get_ipc_serv>
     e90:	e3500000 	cmp	r0, #0
     e94:	c3a01015 	movgt	r1, #21
     e98:	c1a02005 	movgt	r2, r5
     e9c:	c3a03000 	movgt	r3, #0
     ea0:	cb0025e2 	blgt	a630 <ipc_call_wait>
     ea4:	e1a00005 	mov	r0, r5
     ea8:	eb002c2f 	bl	bf6c <proto_read_int>
     eac:	e1a06000 	mov	r6, r0
     eb0:	e1a00005 	mov	r0, r5
     eb4:	eb002c2c 	bl	bf6c <proto_read_int>
     eb8:	e356007f 	cmp	r6, #127	; 0x7f
     ebc:	9350007f 	cmpls	r0, #127	; 0x7f
     ec0:	9a000028 	bls	f68 <core+0x1d8>
     ec4:	eb002b5f 	bl	bc48 <get_proto_factor>
     ec8:	e590300c 	ldr	r3, [r0, #12]
     ecc:	e1a00005 	mov	r0, r5
     ed0:	e1a0e00f 	mov	lr, pc
     ed4:	e12fff13 	bx	r3
     ed8:	e1a00009 	mov	r0, r9
     edc:	eb002ecb 	bl	ca10 <proc_wakeup>
     ee0:	e1a00004 	mov	r0, r4
     ee4:	eb0030ef 	bl	d2a8 <free>
     ee8:	e3a0002d 	mov	r0, #45	; 0x2d
     eec:	eb001b19 	bl	7b58 <syscall0>
     ef0:	e2504000 	subs	r4, r0, #0
     ef4:	0a000019 	beq	f60 <core+0x1d0>
     ef8:	e5943000 	ldr	r3, [r4]
     efc:	e3530002 	cmp	r3, #2
     f00:	1affffce 	bne	e40 <core+0xb0>
     f04:	eb002b4f 	bl	bc48 <get_proto_factor>
     f08:	e5903004 	ldr	r3, [r0, #4]
     f0c:	e1a00005 	mov	r0, r5
     f10:	e1a0e00f 	mov	lr, pc
     f14:	e12fff13 	bx	r3
     f18:	e5941004 	ldr	r1, [r4, #4]
     f1c:	e5903014 	ldr	r3, [r0, #20]
     f20:	e1a00005 	mov	r0, r5
     f24:	e1a0e00f 	mov	lr, pc
     f28:	e12fff13 	bx	r3
     f2c:	e1a00008 	mov	r0, r8
     f30:	ebfffe4c 	bl	868 <get_ipc_serv>
     f34:	e3500000 	cmp	r0, #0
     f38:	c3a01016 	movgt	r1, #22
     f3c:	c1a02005 	movgt	r2, r5
     f40:	c3a03000 	movgt	r3, #0
     f44:	cb0025b9 	blgt	a630 <ipc_call_wait>
     f48:	eb002b3e 	bl	bc48 <get_proto_factor>
     f4c:	e590300c 	ldr	r3, [r0, #12]
     f50:	e1a00005 	mov	r0, r5
     f54:	e1a0e00f 	mov	lr, pc
     f58:	e12fff13 	bx	r3
     f5c:	eaffffdf 	b	ee0 <core+0x150>
     f60:	eb002fe6 	bl	cf00 <sleep>
     f64:	eaffffdf 	b	ee8 <core+0x158>
     f68:	e51b2048 	ldr	r2, [fp, #-72]	; 0x48
     f6c:	e082a186 	add	sl, r2, r6, lsl #3
     f70:	e59a3004 	ldr	r3, [sl, #4]
     f74:	e0826180 	add	r6, r2, r0, lsl #3
     f78:	e5931000 	ldr	r1, [r3]
     f7c:	e5960004 	ldr	r0, [r6, #4]
     f80:	eb001b36 	bl	7c60 <str_cpy>
     f84:	e5960008 	ldr	r0, [r6, #8]
     f88:	e51b104c 	ldr	r1, [fp, #-76]	; 0x4c
     f8c:	e1a02000 	mov	r2, r0
     f90:	eb001aad 	bl	7a4c <hashmap_iterate>
     f94:	e5960008 	ldr	r0, [r6, #8]
     f98:	eb001a6b 	bl	794c <hashmap_free>
     f9c:	eb001a8a 	bl	79cc <hashmap_new>
     fa0:	e5860008 	str	r0, [r6, #8]
     fa4:	e1a02000 	mov	r2, r0
     fa8:	e51b1050 	ldr	r1, [fp, #-80]	; 0x50
     fac:	e59a0008 	ldr	r0, [sl, #8]
     fb0:	eb001aa5 	bl	7a4c <hashmap_iterate>
     fb4:	eaffffc2 	b	ec4 <core+0x134>
     fb8:	00016db0 			; <UNDEFINED> instruction: 0x00016db0
     fbc:	0000e6b0 			; <UNDEFINED> instruction: 0x0000e6b0
     fc0:	00016d78 	andeq	r6, r1, r8, ror sp
     fc4:	fffffb64 			; <UNDEFINED> instruction: 0xfffffb64
     fc8:	00016d50 	andeq	r6, r1, r0, asr sp
     fcc:	fffffa90 			; <UNDEFINED> instruction: 0xfffffa90
     fd0:	ffffff2c 			; <UNDEFINED> instruction: 0xffffff2c
     fd4:	0000e638 	andeq	lr, r0, r8, lsr r6
     fd8:	0000e634 	andeq	lr, r0, r4, lsr r6

00000fdc <vfs_open>:
     fdc:	e3510000 	cmp	r1, #0
     fe0:	e92d4010 	push	{r4, lr}
     fe4:	0a000023 	beq	1078 <vfs_open+0x9c>
     fe8:	e59f3094 	ldr	r3, [pc, #148]	; 1084 <vfs_open+0xa8>
     fec:	e1a04080 	lsl	r4, r0, #1
     ff0:	e08f3003 	add	r3, pc, r3
     ff4:	e084e000 	add	lr, r4, r0
     ff8:	e3a0c003 	mov	ip, #3
     ffc:	e083348e 	add	r3, r3, lr, lsl #9
    1000:	ea000003 	b	1014 <vfs_open+0x38>
    1004:	e28cc001 	add	ip, ip, #1
    1008:	e35c0080 	cmp	ip, #128	; 0x80
    100c:	e283300c 	add	r3, r3, #12
    1010:	0a000018 	beq	1078 <vfs_open+0x9c>
    1014:	e593e024 	ldr	lr, [r3, #36]	; 0x24
    1018:	e35e0000 	cmp	lr, #0
    101c:	1afffff8 	bne	1004 <vfs_open+0x28>
    1020:	e0844000 	add	r4, r4, r0
    1024:	e59f005c 	ldr	r0, [pc, #92]	; 1088 <vfs_open+0xac>
    1028:	e08c308c 	add	r3, ip, ip, lsl #1
    102c:	e1a04484 	lsl	r4, r4, #9
    1030:	e08f0000 	add	r0, pc, r0
    1034:	e0844103 	add	r4, r4, r3, lsl #2
    1038:	e5913078 	ldr	r3, [r1, #120]	; 0x78
    103c:	e7a01004 	str	r1, [r0, r4]!
    1040:	e3120002 	tst	r2, #2
    1044:	e2833001 	add	r3, r3, #1
    1048:	e5802004 	str	r2, [r0, #4]
    104c:	e5813078 	str	r3, [r1, #120]	; 0x78
    1050:	01a0000c 	moveq	r0, ip
    1054:	1a000001 	bne	1060 <vfs_open+0x84>
    1058:	e8bd4010 	pop	{r4, lr}
    105c:	e12fff1e 	bx	lr
    1060:	e591307c 	ldr	r3, [r1, #124]	; 0x7c
    1064:	e2833001 	add	r3, r3, #1
    1068:	e1a0000c 	mov	r0, ip
    106c:	e581307c 	str	r3, [r1, #124]	; 0x7c
    1070:	e8bd4010 	pop	{r4, lr}
    1074:	e12fff1e 	bx	lr
    1078:	e3e00000 	mvn	r0, #0
    107c:	e8bd4010 	pop	{r4, lr}
    1080:	e12fff1e 	bx	lr
    1084:	00016f6c 	andeq	r6, r1, ip, ror #30
    1088:	00016f2c 	andeq	r6, r1, ip, lsr #30

0000108c <vfs_get_mount>:
    108c:	e1a0c00d 	mov	ip, sp
    1090:	e3510000 	cmp	r1, #0
    1094:	13500000 	cmpne	r0, #0
    1098:	e92dd800 	push	{fp, ip, lr, pc}
    109c:	e24cb004 	sub	fp, ip, #4
    10a0:	0a000005 	beq	10bc <vfs_get_mount+0x30>
    10a4:	e5903074 	ldr	r3, [r0, #116]	; 0x74
    10a8:	e3530000 	cmp	r3, #0
    10ac:	aa000006 	bge	10cc <vfs_get_mount+0x40>
    10b0:	e5900000 	ldr	r0, [r0]
    10b4:	e3500000 	cmp	r0, #0
    10b8:	1afffff9 	bne	10a4 <vfs_get_mount+0x18>
    10bc:	e3e00000 	mvn	r0, #0
    10c0:	e24bd00c 	sub	sp, fp, #12
    10c4:	e89d6800 	ldm	sp, {fp, sp, lr}
    10c8:	e12fff1e 	bx	lr
    10cc:	e59f2028 	ldr	r2, [pc, #40]	; 10fc <vfs_get_mount+0x70>
    10d0:	e08f2002 	add	r2, pc, r2
    10d4:	e0833303 	add	r3, r3, r3, lsl #6
    10d8:	e28220c0 	add	r2, r2, #192	; 0xc0
    10dc:	e1a00001 	mov	r0, r1
    10e0:	e0821183 	add	r1, r2, r3, lsl #3
    10e4:	e3a02f82 	mov	r2, #520	; 0x208
    10e8:	eb003382 	bl	def8 <memcpy>
    10ec:	e3a00000 	mov	r0, #0
    10f0:	e24bd00c 	sub	sp, fp, #12
    10f4:	e89d6800 	ldm	sp, {fp, sp, lr}
    10f8:	e12fff1e 	bx	lr
    10fc:	00046dcc 	andeq	r6, r4, ip, asr #27

00001100 <get_mount_pid>:
    1100:	e1a0c00d 	mov	ip, sp
    1104:	e92dd800 	push	{fp, ip, lr, pc}
    1108:	e24cb004 	sub	fp, ip, #4
    110c:	e24ddf82 	sub	sp, sp, #520	; 0x208
    1110:	e24b1f85 	sub	r1, fp, #532	; 0x214
    1114:	ebffffdc 	bl	108c <vfs_get_mount>
    1118:	e3500000 	cmp	r0, #0
    111c:	13e00000 	mvnne	r0, #0
    1120:	051b0214 	ldreq	r0, [fp, #-532]	; 0x214
    1124:	e24bd00c 	sub	sp, fp, #12
    1128:	e89d6800 	ldm	sp, {fp, sp, lr}
    112c:	e12fff1e 	bx	lr

00001130 <vfs_new_node>:
    1130:	e1a0c00d 	mov	ip, sp
    1134:	e3a00080 	mov	r0, #128	; 0x80
    1138:	e92dd818 	push	{r3, r4, fp, ip, lr, pc}
    113c:	e24cb004 	sub	fp, ip, #4
    1140:	eb003061 	bl	d2cc <malloc>
    1144:	e1a04000 	mov	r4, r0
    1148:	e3a01000 	mov	r1, #0
    114c:	e3a02080 	mov	r2, #128	; 0x80
    1150:	eb0033a4 	bl	dfe8 <memset>
    1154:	e3e03000 	mvn	r3, #0
    1158:	e1a00004 	mov	r0, r4
    115c:	e5844018 	str	r4, [r4, #24]
    1160:	e5843074 	str	r3, [r4, #116]	; 0x74
    1164:	e24bd014 	sub	sp, fp, #20
    1168:	e89d6818 	ldm	sp, {r3, r4, fp, sp, lr}
    116c:	e12fff1e 	bx	lr

00001170 <do_vfs_get_mount_by_id>:
    1170:	e1a0c00d 	mov	ip, sp
    1174:	e92dd830 	push	{r4, r5, fp, ip, lr, pc}
    1178:	e24cb004 	sub	fp, ip, #4
    117c:	e24ddf82 	sub	sp, sp, #520	; 0x208
    1180:	e1a05001 	mov	r5, r1
    1184:	eb002b78 	bl	bf6c <proto_read_int>
    1188:	e350001f 	cmp	r0, #31
    118c:	8a00001c 	bhi	1204 <do_vfs_get_mount_by_id+0x94>
    1190:	e59f1090 	ldr	r1, [pc, #144]	; 1228 <do_vfs_get_mount_by_id+0xb8>
    1194:	e0800300 	add	r0, r0, r0, lsl #6
    1198:	e08f1001 	add	r1, pc, r1
    119c:	e1a00180 	lsl	r0, r0, #3
    11a0:	e0813000 	add	r3, r1, r0
    11a4:	e59330c4 	ldr	r3, [r3, #196]	; 0xc4
    11a8:	e3530000 	cmp	r3, #0
    11ac:	0a000014 	beq	1204 <do_vfs_get_mount_by_id+0x94>
    11b0:	e24b4f87 	sub	r4, fp, #540	; 0x21c
    11b4:	e28110c0 	add	r1, r1, #192	; 0xc0
    11b8:	e0811000 	add	r1, r1, r0
    11bc:	e3a02f82 	mov	r2, #520	; 0x208
    11c0:	e1a00004 	mov	r0, r4
    11c4:	eb00334b 	bl	def8 <memcpy>
    11c8:	eb002a9e 	bl	bc48 <get_proto_factor>
    11cc:	e3a01000 	mov	r1, #0
    11d0:	e5903014 	ldr	r3, [r0, #20]
    11d4:	e1a00005 	mov	r0, r5
    11d8:	e1a0e00f 	mov	lr, pc
    11dc:	e12fff13 	bx	r3
    11e0:	e1a01004 	mov	r1, r4
    11e4:	e5903010 	ldr	r3, [r0, #16]
    11e8:	e3a02f82 	mov	r2, #520	; 0x208
    11ec:	e1a00005 	mov	r0, r5
    11f0:	e1a0e00f 	mov	lr, pc
    11f4:	e12fff13 	bx	r3
    11f8:	e24bd014 	sub	sp, fp, #20
    11fc:	e89d6830 	ldm	sp, {r4, r5, fp, sp, lr}
    1200:	e12fff1e 	bx	lr
    1204:	eb002a8f 	bl	bc48 <get_proto_factor>
    1208:	e3e01000 	mvn	r1, #0
    120c:	e5903014 	ldr	r3, [r0, #20]
    1210:	e1a00005 	mov	r0, r5
    1214:	e1a0e00f 	mov	lr, pc
    1218:	e12fff13 	bx	r3
    121c:	e24bd014 	sub	sp, fp, #20
    1220:	e89d6830 	ldm	sp, {r4, r5, fp, sp, lr}
    1224:	e12fff1e 	bx	lr
    1228:	00046d04 	andeq	r6, r4, r4, lsl #26

0000122c <vfs_del>:
    122c:	e1a0c00d 	mov	ip, sp
    1230:	e92dd878 	push	{r3, r4, r5, r6, fp, ip, lr, pc}
    1234:	e2516000 	subs	r6, r1, #0
    1238:	e24cb004 	sub	fp, ip, #4
    123c:	e1a05000 	mov	r5, r0
    1240:	0a000025 	beq	12dc <vfs_del+0xb0>
    1244:	e5963078 	ldr	r3, [r6, #120]	; 0x78
    1248:	e3530000 	cmp	r3, #0
    124c:	1a000022 	bne	12dc <vfs_del+0xb0>
    1250:	e5961004 	ldr	r1, [r6, #4]
    1254:	e3510000 	cmp	r1, #0
    1258:	0a000004 	beq	1270 <vfs_del+0x44>
    125c:	e591400c 	ldr	r4, [r1, #12]
    1260:	e1a00005 	mov	r0, r5
    1264:	ebfffff0 	bl	122c <vfs_del>
    1268:	e2541000 	subs	r1, r4, #0
    126c:	1afffffa 	bne	125c <vfs_del+0x30>
    1270:	e5963000 	ldr	r3, [r6]
    1274:	e3530000 	cmp	r3, #0
    1278:	0a00000a 	beq	12a8 <vfs_del+0x7c>
    127c:	e5932004 	ldr	r2, [r3, #4]
    1280:	e1520006 	cmp	r2, r6
    1284:	0596200c 	ldreq	r2, [r6, #12]
    1288:	05832004 	streq	r2, [r3, #4]
    128c:	e5932008 	ldr	r2, [r3, #8]
    1290:	e1520006 	cmp	r2, r6
    1294:	05962010 	ldreq	r2, [r6, #16]
    1298:	05832008 	streq	r2, [r3, #8]
    129c:	e5932014 	ldr	r2, [r3, #20]
    12a0:	e2422001 	sub	r2, r2, #1
    12a4:	e5832014 	str	r2, [r3, #20]
    12a8:	e596300c 	ldr	r3, [r6, #12]
    12ac:	e3530000 	cmp	r3, #0
    12b0:	15962010 	ldrne	r2, [r6, #16]
    12b4:	15832010 	strne	r2, [r3, #16]
    12b8:	e5962010 	ldr	r2, [r6, #16]
    12bc:	e3520000 	cmp	r2, #0
    12c0:	e1a00006 	mov	r0, r6
    12c4:	1582300c 	strne	r3, [r2, #12]
    12c8:	eb002ff6 	bl	d2a8 <free>
    12cc:	e3a00000 	mov	r0, #0
    12d0:	e24bd01c 	sub	sp, fp, #28
    12d4:	e89d6878 	ldm	sp, {r3, r4, r5, r6, fp, sp, lr}
    12d8:	e12fff1e 	bx	lr
    12dc:	e3e00000 	mvn	r0, #0
    12e0:	eafffffa 	b	12d0 <vfs_del+0xa4>

000012e4 <proc_file_close>:
    12e4:	e1a0c00d 	mov	ip, sp
    12e8:	e92dd9f0 	push	{r4, r5, r6, r7, r8, fp, ip, lr, pc}
    12ec:	e24cb004 	sub	fp, ip, #4
    12f0:	e24ddf85 	sub	sp, sp, #532	; 0x214
    12f4:	e2525000 	subs	r5, r2, #0
    12f8:	e1a06000 	mov	r6, r0
    12fc:	e1a07001 	mov	r7, r1
    1300:	0a00000e 	beq	1340 <proc_file_close+0x5c>
    1304:	e5954000 	ldr	r4, [r5]
    1308:	e3540000 	cmp	r4, #0
    130c:	0a00000b 	beq	1340 <proc_file_close+0x5c>
    1310:	e5942078 	ldr	r2, [r4, #120]	; 0x78
    1314:	e3520000 	cmp	r2, #0
    1318:	12422001 	subne	r2, r2, #1
    131c:	15842078 	strne	r2, [r4, #120]	; 0x78
    1320:	e5952004 	ldr	r2, [r5, #4]
    1324:	e3120002 	tst	r2, #2
    1328:	1a000007 	bne	134c <proc_file_close+0x68>
    132c:	e594205c 	ldr	r2, [r4, #92]	; 0x5c
    1330:	e3520003 	cmp	r2, #3
    1334:	0a00002c 	beq	13ec <proc_file_close+0x108>
    1338:	e3530000 	cmp	r3, #0
    133c:	1a000007 	bne	1360 <proc_file_close+0x7c>
    1340:	e24bd020 	sub	sp, fp, #32
    1344:	e89d69f0 	ldm	sp, {r4, r5, r6, r7, r8, fp, sp, lr}
    1348:	e12fff1e 	bx	lr
    134c:	e594207c 	ldr	r2, [r4, #124]	; 0x7c
    1350:	e3520000 	cmp	r2, #0
    1354:	12422001 	subne	r2, r2, #1
    1358:	1584207c 	strne	r2, [r4, #124]	; 0x7c
    135c:	eafffff2 	b	132c <proc_file_close+0x48>
    1360:	e24b5f8b 	sub	r5, fp, #556	; 0x22c
    1364:	e1a01005 	mov	r1, r5
    1368:	e1a00004 	mov	r0, r4
    136c:	ebffff46 	bl	108c <vfs_get_mount>
    1370:	e2508000 	subs	r8, r0, #0
    1374:	1afffff1 	bne	1340 <proc_file_close+0x5c>
    1378:	e51b322c 	ldr	r3, [fp, #-556]	; 0x22c
    137c:	e3530000 	cmp	r3, #0
    1380:	baffffee 	blt	1340 <proc_file_close+0x5c>
    1384:	e2841018 	add	r1, r4, #24
    1388:	e3a0205c 	mov	r2, #92	; 0x5c
    138c:	e24b0e22 	sub	r0, fp, #544	; 0x220
    1390:	e50b3224 	str	r3, [fp, #-548]	; 0x224
    1394:	e50b722c 	str	r7, [fp, #-556]	; 0x22c
    1398:	e50b6228 	str	r6, [fp, #-552]	; 0x228
    139c:	eb0032d5 	bl	def8 <memcpy>
    13a0:	e3a0006c 	mov	r0, #108	; 0x6c
    13a4:	eb002fc8 	bl	d2cc <malloc>
    13a8:	e1a01005 	mov	r1, r5
    13ac:	e3a0206c 	mov	r2, #108	; 0x6c
    13b0:	eb0032d0 	bl	def8 <memcpy>
    13b4:	e1a03000 	mov	r3, r0
    13b8:	e59f1078 	ldr	r1, [pc, #120]	; 1438 <proc_file_close+0x154>
    13bc:	e08f1001 	add	r1, pc, r1
    13c0:	e59121d0 	ldr	r2, [r1, #464]	; 0x1d0
    13c4:	e3520000 	cmp	r2, #0
    13c8:	e5808068 	str	r8, [r0, #104]	; 0x68
    13cc:	15820068 	strne	r0, [r2, #104]	; 0x68
    13d0:	e59f2064 	ldr	r2, [pc, #100]	; 143c <proc_file_close+0x158>
    13d4:	e08f2002 	add	r2, pc, r2
    13d8:	058101d4 	streq	r0, [r1, #468]	; 0x1d4
    13dc:	e59201d8 	ldr	r0, [r2, #472]	; 0x1d8
    13e0:	e58231d0 	str	r3, [r2, #464]	; 0x1d0
    13e4:	eb002d89 	bl	ca10 <proc_wakeup>
    13e8:	eaffffd4 	b	1340 <proc_file_close+0x5c>
    13ec:	e1a00004 	mov	r0, r4
    13f0:	e50b3230 	str	r3, [fp, #-560]	; 0x230
    13f4:	eb002d85 	bl	ca10 <proc_wakeup>
    13f8:	e5942078 	ldr	r2, [r4, #120]	; 0x78
    13fc:	e3520000 	cmp	r2, #0
    1400:	e51b3230 	ldr	r3, [fp, #-560]	; 0x230
    1404:	1affffcb 	bne	1338 <proc_file_close+0x54>
    1408:	e5940070 	ldr	r0, [r4, #112]	; 0x70
    140c:	e3500000 	cmp	r0, #0
    1410:	0a000001 	beq	141c <proc_file_close+0x138>
    1414:	eb002fa3 	bl	d2a8 <free>
    1418:	e51b3230 	ldr	r3, [fp, #-560]	; 0x230
    141c:	e1a00004 	mov	r0, r4
    1420:	e50b3230 	str	r3, [fp, #-560]	; 0x230
    1424:	eb002f9f 	bl	d2a8 <free>
    1428:	e3a02000 	mov	r2, #0
    142c:	e51b3230 	ldr	r3, [fp, #-560]	; 0x230
    1430:	e5852000 	str	r2, [r5]
    1434:	eaffffbf 	b	1338 <proc_file_close+0x54>
    1438:	0004aad0 	ldrdeq	sl, [r4], -r0
    143c:	0004aab8 			; <UNDEFINED> instruction: 0x0004aab8

00001440 <vfs_close>:
    1440:	e1a02fa0 	lsr	r2, r0, #31
    1444:	e351007f 	cmp	r1, #127	; 0x7f
    1448:	83822001 	orrhi	r2, r2, #1
    144c:	e1a0c00d 	mov	ip, sp
    1450:	e3520000 	cmp	r2, #0
    1454:	e92dd818 	push	{r3, r4, fp, ip, lr, pc}
    1458:	e24cb004 	sub	fp, ip, #4
    145c:	1a000009 	bne	1488 <vfs_close+0x48>
    1460:	e350007f 	cmp	r0, #127	; 0x7f
    1464:	c1a04002 	movgt	r4, r2
    1468:	da000009 	ble	1494 <vfs_close+0x54>
    146c:	e1a02004 	mov	r2, r4
    1470:	e3a03000 	mov	r3, #0
    1474:	ebffff9a 	bl	12e4 <proc_file_close>
    1478:	e1a00004 	mov	r0, r4
    147c:	e3a01000 	mov	r1, #0
    1480:	e3a0200c 	mov	r2, #12
    1484:	eb0032d7 	bl	dfe8 <memset>
    1488:	e24bd014 	sub	sp, fp, #20
    148c:	e89d6818 	ldm	sp, {r3, r4, fp, sp, lr}
    1490:	e12fff1e 	bx	lr
    1494:	e0804080 	add	r4, r0, r0, lsl #1
    1498:	e59f2014 	ldr	r2, [pc, #20]	; 14b4 <vfs_close+0x74>
    149c:	e1a03484 	lsl	r3, r4, #9
    14a0:	e0814081 	add	r4, r1, r1, lsl #1
    14a4:	e08f2002 	add	r2, pc, r2
    14a8:	e0834104 	add	r4, r3, r4, lsl #2
    14ac:	e0824004 	add	r4, r2, r4
    14b0:	eaffffed 	b	146c <vfs_close+0x2c>
    14b4:	00016ab8 			; <UNDEFINED> instruction: 0x00016ab8

000014b8 <vfs_remove.isra.2>:
    14b8:	e3500000 	cmp	r0, #0
    14bc:	012fff1e 	bxeq	lr
    14c0:	e5903000 	ldr	r3, [r0]
    14c4:	e3530000 	cmp	r3, #0
    14c8:	0a000013 	beq	151c <vfs_remove.isra.2+0x64>
    14cc:	e5932004 	ldr	r2, [r3, #4]
    14d0:	e590100c 	ldr	r1, [r0, #12]
    14d4:	e1500002 	cmp	r0, r2
    14d8:	e5932008 	ldr	r2, [r3, #8]
    14dc:	e593c014 	ldr	ip, [r3, #20]
    14e0:	05831004 	streq	r1, [r3, #4]
    14e4:	e1500002 	cmp	r0, r2
    14e8:	e5902010 	ldr	r2, [r0, #16]
    14ec:	e24cc001 	sub	ip, ip, #1
    14f0:	05832008 	streq	r2, [r3, #8]
    14f4:	e583c014 	str	ip, [r3, #20]
    14f8:	e3a03000 	mov	r3, #0
    14fc:	e3510000 	cmp	r1, #0
    1500:	15812010 	strne	r2, [r1, #16]
    1504:	15902010 	ldrne	r2, [r0, #16]
    1508:	e3520000 	cmp	r2, #0
    150c:	1582100c 	strne	r1, [r2, #12]
    1510:	e5803010 	str	r3, [r0, #16]
    1514:	e580300c 	str	r3, [r0, #12]
    1518:	e12fff1e 	bx	lr
    151c:	e280100c 	add	r1, r0, #12
    1520:	e8910006 	ldm	r1, {r1, r2}
    1524:	eafffff3 	b	14f8 <vfs_remove.isra.2+0x40>

00001528 <vfs_simple_get>:
    1528:	e1a0c00d 	mov	ip, sp
    152c:	e92dd830 	push	{r4, r5, fp, ip, lr, pc}
    1530:	e2504000 	subs	r4, r0, #0
    1534:	e24cb004 	sub	fp, ip, #4
    1538:	e1a05001 	mov	r5, r1
    153c:	0a000011 	beq	1588 <vfs_simple_get+0x60>
    1540:	e1a00001 	mov	r0, r1
    1544:	e3a0102f 	mov	r1, #47	; 0x2f
    1548:	eb0032e3 	bl	e0dc <strchr>
    154c:	e3500000 	cmp	r0, #0
    1550:	13a00000 	movne	r0, #0
    1554:	1a00000c 	bne	158c <vfs_simple_get+0x64>
    1558:	e5944004 	ldr	r4, [r4, #4]
    155c:	e3540000 	cmp	r4, #0
    1560:	1a000003 	bne	1574 <vfs_simple_get+0x4c>
    1564:	ea000007 	b	1588 <vfs_simple_get+0x60>
    1568:	e594400c 	ldr	r4, [r4, #12]
    156c:	e3540000 	cmp	r4, #0
    1570:	0a000004 	beq	1588 <vfs_simple_get+0x60>
    1574:	e284001c 	add	r0, r4, #28
    1578:	e1a01005 	mov	r1, r5
    157c:	eb00332e 	bl	e23c <strcmp>
    1580:	e3500000 	cmp	r0, #0
    1584:	1afffff7 	bne	1568 <vfs_simple_get+0x40>
    1588:	e1a00004 	mov	r0, r4
    158c:	e24bd014 	sub	sp, fp, #20
    1590:	e89d6830 	ldm	sp, {r4, r5, fp, sp, lr}
    1594:	e12fff1e 	bx	lr

00001598 <vfs_get_by_name>:
    1598:	e1a0c00d 	mov	ip, sp
    159c:	e92ddbf0 	push	{r4, r5, r6, r7, r8, r9, fp, ip, lr, pc}
    15a0:	e3500000 	cmp	r0, #0
    15a4:	e24cb004 	sub	fp, ip, #4
    15a8:	e24ddf82 	sub	sp, sp, #520	; 0x208
    15ac:	0a00001b 	beq	1620 <vfs_get_by_name+0x88>
    15b0:	e5d13000 	ldrb	r3, [r1]
    15b4:	e353002f 	cmp	r3, #47	; 0x2f
    15b8:	0a00001d 	beq	1634 <vfs_get_by_name+0x9c>
    15bc:	e3a05000 	mov	r5, #0
    15c0:	e24b8f8a 	sub	r8, fp, #552	; 0x228
    15c4:	e1a06001 	mov	r6, r1
    15c8:	e1a09005 	mov	r9, r5
    15cc:	e1a01005 	mov	r1, r5
    15d0:	e2484001 	sub	r4, r8, #1
    15d4:	e24b7029 	sub	r7, fp, #41	; 0x29
    15d8:	ea000001 	b	15e4 <vfs_get_by_name+0x4c>
    15dc:	e1540007 	cmp	r4, r7
    15e0:	0a00000e 	beq	1620 <vfs_get_by_name+0x88>
    15e4:	e4d63001 	ldrb	r3, [r6], #1
    15e8:	e3530000 	cmp	r3, #0
    15ec:	e2855001 	add	r5, r5, #1
    15f0:	e5e43001 	strb	r3, [r4, #1]!
    15f4:	0a000016 	beq	1654 <vfs_get_by_name+0xbc>
    15f8:	e353002f 	cmp	r3, #47	; 0x2f
    15fc:	1afffff6 	bne	15dc <vfs_get_by_name+0x44>
    1600:	e0881001 	add	r1, r8, r1
    1604:	e5c49000 	strb	r9, [r4]
    1608:	ebffffc6 	bl	1528 <vfs_simple_get>
    160c:	e3500000 	cmp	r0, #0
    1610:	0a000002 	beq	1620 <vfs_get_by_name+0x88>
    1614:	e1540007 	cmp	r4, r7
    1618:	e1a01005 	mov	r1, r5
    161c:	1afffff0 	bne	15e4 <vfs_get_by_name+0x4c>
    1620:	e3a00000 	mov	r0, #0
    1624:	e24bd024 	sub	sp, fp, #36	; 0x24
    1628:	e89d6bf0 	ldm	sp, {r4, r5, r6, r7, r8, r9, fp, sp, lr}
    162c:	e12fff1e 	bx	lr
    1630:	e1a00003 	mov	r0, r3
    1634:	e5903000 	ldr	r3, [r0]
    1638:	e3530000 	cmp	r3, #0
    163c:	1afffffb 	bne	1630 <vfs_get_by_name+0x98>
    1640:	e5d13001 	ldrb	r3, [r1, #1]
    1644:	e3530000 	cmp	r3, #0
    1648:	0a000003 	beq	165c <vfs_get_by_name+0xc4>
    164c:	e2811001 	add	r1, r1, #1
    1650:	eaffffd9 	b	15bc <vfs_get_by_name+0x24>
    1654:	e0881001 	add	r1, r8, r1
    1658:	ebffffb2 	bl	1528 <vfs_simple_get>
    165c:	e24bd024 	sub	sp, fp, #36	; 0x24
    1660:	e89d6bf0 	ldm	sp, {r4, r5, r6, r7, r8, r9, fp, sp, lr}
    1664:	e12fff1e 	bx	lr

00001668 <do_vfs_get_kids>:
    1668:	e1a0c00d 	mov	ip, sp
    166c:	e92ddff0 	push	{r4, r5, r6, r7, r8, r9, sl, fp, ip, lr, pc}
    1670:	e24cb004 	sub	fp, ip, #4
    1674:	e24ddf9f 	sub	sp, sp, #636	; 0x27c
    1678:	e1a08001 	mov	r8, r1
    167c:	e1a04000 	mov	r4, r0
    1680:	eb002970 	bl	bc48 <get_proto_factor>
    1684:	e3a01000 	mov	r1, #0
    1688:	e5903014 	ldr	r3, [r0, #20]
    168c:	e1a00008 	mov	r0, r8
    1690:	e1a0e00f 	mov	lr, pc
    1694:	e12fff13 	bx	r3
    1698:	e1a00004 	mov	r0, r4
    169c:	e24b1e29 	sub	r1, fp, #656	; 0x290
    16a0:	e3a0205c 	mov	r2, #92	; 0x5c
    16a4:	eb0029c5 	bl	bdc0 <proto_read_to>
    16a8:	e350005c 	cmp	r0, #92	; 0x5c
    16ac:	0a000002 	beq	16bc <do_vfs_get_kids+0x54>
    16b0:	e24bd028 	sub	sp, fp, #40	; 0x28
    16b4:	e89d6ff0 	ldm	sp, {r4, r5, r6, r7, r8, r9, sl, fp, sp, lr}
    16b8:	e12fff1e 	bx	lr
    16bc:	e51b4290 	ldr	r4, [fp, #-656]	; 0x290
    16c0:	e3540000 	cmp	r4, #0
    16c4:	0afffff9 	beq	16b0 <do_vfs_get_kids+0x48>
    16c8:	e5947014 	ldr	r7, [r4, #20]
    16cc:	e3570000 	cmp	r7, #0
    16d0:	0afffff6 	beq	16b0 <do_vfs_get_kids+0x48>
    16d4:	e0870087 	add	r0, r7, r7, lsl #1
    16d8:	e0670180 	rsb	r0, r7, r0, lsl #3
    16dc:	e1a00100 	lsl	r0, r0, #2
    16e0:	eb002ef9 	bl	d2cc <malloc>
    16e4:	e250a000 	subs	sl, r0, #0
    16e8:	0afffff0 	beq	16b0 <do_vfs_get_kids+0x48>
    16ec:	e5944004 	ldr	r4, [r4, #4]
    16f0:	e3540000 	cmp	r4, #0
    16f4:	0affffed 	beq	16b0 <do_vfs_get_kids+0x48>
    16f8:	e3a06000 	mov	r6, #0
    16fc:	e59f30c8 	ldr	r3, [pc, #200]	; 17cc <do_vfs_get_kids+0x164>
    1700:	e08f3003 	add	r3, pc, r3
    1704:	e50b82a0 	str	r8, [fp, #-672]	; 0x2a0
    1708:	e1a05006 	mov	r5, r6
    170c:	e1a08003 	mov	r8, r3
    1710:	e2839f77 	add	r9, r3, #476	; 0x1dc
    1714:	e24b2f8d 	sub	r2, fp, #564	; 0x234
    1718:	e50b929c 	str	r9, [fp, #-668]	; 0x29c
    171c:	e50b2298 	str	r2, [fp, #-664]	; 0x298
    1720:	e2841018 	add	r1, r4, #24
    1724:	e3a0205c 	mov	r2, #92	; 0x5c
    1728:	e1a00009 	mov	r0, r9
    172c:	eb0031f1 	bl	def8 <memcpy>
    1730:	e1a00004 	mov	r0, r4
    1734:	e51b1298 	ldr	r1, [fp, #-664]	; 0x298
    1738:	ebfffe53 	bl	108c <vfs_get_mount>
    173c:	e3500000 	cmp	r0, #0
    1740:	13e03000 	mvnne	r3, #0
    1744:	051b3234 	ldreq	r3, [fp, #-564]	; 0x234
    1748:	e08a0006 	add	r0, sl, r6
    174c:	e51b129c 	ldr	r1, [fp, #-668]	; 0x29c
    1750:	e3a0205c 	mov	r2, #92	; 0x5c
    1754:	e5883230 	str	r3, [r8, #560]	; 0x230
    1758:	eb0031e6 	bl	def8 <memcpy>
    175c:	e594400c 	ldr	r4, [r4, #12]
    1760:	e2855001 	add	r5, r5, #1
    1764:	e3540000 	cmp	r4, #0
    1768:	11570005 	cmpne	r7, r5
    176c:	e286605c 	add	r6, r6, #92	; 0x5c
    1770:	8affffea 	bhi	1720 <do_vfs_get_kids+0xb8>
    1774:	e3550000 	cmp	r5, #0
    1778:	e51b82a0 	ldr	r8, [fp, #-672]	; 0x2a0
    177c:	0affffcb 	beq	16b0 <do_vfs_get_kids+0x48>
    1780:	eb002930 	bl	bc48 <get_proto_factor>
    1784:	e590300c 	ldr	r3, [r0, #12]
    1788:	e1a00008 	mov	r0, r8
    178c:	e1a0e00f 	mov	lr, pc
    1790:	e12fff13 	bx	r3
    1794:	e1a01005 	mov	r1, r5
    1798:	e5903014 	ldr	r3, [r0, #20]
    179c:	e1a00008 	mov	r0, r8
    17a0:	e1a0e00f 	mov	lr, pc
    17a4:	e12fff13 	bx	r3
    17a8:	e0852085 	add	r2, r5, r5, lsl #1
    17ac:	e0652182 	rsb	r2, r5, r2, lsl #3
    17b0:	e5903010 	ldr	r3, [r0, #16]
    17b4:	e1a0100a 	mov	r1, sl
    17b8:	e1a00008 	mov	r0, r8
    17bc:	e1a02102 	lsl	r2, r2, #2
    17c0:	e1a0e00f 	mov	lr, pc
    17c4:	e12fff13 	bx	r3
    17c8:	eaffffb8 	b	16b0 <do_vfs_get_kids+0x48>
    17cc:	0004a78c 	andeq	sl, r4, ip, lsl #15

000017d0 <vfs_root>:
    17d0:	e59f3008 	ldr	r3, [pc, #8]	; 17e0 <vfs_root+0x10>
    17d4:	e08f3003 	add	r3, pc, r3
    17d8:	e59301d8 	ldr	r0, [r3, #472]	; 0x1d8
    17dc:	e12fff1e 	bx	lr
    17e0:	0004a6b8 			; <UNDEFINED> instruction: 0x0004a6b8

000017e4 <handle>:
    17e4:	e1a0c00d 	mov	ip, sp
    17e8:	e92ddff0 	push	{r4, r5, r6, r7, r8, r9, sl, fp, ip, lr, pc}
    17ec:	e24cb004 	sub	fp, ip, #4
    17f0:	e24dd0c4 	sub	sp, sp, #196	; 0xc4
    17f4:	e1a05001 	mov	r5, r1
    17f8:	e1a06002 	mov	r6, r2
    17fc:	e1a04003 	mov	r4, r3
    1800:	eb002c45 	bl	c91c <proc_getpid>
    1804:	e1a08000 	mov	r8, r0
    1808:	e3550016 	cmp	r5, #22
    180c:	908ff105 	addls	pc, pc, r5, lsl #2
    1810:	ea000046 	b	1930 <handle+0x14c>
    1814:	ea000285 	b	2230 <handle+0xa4c>
    1818:	ea000278 	b	2200 <handle+0xa1c>
    181c:	ea0001eb 	b	1fd0 <handle+0x7ec>
    1820:	ea0001d0 	b	1f68 <handle+0x784>
    1824:	ea00025a 	b	2194 <handle+0x9b0>
    1828:	ea00022a 	b	20d8 <handle+0x8f4>
    182c:	ea00018e 	b	1e6c <handle+0x688>
    1830:	ea00015c 	b	1da8 <handle+0x5c4>
    1834:	ea0002dc 	b	23ac <handle+0xbc8>
    1838:	ea00029b 	b	22ac <handle+0xac8>
    183c:	ea00032b 	b	24f0 <handle+0xd0c>
    1840:	ea0001b3 	b	1f14 <handle+0x730>
    1844:	ea000310 	b	248c <handle+0xca8>
    1848:	ea0001f0 	b	2010 <handle+0x82c>
    184c:	ea000138 	b	1d34 <handle+0x550>
    1850:	ea0000c6 	b	1b70 <handle+0x38c>
    1854:	ea000005 	b	1870 <handle+0x8c>
    1858:	ea0000bc 	b	1b50 <handle+0x36c>
    185c:	ea0000bf 	b	1b60 <handle+0x37c>
    1860:	ea00009f 	b	1ae4 <handle+0x300>
    1864:	ea000085 	b	1a80 <handle+0x29c>
    1868:	ea000050 	b	19b0 <handle+0x1cc>
    186c:	ea000032 	b	193c <handle+0x158>
    1870:	e1a00006 	mov	r0, r6
    1874:	e24b1088 	sub	r1, fp, #136	; 0x88
    1878:	e3a0205c 	mov	r2, #92	; 0x5c
    187c:	eb00294f 	bl	bdc0 <proto_read_to>
    1880:	e350005c 	cmp	r0, #92	; 0x5c
    1884:	1a000029 	bne	1930 <handle+0x14c>
    1888:	e51b4088 	ldr	r4, [fp, #-136]	; 0x88
    188c:	e3540000 	cmp	r4, #0
    1890:	0a000026 	beq	1930 <handle+0x14c>
    1894:	e5943074 	ldr	r3, [r4, #116]	; 0x74
    1898:	e3530000 	cmp	r3, #0
    189c:	ba000023 	blt	1930 <handle+0x14c>
    18a0:	e59f1e10 	ldr	r1, [pc, #3600]	; 26b8 <handle+0xed4>
    18a4:	e1a02303 	lsl	r2, r3, #6
    18a8:	e08f1001 	add	r1, pc, r1
    18ac:	e0820003 	add	r0, r2, r3
    18b0:	e0811180 	add	r1, r1, r0, lsl #3
    18b4:	e59150c4 	ldr	r5, [r1, #196]	; 0xc4
    18b8:	e3550000 	cmp	r5, #0
    18bc:	0a00001b 	beq	1930 <handle+0x14c>
    18c0:	e5946000 	ldr	r6, [r4]
    18c4:	e3560000 	cmp	r6, #0
    18c8:	0a00035e 	beq	2648 <handle+0xe64>
    18cc:	e1a00004 	mov	r0, r4
    18d0:	ebfffef8 	bl	14b8 <vfs_remove.isra.2>
    18d4:	e5953074 	ldr	r3, [r5, #116]	; 0x74
    18d8:	e3530000 	cmp	r3, #0
    18dc:	ba000370 	blt	26a4 <handle+0xec0>
    18e0:	e5963008 	ldr	r3, [r6, #8]
    18e4:	e5962014 	ldr	r2, [r6, #20]
    18e8:	e3530000 	cmp	r3, #0
    18ec:	e5856000 	str	r6, [r5]
    18f0:	1583500c 	strne	r5, [r3, #12]
    18f4:	15853010 	strne	r3, [r5, #16]
    18f8:	e5943074 	ldr	r3, [r4, #116]	; 0x74
    18fc:	e2822001 	add	r2, r2, #1
    1900:	05865004 	streq	r5, [r6, #4]
    1904:	e5865008 	str	r5, [r6, #8]
    1908:	e5862014 	str	r2, [r6, #20]
    190c:	e1a02303 	lsl	r2, r3, #6
    1910:	e59f0da4 	ldr	r0, [pc, #3492]	; 26bc <handle+0xed8>
    1914:	e08f0000 	add	r0, pc, r0
    1918:	e0823003 	add	r3, r2, r3
    191c:	e28000c0 	add	r0, r0, #192	; 0xc0
    1920:	e0800183 	add	r0, r0, r3, lsl #3
    1924:	e3a01000 	mov	r1, #0
    1928:	e3a02f82 	mov	r2, #520	; 0x208
    192c:	eb0031ad 	bl	dfe8 <memset>
    1930:	e24bd028 	sub	sp, fp, #40	; 0x28
    1934:	e89d6ff0 	ldm	sp, {r4, r5, r6, r7, r8, r9, sl, fp, sp, lr}
    1938:	e12fff1e 	bx	lr
    193c:	e1a00006 	mov	r0, r6
    1940:	eb002989 	bl	bf6c <proto_read_int>
    1944:	e2507000 	subs	r7, r0, #0
    1948:	bafffff8 	blt	1930 <handle+0x14c>
    194c:	e3a05000 	mov	r5, #0
    1950:	e0872087 	add	r2, r7, r7, lsl #1
    1954:	e59f4d64 	ldr	r4, [pc, #3428]	; 26c0 <handle+0xedc>
    1958:	e1a02482 	lsl	r2, r2, #9
    195c:	e08f4004 	add	r4, pc, r4
    1960:	e2826c06 	add	r6, r2, #1536	; 0x600
    1964:	e0846006 	add	r6, r4, r6
    1968:	e0844002 	add	r4, r4, r2
    196c:	e5943000 	ldr	r3, [r4]
    1970:	e3530000 	cmp	r3, #0
    1974:	0a000004 	beq	198c <handle+0x1a8>
    1978:	e1a00007 	mov	r0, r7
    197c:	e1a01005 	mov	r1, r5
    1980:	e1a02004 	mov	r2, r4
    1984:	e3a03001 	mov	r3, #1
    1988:	ebfffe55 	bl	12e4 <proc_file_close>
    198c:	e1a00004 	mov	r0, r4
    1990:	e3a01000 	mov	r1, #0
    1994:	e284400c 	add	r4, r4, #12
    1998:	e3a0200c 	mov	r2, #12
    199c:	eb003191 	bl	dfe8 <memset>
    19a0:	e1540006 	cmp	r4, r6
    19a4:	e2855001 	add	r5, r5, #1
    19a8:	1affffef 	bne	196c <handle+0x188>
    19ac:	eaffffdf 	b	1930 <handle+0x14c>
    19b0:	e1a00006 	mov	r0, r6
    19b4:	eb00296c 	bl	bf6c <proto_read_int>
    19b8:	e1a04000 	mov	r4, r0
    19bc:	e1a00006 	mov	r0, r6
    19c0:	eb002969 	bl	bf6c <proto_read_int>
    19c4:	e1903004 	orrs	r3, r0, r4
    19c8:	4affffd8 	bmi	1930 <handle+0x14c>
    19cc:	e0843084 	add	r3, r4, r4, lsl #1
    19d0:	e0640000 	rsb	r0, r4, r0
    19d4:	e59f4ce8 	ldr	r4, [pc, #3304]	; 26c4 <handle+0xee0>
    19d8:	e1a03483 	lsl	r3, r3, #9
    19dc:	e08f4004 	add	r4, pc, r4
    19e0:	e0800080 	add	r0, r0, r0, lsl #1
    19e4:	e2836c06 	add	r6, r3, #1536	; 0x600
    19e8:	e0846006 	add	r6, r4, r6
    19ec:	e1a07480 	lsl	r7, r0, #9
    19f0:	e0844003 	add	r4, r4, r3
    19f4:	ea000002 	b	1a04 <handle+0x220>
    19f8:	e284400c 	add	r4, r4, #12
    19fc:	e1540006 	cmp	r4, r6
    1a00:	0affffca 	beq	1930 <handle+0x14c>
    1a04:	e5945000 	ldr	r5, [r4]
    1a08:	e3550000 	cmp	r5, #0
    1a0c:	0afffff9 	beq	19f8 <handle+0x214>
    1a10:	e0840007 	add	r0, r4, r7
    1a14:	e1a01004 	mov	r1, r4
    1a18:	e3a0200c 	mov	r2, #12
    1a1c:	eb003135 	bl	def8 <memcpy>
    1a20:	e5953078 	ldr	r3, [r5, #120]	; 0x78
    1a24:	e2833001 	add	r3, r3, #1
    1a28:	e5853078 	str	r3, [r5, #120]	; 0x78
    1a2c:	e5943004 	ldr	r3, [r4, #4]
    1a30:	e3130002 	tst	r3, #2
    1a34:	1595307c 	ldrne	r3, [r5, #124]	; 0x7c
    1a38:	12833001 	addne	r3, r3, #1
    1a3c:	1585307c 	strne	r3, [r5, #124]	; 0x7c
    1a40:	e595305c 	ldr	r3, [r5, #92]	; 0x5c
    1a44:	e3530003 	cmp	r3, #3
    1a48:	1affffea 	bne	19f8 <handle+0x214>
    1a4c:	e5958070 	ldr	r8, [r5, #112]	; 0x70
    1a50:	e3580000 	cmp	r8, #0
    1a54:	1affffe7 	bne	19f8 <handle+0x214>
    1a58:	e59f0c68 	ldr	r0, [pc, #3176]	; 26c8 <handle+0xee4>
    1a5c:	eb002e1a 	bl	d2cc <malloc>
    1a60:	e1a09000 	mov	r9, r0
    1a64:	e1a01008 	mov	r1, r8
    1a68:	e59f2c58 	ldr	r2, [pc, #3160]	; 26c8 <handle+0xee4>
    1a6c:	eb00315d 	bl	dfe8 <memset>
    1a70:	e5859070 	str	r9, [r5, #112]	; 0x70
    1a74:	e1a00005 	mov	r0, r5
    1a78:	eb002be4 	bl	ca10 <proc_wakeup>
    1a7c:	eaffffdd 	b	19f8 <handle+0x214>
    1a80:	e1a00006 	mov	r0, r6
    1a84:	eb002938 	bl	bf6c <proto_read_int>
    1a88:	e1a05000 	mov	r5, r0
    1a8c:	e1a00006 	mov	r0, r6
    1a90:	eb002935 	bl	bf6c <proto_read_int>
    1a94:	e358007f 	cmp	r8, #127	; 0x7f
    1a98:	9355007f 	cmpls	r5, #127	; 0x7f
    1a9c:	83a06001 	movhi	r6, #1
    1aa0:	93a06000 	movls	r6, #0
    1aa4:	8a000298 	bhi	250c <handle+0xd28>
    1aa8:	e0888088 	add	r8, r8, r8, lsl #1
    1aac:	e59f3c18 	ldr	r3, [pc, #3096]	; 26cc <handle+0xee8>
    1ab0:	e1a02488 	lsl	r2, r8, #9
    1ab4:	e0855085 	add	r5, r5, r5, lsl #1
    1ab8:	e0825105 	add	r5, r2, r5, lsl #2
    1abc:	e08f3003 	add	r3, pc, r3
    1ac0:	e0833005 	add	r3, r3, r5
    1ac4:	e5830004 	str	r0, [r3, #4]
    1ac8:	eb00285e 	bl	bc48 <get_proto_factor>
    1acc:	e1a01006 	mov	r1, r6
    1ad0:	e5903014 	ldr	r3, [r0, #20]
    1ad4:	e1a00004 	mov	r0, r4
    1ad8:	e1a0e00f 	mov	lr, pc
    1adc:	e12fff13 	bx	r3
    1ae0:	eaffff92 	b	1930 <handle+0x14c>
    1ae4:	e1a00006 	mov	r0, r6
    1ae8:	eb00291f 	bl	bf6c <proto_read_int>
    1aec:	e358007f 	cmp	r8, #127	; 0x7f
    1af0:	9350007f 	cmpls	r0, #127	; 0x7f
    1af4:	e1a05000 	mov	r5, r0
    1af8:	83a06001 	movhi	r6, #1
    1afc:	93a06000 	movls	r6, #0
    1b00:	8a000281 	bhi	250c <handle+0xd28>
    1b04:	eb00284f 	bl	bc48 <get_proto_factor>
    1b08:	e1a01006 	mov	r1, r6
    1b0c:	e5903014 	ldr	r3, [r0, #20]
    1b10:	e1a00004 	mov	r0, r4
    1b14:	e1a0e00f 	mov	lr, pc
    1b18:	e12fff13 	bx	r3
    1b1c:	e0888088 	add	r8, r8, r8, lsl #1
    1b20:	e59f3ba8 	ldr	r3, [pc, #2984]	; 26d0 <handle+0xeec>
    1b24:	e1a02488 	lsl	r2, r8, #9
    1b28:	e0855085 	add	r5, r5, r5, lsl #1
    1b2c:	e0825105 	add	r5, r2, r5, lsl #2
    1b30:	e08f3003 	add	r3, pc, r3
    1b34:	e0833005 	add	r3, r3, r5
    1b38:	e5902014 	ldr	r2, [r0, #20]
    1b3c:	e5931004 	ldr	r1, [r3, #4]
    1b40:	e1a00004 	mov	r0, r4
    1b44:	e1a0e00f 	mov	lr, pc
    1b48:	e12fff12 	bx	r2
    1b4c:	eaffff77 	b	1930 <handle+0x14c>
    1b50:	e1a00006 	mov	r0, r6
    1b54:	e1a01004 	mov	r1, r4
    1b58:	ebfffd84 	bl	1170 <do_vfs_get_mount_by_id>
    1b5c:	eaffff73 	b	1930 <handle+0x14c>
    1b60:	e1a00006 	mov	r0, r6
    1b64:	e1a01004 	mov	r1, r4
    1b68:	ebfffebe 	bl	1668 <do_vfs_get_kids>
    1b6c:	eaffff6f 	b	1930 <handle+0x14c>
    1b70:	eb002834 	bl	bc48 <get_proto_factor>
    1b74:	e3e01000 	mvn	r1, #0
    1b78:	e5903014 	ldr	r3, [r0, #20]
    1b7c:	e1a00004 	mov	r0, r4
    1b80:	e1a0e00f 	mov	lr, pc
    1b84:	e12fff13 	bx	r3
    1b88:	e3a0205c 	mov	r2, #92	; 0x5c
    1b8c:	e1a00006 	mov	r0, r6
    1b90:	e24b10e4 	sub	r1, fp, #228	; 0xe4
    1b94:	eb002889 	bl	bdc0 <proto_read_to>
    1b98:	e350005c 	cmp	r0, #92	; 0x5c
    1b9c:	e1a02000 	mov	r2, r0
    1ba0:	1affff62 	bne	1930 <handle+0x14c>
    1ba4:	e1a00006 	mov	r0, r6
    1ba8:	e24b1088 	sub	r1, fp, #136	; 0x88
    1bac:	eb002883 	bl	bdc0 <proto_read_to>
    1bb0:	e350005c 	cmp	r0, #92	; 0x5c
    1bb4:	1affff5d 	bne	1930 <handle+0x14c>
    1bb8:	e51b60e4 	ldr	r6, [fp, #-228]	; 0xe4
    1bbc:	e51b5088 	ldr	r5, [fp, #-136]	; 0x88
    1bc0:	e3560000 	cmp	r6, #0
    1bc4:	13550000 	cmpne	r5, #0
    1bc8:	03a07001 	moveq	r7, #1
    1bcc:	13a07000 	movne	r7, #0
    1bd0:	0affff56 	beq	1930 <handle+0x14c>
    1bd4:	e5953074 	ldr	r3, [r5, #116]	; 0x74
    1bd8:	e3530000 	cmp	r3, #0
    1bdc:	aa000132 	bge	20ac <handle+0x8c8>
    1be0:	e59f3aec 	ldr	r3, [pc, #2796]	; 26d4 <handle+0xef0>
    1be4:	e08f3003 	add	r3, pc, r3
    1be8:	e28330c0 	add	r3, r3, #192	; 0xc0
    1bec:	ea000003 	b	1c00 <handle+0x41c>
    1bf0:	e2877001 	add	r7, r7, #1
    1bf4:	e3570020 	cmp	r7, #32
    1bf8:	e2833f82 	add	r3, r3, #520	; 0x208
    1bfc:	0a00012a 	beq	20ac <handle+0x8c8>
    1c00:	e5932004 	ldr	r2, [r3, #4]
    1c04:	e3520000 	cmp	r2, #0
    1c08:	1afffff8 	bne	1bf0 <handle+0x40c>
    1c0c:	e3a03f82 	mov	r3, #520	; 0x208
    1c10:	e0010793 	mul	r1, r3, r7
    1c14:	e59f2abc 	ldr	r2, [pc, #2748]	; 26d8 <handle+0xef4>
    1c18:	e59f0abc 	ldr	r0, [pc, #2748]	; 26dc <handle+0xef8>
    1c1c:	e08f2002 	add	r2, pc, r2
    1c20:	e0822001 	add	r2, r2, r1
    1c24:	e08f0000 	add	r0, pc, r0
    1c28:	e58280c0 	str	r8, [r2, #192]	; 0xc0
    1c2c:	e28230c8 	add	r3, r2, #200	; 0xc8
    1c30:	e58260c4 	str	r6, [r2, #196]	; 0xc4
    1c34:	e50b30e8 	str	r3, [fp, #-232]	; 0xe8
    1c38:	e50b00ec 	str	r0, [fp, #-236]	; 0xec
    1c3c:	eb001812 	bl	7c8c <str_new>
    1c40:	e1a09006 	mov	r9, r6
    1c44:	e1a08000 	mov	r8, r0
    1c48:	e51b00ec 	ldr	r0, [fp, #-236]	; 0xec
    1c4c:	eb00180e 	bl	7c8c <str_new>
    1c50:	e289101c 	add	r1, r9, #28
    1c54:	e1a0a000 	mov	sl, r0
    1c58:	eb001800 	bl	7c60 <str_cpy>
    1c5c:	e5981000 	ldr	r1, [r8]
    1c60:	e5d13000 	ldrb	r3, [r1]
    1c64:	e3530000 	cmp	r3, #0
    1c68:	0a000008 	beq	1c90 <handle+0x4ac>
    1c6c:	e5d9301c 	ldrb	r3, [r9, #28]
    1c70:	e353002f 	cmp	r3, #47	; 0x2f
    1c74:	0a000003 	beq	1c88 <handle+0x4a4>
    1c78:	e3a0102f 	mov	r1, #47	; 0x2f
    1c7c:	e1a0000a 	mov	r0, sl
    1c80:	eb00184a 	bl	7db0 <str_addc>
    1c84:	e5981000 	ldr	r1, [r8]
    1c88:	e1a0000a 	mov	r0, sl
    1c8c:	eb001820 	bl	7d14 <str_add>
    1c90:	e59a1000 	ldr	r1, [sl]
    1c94:	e1a00008 	mov	r0, r8
    1c98:	eb0017f0 	bl	7c60 <str_cpy>
    1c9c:	e1a0000a 	mov	r0, sl
    1ca0:	eb00186c 	bl	7e58 <str_free>
    1ca4:	e5999000 	ldr	r9, [r9]
    1ca8:	e3590000 	cmp	r9, #0
    1cac:	1affffe5 	bne	1c48 <handle+0x464>
    1cb0:	e59f9a28 	ldr	r9, [pc, #2600]	; 26e0 <handle+0xefc>
    1cb4:	e08f9009 	add	r9, pc, r9
    1cb8:	e289af8e 	add	sl, r9, #568	; 0x238
    1cbc:	e5981000 	ldr	r1, [r8]
    1cc0:	e59f2a1c 	ldr	r2, [pc, #2588]	; 26e4 <handle+0xf00>
    1cc4:	e1a0000a 	mov	r0, sl
    1cc8:	eb00327e 	bl	e6c8 <strncpy>
    1ccc:	e1a00008 	mov	r0, r8
    1cd0:	eb001860 	bl	7e58 <str_free>
    1cd4:	e1a0100a 	mov	r1, sl
    1cd8:	e51b00e8 	ldr	r0, [fp, #-232]	; 0xe8
    1cdc:	eb0031df 	bl	e460 <strcpy>
    1ce0:	e285001c 	add	r0, r5, #28
    1ce4:	e286101c 	add	r1, r6, #28
    1ce8:	eb0031dc 	bl	e460 <strcpy>
    1cec:	e5968000 	ldr	r8, [r6]
    1cf0:	e3580000 	cmp	r8, #0
    1cf4:	e5857074 	str	r7, [r5, #116]	; 0x74
    1cf8:	058951d8 	streq	r5, [r9, #472]	; 0x1d8
    1cfc:	0a0000ea 	beq	20ac <handle+0x8c8>
    1d00:	e1a00006 	mov	r0, r6
    1d04:	ebfffdeb 	bl	14b8 <vfs_remove.isra.2>
    1d08:	e5983008 	ldr	r3, [r8, #8]
    1d0c:	e3530000 	cmp	r3, #0
    1d10:	e5858000 	str	r8, [r5]
    1d14:	1583500c 	strne	r5, [r3, #12]
    1d18:	15853010 	strne	r3, [r5, #16]
    1d1c:	e5983014 	ldr	r3, [r8, #20]
    1d20:	e2833001 	add	r3, r3, #1
    1d24:	05885004 	streq	r5, [r8, #4]
    1d28:	e5885008 	str	r5, [r8, #8]
    1d2c:	e5883014 	str	r3, [r8, #20]
    1d30:	ea0000dd 	b	20ac <handle+0x8c8>
    1d34:	eb0027c3 	bl	bc48 <get_proto_factor>
    1d38:	e3e01000 	mvn	r1, #0
    1d3c:	e5903014 	ldr	r3, [r0, #20]
    1d40:	e1a00004 	mov	r0, r4
    1d44:	e1a0e00f 	mov	lr, pc
    1d48:	e12fff13 	bx	r3
    1d4c:	e1a00006 	mov	r0, r6
    1d50:	e24b1088 	sub	r1, fp, #136	; 0x88
    1d54:	e3a0205c 	mov	r2, #92	; 0x5c
    1d58:	eb002818 	bl	bdc0 <proto_read_to>
    1d5c:	e350005c 	cmp	r0, #92	; 0x5c
    1d60:	1afffef2 	bne	1930 <handle+0x14c>
    1d64:	e51b1088 	ldr	r1, [fp, #-136]	; 0x88
    1d68:	e3510000 	cmp	r1, #0
    1d6c:	0afffeef 	beq	1930 <handle+0x14c>
    1d70:	e1a00008 	mov	r0, r8
    1d74:	ebfffd2c 	bl	122c <vfs_del>
    1d78:	e1a05000 	mov	r5, r0
    1d7c:	eb0027b1 	bl	bc48 <get_proto_factor>
    1d80:	e590300c 	ldr	r3, [r0, #12]
    1d84:	e1a00004 	mov	r0, r4
    1d88:	e1a0e00f 	mov	lr, pc
    1d8c:	e12fff13 	bx	r3
    1d90:	e1a01005 	mov	r1, r5
    1d94:	e5903014 	ldr	r3, [r0, #20]
    1d98:	e1a00004 	mov	r0, r4
    1d9c:	e1a0e00f 	mov	lr, pc
    1da0:	e12fff13 	bx	r3
    1da4:	eafffee1 	b	1930 <handle+0x14c>
    1da8:	eb0027a6 	bl	bc48 <get_proto_factor>
    1dac:	e3e01000 	mvn	r1, #0
    1db0:	e5903014 	ldr	r3, [r0, #20]
    1db4:	e1a00004 	mov	r0, r4
    1db8:	e1a0e00f 	mov	lr, pc
    1dbc:	e12fff13 	bx	r3
    1dc0:	e1a00006 	mov	r0, r6
    1dc4:	e24b1088 	sub	r1, fp, #136	; 0x88
    1dc8:	e3a0205c 	mov	r2, #92	; 0x5c
    1dcc:	eb0027fb 	bl	bdc0 <proto_read_to>
    1dd0:	e350005c 	cmp	r0, #92	; 0x5c
    1dd4:	1afffed5 	bne	1930 <handle+0x14c>
    1dd8:	e51b7088 	ldr	r7, [fp, #-136]	; 0x88
    1ddc:	e1a00007 	mov	r0, r7
    1de0:	eb002b0a 	bl	ca10 <proc_wakeup>
    1de4:	e1a00006 	mov	r0, r6
    1de8:	eb00285f 	bl	bf6c <proto_read_int>
    1dec:	e2508000 	subs	r8, r0, #0
    1df0:	bafffece 	blt	1930 <handle+0x14c>
    1df4:	e51b6030 	ldr	r6, [fp, #-48]	; 0x30
    1df8:	e3560000 	cmp	r6, #0
    1dfc:	0a000215 	beq	2658 <handle+0xe74>
    1e00:	eb002d31 	bl	d2cc <malloc>
    1e04:	e1a05000 	mov	r5, r0
    1e08:	e1a02008 	mov	r2, r8
    1e0c:	e1a00006 	mov	r0, r6
    1e10:	e1a01005 	mov	r1, r5
    1e14:	eb002b19 	bl	ca80 <buffer_read>
    1e18:	e2506000 	subs	r6, r0, #0
    1e1c:	da000218 	ble	2684 <handle+0xea0>
    1e20:	eb002788 	bl	bc48 <get_proto_factor>
    1e24:	e590300c 	ldr	r3, [r0, #12]
    1e28:	e1a00004 	mov	r0, r4
    1e2c:	e1a0e00f 	mov	lr, pc
    1e30:	e12fff13 	bx	r3
    1e34:	e1a01006 	mov	r1, r6
    1e38:	e5903014 	ldr	r3, [r0, #20]
    1e3c:	e1a00004 	mov	r0, r4
    1e40:	e1a0e00f 	mov	lr, pc
    1e44:	e12fff13 	bx	r3
    1e48:	e1a02006 	mov	r2, r6
    1e4c:	e5903010 	ldr	r3, [r0, #16]
    1e50:	e1a01005 	mov	r1, r5
    1e54:	e1a00004 	mov	r0, r4
    1e58:	e1a0e00f 	mov	lr, pc
    1e5c:	e12fff13 	bx	r3
    1e60:	e1a00005 	mov	r0, r5
    1e64:	eb002d0f 	bl	d2a8 <free>
    1e68:	eafffeb0 	b	1930 <handle+0x14c>
    1e6c:	eb002775 	bl	bc48 <get_proto_factor>
    1e70:	e3e01000 	mvn	r1, #0
    1e74:	e5903014 	ldr	r3, [r0, #20]
    1e78:	e1a00004 	mov	r0, r4
    1e7c:	e1a0e00f 	mov	lr, pc
    1e80:	e12fff13 	bx	r3
    1e84:	e1a00006 	mov	r0, r6
    1e88:	e24b1088 	sub	r1, fp, #136	; 0x88
    1e8c:	e3a0205c 	mov	r2, #92	; 0x5c
    1e90:	eb0027ca 	bl	bdc0 <proto_read_to>
    1e94:	e350005c 	cmp	r0, #92	; 0x5c
    1e98:	1afffea4 	bne	1930 <handle+0x14c>
    1e9c:	e3a07000 	mov	r7, #0
    1ea0:	e51b5088 	ldr	r5, [fp, #-136]	; 0x88
    1ea4:	e1a00005 	mov	r0, r5
    1ea8:	eb002ad8 	bl	ca10 <proc_wakeup>
    1eac:	e24b102c 	sub	r1, fp, #44	; 0x2c
    1eb0:	e52170b8 	str	r7, [r1, #-184]!	; 0xb8
    1eb4:	e1a00006 	mov	r0, r6
    1eb8:	eb00279a 	bl	bd28 <proto_read>
    1ebc:	e2501000 	subs	r1, r0, #0
    1ec0:	0afffe9a 	beq	1930 <handle+0x14c>
    1ec4:	e51b6030 	ldr	r6, [fp, #-48]	; 0x30
    1ec8:	e1560007 	cmp	r6, r7
    1ecc:	0a0001e1 	beq	2658 <handle+0xe74>
    1ed0:	e1a00006 	mov	r0, r6
    1ed4:	e51b20e4 	ldr	r2, [fp, #-228]	; 0xe4
    1ed8:	eb002b07 	bl	cafc <buffer_write>
    1edc:	e3500000 	cmp	r0, #0
    1ee0:	e50b00e4 	str	r0, [fp, #-228]	; 0xe4
    1ee4:	da0001c7 	ble	2608 <handle+0xe24>
    1ee8:	eb002756 	bl	bc48 <get_proto_factor>
    1eec:	e590300c 	ldr	r3, [r0, #12]
    1ef0:	e1a00004 	mov	r0, r4
    1ef4:	e1a0e00f 	mov	lr, pc
    1ef8:	e12fff13 	bx	r3
    1efc:	e51b10e4 	ldr	r1, [fp, #-228]	; 0xe4
    1f00:	e5903014 	ldr	r3, [r0, #20]
    1f04:	e1a00004 	mov	r0, r4
    1f08:	e1a0e00f 	mov	lr, pc
    1f0c:	e12fff13 	bx	r3
    1f10:	eafffe86 	b	1930 <handle+0x14c>
    1f14:	e1a00006 	mov	r0, r6
    1f18:	eb002813 	bl	bf6c <proto_read_int>
    1f1c:	e1a05000 	mov	r5, r0
    1f20:	eb002748 	bl	bc48 <get_proto_factor>
    1f24:	e355007f 	cmp	r5, #127	; 0x7f
    1f28:	e5902014 	ldr	r2, [r0, #20]
    1f2c:	8a000182 	bhi	253c <handle+0xd58>
    1f30:	e358007f 	cmp	r8, #127	; 0x7f
    1f34:	8a00017b 	bhi	2528 <handle+0xd44>
    1f38:	e0888088 	add	r8, r8, r8, lsl #1
    1f3c:	e59f37a4 	ldr	r3, [pc, #1956]	; 26e8 <handle+0xf04>
    1f40:	e1a01488 	lsl	r1, r8, #9
    1f44:	e0855085 	add	r5, r5, r5, lsl #1
    1f48:	e08f3003 	add	r3, pc, r3
    1f4c:	e0815105 	add	r5, r1, r5, lsl #2
    1f50:	e7931005 	ldr	r1, [r3, r5]
    1f54:	e3510000 	cmp	r1, #0
    1f58:	0a000177 	beq	253c <handle+0xd58>
    1f5c:	e0833005 	add	r3, r3, r5
    1f60:	e5931008 	ldr	r1, [r3, #8]
    1f64:	eafffef5 	b	1b40 <handle+0x35c>
    1f68:	e24b7088 	sub	r7, fp, #136	; 0x88
    1f6c:	e1a00006 	mov	r0, r6
    1f70:	e1a01007 	mov	r1, r7
    1f74:	e3a0205c 	mov	r2, #92	; 0x5c
    1f78:	eb002790 	bl	bdc0 <proto_read_to>
    1f7c:	e350005c 	cmp	r0, #92	; 0x5c
    1f80:	e1a05000 	mov	r5, r0
    1f84:	1afffe69 	bne	1930 <handle+0x14c>
    1f88:	ebfffc68 	bl	1130 <vfs_new_node>
    1f8c:	e2503000 	subs	r3, r0, #0
    1f90:	0afffe66 	beq	1930 <handle+0x14c>
    1f94:	e3e0c000 	mvn	ip, #0
    1f98:	e1a01007 	mov	r1, r7
    1f9c:	e1a02005 	mov	r2, r5
    1fa0:	e2830018 	add	r0, r3, #24
    1fa4:	e50b3088 	str	r3, [fp, #-136]	; 0x88
    1fa8:	e50bc034 	str	ip, [fp, #-52]	; 0x34
    1fac:	eb002fd1 	bl	def8 <memcpy>
    1fb0:	eb002724 	bl	bc48 <get_proto_factor>
    1fb4:	e1a01007 	mov	r1, r7
    1fb8:	e5903010 	ldr	r3, [r0, #16]
    1fbc:	e1a02005 	mov	r2, r5
    1fc0:	e1a00004 	mov	r0, r4
    1fc4:	e1a0e00f 	mov	lr, pc
    1fc8:	e12fff13 	bx	r3
    1fcc:	eafffe57 	b	1930 <handle+0x14c>
    1fd0:	e24b5088 	sub	r5, fp, #136	; 0x88
    1fd4:	e3a0205c 	mov	r2, #92	; 0x5c
    1fd8:	e1a00006 	mov	r0, r6
    1fdc:	e1a01005 	mov	r1, r5
    1fe0:	eb002776 	bl	bdc0 <proto_read_to>
    1fe4:	e350005c 	cmp	r0, #92	; 0x5c
    1fe8:	e1a02000 	mov	r2, r0
    1fec:	0a000158 	beq	2554 <handle+0xd70>
    1ff0:	e3e05000 	mvn	r5, #0
    1ff4:	eb002713 	bl	bc48 <get_proto_factor>
    1ff8:	e1a01005 	mov	r1, r5
    1ffc:	e5903014 	ldr	r3, [r0, #20]
    2000:	e1a00004 	mov	r0, r4
    2004:	e1a0e00f 	mov	lr, pc
    2008:	e12fff13 	bx	r3
    200c:	eafffe47 	b	1930 <handle+0x14c>
    2010:	eb00270c 	bl	bc48 <get_proto_factor>
    2014:	e3e01000 	mvn	r1, #0
    2018:	e5903014 	ldr	r3, [r0, #20]
    201c:	e1a00004 	mov	r0, r4
    2020:	e1a0e00f 	mov	lr, pc
    2024:	e12fff13 	bx	r3
    2028:	e3a0205c 	mov	r2, #92	; 0x5c
    202c:	e1a00006 	mov	r0, r6
    2030:	e24b10e4 	sub	r1, fp, #228	; 0xe4
    2034:	eb002761 	bl	bdc0 <proto_read_to>
    2038:	e350005c 	cmp	r0, #92	; 0x5c
    203c:	e1a02000 	mov	r2, r0
    2040:	1afffe3a 	bne	1930 <handle+0x14c>
    2044:	e1a00006 	mov	r0, r6
    2048:	e24b1088 	sub	r1, fp, #136	; 0x88
    204c:	eb00275b 	bl	bdc0 <proto_read_to>
    2050:	e350005c 	cmp	r0, #92	; 0x5c
    2054:	1afffe35 	bne	1930 <handle+0x14c>
    2058:	e51b50e4 	ldr	r5, [fp, #-228]	; 0xe4
    205c:	e3550000 	cmp	r5, #0
    2060:	0afffe32 	beq	1930 <handle+0x14c>
    2064:	e1a00005 	mov	r0, r5
    2068:	e24b1084 	sub	r1, fp, #132	; 0x84
    206c:	ebfffd49 	bl	1598 <vfs_get_by_name>
    2070:	e3500000 	cmp	r0, #0
    2074:	1afffe2d 	bne	1930 <handle+0x14c>
    2078:	e51b3088 	ldr	r3, [fp, #-136]	; 0x88
    207c:	e3530000 	cmp	r3, #0
    2080:	0afffe2a 	beq	1930 <handle+0x14c>
    2084:	e5952008 	ldr	r2, [r5, #8]
    2088:	e3520000 	cmp	r2, #0
    208c:	e5835000 	str	r5, [r3]
    2090:	1582300c 	strne	r3, [r2, #12]
    2094:	15832010 	strne	r2, [r3, #16]
    2098:	e5952014 	ldr	r2, [r5, #20]
    209c:	e2822001 	add	r2, r2, #1
    20a0:	05853004 	streq	r3, [r5, #4]
    20a4:	e5853008 	str	r3, [r5, #8]
    20a8:	e5852014 	str	r2, [r5, #20]
    20ac:	eb0026e5 	bl	bc48 <get_proto_factor>
    20b0:	e590300c 	ldr	r3, [r0, #12]
    20b4:	e1a00004 	mov	r0, r4
    20b8:	e1a0e00f 	mov	lr, pc
    20bc:	e12fff13 	bx	r3
    20c0:	e3a01000 	mov	r1, #0
    20c4:	e5903014 	ldr	r3, [r0, #20]
    20c8:	e1a00004 	mov	r0, r4
    20cc:	e1a0e00f 	mov	lr, pc
    20d0:	e12fff13 	bx	r3
    20d4:	eafffe15 	b	1930 <handle+0x14c>
    20d8:	ebfffc14 	bl	1130 <vfs_new_node>
    20dc:	e1a05000 	mov	r5, r0
    20e0:	eb0026d8 	bl	bc48 <get_proto_factor>
    20e4:	e3e01000 	mvn	r1, #0
    20e8:	e5903014 	ldr	r3, [r0, #20]
    20ec:	e1a00004 	mov	r0, r4
    20f0:	e1a0e00f 	mov	lr, pc
    20f4:	e12fff13 	bx	r3
    20f8:	e3550000 	cmp	r5, #0
    20fc:	0afffe0b 	beq	1930 <handle+0x14c>
    2100:	e3a03003 	mov	r3, #3
    2104:	e3a06000 	mov	r6, #0
    2108:	e585305c 	str	r3, [r5, #92]	; 0x5c
    210c:	e5856070 	str	r6, [r5, #112]	; 0x70
    2110:	e1a00008 	mov	r0, r8
    2114:	e1a01005 	mov	r1, r5
    2118:	e3a02001 	mov	r2, #1
    211c:	ebfffbae 	bl	fdc <vfs_open>
    2120:	e2507000 	subs	r7, r0, #0
    2124:	ba000117 	blt	2588 <handle+0xda4>
    2128:	e1a00008 	mov	r0, r8
    212c:	e1a01005 	mov	r1, r5
    2130:	e3a02001 	mov	r2, #1
    2134:	ebfffba8 	bl	fdc <vfs_open>
    2138:	e2509000 	subs	r9, r0, #0
    213c:	ba00010e 	blt	257c <handle+0xd98>
    2140:	eb0026c0 	bl	bc48 <get_proto_factor>
    2144:	e590300c 	ldr	r3, [r0, #12]
    2148:	e1a00004 	mov	r0, r4
    214c:	e1a0e00f 	mov	lr, pc
    2150:	e12fff13 	bx	r3
    2154:	e1a01006 	mov	r1, r6
    2158:	e5903014 	ldr	r3, [r0, #20]
    215c:	e1a00004 	mov	r0, r4
    2160:	e1a0e00f 	mov	lr, pc
    2164:	e12fff13 	bx	r3
    2168:	e1a01007 	mov	r1, r7
    216c:	e5903014 	ldr	r3, [r0, #20]
    2170:	e1a00004 	mov	r0, r4
    2174:	e1a0e00f 	mov	lr, pc
    2178:	e12fff13 	bx	r3
    217c:	e1a01009 	mov	r1, r9
    2180:	e5903014 	ldr	r3, [r0, #20]
    2184:	e1a00004 	mov	r0, r4
    2188:	e1a0e00f 	mov	lr, pc
    218c:	e12fff13 	bx	r3
    2190:	eafffde6 	b	1930 <handle+0x14c>
    2194:	eb0026ab 	bl	bc48 <get_proto_factor>
    2198:	e3e01000 	mvn	r1, #0
    219c:	e5903014 	ldr	r3, [r0, #20]
    21a0:	e1a00004 	mov	r0, r4
    21a4:	e1a0e00f 	mov	lr, pc
    21a8:	e12fff13 	bx	r3
    21ac:	e1a00006 	mov	r0, r6
    21b0:	e24b1088 	sub	r1, fp, #136	; 0x88
    21b4:	e3a0205c 	mov	r2, #92	; 0x5c
    21b8:	eb002700 	bl	bdc0 <proto_read_to>
    21bc:	e350005c 	cmp	r0, #92	; 0x5c
    21c0:	1afffdda 	bne	1930 <handle+0x14c>
    21c4:	e1a00006 	mov	r0, r6
    21c8:	eb002767 	bl	bf6c <proto_read_int>
    21cc:	e51b1088 	ldr	r1, [fp, #-136]	; 0x88
    21d0:	e3510000 	cmp	r1, #0
    21d4:	e1a02000 	mov	r2, r0
    21d8:	0afffdd4 	beq	1930 <handle+0x14c>
    21dc:	e1a00008 	mov	r0, r8
    21e0:	ebfffb7d 	bl	fdc <vfs_open>
    21e4:	e1a05000 	mov	r5, r0
    21e8:	eb002696 	bl	bc48 <get_proto_factor>
    21ec:	e590300c 	ldr	r3, [r0, #12]
    21f0:	e1a00004 	mov	r0, r4
    21f4:	e1a0e00f 	mov	lr, pc
    21f8:	e12fff13 	bx	r3
    21fc:	eaffff7c 	b	1ff4 <handle+0x810>
    2200:	e1a00006 	mov	r0, r6
    2204:	eb002758 	bl	bf6c <proto_read_int>
    2208:	e358007f 	cmp	r8, #127	; 0x7f
    220c:	9350007f 	cmpls	r0, #127	; 0x7f
    2210:	9a0000df 	bls	2594 <handle+0xdb0>
    2214:	eb00268b 	bl	bc48 <get_proto_factor>
    2218:	e3a01000 	mov	r1, #0
    221c:	e5903014 	ldr	r3, [r0, #20]
    2220:	e1a00004 	mov	r0, r4
    2224:	e1a0e00f 	mov	lr, pc
    2228:	e12fff13 	bx	r3
    222c:	eafffdbf 	b	1930 <handle+0x14c>
    2230:	e1a00006 	mov	r0, r6
    2234:	eb00276e 	bl	bff4 <proto_read_str>
    2238:	e1a05000 	mov	r5, r0
    223c:	ebfffd63 	bl	17d0 <vfs_root>
    2240:	e1a01005 	mov	r1, r5
    2244:	ebfffcd3 	bl	1598 <vfs_get_by_name>
    2248:	e2505000 	subs	r5, r0, #0
    224c:	0affff68 	beq	1ff4 <handle+0x810>
    2250:	eb00267c 	bl	bc48 <get_proto_factor>
    2254:	e1a01005 	mov	r1, r5
    2258:	e5903014 	ldr	r3, [r0, #20]
    225c:	e1a00004 	mov	r0, r4
    2260:	e1a0e00f 	mov	lr, pc
    2264:	e12fff13 	bx	r3
    2268:	e59f647c 	ldr	r6, [pc, #1148]	; 26ec <handle+0xf08>
    226c:	e08f6006 	add	r6, pc, r6
    2270:	e2867f77 	add	r7, r6, #476	; 0x1dc
    2274:	e2851018 	add	r1, r5, #24
    2278:	e5908010 	ldr	r8, [r0, #16]
    227c:	e3a0205c 	mov	r2, #92	; 0x5c
    2280:	e1a00007 	mov	r0, r7
    2284:	eb002f1b 	bl	def8 <memcpy>
    2288:	e1a00005 	mov	r0, r5
    228c:	ebfffb9b 	bl	1100 <get_mount_pid>
    2290:	e1a01007 	mov	r1, r7
    2294:	e5860230 	str	r0, [r6, #560]	; 0x230
    2298:	e3a0205c 	mov	r2, #92	; 0x5c
    229c:	e1a00004 	mov	r0, r4
    22a0:	e1a0e00f 	mov	lr, pc
    22a4:	e12fff18 	bx	r8
    22a8:	eafffda0 	b	1930 <handle+0x14c>
    22ac:	e1a00006 	mov	r0, r6
    22b0:	eb00272d 	bl	bf6c <proto_read_int>
    22b4:	e1a09000 	mov	r9, r0
    22b8:	e1a00006 	mov	r0, r6
    22bc:	eb00272a 	bl	bf6c <proto_read_int>
    22c0:	e1a05000 	mov	r5, r0
    22c4:	eb00265f 	bl	bc48 <get_proto_factor>
    22c8:	e1590005 	cmp	r9, r5
    22cc:	e5906014 	ldr	r6, [r0, #20]
    22d0:	0a0000ca 	beq	2600 <handle+0xe1c>
    22d4:	e3590080 	cmp	r9, #128	; 0x80
    22d8:	93550080 	cmpls	r5, #128	; 0x80
    22dc:	83a07001 	movhi	r7, #1
    22e0:	93a07000 	movls	r7, #0
    22e4:	8a0000a2 	bhi	2574 <handle+0xd90>
    22e8:	e1a00008 	mov	r0, r8
    22ec:	e1a01005 	mov	r1, r5
    22f0:	ebfffc52 	bl	1440 <vfs_close>
    22f4:	e358007f 	cmp	r8, #127	; 0x7f
    22f8:	93a00000 	movls	r0, #0
    22fc:	83a00001 	movhi	r0, #1
    2300:	e3590080 	cmp	r9, #128	; 0x80
    2304:	03800001 	orreq	r0, r0, #1
    2308:	e3500000 	cmp	r0, #0
    230c:	1a00008c 	bne	2544 <handle+0xd60>
    2310:	e1a07088 	lsl	r7, r8, #1
    2314:	e0873008 	add	r3, r7, r8
    2318:	e1a0a089 	lsl	sl, r9, #1
    231c:	e59f23cc 	ldr	r2, [pc, #972]	; 26f0 <handle+0xf0c>
    2320:	e1a03483 	lsl	r3, r3, #9
    2324:	e08a1009 	add	r1, sl, r9
    2328:	e08f2002 	add	r2, pc, r2
    232c:	e0831101 	add	r1, r3, r1, lsl #2
    2330:	e792c001 	ldr	ip, [r2, r1]
    2334:	e35c0000 	cmp	ip, #0
    2338:	e0821001 	add	r1, r2, r1
    233c:	0a00008c 	beq	2574 <handle+0xd90>
    2340:	e3550080 	cmp	r5, #128	; 0x80
    2344:	10850085 	addne	r0, r5, r5, lsl #1
    2348:	10833100 	addne	r3, r3, r0, lsl #2
    234c:	10820003 	addne	r0, r2, r3
    2350:	e3a0200c 	mov	r2, #12
    2354:	eb002ee7 	bl	def8 <memcpy>
    2358:	e0873008 	add	r3, r7, r8
    235c:	e59f2390 	ldr	r2, [pc, #912]	; 26f4 <handle+0xf10>
    2360:	e08a1009 	add	r1, sl, r9
    2364:	e1a03483 	lsl	r3, r3, #9
    2368:	e08f2002 	add	r2, pc, r2
    236c:	e0833101 	add	r3, r3, r1, lsl #2
    2370:	e7b23003 	ldr	r3, [r2, r3]!
    2374:	e5921004 	ldr	r1, [r2, #4]
    2378:	e5932078 	ldr	r2, [r3, #120]	; 0x78
    237c:	e3110002 	tst	r1, #2
    2380:	e2822001 	add	r2, r2, #1
    2384:	e5832078 	str	r2, [r3, #120]	; 0x78
    2388:	0a00006f 	beq	254c <handle+0xd68>
    238c:	e1a01005 	mov	r1, r5
    2390:	e593207c 	ldr	r2, [r3, #124]	; 0x7c
    2394:	e2822001 	add	r2, r2, #1
    2398:	e583207c 	str	r2, [r3, #124]	; 0x7c
    239c:	e1a00004 	mov	r0, r4
    23a0:	e1a0e00f 	mov	lr, pc
    23a4:	e12fff16 	bx	r6
    23a8:	eafffd60 	b	1930 <handle+0x14c>
    23ac:	e1a00006 	mov	r0, r6
    23b0:	eb0026ed 	bl	bf6c <proto_read_int>
    23b4:	e1a09000 	mov	r9, r0
    23b8:	eb002622 	bl	bc48 <get_proto_factor>
    23bc:	e3590080 	cmp	r9, #128	; 0x80
    23c0:	e5906014 	ldr	r6, [r0, #20]
    23c4:	8a00006a 	bhi	2574 <handle+0xd90>
    23c8:	e59f3328 	ldr	r3, [pc, #808]	; 26f8 <handle+0xf14>
    23cc:	e1a07088 	lsl	r7, r8, #1
    23d0:	e08f3003 	add	r3, pc, r3
    23d4:	e0872008 	add	r2, r7, r8
    23d8:	e3a05003 	mov	r5, #3
    23dc:	e0833482 	add	r3, r3, r2, lsl #9
    23e0:	ea000003 	b	23f4 <handle+0xc10>
    23e4:	e2855001 	add	r5, r5, #1
    23e8:	e3550080 	cmp	r5, #128	; 0x80
    23ec:	e283300c 	add	r3, r3, #12
    23f0:	0a00005f 	beq	2574 <handle+0xd90>
    23f4:	e5932024 	ldr	r2, [r3, #36]	; 0x24
    23f8:	e3520000 	cmp	r2, #0
    23fc:	1afffff8 	bne	23e4 <handle+0xc00>
    2400:	e358007f 	cmp	r8, #127	; 0x7f
    2404:	93a03000 	movls	r3, #0
    2408:	83a03001 	movhi	r3, #1
    240c:	e3590080 	cmp	r9, #128	; 0x80
    2410:	03833001 	orreq	r3, r3, #1
    2414:	e3530000 	cmp	r3, #0
    2418:	1a000045 	bne	2534 <handle+0xd50>
    241c:	e0873008 	add	r3, r7, r8
    2420:	e59f82d4 	ldr	r8, [pc, #724]	; 26fc <handle+0xf18>
    2424:	e0899089 	add	r9, r9, r9, lsl #1
    2428:	e1a03483 	lsl	r3, r3, #9
    242c:	e08f8008 	add	r8, pc, r8
    2430:	e0837109 	add	r7, r3, r9, lsl #2
    2434:	e7982007 	ldr	r2, [r8, r7]
    2438:	e3520000 	cmp	r2, #0
    243c:	e0889007 	add	r9, r8, r7
    2440:	0a00004b 	beq	2574 <handle+0xd90>
    2444:	e0852085 	add	r2, r5, r5, lsl #1
    2448:	e0830102 	add	r0, r3, r2, lsl #2
    244c:	e1a01009 	mov	r1, r9
    2450:	e3a0200c 	mov	r2, #12
    2454:	e0880000 	add	r0, r8, r0
    2458:	eb002ea6 	bl	def8 <memcpy>
    245c:	e7982007 	ldr	r2, [r8, r7]
    2460:	e5991004 	ldr	r1, [r9, #4]
    2464:	e5923078 	ldr	r3, [r2, #120]	; 0x78
    2468:	e3110002 	tst	r1, #2
    246c:	e2833001 	add	r3, r3, #1
    2470:	e5823078 	str	r3, [r2, #120]	; 0x78
    2474:	0a000034 	beq	254c <handle+0xd68>
    2478:	e592307c 	ldr	r3, [r2, #124]	; 0x7c
    247c:	e2833001 	add	r3, r3, #1
    2480:	e1a01005 	mov	r1, r5
    2484:	e582307c 	str	r3, [r2, #124]	; 0x7c
    2488:	eaffffc3 	b	239c <handle+0xbb8>
    248c:	e1a00006 	mov	r0, r6
    2490:	eb0026b5 	bl	bf6c <proto_read_int>
    2494:	e1a07000 	mov	r7, r0
    2498:	e1a00006 	mov	r0, r6
    249c:	eb0026b2 	bl	bf6c <proto_read_int>
    24a0:	e1a05000 	mov	r5, r0
    24a4:	eb0025e7 	bl	bc48 <get_proto_factor>
    24a8:	e357007f 	cmp	r7, #127	; 0x7f
    24ac:	e5902014 	ldr	r2, [r0, #20]
    24b0:	8a000021 	bhi	253c <handle+0xd58>
    24b4:	e358007f 	cmp	r8, #127	; 0x7f
    24b8:	8a00001a 	bhi	2528 <handle+0xd44>
    24bc:	e0888088 	add	r8, r8, r8, lsl #1
    24c0:	e59f3238 	ldr	r3, [pc, #568]	; 2700 <handle+0xf1c>
    24c4:	e1a01488 	lsl	r1, r8, #9
    24c8:	e0877087 	add	r7, r7, r7, lsl #1
    24cc:	e08f3003 	add	r3, pc, r3
    24d0:	e0817107 	add	r7, r1, r7, lsl #2
    24d4:	e7931007 	ldr	r1, [r3, r7]
    24d8:	e3510000 	cmp	r1, #0
    24dc:	0a000016 	beq	253c <handle+0xd58>
    24e0:	e0833007 	add	r3, r3, r7
    24e4:	e5835008 	str	r5, [r3, #8]
    24e8:	e1a01005 	mov	r1, r5
    24ec:	eafffd93 	b	1b40 <handle+0x35c>
    24f0:	e1a00006 	mov	r0, r6
    24f4:	eb00269c 	bl	bf6c <proto_read_int>
    24f8:	e2501000 	subs	r1, r0, #0
    24fc:	bafffd0b 	blt	1930 <handle+0x14c>
    2500:	e1a00008 	mov	r0, r8
    2504:	ebfffbcd 	bl	1440 <vfs_close>
    2508:	eafffd08 	b	1930 <handle+0x14c>
    250c:	eb0025cd 	bl	bc48 <get_proto_factor>
    2510:	e3e01000 	mvn	r1, #0
    2514:	e5903014 	ldr	r3, [r0, #20]
    2518:	e1a00004 	mov	r0, r4
    251c:	e1a0e00f 	mov	lr, pc
    2520:	e12fff13 	bx	r3
    2524:	eafffd01 	b	1930 <handle+0x14c>
    2528:	e3a03000 	mov	r3, #0
    252c:	e5933000 	ldr	r3, [r3]
    2530:	e7f000f0 	udf	#0
    2534:	e5923000 	ldr	r3, [r2]
    2538:	e7f000f0 	udf	#0
    253c:	e3e01000 	mvn	r1, #0
    2540:	eafffd7e 	b	1b40 <handle+0x35c>
    2544:	e5973000 	ldr	r3, [r7]
    2548:	e7f000f0 	udf	#0
    254c:	e1a01005 	mov	r1, r5
    2550:	eaffff91 	b	239c <handle+0xbb8>
    2554:	e51b0088 	ldr	r0, [fp, #-136]	; 0x88
    2558:	e3500000 	cmp	r0, #0
    255c:	0afffea3 	beq	1ff0 <handle+0x80c>
    2560:	e1a01005 	mov	r1, r5
    2564:	e2800018 	add	r0, r0, #24
    2568:	eb002e62 	bl	def8 <memcpy>
    256c:	e3a05000 	mov	r5, #0
    2570:	eafffe9f 	b	1ff4 <handle+0x810>
    2574:	e3e01000 	mvn	r1, #0
    2578:	eaffff87 	b	239c <handle+0xbb8>
    257c:	e1a00008 	mov	r0, r8
    2580:	e1a01007 	mov	r1, r7
    2584:	ebfffbad 	bl	1440 <vfs_close>
    2588:	e1a00005 	mov	r0, r5
    258c:	eb002b45 	bl	d2a8 <free>
    2590:	eafffce6 	b	1930 <handle+0x14c>
    2594:	e0888088 	add	r8, r8, r8, lsl #1
    2598:	e59f2164 	ldr	r2, [pc, #356]	; 2704 <handle+0xf20>
    259c:	e1a03488 	lsl	r3, r8, #9
    25a0:	e0800080 	add	r0, r0, r0, lsl #1
    25a4:	e08f2002 	add	r2, pc, r2
    25a8:	e0830100 	add	r0, r3, r0, lsl #2
    25ac:	e7927000 	ldr	r7, [r2, r0]
    25b0:	e3570000 	cmp	r7, #0
    25b4:	0affff16 	beq	2214 <handle+0xa30>
    25b8:	eb0025a2 	bl	bc48 <get_proto_factor>
    25bc:	e59f5144 	ldr	r5, [pc, #324]	; 2708 <handle+0xf24>
    25c0:	e08f5005 	add	r5, pc, r5
    25c4:	e2856f77 	add	r6, r5, #476	; 0x1dc
    25c8:	e2871018 	add	r1, r7, #24
    25cc:	e5908010 	ldr	r8, [r0, #16]
    25d0:	e3a0205c 	mov	r2, #92	; 0x5c
    25d4:	e1a00006 	mov	r0, r6
    25d8:	eb002e46 	bl	def8 <memcpy>
    25dc:	e1a00007 	mov	r0, r7
    25e0:	ebfffac6 	bl	1100 <get_mount_pid>
    25e4:	e1a01006 	mov	r1, r6
    25e8:	e5850230 	str	r0, [r5, #560]	; 0x230
    25ec:	e3a0205c 	mov	r2, #92	; 0x5c
    25f0:	e1a00004 	mov	r0, r4
    25f4:	e1a0e00f 	mov	lr, pc
    25f8:	e12fff18 	bx	r8
    25fc:	eafffccb 	b	1930 <handle+0x14c>
    2600:	e1a01009 	mov	r1, r9
    2604:	eaffff64 	b	239c <handle+0xbb8>
    2608:	e3550000 	cmp	r5, #0
    260c:	0afffcc7 	beq	1930 <handle+0x14c>
    2610:	e5953078 	ldr	r3, [r5, #120]	; 0x78
    2614:	e3530001 	cmp	r3, #1
    2618:	9afffcc4 	bls	1930 <handle+0x14c>
    261c:	eb002589 	bl	bc48 <get_proto_factor>
    2620:	e590300c 	ldr	r3, [r0, #12]
    2624:	e1a00004 	mov	r0, r4
    2628:	e1a0e00f 	mov	lr, pc
    262c:	e12fff13 	bx	r3
    2630:	e1a01007 	mov	r1, r7
    2634:	e5903014 	ldr	r3, [r0, #20]
    2638:	e1a00004 	mov	r0, r4
    263c:	e1a0e00f 	mov	lr, pc
    2640:	e12fff13 	bx	r3
    2644:	eafffcb9 	b	1930 <handle+0x14c>
    2648:	e59f10bc 	ldr	r1, [pc, #188]	; 270c <handle+0xf28>
    264c:	e08f1001 	add	r1, pc, r1
    2650:	e58151d8 	str	r5, [r1, #472]	; 0x1d8
    2654:	eafffcad 	b	1910 <handle+0x12c>
    2658:	eb00257a 	bl	bc48 <get_proto_factor>
    265c:	e590300c 	ldr	r3, [r0, #12]
    2660:	e1a00004 	mov	r0, r4
    2664:	e1a0e00f 	mov	lr, pc
    2668:	e12fff13 	bx	r3
    266c:	e1a01006 	mov	r1, r6
    2670:	e5903014 	ldr	r3, [r0, #20]
    2674:	e1a00004 	mov	r0, r4
    2678:	e1a0e00f 	mov	lr, pc
    267c:	e12fff13 	bx	r3
    2680:	eafffcaa 	b	1930 <handle+0x14c>
    2684:	e1a00005 	mov	r0, r5
    2688:	eb002b06 	bl	d2a8 <free>
    268c:	e3570000 	cmp	r7, #0
    2690:	0afffca6 	beq	1930 <handle+0x14c>
    2694:	e5973078 	ldr	r3, [r7, #120]	; 0x78
    2698:	e3530001 	cmp	r3, #1
    269c:	9afffca3 	bls	1930 <handle+0x14c>
    26a0:	eafffe81 	b	20ac <handle+0x8c8>
    26a4:	e1a00005 	mov	r0, r5
    26a8:	eb002afe 	bl	d2a8 <free>
    26ac:	e5943074 	ldr	r3, [r4, #116]	; 0x74
    26b0:	e1a02303 	lsl	r2, r3, #6
    26b4:	eafffc95 	b	1910 <handle+0x12c>
    26b8:	000465f4 	strdeq	r6, [r4], -r4
    26bc:	00046588 	andeq	r6, r4, r8, lsl #11
    26c0:	00016600 	andeq	r6, r1, r0, lsl #12
    26c4:	00016580 	andeq	r6, r1, r0, lsl #11
    26c8:	00000408 	andeq	r0, r0, r8, lsl #8
    26cc:	000164a0 	andeq	r6, r1, r0, lsr #9
    26d0:	0001642c 	andeq	r6, r1, ip, lsr #8
    26d4:	000462b8 			; <UNDEFINED> instruction: 0x000462b8
    26d8:	00046280 	andeq	r6, r4, r0, lsl #5
    26dc:	0000d8c8 	andeq	sp, r0, r8, asr #17
    26e0:	0004a1d8 	ldrdeq	sl, [r4], -r8
    26e4:	000001ff 	strdeq	r0, [r0], -pc	; <UNPREDICTABLE>
    26e8:	00016014 	andeq	r6, r1, r4, lsl r0
    26ec:	00049c20 	andeq	r9, r4, r0, lsr #24
    26f0:	00015c34 	andeq	r5, r1, r4, lsr ip
    26f4:	00015bf4 	strdeq	r5, [r1], -r4
    26f8:	00015b8c 	andeq	r5, r1, ip, lsl #23
    26fc:	00015b30 	andeq	r5, r1, r0, lsr fp
    2700:	00015a90 	muleq	r1, r0, sl
    2704:	000159b8 			; <UNDEFINED> instruction: 0x000159b8
    2708:	000498cc 	andeq	r9, r4, ip, asr #17
    270c:	00049840 	andeq	r9, r4, r0, asr #16

00002710 <vfsd_main>:
    2710:	e1a0c00d 	mov	ip, sp
    2714:	e3a02000 	mov	r2, #0
    2718:	e92dd9f0 	push	{r4, r5, r6, r7, r8, fp, ip, lr, pc}
    271c:	e59f31c4 	ldr	r3, [pc, #452]	; 28e8 <vfsd_main+0x1d8>
    2720:	e59f01c4 	ldr	r0, [pc, #452]	; 28ec <vfsd_main+0x1dc>
    2724:	e24cb004 	sub	fp, ip, #4
    2728:	e24dd08c 	sub	sp, sp, #140	; 0x8c
    272c:	e08f3003 	add	r3, pc, r3
    2730:	e08f0000 	add	r0, pc, r0
    2734:	e58321d0 	str	r2, [r3, #464]	; 0x1d0
    2738:	e58321d4 	str	r2, [r3, #468]	; 0x1d4
    273c:	eb002011 	bl	a788 <ipc_serv_reg>
    2740:	e3500000 	cmp	r0, #0
    2744:	1a000060 	bne	28cc <vfsd_main+0x1bc>
    2748:	e59f41a0 	ldr	r4, [pc, #416]	; 28f0 <vfsd_main+0x1e0>
    274c:	e08f4004 	add	r4, pc, r4
    2750:	e28440c0 	add	r4, r4, #192	; 0xc0
    2754:	e2845c41 	add	r5, r4, #16640	; 0x4100
    2758:	e1a00004 	mov	r0, r4
    275c:	e3a01000 	mov	r1, #0
    2760:	e2844f82 	add	r4, r4, #520	; 0x208
    2764:	e3a02f82 	mov	r2, #520	; 0x208
    2768:	eb002e1e 	bl	dfe8 <memset>
    276c:	e1540005 	cmp	r4, r5
    2770:	1afffff8 	bne	2758 <vfsd_main+0x48>
    2774:	e59f4178 	ldr	r4, [pc, #376]	; 28f4 <vfsd_main+0x1e4>
    2778:	e08f4004 	add	r4, pc, r4
    277c:	e2846803 	add	r6, r4, #196608	; 0x30000
    2780:	e2845c06 	add	r5, r4, #1536	; 0x600
    2784:	e1a00004 	mov	r0, r4
    2788:	e3a01000 	mov	r1, #0
    278c:	e284400c 	add	r4, r4, #12
    2790:	e3a0200c 	mov	r2, #12
    2794:	eb002e13 	bl	dfe8 <memset>
    2798:	e1550004 	cmp	r5, r4
    279c:	1afffff8 	bne	2784 <vfsd_main+0x74>
    27a0:	e1560005 	cmp	r6, r5
    27a4:	e1a04005 	mov	r4, r5
    27a8:	1afffff4 	bne	2780 <vfsd_main+0x70>
    27ac:	ebfffa5f 	bl	1130 <vfs_new_node>
    27b0:	e1a03000 	mov	r3, r0
    27b4:	e59f613c 	ldr	r6, [pc, #316]	; 28f8 <vfsd_main+0x1e8>
    27b8:	e59f113c 	ldr	r1, [pc, #316]	; 28fc <vfsd_main+0x1ec>
    27bc:	e3a02002 	mov	r2, #2
    27c0:	e08f1001 	add	r1, pc, r1
    27c4:	e08f6006 	add	r6, pc, r6
    27c8:	e280001c 	add	r0, r0, #28
    27cc:	e58631d8 	str	r3, [r6, #472]	; 0x1d8
    27d0:	eb002dc8 	bl	def8 <memcpy>
    27d4:	e59f0124 	ldr	r0, [pc, #292]	; 2900 <vfsd_main+0x1f0>
    27d8:	e3a01000 	mov	r1, #0
    27dc:	e08f0000 	add	r0, pc, r0
    27e0:	e3a02001 	mov	r2, #1
    27e4:	eb0020c2 	bl	aaf4 <ipc_serv_run>
    27e8:	e24b8090 	sub	r8, fp, #144	; 0x90
    27ec:	e24b40a8 	sub	r4, fp, #168	; 0xa8
    27f0:	e24b7084 	sub	r7, fp, #132	; 0x84
    27f4:	ea00002b 	b	28a8 <vfsd_main+0x198>
    27f8:	eb001f52 	bl	a548 <ipc_lock>
    27fc:	e59631d4 	ldr	r3, [r6, #468]	; 0x1d4
    2800:	e5933068 	ldr	r3, [r3, #104]	; 0x68
    2804:	e3a0206c 	mov	r2, #108	; 0x6c
    2808:	e3530000 	cmp	r3, #0
    280c:	e1a01005 	mov	r1, r5
    2810:	e1a00008 	mov	r0, r8
    2814:	058631d0 	streq	r3, [r6, #464]	; 0x1d0
    2818:	e58631d4 	str	r3, [r6, #468]	; 0x1d4
    281c:	eb002db5 	bl	def8 <memcpy>
    2820:	e1a00005 	mov	r0, r5
    2824:	eb002a9f 	bl	d2a8 <free>
    2828:	eb001f4e 	bl	a568 <ipc_unlock>
    282c:	eb002505 	bl	bc48 <get_proto_factor>
    2830:	e5903004 	ldr	r3, [r0, #4]
    2834:	e1a00004 	mov	r0, r4
    2838:	e1a0e00f 	mov	lr, pc
    283c:	e12fff13 	bx	r3
    2840:	e51b1090 	ldr	r1, [fp, #-144]	; 0x90
    2844:	e5903014 	ldr	r3, [r0, #20]
    2848:	e1a00004 	mov	r0, r4
    284c:	e1a0e00f 	mov	lr, pc
    2850:	e12fff13 	bx	r3
    2854:	e51b108c 	ldr	r1, [fp, #-140]	; 0x8c
    2858:	e5903014 	ldr	r3, [r0, #20]
    285c:	e1a00004 	mov	r0, r4
    2860:	e1a0e00f 	mov	lr, pc
    2864:	e12fff13 	bx	r3
    2868:	e1a01007 	mov	r1, r7
    286c:	e5903010 	ldr	r3, [r0, #16]
    2870:	e3a0205c 	mov	r2, #92	; 0x5c
    2874:	e1a00004 	mov	r0, r4
    2878:	e1a0e00f 	mov	lr, pc
    287c:	e12fff13 	bx	r3
    2880:	e3a03000 	mov	r3, #0
    2884:	e3a01003 	mov	r1, #3
    2888:	e1a02004 	mov	r2, r4
    288c:	e51b0088 	ldr	r0, [fp, #-136]	; 0x88
    2890:	eb001f3c 	bl	a588 <ipc_call>
    2894:	eb0024eb 	bl	bc48 <get_proto_factor>
    2898:	e590300c 	ldr	r3, [r0, #12]
    289c:	e1a00004 	mov	r0, r4
    28a0:	e1a0e00f 	mov	lr, pc
    28a4:	e12fff13 	bx	r3
    28a8:	e59651d4 	ldr	r5, [r6, #468]	; 0x1d4
    28ac:	e3550000 	cmp	r5, #0
    28b0:	1affffd0 	bne	27f8 <vfsd_main+0xe8>
    28b4:	eb002924 	bl	cd4c <getpid>
    28b8:	e59611d8 	ldr	r1, [r6, #472]	; 0x1d8
    28bc:	eb002848 	bl	c9e4 <proc_block>
    28c0:	e1a00005 	mov	r0, r5
    28c4:	eb00298d 	bl	cf00 <sleep>
    28c8:	eafffff6 	b	28a8 <vfsd_main+0x198>
    28cc:	e59f0030 	ldr	r0, [pc, #48]	; 2904 <vfsd_main+0x1f4>
    28d0:	e08f0000 	add	r0, pc, r0
    28d4:	eb001678 	bl	82bc <klog>
    28d8:	e3e00000 	mvn	r0, #0
    28dc:	e24bd020 	sub	sp, fp, #32
    28e0:	e89d69f0 	ldm	sp, {r4, r5, r6, r7, r8, fp, sp, lr}
    28e4:	e12fff1e 	bx	lr
    28e8:	00049760 	andeq	r9, r4, r0, ror #14
    28ec:	0000cd34 	andeq	ip, r0, r4, lsr sp
    28f0:	00045750 	andeq	r5, r4, r0, asr r7
    28f4:	000157e4 	andeq	r5, r1, r4, ror #15
    28f8:	000496c8 	andeq	r9, r4, r8, asr #13
    28fc:	0000cca0 	andeq	ip, r0, r0, lsr #25
    2900:	fffff000 			; <UNDEFINED> instruction: 0xfffff000
    2904:	0000cba4 	andeq	ip, r0, r4, lsr #23

00002908 <memfs_read>:
    2908:	e1a0c00d 	mov	ip, sp
    290c:	e92dd818 	push	{r3, r4, fp, ip, lr, pc}
    2910:	e24cb004 	sub	fp, ip, #4
    2914:	e5924048 	ldr	r4, [r2, #72]	; 0x48
    2918:	e59b1008 	ldr	r1, [fp, #8]
    291c:	e59b0004 	ldr	r0, [fp, #4]
    2920:	e0614004 	rsb	r4, r1, r4
    2924:	e1540000 	cmp	r4, r0
    2928:	a1a04000 	movge	r4, r0
    292c:	e3540000 	cmp	r4, #0
    2930:	e5922058 	ldr	r2, [r2, #88]	; 0x58
    2934:	ba000007 	blt	2958 <memfs_read+0x50>
    2938:	10821001 	addne	r1, r2, r1
    293c:	11a00003 	movne	r0, r3
    2940:	11a02004 	movne	r2, r4
    2944:	1b002d6b 	blne	def8 <memcpy>
    2948:	e1a00004 	mov	r0, r4
    294c:	e24bd014 	sub	sp, fp, #20
    2950:	e89d6818 	ldm	sp, {r3, r4, fp, sp, lr}
    2954:	e12fff1e 	bx	lr
    2958:	e3e04000 	mvn	r4, #0
    295c:	eafffff9 	b	2948 <memfs_read+0x40>

00002960 <add_nodes>:
    2960:	e1a0c00d 	mov	ip, sp
    2964:	e92ddff0 	push	{r4, r5, r6, r7, r8, r9, sl, fp, ip, lr, pc}
    2968:	e24cb004 	sub	fp, ip, #4
    296c:	e24ddf9b 	sub	sp, sp, #620	; 0x26c
    2970:	e1a07000 	mov	r7, r0
    2974:	e1a04001 	mov	r4, r1
    2978:	e24b9e23 	sub	r9, fp, #560	; 0x230
    297c:	e24b5fa3 	sub	r5, fp, #652	; 0x28c
    2980:	e24b6fa2 	sub	r6, fp, #648	; 0x288
    2984:	e3a0002f 	mov	r0, #47	; 0x2f
    2988:	e1a01004 	mov	r1, r4
    298c:	e1a02009 	mov	r2, r9
    2990:	e3a03000 	mov	r3, #0
    2994:	eb001469 	bl	7b40 <syscall3>
    2998:	e2508000 	subs	r8, r0, #0
    299c:	ba000053 	blt	2af0 <add_nodes+0x190>
    29a0:	e55b3230 	ldrb	r3, [fp, #-560]	; 0x230
    29a4:	e3530000 	cmp	r3, #0
    29a8:	0a000026 	beq	2a48 <add_nodes+0xe8>
    29ac:	e1a00009 	mov	r0, r9
    29b0:	eb002ee6 	bl	e550 <strlen>
    29b4:	e2400001 	sub	r0, r0, #1
    29b8:	e7d93000 	ldrb	r3, [r9, r0]
    29bc:	e353002f 	cmp	r3, #47	; 0x2f
    29c0:	e0890000 	add	r0, r9, r0
    29c4:	1a000003 	bne	29d8 <add_nodes+0x78>
    29c8:	ea000041 	b	2ad4 <add_nodes+0x174>
    29cc:	e5703001 	ldrb	r3, [r0, #-1]!
    29d0:	e353002f 	cmp	r3, #47	; 0x2f
    29d4:	0a00003e 	beq	2ad4 <add_nodes+0x174>
    29d8:	e1500009 	cmp	r0, r9
    29dc:	1afffffa 	bne	29cc <add_nodes+0x6c>
    29e0:	e3580000 	cmp	r8, #0
    29e4:	1a00001d 	bne	2a60 <add_nodes+0x100>
    29e8:	e1a0a009 	mov	sl, r9
    29ec:	e3a0205c 	mov	r2, #92	; 0x5c
    29f0:	e3a01000 	mov	r1, #0
    29f4:	e1a00005 	mov	r0, r5
    29f8:	eb002d7a 	bl	dfe8 <memset>
    29fc:	e1a0100a 	mov	r1, sl
    2a00:	e1a00006 	mov	r0, r6
    2a04:	eb002e95 	bl	e460 <strcpy>
    2a08:	e3a03b01 	mov	r3, #1024	; 0x400
    2a0c:	e3a02000 	mov	r2, #0
    2a10:	e1a00005 	mov	r0, r5
    2a14:	e50b2248 	str	r2, [fp, #-584]	; 0x248
    2a18:	e50b3244 	str	r3, [fp, #-580]	; 0x244
    2a1c:	eb0016bd 	bl	8518 <vfs_new_node>
    2a20:	e1a00007 	mov	r0, r7
    2a24:	e1a01005 	mov	r1, r5
    2a28:	eb0018a6 	bl	8cc8 <vfs_add>
    2a2c:	e3500000 	cmp	r0, #0
    2a30:	1a000032 	bne	2b00 <add_nodes+0x1a0>
    2a34:	e2841001 	add	r1, r4, #1
    2a38:	e1a00005 	mov	r0, r5
    2a3c:	ebffffc7 	bl	2960 <add_nodes>
    2a40:	e1a04000 	mov	r4, r0
    2a44:	eaffffce 	b	2984 <add_nodes+0x24>
    2a48:	e3580000 	cmp	r8, #0
    2a4c:	1a000003 	bne	2a60 <add_nodes+0x100>
    2a50:	e2840001 	add	r0, r4, #1
    2a54:	e24bd028 	sub	sp, fp, #40	; 0x28
    2a58:	e89d6ff0 	ldm	sp, {r4, r5, r6, r7, r8, r9, sl, fp, sp, lr}
    2a5c:	e12fff1e 	bx	lr
    2a60:	e1a0a009 	mov	sl, r9
    2a64:	e1a00008 	mov	r0, r8
    2a68:	eb002a17 	bl	d2cc <malloc>
    2a6c:	e1a01004 	mov	r1, r4
    2a70:	e1a03000 	mov	r3, r0
    2a74:	e1a08000 	mov	r8, r0
    2a78:	e3a02000 	mov	r2, #0
    2a7c:	e3a0002f 	mov	r0, #47	; 0x2f
    2a80:	eb00142e 	bl	7b40 <syscall3>
    2a84:	e3a0205c 	mov	r2, #92	; 0x5c
    2a88:	e50b0290 	str	r0, [fp, #-656]	; 0x290
    2a8c:	e3a01000 	mov	r1, #0
    2a90:	e1a00005 	mov	r0, r5
    2a94:	eb002d53 	bl	dfe8 <memset>
    2a98:	e1a0100a 	mov	r1, sl
    2a9c:	e1a00006 	mov	r0, r6
    2aa0:	eb002e6e 	bl	e460 <strcpy>
    2aa4:	e3a02001 	mov	r2, #1
    2aa8:	e51b3290 	ldr	r3, [fp, #-656]	; 0x290
    2aac:	e1a00005 	mov	r0, r5
    2ab0:	e50b3244 	str	r3, [fp, #-580]	; 0x244
    2ab4:	e50b8234 	str	r8, [fp, #-564]	; 0x234
    2ab8:	e50b2248 	str	r2, [fp, #-584]	; 0x248
    2abc:	eb001695 	bl	8518 <vfs_new_node>
    2ac0:	e1a00007 	mov	r0, r7
    2ac4:	e1a01005 	mov	r1, r5
    2ac8:	e2844001 	add	r4, r4, #1
    2acc:	eb00187d 	bl	8cc8 <vfs_add>
    2ad0:	eaffffab 	b	2984 <add_nodes+0x24>
    2ad4:	e3580000 	cmp	r8, #0
    2ad8:	e280a001 	add	sl, r0, #1
    2adc:	1affffe0 	bne	2a64 <add_nodes+0x104>
    2ae0:	e5d03001 	ldrb	r3, [r0, #1]
    2ae4:	e3530000 	cmp	r3, #0
    2ae8:	1affffbf 	bne	29ec <add_nodes+0x8c>
    2aec:	eaffffd7 	b	2a50 <add_nodes+0xf0>
    2af0:	e3e00000 	mvn	r0, #0
    2af4:	e24bd028 	sub	sp, fp, #40	; 0x28
    2af8:	e89d6ff0 	ldm	sp, {r4, r5, r6, r7, r8, r9, sl, fp, sp, lr}
    2afc:	e12fff1e 	bx	lr
    2b00:	e1a00005 	mov	r0, r5
    2b04:	eb0018a6 	bl	8da4 <vfs_del>
    2b08:	eaffffc9 	b	2a34 <add_nodes+0xd4>

00002b0c <memfs_mount>:
    2b0c:	e1a0c00d 	mov	ip, sp
    2b10:	e3a01000 	mov	r1, #0
    2b14:	e92dd800 	push	{fp, ip, lr, pc}
    2b18:	e24cb004 	sub	fp, ip, #4
    2b1c:	ebffff8f 	bl	2960 <add_nodes>
    2b20:	e3a00000 	mov	r0, #0
    2b24:	e24bd00c 	sub	sp, fp, #12
    2b28:	e89d6800 	ldm	sp, {fp, sp, lr}
    2b2c:	e12fff1e 	bx	lr

00002b30 <romfsd_main>:
    2b30:	e1a0c00d 	mov	ip, sp
    2b34:	e92dd810 	push	{r4, fp, ip, lr, pc}
    2b38:	e24cb004 	sub	fp, ip, #4
    2b3c:	e24dd094 	sub	sp, sp, #148	; 0x94
    2b40:	e24b40a0 	sub	r4, fp, #160	; 0xa0
    2b44:	e1a00004 	mov	r0, r4
    2b48:	e3a01000 	mov	r1, #0
    2b4c:	e3a0208c 	mov	r2, #140	; 0x8c
    2b50:	eb002d24 	bl	dfe8 <memset>
    2b54:	e59f1048 	ldr	r1, [pc, #72]	; 2ba4 <romfsd_main+0x74>
    2b58:	e24b009f 	sub	r0, fp, #159	; 0x9f
    2b5c:	e08f1001 	add	r1, pc, r1
    2b60:	e3a0200c 	mov	r2, #12
    2b64:	eb002ce3 	bl	def8 <memcpy>
    2b68:	e59fc038 	ldr	ip, [pc, #56]	; 2ba8 <romfsd_main+0x78>
    2b6c:	e59f3038 	ldr	r3, [pc, #56]	; 2bac <romfsd_main+0x7c>
    2b70:	e59f1038 	ldr	r1, [pc, #56]	; 2bb0 <romfsd_main+0x80>
    2b74:	e08fc00c 	add	ip, pc, ip
    2b78:	e08f3003 	add	r3, pc, r3
    2b7c:	e1a00004 	mov	r0, r4
    2b80:	e08f1001 	add	r1, pc, r1
    2b84:	e3a02000 	mov	r2, #0
    2b88:	e50bc02c 	str	ip, [fp, #-44]	; 0x2c
    2b8c:	e50b3048 	str	r3, [fp, #-72]	; 0x48
    2b90:	eb002264 	bl	b528 <device_run>
    2b94:	e3a00000 	mov	r0, #0
    2b98:	e24bd010 	sub	sp, fp, #16
    2b9c:	e89d6810 	ldm	sp, {r4, fp, sp, lr}
    2ba0:	e12fff1e 	bx	lr
    2ba4:	0000c934 	andeq	ip, r0, r4, lsr r9
    2ba8:	ffffff90 			; <UNDEFINED> instruction: 0xffffff90
    2bac:	fffffd88 			; <UNDEFINED> instruction: 0xfffffd88
    2bb0:	0000c8e0 	andeq	ip, r0, r0, ror #17

00002bb4 <sdext2_unlink>:
    2bb4:	e1a0c00d 	mov	ip, sp
    2bb8:	e1a00002 	mov	r0, r2
    2bbc:	e92dd800 	push	{fp, ip, lr, pc}
    2bc0:	e24cb004 	sub	fp, ip, #4
    2bc4:	eb0006ca 	bl	46f4 <ext2_unlink>
    2bc8:	e24bd00c 	sub	sp, fp, #12
    2bcc:	e89d6800 	ldm	sp, {fp, sp, lr}
    2bd0:	e12fff1e 	bx	lr

00002bd4 <sdext2_create>:
    2bd4:	e1a0c00d 	mov	ip, sp
    2bd8:	e92dd9f0 	push	{r4, r5, r6, r7, r8, fp, ip, lr, pc}
    2bdc:	e24cb004 	sub	fp, ip, #4
    2be0:	e24dd084 	sub	sp, sp, #132	; 0x84
    2be4:	e5904058 	ldr	r4, [r0, #88]	; 0x58
    2be8:	e3540000 	cmp	r4, #0
    2bec:	03a04002 	moveq	r4, #2
    2bf0:	e24b60a4 	sub	r6, fp, #164	; 0xa4
    2bf4:	e1a00002 	mov	r0, r2
    2bf8:	e1a07002 	mov	r7, r2
    2bfc:	e1a05001 	mov	r5, r1
    2c00:	e1a02006 	mov	r2, r6
    2c04:	e1a01004 	mov	r1, r4
    2c08:	eb00080a 	bl	4c38 <ext2_node_by_ino>
    2c0c:	e3500000 	cmp	r0, #0
    2c10:	1a00001c 	bne	2c88 <sdext2_create+0xb4>
    2c14:	e5953044 	ldr	r3, [r5, #68]	; 0x44
    2c18:	e3530000 	cmp	r3, #0
    2c1c:	0a000010 	beq	2c64 <sdext2_create+0x90>
    2c20:	e1a00007 	mov	r0, r7
    2c24:	e1a01006 	mov	r1, r6
    2c28:	e2852004 	add	r2, r5, #4
    2c2c:	e595304c 	ldr	r3, [r5, #76]	; 0x4c
    2c30:	eb0005ea 	bl	43e0 <ext2_create_file>
    2c34:	e1a08000 	mov	r8, r0
    2c38:	e3780001 	cmn	r8, #1
    2c3c:	0a000011 	beq	2c88 <sdext2_create+0xb4>
    2c40:	e1a00007 	mov	r0, r7
    2c44:	e1a01004 	mov	r1, r4
    2c48:	e1a02006 	mov	r2, r6
    2c4c:	eb00057c 	bl	4244 <put_node>
    2c50:	e3a00000 	mov	r0, #0
    2c54:	e5858058 	str	r8, [r5, #88]	; 0x58
    2c58:	e24bd020 	sub	sp, fp, #32
    2c5c:	e89d69f0 	ldm	sp, {r4, r5, r6, r7, r8, fp, sp, lr}
    2c60:	e12fff1e 	bx	lr
    2c64:	e3a03b01 	mov	r3, #1024	; 0x400
    2c68:	e1a00007 	mov	r0, r7
    2c6c:	e5853048 	str	r3, [r5, #72]	; 0x48
    2c70:	e1a01006 	mov	r1, r6
    2c74:	e2852004 	add	r2, r5, #4
    2c78:	e595304c 	ldr	r3, [r5, #76]	; 0x4c
    2c7c:	eb00059f 	bl	4300 <ext2_create_dir>
    2c80:	e1a08000 	mov	r8, r0
    2c84:	eaffffeb 	b	2c38 <sdext2_create+0x64>
    2c88:	e3e00000 	mvn	r0, #0
    2c8c:	eafffff1 	b	2c58 <sdext2_create+0x84>

00002c90 <sdext2_write>:
    2c90:	e1a0c00d 	mov	ip, sp
    2c94:	e92dd8f0 	push	{r4, r5, r6, r7, fp, ip, lr, pc}
    2c98:	e24cb004 	sub	fp, ip, #4
    2c9c:	e24dd088 	sub	sp, sp, #136	; 0x88
    2ca0:	e5924058 	ldr	r4, [r2, #88]	; 0x58
    2ca4:	e3540000 	cmp	r4, #0
    2ca8:	03a04002 	moveq	r4, #2
    2cac:	e24b709c 	sub	r7, fp, #156	; 0x9c
    2cb0:	e1a06002 	mov	r6, r2
    2cb4:	e1a01004 	mov	r1, r4
    2cb8:	e59b000c 	ldr	r0, [fp, #12]
    2cbc:	e1a02007 	mov	r2, r7
    2cc0:	e1a05003 	mov	r5, r3
    2cc4:	eb0007db 	bl	4c38 <ext2_node_by_ino>
    2cc8:	e3500000 	cmp	r0, #0
    2ccc:	1a000019 	bne	2d38 <sdext2_write+0xa8>
    2cd0:	e59b3008 	ldr	r3, [fp, #8]
    2cd4:	e1a02005 	mov	r2, r5
    2cd8:	e58d3000 	str	r3, [sp]
    2cdc:	e59b000c 	ldr	r0, [fp, #12]
    2ce0:	e1a01007 	mov	r1, r7
    2ce4:	e59b3004 	ldr	r3, [fp, #4]
    2ce8:	eb0005ee 	bl	44a8 <ext2_write>
    2cec:	e2505000 	subs	r5, r0, #0
    2cf0:	b1a00005 	movlt	r0, r5
    2cf4:	ba00000c 	blt	2d2c <sdext2_write+0x9c>
    2cf8:	e5960048 	ldr	r0, [r6, #72]	; 0x48
    2cfc:	e51b3098 	ldr	r3, [fp, #-152]	; 0x98
    2d00:	e0800005 	add	r0, r0, r5
    2d04:	e0833005 	add	r3, r3, r5
    2d08:	e1a01004 	mov	r1, r4
    2d0c:	e1a02007 	mov	r2, r7
    2d10:	e5860048 	str	r0, [r6, #72]	; 0x48
    2d14:	e59b000c 	ldr	r0, [fp, #12]
    2d18:	e50b3098 	str	r3, [fp, #-152]	; 0x98
    2d1c:	eb000548 	bl	4244 <put_node>
    2d20:	e1a00006 	mov	r0, r6
    2d24:	eb0017b7 	bl	8c08 <vfs_set>
    2d28:	e1a00005 	mov	r0, r5
    2d2c:	e24bd01c 	sub	sp, fp, #28
    2d30:	e89d68f0 	ldm	sp, {r4, r5, r6, r7, fp, sp, lr}
    2d34:	e12fff1e 	bx	lr
    2d38:	e3e00000 	mvn	r0, #0
    2d3c:	eafffffa 	b	2d2c <sdext2_write+0x9c>

00002d40 <sdext2_read>:
    2d40:	e1a0c00d 	mov	ip, sp
    2d44:	e92dd9f0 	push	{r4, r5, r6, r7, r8, fp, ip, lr, pc}
    2d48:	e24cb004 	sub	fp, ip, #4
    2d4c:	e24dd08c 	sub	sp, sp, #140	; 0x8c
    2d50:	e5921058 	ldr	r1, [r2, #88]	; 0x58
    2d54:	e24b50a4 	sub	r5, fp, #164	; 0xa4
    2d58:	e3510000 	cmp	r1, #0
    2d5c:	03a01002 	moveq	r1, #2
    2d60:	e1a04002 	mov	r4, r2
    2d64:	e59b000c 	ldr	r0, [fp, #12]
    2d68:	e1a02005 	mov	r2, r5
    2d6c:	e1a07003 	mov	r7, r3
    2d70:	e59b8004 	ldr	r8, [fp, #4]
    2d74:	e59b6008 	ldr	r6, [fp, #8]
    2d78:	eb0007ae 	bl	4c38 <ext2_node_by_ino>
    2d7c:	e3500000 	cmp	r0, #0
    2d80:	1a00000f 	bne	2dc4 <sdext2_read+0x84>
    2d84:	e5943048 	ldr	r3, [r4, #72]	; 0x48
    2d88:	e0663003 	rsb	r3, r6, r3
    2d8c:	e1530008 	cmp	r3, r8
    2d90:	a1a03008 	movge	r3, r8
    2d94:	e3530000 	cmp	r3, #0
    2d98:	ba000009 	blt	2dc4 <sdext2_read+0x84>
    2d9c:	01a00003 	moveq	r0, r3
    2da0:	0a000004 	beq	2db8 <sdext2_read+0x78>
    2da4:	e58d6000 	str	r6, [sp]
    2da8:	e1a01005 	mov	r1, r5
    2dac:	e1a02007 	mov	r2, r7
    2db0:	e59b000c 	ldr	r0, [fp, #12]
    2db4:	eb000501 	bl	41c0 <ext2_read>
    2db8:	e24bd020 	sub	sp, fp, #32
    2dbc:	e89d69f0 	ldm	sp, {r4, r5, r6, r7, r8, fp, sp, lr}
    2dc0:	e12fff1e 	bx	lr
    2dc4:	e3e00000 	mvn	r0, #0
    2dc8:	e24bd020 	sub	sp, fp, #32
    2dcc:	e89d69f0 	ldm	sp, {r4, r5, r6, r7, r8, fp, sp, lr}
    2dd0:	e12fff1e 	bx	lr

00002dd4 <add_nodes>:
    2dd4:	e1a0c00d 	mov	ip, sp
    2dd8:	e92ddff0 	push	{r4, r5, r6, r7, r8, r9, sl, fp, ip, lr, pc}
    2ddc:	e24cb004 	sub	fp, ip, #4
    2de0:	e24ddc05 	sub	sp, sp, #1280	; 0x500
    2de4:	e24b3e4f 	sub	r3, fp, #1264	; 0x4f0
    2de8:	e243300c 	sub	r3, r3, #12
    2dec:	e24dd004 	sub	sp, sp, #4
    2df0:	e50b3528 	str	r3, [fp, #-1320]	; 0x528
    2df4:	e243300c 	sub	r3, r3, #12
    2df8:	e59f8218 	ldr	r8, [pc, #536]	; 3018 <add_nodes+0x244>
    2dfc:	e59fa218 	ldr	sl, [pc, #536]	; 301c <add_nodes+0x248>
    2e00:	e50b3520 	str	r3, [fp, #-1312]	; 0x520
    2e04:	e24b3e42 	sub	r3, fp, #1056	; 0x420
    2e08:	e243300c 	sub	r3, r3, #12
    2e0c:	e50b0510 	str	r0, [fp, #-1296]	; 0x510
    2e10:	e50b2524 	str	r2, [fp, #-1316]	; 0x524
    2e14:	e08f8008 	add	r8, pc, r8
    2e18:	e08fa00a 	add	sl, pc, sl
    2e1c:	e2817024 	add	r7, r1, #36	; 0x24
    2e20:	e2819054 	add	r9, r1, #84	; 0x54
    2e24:	e50b3514 	str	r3, [fp, #-1300]	; 0x514
    2e28:	ea000001 	b	2e34 <add_nodes+0x60>
    2e2c:	e1570009 	cmp	r7, r9
    2e30:	0a000056 	beq	2f90 <add_nodes+0x1bc>
    2e34:	e5b70004 	ldr	r0, [r7, #4]!
    2e38:	e3500000 	cmp	r0, #0
    2e3c:	0afffffa 	beq	2e2c <add_nodes+0x58>
    2e40:	e51b3510 	ldr	r3, [fp, #-1296]	; 0x510
    2e44:	e51b1514 	ldr	r1, [fp, #-1300]	; 0x514
    2e48:	e593c408 	ldr	ip, [r3, #1032]	; 0x408
    2e4c:	e1a0e00f 	mov	lr, pc
    2e50:	e12fff1c 	bx	ip
    2e54:	e51b342c 	ldr	r3, [fp, #-1068]	; 0x42c
    2e58:	e3530000 	cmp	r3, #0
    2e5c:	0afffff2 	beq	2e2c <add_nodes+0x58>
    2e60:	e3a02000 	mov	r2, #0
    2e64:	e55b3426 	ldrb	r3, [fp, #-1062]	; 0x426
    2e68:	e24b102c 	sub	r1, fp, #44	; 0x2c
    2e6c:	e1530002 	cmp	r3, r2
    2e70:	e0813003 	add	r3, r1, r3
    2e74:	e55363f8 	ldrb	r6, [r3, #-1016]	; 0x3f8
    2e78:	e54323f8 	strb	r2, [r3, #-1016]	; 0x3f8
    2e7c:	0affffea 	beq	2e2c <add_nodes+0x58>
    2e80:	e24b3e4a 	sub	r3, fp, #1184	; 0x4a0
    2e84:	e243300c 	sub	r3, r3, #12
    2e88:	e51b4514 	ldr	r4, [fp, #-1300]	; 0x514
    2e8c:	e50b3518 	str	r3, [fp, #-1304]	; 0x518
    2e90:	e50b951c 	str	r9, [fp, #-1308]	; 0x51c
    2e94:	ea00000e 	b	2ed4 <add_nodes+0x100>
    2e98:	e5d43006 	ldrb	r3, [r4, #6]
    2e9c:	e1d420b4 	ldrh	r2, [r4, #4]
    2ea0:	e0843003 	add	r3, r4, r3
    2ea4:	e0844002 	add	r4, r4, r2
    2ea8:	e24b202c 	sub	r2, fp, #44	; 0x2c
    2eac:	e1540002 	cmp	r4, r2
    2eb0:	e5c36008 	strb	r6, [r3, #8]
    2eb4:	2a000032 	bcs	2f84 <add_nodes+0x1b0>
    2eb8:	e3a02000 	mov	r2, #0
    2ebc:	e5d43006 	ldrb	r3, [r4, #6]
    2ec0:	e1530002 	cmp	r3, r2
    2ec4:	e0843003 	add	r3, r4, r3
    2ec8:	e5d36008 	ldrb	r6, [r3, #8]
    2ecc:	e5c32008 	strb	r2, [r3, #8]
    2ed0:	0a00002b 	beq	2f84 <add_nodes+0x1b0>
    2ed4:	e2845008 	add	r5, r4, #8
    2ed8:	e1a00005 	mov	r0, r5
    2edc:	e1a01008 	mov	r1, r8
    2ee0:	eb002cd5 	bl	e23c <strcmp>
    2ee4:	e3500000 	cmp	r0, #0
    2ee8:	0affffea 	beq	2e98 <add_nodes+0xc4>
    2eec:	e1a00005 	mov	r0, r5
    2ef0:	e1a0100a 	mov	r1, sl
    2ef4:	eb002cd0 	bl	e23c <strcmp>
    2ef8:	e3500000 	cmp	r0, #0
    2efc:	0affffe5 	beq	2e98 <add_nodes+0xc4>
    2f00:	e5949000 	ldr	r9, [r4]
    2f04:	e51b0510 	ldr	r0, [fp, #-1296]	; 0x510
    2f08:	e1a01009 	mov	r1, r9
    2f0c:	e51b2518 	ldr	r2, [fp, #-1304]	; 0x518
    2f10:	eb000748 	bl	4c38 <ext2_node_by_ino>
    2f14:	e250c000 	subs	ip, r0, #0
    2f18:	1affffde 	bne	2e98 <add_nodes+0xc4>
    2f1c:	e5d43007 	ldrb	r3, [r4, #7]
    2f20:	e3530002 	cmp	r3, #2
    2f24:	0a00001d 	beq	2fa0 <add_nodes+0x1cc>
    2f28:	e3530001 	cmp	r3, #1
    2f2c:	1affffd9 	bne	2e98 <add_nodes+0xc4>
    2f30:	e1a0100c 	mov	r1, ip
    2f34:	e3a0205c 	mov	r2, #92	; 0x5c
    2f38:	e51b0520 	ldr	r0, [fp, #-1312]	; 0x520
    2f3c:	e50b352c 	str	r3, [fp, #-1324]	; 0x52c
    2f40:	eb002c28 	bl	dfe8 <memset>
    2f44:	e51b3528 	ldr	r3, [fp, #-1320]	; 0x528
    2f48:	e1a01005 	mov	r1, r5
    2f4c:	e2430008 	sub	r0, r3, #8
    2f50:	eb002d42 	bl	e460 <strcpy>
    2f54:	e51b5520 	ldr	r5, [fp, #-1312]	; 0x520
    2f58:	e51b24a8 	ldr	r2, [fp, #-1192]	; 0x4a8
    2f5c:	e51b352c 	ldr	r3, [fp, #-1324]	; 0x52c
    2f60:	e1a00005 	mov	r0, r5
    2f64:	e50b34c4 	str	r3, [fp, #-1220]	; 0x4c4
    2f68:	e50b94b0 	str	r9, [fp, #-1200]	; 0x4b0
    2f6c:	e50b24c0 	str	r2, [fp, #-1216]	; 0x4c0
    2f70:	eb001568 	bl	8518 <vfs_new_node>
    2f74:	e51b0524 	ldr	r0, [fp, #-1316]	; 0x524
    2f78:	e1a01005 	mov	r1, r5
    2f7c:	eb001751 	bl	8cc8 <vfs_add>
    2f80:	eaffffc4 	b	2e98 <add_nodes+0xc4>
    2f84:	e51b951c 	ldr	r9, [fp, #-1308]	; 0x51c
    2f88:	e1570009 	cmp	r7, r9
    2f8c:	1affffa8 	bne	2e34 <add_nodes+0x60>
    2f90:	e3a00000 	mov	r0, #0
    2f94:	e24bd028 	sub	sp, fp, #40	; 0x28
    2f98:	e89d6ff0 	ldm	sp, {r4, r5, r6, r7, r8, r9, sl, fp, sp, lr}
    2f9c:	e12fff1e 	bx	lr
    2fa0:	e1a0100c 	mov	r1, ip
    2fa4:	e3a0205c 	mov	r2, #92	; 0x5c
    2fa8:	e51b0520 	ldr	r0, [fp, #-1312]	; 0x520
    2fac:	e50bc52c 	str	ip, [fp, #-1324]	; 0x52c
    2fb0:	eb002c0c 	bl	dfe8 <memset>
    2fb4:	e51b3528 	ldr	r3, [fp, #-1320]	; 0x528
    2fb8:	e1a01005 	mov	r1, r5
    2fbc:	e2430008 	sub	r0, r3, #8
    2fc0:	eb002d26 	bl	e460 <strcpy>
    2fc4:	e51b5520 	ldr	r5, [fp, #-1312]	; 0x520
    2fc8:	e51b34a8 	ldr	r3, [fp, #-1192]	; 0x4a8
    2fcc:	e51bc52c 	ldr	ip, [fp, #-1324]	; 0x52c
    2fd0:	e1a00005 	mov	r0, r5
    2fd4:	e50bc4c4 	str	ip, [fp, #-1220]	; 0x4c4
    2fd8:	e50b34c0 	str	r3, [fp, #-1216]	; 0x4c0
    2fdc:	e50b94b0 	str	r9, [fp, #-1200]	; 0x4b0
    2fe0:	eb00154c 	bl	8518 <vfs_new_node>
    2fe4:	e51b0524 	ldr	r0, [fp, #-1316]	; 0x524
    2fe8:	e1a01005 	mov	r1, r5
    2fec:	eb001735 	bl	8cc8 <vfs_add>
    2ff0:	e3500000 	cmp	r0, #0
    2ff4:	1a000004 	bne	300c <add_nodes+0x238>
    2ff8:	e51b0510 	ldr	r0, [fp, #-1296]	; 0x510
    2ffc:	e51b1518 	ldr	r1, [fp, #-1304]	; 0x518
    3000:	e51b2520 	ldr	r2, [fp, #-1312]	; 0x520
    3004:	ebffff72 	bl	2dd4 <add_nodes>
    3008:	eaffffa2 	b	2e98 <add_nodes+0xc4>
    300c:	e51b0520 	ldr	r0, [fp, #-1312]	; 0x520
    3010:	eb001763 	bl	8da4 <vfs_del>
    3014:	eafffff7 	b	2ff8 <add_nodes+0x224>
    3018:	0000c688 	andeq	ip, r0, r8, lsl #13
    301c:	0000c688 	andeq	ip, r0, r8, lsl #13

00003020 <sdext2_mount>:
    3020:	e1a0c00d 	mov	ip, sp
    3024:	e92dd870 	push	{r4, r5, r6, fp, ip, lr, pc}
    3028:	e1a05001 	mov	r5, r1
    302c:	e1a06000 	mov	r6, r0
    3030:	e24cb004 	sub	fp, ip, #4
    3034:	e1a00001 	mov	r0, r1
    3038:	e59f1030 	ldr	r1, [pc, #48]	; 3070 <sdext2_mount+0x50>
    303c:	e24dd084 	sub	sp, sp, #132	; 0x84
    3040:	e24b409c 	sub	r4, fp, #156	; 0x9c
    3044:	e1a02004 	mov	r2, r4
    3048:	e08f1001 	add	r1, pc, r1
    304c:	eb00070d 	bl	4c88 <ext2_node_by_fname>
    3050:	e1a00005 	mov	r0, r5
    3054:	e1a01004 	mov	r1, r4
    3058:	e1a02006 	mov	r2, r6
    305c:	ebffff5c 	bl	2dd4 <add_nodes>
    3060:	e3a00000 	mov	r0, #0
    3064:	e24bd018 	sub	sp, fp, #24
    3068:	e89d6870 	ldm	sp, {r4, r5, r6, fp, sp, lr}
    306c:	e12fff1e 	bx	lr
    3070:	0000c418 	andeq	ip, r0, r8, lsl r4

00003074 <sdfsd_main>:
    3074:	e1a0c00d 	mov	ip, sp
    3078:	e92dd9f0 	push	{r4, r5, r6, r7, r8, fp, ip, lr, pc}
    307c:	e24dde4a 	sub	sp, sp, #1184	; 0x4a0
    3080:	e24cb004 	sub	fp, ip, #4
    3084:	e24dd004 	sub	sp, sp, #4
    3088:	eb002727 	bl	cd2c <getuid>
    308c:	e59f4160 	ldr	r4, [pc, #352]	; 31f4 <sdfsd_main+0x180>
    3090:	e3500000 	cmp	r0, #0
    3094:	e08f4004 	add	r4, pc, r4
    3098:	aa000043 	bge	31ac <sdfsd_main+0x138>
    309c:	e59f0154 	ldr	r0, [pc, #340]	; 31f8 <sdfsd_main+0x184>
    30a0:	e08f0000 	add	r0, pc, r0
    30a4:	eb001484 	bl	82bc <klog>
    30a8:	eb000157 	bl	360c <sd_init>
    30ac:	e3500000 	cmp	r0, #0
    30b0:	1a000044 	bne	31c8 <sdfsd_main+0x154>
    30b4:	e59f5140 	ldr	r5, [pc, #320]	; 31fc <sdfsd_main+0x188>
    30b8:	e08f5005 	add	r5, pc, r5
    30bc:	e1a00005 	mov	r0, r5
    30c0:	eb00147d 	bl	82bc <klog>
    30c4:	e59f0134 	ldr	r0, [pc, #308]	; 3200 <sdfsd_main+0x18c>
    30c8:	e08f0000 	add	r0, pc, r0
    30cc:	eb00147a 	bl	82bc <klog>
    30d0:	e24b6e43 	sub	r6, fp, #1072	; 0x430
    30d4:	e59f2128 	ldr	r2, [pc, #296]	; 3204 <sdfsd_main+0x190>
    30d8:	e59f3128 	ldr	r3, [pc, #296]	; 3208 <sdfsd_main+0x194>
    30dc:	e2466004 	sub	r6, r6, #4
    30e0:	e7941002 	ldr	r1, [r4, r2]
    30e4:	e1a00006 	mov	r0, r6
    30e8:	e7942003 	ldr	r2, [r4, r3]
    30ec:	eb0006f7 	bl	4cd0 <ext2_init>
    30f0:	e2504000 	subs	r4, r0, #0
    30f4:	1a000038 	bne	31dc <sdfsd_main+0x168>
    30f8:	e1a00005 	mov	r0, r5
    30fc:	eb00146e 	bl	82bc <klog>
    3100:	e51b042c 	ldr	r0, [fp, #-1068]	; 0x42c
    3104:	e24b7d13 	sub	r7, fp, #1216	; 0x4c0
    3108:	e1a00080 	lsl	r0, r0, #1
    310c:	eb00010e 	bl	354c <sd_set_buffer>
    3110:	e1a01004 	mov	r1, r4
    3114:	e3a0208c 	mov	r2, #140	; 0x8c
    3118:	e1a00007 	mov	r0, r7
    311c:	eb002bb1 	bl	dfe8 <memset>
    3120:	e24b5e4b 	sub	r5, fp, #1200	; 0x4b0
    3124:	e59f10e0 	ldr	r1, [pc, #224]	; 320c <sdfsd_main+0x198>
    3128:	e2455004 	sub	r5, r5, #4
    312c:	e245000b 	sub	r0, r5, #11
    3130:	e08f1001 	add	r1, pc, r1
    3134:	e3a0200d 	mov	r2, #13
    3138:	eb002b6e 	bl	def8 <memcpy>
    313c:	e59f80cc 	ldr	r8, [pc, #204]	; 3210 <sdfsd_main+0x19c>
    3140:	e59f50cc 	ldr	r5, [pc, #204]	; 3214 <sdfsd_main+0x1a0>
    3144:	e59fe0cc 	ldr	lr, [pc, #204]	; 3218 <sdfsd_main+0x1a4>
    3148:	e59fc0cc 	ldr	ip, [pc, #204]	; 321c <sdfsd_main+0x1a8>
    314c:	e59f30cc 	ldr	r3, [pc, #204]	; 3220 <sdfsd_main+0x1ac>
    3150:	e59f10cc 	ldr	r1, [pc, #204]	; 3224 <sdfsd_main+0x1b0>
    3154:	e08fe00e 	add	lr, pc, lr
    3158:	e08fc00c 	add	ip, pc, ip
    315c:	e08f3003 	add	r3, pc, r3
    3160:	e08f1001 	add	r1, pc, r1
    3164:	e1a02004 	mov	r2, r4
    3168:	e08f8008 	add	r8, pc, r8
    316c:	e08f5005 	add	r5, pc, r5
    3170:	e1a00007 	mov	r0, r7
    3174:	e50be464 	str	lr, [fp, #-1124]	; 0x464
    3178:	e50bc470 	str	ip, [fp, #-1136]	; 0x470
    317c:	e50b3444 	str	r3, [fp, #-1092]	; 0x444
    3180:	e50b647c 	str	r6, [fp, #-1148]	; 0x47c
    3184:	e50b844c 	str	r8, [fp, #-1100]	; 0x44c
    3188:	e50b5468 	str	r5, [fp, #-1128]	; 0x468
    318c:	eb0020e5 	bl	b528 <device_run>
    3190:	e1a00006 	mov	r0, r6
    3194:	eb00071c 	bl	4e0c <ext2_quit>
    3198:	eb0000ff 	bl	359c <sd_quit>
    319c:	e1a00004 	mov	r0, r4
    31a0:	e24bd020 	sub	sp, fp, #32
    31a4:	e89d69f0 	ldm	sp, {r4, r5, r6, r7, r8, fp, sp, lr}
    31a8:	e12fff1e 	bx	lr
    31ac:	e59f0074 	ldr	r0, [pc, #116]	; 3228 <sdfsd_main+0x1b4>
    31b0:	e08f0000 	add	r0, pc, r0
    31b4:	eb001440 	bl	82bc <klog>
    31b8:	e3e00000 	mvn	r0, #0
    31bc:	e24bd020 	sub	sp, fp, #32
    31c0:	e89d69f0 	ldm	sp, {r4, r5, r6, r7, r8, fp, sp, lr}
    31c4:	e12fff1e 	bx	lr
    31c8:	e59f005c 	ldr	r0, [pc, #92]	; 322c <sdfsd_main+0x1b8>
    31cc:	e08f0000 	add	r0, pc, r0
    31d0:	eb001439 	bl	82bc <klog>
    31d4:	e3e00000 	mvn	r0, #0
    31d8:	eafffff0 	b	31a0 <sdfsd_main+0x12c>
    31dc:	eb0000ee 	bl	359c <sd_quit>
    31e0:	e59f0048 	ldr	r0, [pc, #72]	; 3230 <sdfsd_main+0x1bc>
    31e4:	e08f0000 	add	r0, pc, r0
    31e8:	eb001433 	bl	82bc <klog>
    31ec:	e3e00000 	mvn	r0, #0
    31f0:	eaffffea 	b	31a0 <sdfsd_main+0x12c>
    31f4:	00014964 	andeq	r4, r1, r4, ror #18
    31f8:	0000c430 	andeq	ip, r0, r0, lsr r4
    31fc:	0000c438 	andeq	ip, r0, r8, lsr r4
    3200:	0000c430 	andeq	ip, r0, r0, lsr r4
    3204:	00000010 	andeq	r0, r0, r0, lsl r0
    3208:	00000048 	andeq	r0, r0, r8, asr #32
    320c:	0000c3e0 	andeq	ip, r0, r0, ror #7
    3210:	fffffeb0 			; <UNDEFINED> instruction: 0xfffffeb0
    3214:	fffffbcc 			; <UNDEFINED> instruction: 0xfffffbcc
    3218:	fffffb34 			; <UNDEFINED> instruction: 0xfffffb34
    321c:	fffffa74 			; <UNDEFINED> instruction: 0xfffffa74
    3220:	fffffa50 			; <UNDEFINED> instruction: 0xfffffa50
    3224:	0000c300 	andeq	ip, r0, r0, lsl #6
    3228:	0000c2f4 	strdeq	ip, [r0], -r4
    322c:	0000c318 	andeq	ip, r0, r8, lsl r3
    3230:	0000c300 	andeq	ip, r0, r0, lsl #6

00003234 <sd_read_sector>:
    3234:	e1a0c00d 	mov	ip, sp
    3238:	e92dd878 	push	{r3, r4, r5, r6, fp, ip, lr, pc}
    323c:	e1a04000 	mov	r4, r0
    3240:	e59f20d4 	ldr	r2, [pc, #212]	; 331c <sd_read_sector+0xe8>
    3244:	e08f2002 	add	r2, pc, r2
    3248:	e5920010 	ldr	r0, [r2, #16]
    324c:	e5923008 	ldr	r3, [r2, #8]
    3250:	e3500000 	cmp	r0, #0
    3254:	e24cb004 	sub	fp, ip, #4
    3258:	e1a05001 	mov	r5, r1
    325c:	e0633004 	rsb	r3, r3, r4
    3260:	0a00000d 	beq	329c <sd_read_sector+0x68>
    3264:	e5922014 	ldr	r2, [r2, #20]
    3268:	e1530002 	cmp	r3, r2
    326c:	2a00000a 	bcs	329c <sd_read_sector+0x68>
    3270:	e0803183 	add	r3, r0, r3, lsl #3
    3274:	e5931004 	ldr	r1, [r3, #4]
    3278:	e3510000 	cmp	r1, #0
    327c:	0a000006 	beq	329c <sd_read_sector+0x68>
    3280:	e1a00005 	mov	r0, r5
    3284:	e3a02c02 	mov	r2, #512	; 0x200
    3288:	eb002b1a 	bl	def8 <memcpy>
    328c:	e3a00c02 	mov	r0, #512	; 0x200
    3290:	e24bd01c 	sub	sp, fp, #28
    3294:	e89d6878 	ldm	sp, {r3, r4, r5, r6, fp, sp, lr}
    3298:	e12fff1e 	bx	lr
    329c:	e59f607c 	ldr	r6, [pc, #124]	; 3320 <sd_read_sector+0xec>
    32a0:	e1a00004 	mov	r0, r4
    32a4:	e08f6006 	add	r6, pc, r6
    32a8:	e1a01005 	mov	r1, r5
    32ac:	e596c018 	ldr	ip, [r6, #24]
    32b0:	e1a0e00f 	mov	lr, pc
    32b4:	e12fff1c 	bx	ip
    32b8:	e3500000 	cmp	r0, #0
    32bc:	13a00000 	movne	r0, #0
    32c0:	1afffff2 	bne	3290 <sd_read_sector+0x5c>
    32c4:	e5963010 	ldr	r3, [r6, #16]
    32c8:	e5962008 	ldr	r2, [r6, #8]
    32cc:	e3530000 	cmp	r3, #0
    32d0:	e0624004 	rsb	r4, r2, r4
    32d4:	0a00000e 	beq	3314 <sd_read_sector+0xe0>
    32d8:	e5962014 	ldr	r2, [r6, #20]
    32dc:	e1540002 	cmp	r4, r2
    32e0:	2a00000b 	bcs	3314 <sd_read_sector+0xe0>
    32e4:	e0834184 	add	r4, r3, r4, lsl #3
    32e8:	e5940004 	ldr	r0, [r4, #4]
    32ec:	e3500000 	cmp	r0, #0
    32f0:	1b0027ec 	blne	d2a8 <free>
    32f4:	e3a00c02 	mov	r0, #512	; 0x200
    32f8:	eb0027f3 	bl	d2cc <malloc>
    32fc:	e1a01005 	mov	r1, r5
    3300:	e5840004 	str	r0, [r4, #4]
    3304:	e3a02c02 	mov	r2, #512	; 0x200
    3308:	eb002afa 	bl	def8 <memcpy>
    330c:	e3a00c02 	mov	r0, #512	; 0x200
    3310:	eaffffde 	b	3290 <sd_read_sector+0x5c>
    3314:	e3a00c02 	mov	r0, #512	; 0x200
    3318:	eaffffdc 	b	3290 <sd_read_sector+0x5c>
    331c:	00049080 	andeq	r9, r4, r0, lsl #1
    3320:	00049020 	andeq	r9, r4, r0, lsr #32

00003324 <sd_write_sector>:
    3324:	e1a0c00d 	mov	ip, sp
    3328:	e92dd878 	push	{r3, r4, r5, r6, fp, ip, lr, pc}
    332c:	e59f4098 	ldr	r4, [pc, #152]	; 33cc <sd_write_sector+0xa8>
    3330:	e24cb004 	sub	fp, ip, #4
    3334:	e08f4004 	add	r4, pc, r4
    3338:	e1a05000 	mov	r5, r0
    333c:	e1a06001 	mov	r6, r1
    3340:	e594c01c 	ldr	ip, [r4, #28]
    3344:	e1a0e00f 	mov	lr, pc
    3348:	e12fff1c 	bx	ip
    334c:	e3500000 	cmp	r0, #0
    3350:	13a00000 	movne	r0, #0
    3354:	0a000002 	beq	3364 <sd_write_sector+0x40>
    3358:	e24bd01c 	sub	sp, fp, #28
    335c:	e89d6878 	ldm	sp, {r3, r4, r5, r6, fp, sp, lr}
    3360:	e12fff1e 	bx	lr
    3364:	e5943010 	ldr	r3, [r4, #16]
    3368:	e5942008 	ldr	r2, [r4, #8]
    336c:	e3530000 	cmp	r3, #0
    3370:	e0625005 	rsb	r5, r2, r5
    3374:	0a000010 	beq	33bc <sd_write_sector+0x98>
    3378:	e5942014 	ldr	r2, [r4, #20]
    337c:	e1550002 	cmp	r5, r2
    3380:	2a00000d 	bcs	33bc <sd_write_sector+0x98>
    3384:	e0835185 	add	r5, r3, r5, lsl #3
    3388:	e5950004 	ldr	r0, [r5, #4]
    338c:	e3500000 	cmp	r0, #0
    3390:	1b0027c4 	blne	d2a8 <free>
    3394:	e3a00c02 	mov	r0, #512	; 0x200
    3398:	eb0027cb 	bl	d2cc <malloc>
    339c:	e1a01006 	mov	r1, r6
    33a0:	e5850004 	str	r0, [r5, #4]
    33a4:	e3a02c02 	mov	r2, #512	; 0x200
    33a8:	eb002ad2 	bl	def8 <memcpy>
    33ac:	e3a00c02 	mov	r0, #512	; 0x200
    33b0:	e24bd01c 	sub	sp, fp, #28
    33b4:	e89d6878 	ldm	sp, {r3, r4, r5, r6, fp, sp, lr}
    33b8:	e12fff1e 	bx	lr
    33bc:	e3a00c02 	mov	r0, #512	; 0x200
    33c0:	e24bd01c 	sub	sp, fp, #28
    33c4:	e89d6878 	ldm	sp, {r3, r4, r5, r6, fp, sp, lr}
    33c8:	e12fff1e 	bx	lr
    33cc:	00048f90 	muleq	r4, r0, pc	; <UNPREDICTABLE>

000033d0 <sd_read>:
    33d0:	e1a0c00d 	mov	ip, sp
    33d4:	e92dd830 	push	{r4, r5, fp, ip, lr, pc}
    33d8:	e59f3048 	ldr	r3, [pc, #72]	; 3428 <sd_read+0x58>
    33dc:	e08f3003 	add	r3, pc, r3
    33e0:	e5934008 	ldr	r4, [r3, #8]
    33e4:	e0844080 	add	r4, r4, r0, lsl #1
    33e8:	e24cb004 	sub	fp, ip, #4
    33ec:	e1a00004 	mov	r0, r4
    33f0:	e1a05001 	mov	r5, r1
    33f4:	ebffff8e 	bl	3234 <sd_read_sector>
    33f8:	e3500c02 	cmp	r0, #512	; 0x200
    33fc:	1a000007 	bne	3420 <sd_read+0x50>
    3400:	e2840001 	add	r0, r4, #1
    3404:	e2851c02 	add	r1, r5, #512	; 0x200
    3408:	ebffff89 	bl	3234 <sd_read_sector>
    340c:	e2500c02 	subs	r0, r0, #512	; 0x200
    3410:	13e00000 	mvnne	r0, #0
    3414:	e24bd014 	sub	sp, fp, #20
    3418:	e89d6830 	ldm	sp, {r4, r5, fp, sp, lr}
    341c:	e12fff1e 	bx	lr
    3420:	e3e00000 	mvn	r0, #0
    3424:	eafffffa 	b	3414 <sd_read+0x44>
    3428:	00048ee8 	andeq	r8, r4, r8, ror #29

0000342c <sd_write>:
    342c:	e1a0c00d 	mov	ip, sp
    3430:	e92dd830 	push	{r4, r5, fp, ip, lr, pc}
    3434:	e59f3048 	ldr	r3, [pc, #72]	; 3484 <sd_write+0x58>
    3438:	e08f3003 	add	r3, pc, r3
    343c:	e5934008 	ldr	r4, [r3, #8]
    3440:	e0844080 	add	r4, r4, r0, lsl #1
    3444:	e24cb004 	sub	fp, ip, #4
    3448:	e1a00004 	mov	r0, r4
    344c:	e1a05001 	mov	r5, r1
    3450:	ebffffb3 	bl	3324 <sd_write_sector>
    3454:	e3500c02 	cmp	r0, #512	; 0x200
    3458:	1a000007 	bne	347c <sd_write+0x50>
    345c:	e2840001 	add	r0, r4, #1
    3460:	e2851c02 	add	r1, r5, #512	; 0x200
    3464:	ebffffae 	bl	3324 <sd_write_sector>
    3468:	e2500c02 	subs	r0, r0, #512	; 0x200
    346c:	13e00000 	mvnne	r0, #0
    3470:	e24bd014 	sub	sp, fp, #20
    3474:	e89d6830 	ldm	sp, {r4, r5, fp, sp, lr}
    3478:	e12fff1e 	bx	lr
    347c:	e3e00000 	mvn	r0, #0
    3480:	eafffffa 	b	3470 <sd_write+0x44>
    3484:	00048e8c 	andeq	r8, r4, ip, lsl #29

00003488 <read_partition>:
    3488:	e1a0c00d 	mov	ip, sp
    348c:	e92dd800 	push	{fp, ip, lr, pc}
    3490:	e24cb004 	sub	fp, ip, #4
    3494:	e24ddc02 	sub	sp, sp, #512	; 0x200
    3498:	e3a00000 	mov	r0, #0
    349c:	e24b1f83 	sub	r1, fp, #524	; 0x20c
    34a0:	ebffff63 	bl	3234 <sd_read_sector>
    34a4:	e3500c02 	cmp	r0, #512	; 0x200
    34a8:	1a00000f 	bne	34ec <read_partition+0x64>
    34ac:	e55b300e 	ldrb	r3, [fp, #-14]
    34b0:	e3530055 	cmp	r3, #85	; 0x55
    34b4:	1a00000c 	bne	34ec <read_partition+0x64>
    34b8:	e55b300d 	ldrb	r3, [fp, #-13]
    34bc:	e35300aa 	cmp	r3, #170	; 0xaa
    34c0:	1a000009 	bne	34ec <read_partition+0x64>
    34c4:	e59f0030 	ldr	r0, [pc, #48]	; 34fc <read_partition+0x74>
    34c8:	e08f0000 	add	r0, pc, r0
    34cc:	e24b104e 	sub	r1, fp, #78	; 0x4e
    34d0:	e3a02040 	mov	r2, #64	; 0x40
    34d4:	e2800020 	add	r0, r0, #32
    34d8:	eb002a86 	bl	def8 <memcpy>
    34dc:	e3a00000 	mov	r0, #0
    34e0:	e24bd00c 	sub	sp, fp, #12
    34e4:	e89d6800 	ldm	sp, {fp, sp, lr}
    34e8:	e12fff1e 	bx	lr
    34ec:	e3e00000 	mvn	r0, #0
    34f0:	e24bd00c 	sub	sp, fp, #12
    34f4:	e89d6800 	ldm	sp, {fp, sp, lr}
    34f8:	e12fff1e 	bx	lr
    34fc:	00048dfc 	strdeq	r8, [r4], -ip

00003500 <partition_get>:
    3500:	e1a0c00d 	mov	ip, sp
    3504:	e3500003 	cmp	r0, #3
    3508:	e92dd800 	push	{fp, ip, lr, pc}
    350c:	e24cb004 	sub	fp, ip, #4
    3510:	8a00000a 	bhi	3540 <partition_get+0x40>
    3514:	e59f302c 	ldr	r3, [pc, #44]	; 3548 <partition_get+0x48>
    3518:	e08f3003 	add	r3, pc, r3
    351c:	e0833200 	add	r3, r3, r0, lsl #4
    3520:	e3a02010 	mov	r2, #16
    3524:	e1a00001 	mov	r0, r1
    3528:	e2831020 	add	r1, r3, #32
    352c:	eb002a71 	bl	def8 <memcpy>
    3530:	e3a00000 	mov	r0, #0
    3534:	e24bd00c 	sub	sp, fp, #12
    3538:	e89d6800 	ldm	sp, {fp, sp, lr}
    353c:	e12fff1e 	bx	lr
    3540:	e3e00000 	mvn	r0, #0
    3544:	eafffffa 	b	3534 <partition_get+0x34>
    3548:	00048dac 	andeq	r8, r4, ip, lsr #27

0000354c <sd_set_buffer>:
    354c:	e1a0c00d 	mov	ip, sp
    3550:	e92dd878 	push	{r3, r4, r5, r6, fp, ip, lr, pc}
    3554:	e1a05180 	lsl	r5, r0, #3
    3558:	e24cb004 	sub	fp, ip, #4
    355c:	e1a04000 	mov	r4, r0
    3560:	e1a00005 	mov	r0, r5
    3564:	eb002758 	bl	d2cc <malloc>
    3568:	e1a02005 	mov	r2, r5
    356c:	e3a01000 	mov	r1, #0
    3570:	e1a06000 	mov	r6, r0
    3574:	eb002a9b 	bl	dfe8 <memset>
    3578:	e3a00000 	mov	r0, #0
    357c:	e59f3014 	ldr	r3, [pc, #20]	; 3598 <sd_set_buffer+0x4c>
    3580:	e08f3003 	add	r3, pc, r3
    3584:	e5834014 	str	r4, [r3, #20]
    3588:	e5836010 	str	r6, [r3, #16]
    358c:	e24bd01c 	sub	sp, fp, #28
    3590:	e89d6878 	ldm	sp, {r3, r4, r5, r6, fp, sp, lr}
    3594:	e12fff1e 	bx	lr
    3598:	00048d44 	andeq	r8, r4, r4, asr #26

0000359c <sd_quit>:
    359c:	e1a0c00d 	mov	ip, sp
    35a0:	e92dd878 	push	{r3, r4, r5, r6, fp, ip, lr, pc}
    35a4:	e59f3058 	ldr	r3, [pc, #88]	; 3604 <sd_quit+0x68>
    35a8:	e08f3003 	add	r3, pc, r3
    35ac:	e5934014 	ldr	r4, [r3, #20]
    35b0:	e3540000 	cmp	r4, #0
    35b4:	e24cb004 	sub	fp, ip, #4
    35b8:	e5936010 	ldr	r6, [r3, #16]
    35bc:	0a000006 	beq	35dc <sd_quit+0x40>
    35c0:	e0865184 	add	r5, r6, r4, lsl #3
    35c4:	e5150004 	ldr	r0, [r5, #-4]
    35c8:	e3500000 	cmp	r0, #0
    35cc:	1b002735 	blne	d2a8 <free>
    35d0:	e2544001 	subs	r4, r4, #1
    35d4:	e2455008 	sub	r5, r5, #8
    35d8:	1afffff9 	bne	35c4 <sd_quit+0x28>
    35dc:	e1a00006 	mov	r0, r6
    35e0:	eb002730 	bl	d2a8 <free>
    35e4:	e3a00000 	mov	r0, #0
    35e8:	e59f3018 	ldr	r3, [pc, #24]	; 3608 <sd_quit+0x6c>
    35ec:	e08f3003 	add	r3, pc, r3
    35f0:	e5830010 	str	r0, [r3, #16]
    35f4:	e5830014 	str	r0, [r3, #20]
    35f8:	e24bd01c 	sub	sp, fp, #28
    35fc:	e89d6878 	ldm	sp, {r3, r4, r5, r6, fp, sp, lr}
    3600:	e12fff1e 	bx	lr
    3604:	00048d1c 	andeq	r8, r4, ip, lsl sp
    3608:	00048cd8 	ldrdeq	r8, [r4], -r8	; <UNPREDICTABLE>

0000360c <sd_init>:
    360c:	e1a0c00d 	mov	ip, sp
    3610:	e3a03000 	mov	r3, #0
    3614:	e92dd830 	push	{r4, r5, fp, ip, lr, pc}
    3618:	e59f4114 	ldr	r4, [pc, #276]	; 3734 <sd_init+0x128>
    361c:	e24cb004 	sub	fp, ip, #4
    3620:	e24dd040 	sub	sp, sp, #64	; 0x40
    3624:	e08f4004 	add	r4, pc, r4
    3628:	e1a01003 	mov	r1, r3
    362c:	e3a02010 	mov	r2, #16
    3630:	e24b5054 	sub	r5, fp, #84	; 0x54
    3634:	e1a00004 	mov	r0, r4
    3638:	e5843010 	str	r3, [r4, #16]
    363c:	e5843014 	str	r3, [r4, #20]
    3640:	eb002a68 	bl	dfe8 <memset>
    3644:	e1a01005 	mov	r1, r5
    3648:	e3a0001e 	mov	r0, #30
    364c:	eb00113e 	bl	7b4c <syscall1>
    3650:	e59f10e0 	ldr	r1, [pc, #224]	; 3738 <sd_init+0x12c>
    3654:	e1a00005 	mov	r0, r5
    3658:	e08f1001 	add	r1, pc, r1
    365c:	e3a02005 	mov	r2, #5
    3660:	eb002bd2 	bl	e5b0 <strncmp>
    3664:	e59f30d0 	ldr	r3, [pc, #208]	; 373c <sd_init+0x130>
    3668:	e3500000 	cmp	r0, #0
    366c:	e08f3003 	add	r3, pc, r3
    3670:	1a000018 	bne	36d8 <sd_init+0xcc>
    3674:	e59f20c4 	ldr	r2, [pc, #196]	; 3740 <sd_init+0x134>
    3678:	e7932002 	ldr	r2, [r3, r2]
    367c:	e59f10c0 	ldr	r1, [pc, #192]	; 3744 <sd_init+0x138>
    3680:	e5842060 	str	r2, [r4, #96]	; 0x60
    3684:	e7930001 	ldr	r0, [r3, r1]
    3688:	e59f10b8 	ldr	r1, [pc, #184]	; 3748 <sd_init+0x13c>
    368c:	e5840018 	str	r0, [r4, #24]
    3690:	e7933001 	ldr	r3, [r3, r1]
    3694:	e584301c 	str	r3, [r4, #28]
    3698:	e1a0e00f 	mov	lr, pc
    369c:	e12fff12 	bx	r2
    36a0:	e2504000 	subs	r4, r0, #0
    36a4:	1a000020 	bne	372c <sd_init+0x120>
    36a8:	ebffff76 	bl	3488 <read_partition>
    36ac:	e3500000 	cmp	r0, #0
    36b0:	0a000013 	beq	3704 <sd_init+0xf8>
    36b4:	e59f0090 	ldr	r0, [pc, #144]	; 374c <sd_init+0x140>
    36b8:	e3a01000 	mov	r1, #0
    36bc:	e08f0000 	add	r0, pc, r0
    36c0:	e3a02010 	mov	r2, #16
    36c4:	eb002a47 	bl	dfe8 <memset>
    36c8:	e1a00004 	mov	r0, r4
    36cc:	e24bd014 	sub	sp, fp, #20
    36d0:	e89d6830 	ldm	sp, {r4, r5, fp, sp, lr}
    36d4:	e12fff1e 	bx	lr
    36d8:	e59f2070 	ldr	r2, [pc, #112]	; 3750 <sd_init+0x144>
    36dc:	e7931002 	ldr	r1, [r3, r2]
    36e0:	e5841060 	str	r1, [r4, #96]	; 0x60
    36e4:	e1a02001 	mov	r2, r1
    36e8:	e59f1064 	ldr	r1, [pc, #100]	; 3754 <sd_init+0x148>
    36ec:	e7930001 	ldr	r0, [r3, r1]
    36f0:	e59f1060 	ldr	r1, [pc, #96]	; 3758 <sd_init+0x14c>
    36f4:	e5840018 	str	r0, [r4, #24]
    36f8:	e7933001 	ldr	r3, [r3, r1]
    36fc:	e584301c 	str	r3, [r4, #28]
    3700:	eaffffe4 	b	3698 <sd_init+0x8c>
    3704:	e59f1050 	ldr	r1, [pc, #80]	; 375c <sd_init+0x150>
    3708:	e3a00001 	mov	r0, #1
    370c:	e08f1001 	add	r1, pc, r1
    3710:	ebffff7a 	bl	3500 <partition_get>
    3714:	e3500000 	cmp	r0, #0
    3718:	1affffe5 	bne	36b4 <sd_init+0xa8>
    371c:	e1a00004 	mov	r0, r4
    3720:	e24bd014 	sub	sp, fp, #20
    3724:	e89d6830 	ldm	sp, {r4, r5, fp, sp, lr}
    3728:	e12fff1e 	bx	lr
    372c:	e3e04000 	mvn	r4, #0
    3730:	eaffffe4 	b	36c8 <sd_init+0xbc>
    3734:	00048ca0 	andeq	r8, r4, r0, lsr #25
    3738:	0000bec8 	andeq	fp, r0, r8, asr #29
    373c:	0001438c 	andeq	r4, r1, ip, lsl #7
    3740:	00000040 	andeq	r0, r0, r0, asr #32
    3744:	00000054 	andeq	r0, r0, r4, asr r0
    3748:	00000014 	andeq	r0, r0, r4, lsl r0
    374c:	00048c08 	andeq	r8, r4, r8, lsl #24
    3750:	00000038 	andeq	r0, r0, r8, lsr r0
    3754:	0000001c 	andeq	r0, r0, ip, lsl r0
    3758:	00000020 	andeq	r0, r0, r0, lsr #32
    375c:	00048bb8 			; <UNDEFINED> instruction: 0x00048bb8

00003760 <set_super>:
    3760:	e1a0c00d 	mov	ip, sp
    3764:	e92dd830 	push	{r4, r5, fp, ip, lr, pc}
    3768:	e1a04000 	mov	r4, r0
    376c:	e24cb004 	sub	fp, ip, #4
    3770:	e24b5e41 	sub	r5, fp, #1040	; 0x410
    3774:	e24ddb01 	sub	sp, sp, #1024	; 0x400
    3778:	e2455004 	sub	r5, r5, #4
    377c:	e2801004 	add	r1, r0, #4
    3780:	e1a00005 	mov	r0, r5
    3784:	e3a02b01 	mov	r2, #1024	; 0x400
    3788:	eb0029da 	bl	def8 <memcpy>
    378c:	e5943000 	ldr	r3, [r4]
    3790:	e3530001 	cmp	r3, #1
    3794:	c59f002c 	ldrgt	r0, [pc, #44]	; 37c8 <set_super+0x68>
    3798:	c1a01005 	movgt	r1, r5
    379c:	c594c40c 	ldrgt	ip, [r4, #1036]	; 0x40c
    37a0:	c1a0e00f 	movgt	lr, pc
    37a4:	c12fff1c 	bxgt	ip
    37a8:	e1a01005 	mov	r1, r5
    37ac:	e3a00001 	mov	r0, #1
    37b0:	e594c40c 	ldr	ip, [r4, #1036]	; 0x40c
    37b4:	e1a0e00f 	mov	lr, pc
    37b8:	e12fff1c 	bx	ip
    37bc:	e24bd014 	sub	sp, fp, #20
    37c0:	e89d6830 	ldm	sp, {r4, r5, fp, sp, lr}
    37c4:	e12fff1e 	bx	lr
    37c8:	00002001 	andeq	r2, r0, r1

000037cc <get_node_by_ino>:
    37cc:	e1a0c00d 	mov	ip, sp
    37d0:	e92dd878 	push	{r3, r4, r5, r6, fp, ip, lr, pc}
    37d4:	e1a04001 	mov	r4, r1
    37d8:	e1a06000 	mov	r6, r0
    37dc:	e24cb004 	sub	fp, ip, #4
    37e0:	e590102c 	ldr	r1, [r0, #44]	; 0x2c
    37e4:	e1a00004 	mov	r0, r4
    37e8:	e1a05002 	mov	r5, r2
    37ec:	eb002236 	bl	c0cc <div_u32>
    37f0:	e596102c 	ldr	r1, [r6, #44]	; 0x2c
    37f4:	e0010190 	mul	r1, r0, r1
    37f8:	e5963404 	ldr	r3, [r6, #1028]	; 0x404
    37fc:	e0611004 	rsb	r1, r1, r4
    3800:	e0830280 	add	r0, r3, r0, lsl #5
    3804:	e2514001 	subs	r4, r1, #1
    3808:	e5903008 	ldr	r3, [r0, #8]
    380c:	42810006 	addmi	r0, r1, #6
    3810:	51a00004 	movpl	r0, r4
    3814:	e08301c0 	add	r0, r3, r0, asr #3
    3818:	e1a01005 	mov	r1, r5
    381c:	e596c408 	ldr	ip, [r6, #1032]	; 0x408
    3820:	e1a0e00f 	mov	lr, pc
    3824:	e12fff1c 	bx	ip
    3828:	e1a00fc4 	asr	r0, r4, #31
    382c:	e1a00ea0 	lsr	r0, r0, #29
    3830:	e0844000 	add	r4, r4, r0
    3834:	e2044007 	and	r4, r4, #7
    3838:	e0600004 	rsb	r0, r0, r4
    383c:	e0850380 	add	r0, r5, r0, lsl #7
    3840:	e24bd01c 	sub	sp, fp, #28
    3844:	e89d6878 	ldm	sp, {r3, r4, r5, r6, fp, sp, lr}
    3848:	e12fff1e 	bx	lr

0000384c <set_gd.isra.3>:
    384c:	e1a0c00d 	mov	ip, sp
    3850:	e92dd8f0 	push	{r4, r5, r6, r7, fp, ip, lr, pc}
    3854:	e24cb004 	sub	fp, ip, #4
    3858:	e1a06000 	mov	r6, r0
    385c:	e1a05001 	mov	r5, r1
    3860:	e3a00b01 	mov	r0, #1024	; 0x400
    3864:	e3a01020 	mov	r1, #32
    3868:	e1a07002 	mov	r7, r2
    386c:	eb002216 	bl	c0cc <div_u32>
    3870:	e1a04000 	mov	r4, r0
    3874:	e1a00007 	mov	r0, r7
    3878:	e1a01004 	mov	r1, r4
    387c:	eb002212 	bl	c0cc <div_u32>
    3880:	e0040490 	mul	r4, r0, r4
    3884:	e5961000 	ldr	r1, [r6]
    3888:	e5953000 	ldr	r3, [r5]
    388c:	e0811284 	add	r1, r1, r4, lsl #5
    3890:	e2800002 	add	r0, r0, #2
    3894:	e24bd01c 	sub	sp, fp, #28
    3898:	e89d68f0 	ldm	sp, {r4, r5, r6, r7, fp, sp, lr}
    389c:	e12fff13 	bx	r3

000038a0 <ext2_ialloc>:
    38a0:	e1a0c00d 	mov	ip, sp
    38a4:	e92dd8f0 	push	{r4, r5, r6, r7, fp, ip, lr, pc}
    38a8:	e24cb004 	sub	fp, ip, #4
    38ac:	e24ddb01 	sub	sp, sp, #1024	; 0x400
    38b0:	e5903004 	ldr	r3, [r0, #4]
    38b4:	e3530000 	cmp	r3, #0
    38b8:	e1a05000 	mov	r5, r0
    38bc:	1a000003 	bne	38d0 <ext2_ialloc+0x30>
    38c0:	e3a00000 	mov	r0, #0
    38c4:	e24bd01c 	sub	sp, fp, #28
    38c8:	e89d68f0 	ldm	sp, {r4, r5, r6, r7, fp, sp, lr}
    38cc:	e12fff1e 	bx	lr
    38d0:	e3a04000 	mov	r4, #0
    38d4:	e590102c 	ldr	r1, [r0, #44]	; 0x2c
    38d8:	e1a00004 	mov	r0, r4
    38dc:	eb002288 	bl	c304 <mod_u32>
    38e0:	e24b6e41 	sub	r6, fp, #1040	; 0x410
    38e4:	e3500000 	cmp	r0, #0
    38e8:	e1a07004 	mov	r7, r4
    38ec:	e246600c 	sub	r6, r6, #12
    38f0:	0a000037 	beq	39d4 <ext2_ialloc+0x134>
    38f4:	e595102c 	ldr	r1, [r5, #44]	; 0x2c
    38f8:	e0030791 	mul	r3, r1, r7
    38fc:	e0633004 	rsb	r3, r3, r4
    3900:	e3530000 	cmp	r3, #0
    3904:	e2832007 	add	r2, r3, #7
    3908:	a1a02003 	movge	r2, r3
    390c:	e1a00fc3 	asr	r0, r3, #31
    3910:	e1a00ea0 	lsr	r0, r0, #29
    3914:	e0833000 	add	r3, r3, r0
    3918:	e7d6c1c2 	ldrb	ip, [r6, r2, asr #3]
    391c:	e2033007 	and	r3, r3, #7
    3920:	e0603003 	rsb	r3, r0, r3
    3924:	e1a0035c 	asr	r0, ip, r3
    3928:	e3100001 	tst	r0, #1
    392c:	e08621c2 	add	r2, r6, r2, asr #3
    3930:	1a00001f 	bne	39b4 <ext2_ialloc+0x114>
    3934:	e3a00001 	mov	r0, #1
    3938:	e5951404 	ldr	r1, [r5, #1028]	; 0x404
    393c:	e18c3310 	orr	r3, ip, r0, lsl r3
    3940:	e5c23000 	strb	r3, [r2]
    3944:	e0817287 	add	r7, r1, r7, lsl #5
    3948:	e5970004 	ldr	r0, [r7, #4]
    394c:	e1a01006 	mov	r1, r6
    3950:	e595c40c 	ldr	ip, [r5, #1036]	; 0x40c
    3954:	e1a0e00f 	mov	lr, pc
    3958:	e12fff1c 	bx	ip
    395c:	e595102c 	ldr	r1, [r5, #44]	; 0x2c
    3960:	e1a00004 	mov	r0, r4
    3964:	eb0021d8 	bl	c0cc <div_u32>
    3968:	e5953404 	ldr	r3, [r5, #1028]	; 0x404
    396c:	e0833280 	add	r3, r3, r0, lsl #5
    3970:	e1d3c0be 	ldrh	ip, [r3, #14]
    3974:	e2851b01 	add	r1, r5, #1024	; 0x400
    3978:	e24cc001 	sub	ip, ip, #1
    397c:	e1a02000 	mov	r2, r0
    3980:	e1c3c0be 	strh	ip, [r3, #14]
    3984:	e2810004 	add	r0, r1, #4
    3988:	e281100c 	add	r1, r1, #12
    398c:	ebffffae 	bl	384c <set_gd.isra.3>
    3990:	e5953014 	ldr	r3, [r5, #20]
    3994:	e2433001 	sub	r3, r3, #1
    3998:	e5853014 	str	r3, [r5, #20]
    399c:	e1a00005 	mov	r0, r5
    39a0:	ebffff6e 	bl	3760 <set_super>
    39a4:	e2840001 	add	r0, r4, #1
    39a8:	e24bd01c 	sub	sp, fp, #28
    39ac:	e89d68f0 	ldm	sp, {r4, r5, r6, r7, fp, sp, lr}
    39b0:	e12fff1e 	bx	lr
    39b4:	e5953004 	ldr	r3, [r5, #4]
    39b8:	e2844001 	add	r4, r4, #1
    39bc:	e1530004 	cmp	r3, r4
    39c0:	9affffbe 	bls	38c0 <ext2_ialloc+0x20>
    39c4:	e1a00004 	mov	r0, r4
    39c8:	eb00224d 	bl	c304 <mod_u32>
    39cc:	e3500000 	cmp	r0, #0
    39d0:	1affffc7 	bne	38f4 <ext2_ialloc+0x54>
    39d4:	e595102c 	ldr	r1, [r5, #44]	; 0x2c
    39d8:	e1a00004 	mov	r0, r4
    39dc:	eb0021ba 	bl	c0cc <div_u32>
    39e0:	e5953404 	ldr	r3, [r5, #1028]	; 0x404
    39e4:	e0833280 	add	r3, r3, r0, lsl #5
    39e8:	e1a07000 	mov	r7, r0
    39ec:	e1a01006 	mov	r1, r6
    39f0:	e5930004 	ldr	r0, [r3, #4]
    39f4:	e595c408 	ldr	ip, [r5, #1032]	; 0x408
    39f8:	e1a0e00f 	mov	lr, pc
    39fc:	e12fff1c 	bx	ip
    3a00:	eaffffbb 	b	38f4 <ext2_ialloc+0x54>

00003a04 <ext2_balloc>:
    3a04:	e1a0c00d 	mov	ip, sp
    3a08:	e92dd8f0 	push	{r4, r5, r6, r7, fp, ip, lr, pc}
    3a0c:	e24cb004 	sub	fp, ip, #4
    3a10:	e24ddb01 	sub	sp, sp, #1024	; 0x400
    3a14:	e1a04000 	mov	r4, r0
    3a18:	e5903404 	ldr	r3, [r0, #1028]	; 0x404
    3a1c:	e24b5e41 	sub	r5, fp, #1040	; 0x410
    3a20:	e245500c 	sub	r5, r5, #12
    3a24:	e5930000 	ldr	r0, [r3]
    3a28:	e1a01005 	mov	r1, r5
    3a2c:	e594c408 	ldr	ip, [r4, #1032]	; 0x408
    3a30:	e1a0e00f 	mov	lr, pc
    3a34:	e12fff1c 	bx	ip
    3a38:	e5943008 	ldr	r3, [r4, #8]
    3a3c:	e3530000 	cmp	r3, #0
    3a40:	1a000003 	bne	3a54 <ext2_balloc+0x50>
    3a44:	e3a00000 	mov	r0, #0
    3a48:	e24bd01c 	sub	sp, fp, #28
    3a4c:	e89d68f0 	ldm	sp, {r4, r5, r6, r7, fp, sp, lr}
    3a50:	e12fff1e 	bx	lr
    3a54:	e3a06000 	mov	r6, #0
    3a58:	e5941024 	ldr	r1, [r4, #36]	; 0x24
    3a5c:	e1a00006 	mov	r0, r6
    3a60:	eb002227 	bl	c304 <mod_u32>
    3a64:	e3500000 	cmp	r0, #0
    3a68:	e1a07006 	mov	r7, r6
    3a6c:	0a000036 	beq	3b4c <ext2_balloc+0x148>
    3a70:	e5941024 	ldr	r1, [r4, #36]	; 0x24
    3a74:	e0030791 	mul	r3, r1, r7
    3a78:	e0633006 	rsb	r3, r3, r6
    3a7c:	e3530000 	cmp	r3, #0
    3a80:	e2832007 	add	r2, r3, #7
    3a84:	a1a02003 	movge	r2, r3
    3a88:	e1a00fc3 	asr	r0, r3, #31
    3a8c:	e1a00ea0 	lsr	r0, r0, #29
    3a90:	e0833000 	add	r3, r3, r0
    3a94:	e7d5c1c2 	ldrb	ip, [r5, r2, asr #3]
    3a98:	e2033007 	and	r3, r3, #7
    3a9c:	e0603003 	rsb	r3, r0, r3
    3aa0:	e1a0035c 	asr	r0, ip, r3
    3aa4:	e3100001 	tst	r0, #1
    3aa8:	e08521c2 	add	r2, r5, r2, asr #3
    3aac:	1a00001e 	bne	3b2c <ext2_balloc+0x128>
    3ab0:	e3a01001 	mov	r1, #1
    3ab4:	e18c3311 	orr	r3, ip, r1, lsl r3
    3ab8:	e5c23000 	strb	r3, [r2]
    3abc:	e5943404 	ldr	r3, [r4, #1028]	; 0x404
    3ac0:	e1a01005 	mov	r1, r5
    3ac4:	e7930287 	ldr	r0, [r3, r7, lsl #5]
    3ac8:	e594c40c 	ldr	ip, [r4, #1036]	; 0x40c
    3acc:	e1a0e00f 	mov	lr, pc
    3ad0:	e12fff1c 	bx	ip
    3ad4:	e5941024 	ldr	r1, [r4, #36]	; 0x24
    3ad8:	e1a00006 	mov	r0, r6
    3adc:	eb00217a 	bl	c0cc <div_u32>
    3ae0:	e5943404 	ldr	r3, [r4, #1028]	; 0x404
    3ae4:	e0833280 	add	r3, r3, r0, lsl #5
    3ae8:	e1d3c0bc 	ldrh	ip, [r3, #12]
    3aec:	e2841b01 	add	r1, r4, #1024	; 0x400
    3af0:	e24cc001 	sub	ip, ip, #1
    3af4:	e1a02000 	mov	r2, r0
    3af8:	e1c3c0bc 	strh	ip, [r3, #12]
    3afc:	e2810004 	add	r0, r1, #4
    3b00:	e281100c 	add	r1, r1, #12
    3b04:	ebffff50 	bl	384c <set_gd.isra.3>
    3b08:	e5943010 	ldr	r3, [r4, #16]
    3b0c:	e2433001 	sub	r3, r3, #1
    3b10:	e5843010 	str	r3, [r4, #16]
    3b14:	e1a00004 	mov	r0, r4
    3b18:	ebffff10 	bl	3760 <set_super>
    3b1c:	e2860001 	add	r0, r6, #1
    3b20:	e24bd01c 	sub	sp, fp, #28
    3b24:	e89d68f0 	ldm	sp, {r4, r5, r6, r7, fp, sp, lr}
    3b28:	e12fff1e 	bx	lr
    3b2c:	e5943008 	ldr	r3, [r4, #8]
    3b30:	e2866001 	add	r6, r6, #1
    3b34:	e1530006 	cmp	r3, r6
    3b38:	9affffc1 	bls	3a44 <ext2_balloc+0x40>
    3b3c:	e1a00006 	mov	r0, r6
    3b40:	eb0021ef 	bl	c304 <mod_u32>
    3b44:	e3500000 	cmp	r0, #0
    3b48:	1affffc8 	bne	3a70 <ext2_balloc+0x6c>
    3b4c:	e5941024 	ldr	r1, [r4, #36]	; 0x24
    3b50:	e1a00006 	mov	r0, r6
    3b54:	eb00215c 	bl	c0cc <div_u32>
    3b58:	e5943404 	ldr	r3, [r4, #1028]	; 0x404
    3b5c:	e1a07000 	mov	r7, r0
    3b60:	e1a01005 	mov	r1, r5
    3b64:	e7930280 	ldr	r0, [r3, r0, lsl #5]
    3b68:	e594c408 	ldr	ip, [r4, #1032]	; 0x408
    3b6c:	e1a0e00f 	mov	lr, pc
    3b70:	e12fff1c 	bx	ip
    3b74:	eaffffbd 	b	3a70 <ext2_balloc+0x6c>

00003b78 <enter_child>:
    3b78:	e1a0c00d 	mov	ip, sp
    3b7c:	e92ddff0 	push	{r4, r5, r6, r7, r8, r9, sl, fp, ip, lr, pc}
    3b80:	e24dde41 	sub	sp, sp, #1040	; 0x410
    3b84:	e24cb004 	sub	fp, ip, #4
    3b88:	e24dd004 	sub	sp, sp, #4
    3b8c:	e1a07000 	mov	r7, r0
    3b90:	e1a00003 	mov	r0, r3
    3b94:	e1a04001 	mov	r4, r1
    3b98:	e50b3438 	str	r3, [fp, #-1080]	; 0x438
    3b9c:	e50b1430 	str	r1, [fp, #-1072]	; 0x430
    3ba0:	e50b2434 	str	r2, [fp, #-1076]	; 0x434
    3ba4:	eb002a69 	bl	e550 <strlen>
    3ba8:	e3a09000 	mov	r9, #0
    3bac:	e290600b 	adds	r6, r0, #11
    3bb0:	4280600e 	addmi	r6, r0, #14
    3bb4:	e24bae42 	sub	sl, fp, #1056	; 0x420
    3bb8:	e5945028 	ldr	r5, [r4, #40]	; 0x28
    3bbc:	e3c66003 	bic	r6, r6, #3
    3bc0:	e284802c 	add	r8, r4, #44	; 0x2c
    3bc4:	e24aa00c 	sub	sl, sl, #12
    3bc8:	e1a00005 	mov	r0, r5
    3bcc:	e1a0100a 	mov	r1, sl
    3bd0:	e597c408 	ldr	ip, [r7, #1032]	; 0x408
    3bd4:	e1a0e00f 	mov	lr, pc
    3bd8:	e12fff1c 	bx	ip
    3bdc:	e51b542c 	ldr	r5, [fp, #-1068]	; 0x42c
    3be0:	e3550000 	cmp	r5, #0
    3be4:	0a000019 	beq	3c50 <enter_child+0xd8>
    3be8:	e1a0400a 	mov	r4, sl
    3bec:	ea000000 	b	3bf4 <enter_child+0x7c>
    3bf0:	e1a04001 	mov	r4, r1
    3bf4:	e1d400b4 	ldrh	r0, [r4, #4]
    3bf8:	e24b302c 	sub	r3, fp, #44	; 0x2c
    3bfc:	e0841000 	add	r1, r4, r0
    3c00:	e1510003 	cmp	r1, r3
    3c04:	3afffff9 	bcc	3bf0 <enter_child+0x78>
    3c08:	e5d4e006 	ldrb	lr, [r4, #6]
    3c0c:	e28ee00b 	add	lr, lr, #11
    3c10:	e3cee003 	bic	lr, lr, #3
    3c14:	e06e1000 	rsb	r1, lr, r0
    3c18:	e1510006 	cmp	r1, r6
    3c1c:	aa000026 	bge	3cbc <enter_child+0x144>
    3c20:	e2899001 	add	r9, r9, #1
    3c24:	e359000c 	cmp	r9, #12
    3c28:	0a000004 	beq	3c40 <enter_child+0xc8>
    3c2c:	e5985000 	ldr	r5, [r8]
    3c30:	e3550000 	cmp	r5, #0
    3c34:	0a000030 	beq	3cfc <enter_child+0x184>
    3c38:	e2888004 	add	r8, r8, #4
    3c3c:	eaffffe1 	b	3bc8 <enter_child+0x50>
    3c40:	e3e00000 	mvn	r0, #0
    3c44:	e24bd028 	sub	sp, fp, #40	; 0x28
    3c48:	e89d6ff0 	ldm	sp, {r4, r5, r6, r7, r8, r9, sl, fp, sp, lr}
    3c4c:	e12fff1e 	bx	lr
    3c50:	e3a02b01 	mov	r2, #1024	; 0x400
    3c54:	e51b4438 	ldr	r4, [fp, #-1080]	; 0x438
    3c58:	e51b3434 	ldr	r3, [fp, #-1076]	; 0x434
    3c5c:	e1a00004 	mov	r0, r4
    3c60:	e50b342c 	str	r3, [fp, #-1068]	; 0x42c
    3c64:	e1ca20b4 	strh	r2, [sl, #4]
    3c68:	eb002a38 	bl	e550 <strlen>
    3c6c:	e1a0e000 	mov	lr, r0
    3c70:	e1a01004 	mov	r1, r4
    3c74:	e5db3004 	ldrb	r3, [fp, #4]
    3c78:	e2802001 	add	r2, r0, #1
    3c7c:	e54be426 	strb	lr, [fp, #-1062]	; 0x426
    3c80:	e24b0e42 	sub	r0, fp, #1056	; 0x420
    3c84:	e54b3425 	strb	r3, [fp, #-1061]	; 0x425
    3c88:	e2400004 	sub	r0, r0, #4
    3c8c:	eb002899 	bl	def8 <memcpy>
    3c90:	e51b2430 	ldr	r2, [fp, #-1072]	; 0x430
    3c94:	e289300a 	add	r3, r9, #10
    3c98:	e7920103 	ldr	r0, [r2, r3, lsl #2]
    3c9c:	e1a0100a 	mov	r1, sl
    3ca0:	e597c40c 	ldr	ip, [r7, #1036]	; 0x40c
    3ca4:	e1a0e00f 	mov	lr, pc
    3ca8:	e12fff1c 	bx	ip
    3cac:	e3a00000 	mov	r0, #0
    3cb0:	e24bd028 	sub	sp, fp, #40	; 0x28
    3cb4:	e89d6ff0 	ldm	sp, {r4, r5, r6, r7, r8, r9, sl, fp, sp, lr}
    3cb8:	e12fff1e 	bx	lr
    3cbc:	e51b3434 	ldr	r3, [fp, #-1076]	; 0x434
    3cc0:	e51b6438 	ldr	r6, [fp, #-1080]	; 0x438
    3cc4:	e084500e 	add	r5, r4, lr
    3cc8:	e1c4e0b4 	strh	lr, [r4, #4]
    3ccc:	e1a00006 	mov	r0, r6
    3cd0:	e784300e 	str	r3, [r4, lr]
    3cd4:	e1c510b4 	strh	r1, [r5, #4]
    3cd8:	eb002a1c 	bl	e550 <strlen>
    3cdc:	e1a02000 	mov	r2, r0
    3ce0:	e5db3004 	ldrb	r3, [fp, #4]
    3ce4:	e5c50006 	strb	r0, [r5, #6]
    3ce8:	e5c53007 	strb	r3, [r5, #7]
    3cec:	e2850008 	add	r0, r5, #8
    3cf0:	e2822001 	add	r2, r2, #1
    3cf4:	e1a01006 	mov	r1, r6
    3cf8:	eaffffe3 	b	3c8c <enter_child+0x114>
    3cfc:	e1a00007 	mov	r0, r7
    3d00:	ebffff3f 	bl	3a04 <ext2_balloc>
    3d04:	e2502000 	subs	r2, r0, #0
    3d08:	daffffcc 	ble	3c40 <enter_child+0xc8>
    3d0c:	e51b3430 	ldr	r3, [fp, #-1072]	; 0x430
    3d10:	e0836109 	add	r6, r3, r9, lsl #2
    3d14:	e5862028 	str	r2, [r6, #40]	; 0x28
    3d18:	e5932004 	ldr	r2, [r3, #4]
    3d1c:	e2822b01 	add	r2, r2, #1024	; 0x400
    3d20:	e1a0100a 	mov	r1, sl
    3d24:	e5832004 	str	r2, [r3, #4]
    3d28:	e597c408 	ldr	ip, [r7, #1032]	; 0x408
    3d2c:	e1a0e00f 	mov	lr, pc
    3d30:	e12fff1c 	bx	ip
    3d34:	e3a03b01 	mov	r3, #1024	; 0x400
    3d38:	e51b2434 	ldr	r2, [fp, #-1076]	; 0x434
    3d3c:	e51b8438 	ldr	r8, [fp, #-1080]	; 0x438
    3d40:	e5842000 	str	r2, [r4]
    3d44:	e1c430b4 	strh	r3, [r4, #4]
    3d48:	e1a00008 	mov	r0, r8
    3d4c:	eb0029ff 	bl	e550 <strlen>
    3d50:	e5db3004 	ldrb	r3, [fp, #4]
    3d54:	e2802001 	add	r2, r0, #1
    3d58:	e5c43007 	strb	r3, [r4, #7]
    3d5c:	e5c40006 	strb	r0, [r4, #6]
    3d60:	e1a01008 	mov	r1, r8
    3d64:	e2840008 	add	r0, r4, #8
    3d68:	eb002862 	bl	def8 <memcpy>
    3d6c:	e5960028 	ldr	r0, [r6, #40]	; 0x28
    3d70:	e1a0100a 	mov	r1, sl
    3d74:	e597c40c 	ldr	ip, [r7, #1036]	; 0x40c
    3d78:	e1a0e00f 	mov	lr, pc
    3d7c:	e12fff1c 	bx	ip
    3d80:	e1a00005 	mov	r0, r5
    3d84:	e24bd028 	sub	sp, fp, #40	; 0x28
    3d88:	e89d6ff0 	ldm	sp, {r4, r5, r6, r7, r8, r9, sl, fp, sp, lr}
    3d8c:	e12fff1e 	bx	lr

00003d90 <search.isra.6>:
    3d90:	e1a0c00d 	mov	ip, sp
    3d94:	e92ddff0 	push	{r4, r5, r6, r7, r8, r9, sl, fp, ip, lr, pc}
    3d98:	e24cb004 	sub	fp, ip, #4
    3d9c:	e24ddb01 	sub	sp, sp, #1024	; 0x400
    3da0:	e24b3e42 	sub	r3, fp, #1056	; 0x420
    3da4:	e24dd00c 	sub	sp, sp, #12
    3da8:	e243300c 	sub	r3, r3, #12
    3dac:	e1a06002 	mov	r6, r2
    3db0:	e50b0434 	str	r0, [fp, #-1076]	; 0x434
    3db4:	e3a05000 	mov	r5, #0
    3db8:	e2817024 	add	r7, r1, #36	; 0x24
    3dbc:	e2818054 	add	r8, r1, #84	; 0x54
    3dc0:	e50b3430 	str	r3, [fp, #-1072]	; 0x430
    3dc4:	ea000001 	b	3dd0 <search.isra.6+0x40>
    3dc8:	e1570008 	cmp	r7, r8
    3dcc:	0a000021 	beq	3e58 <search.isra.6+0xc8>
    3dd0:	e5b70004 	ldr	r0, [r7, #4]!
    3dd4:	e3500000 	cmp	r0, #0
    3dd8:	0afffffa 	beq	3dc8 <search.isra.6+0x38>
    3ddc:	e51b3434 	ldr	r3, [fp, #-1076]	; 0x434
    3de0:	e51b1430 	ldr	r1, [fp, #-1072]	; 0x430
    3de4:	e593c000 	ldr	ip, [r3]
    3de8:	e1a0e00f 	mov	lr, pc
    3dec:	e12fff1c 	bx	ip
    3df0:	e55b3426 	ldrb	r3, [fp, #-1062]	; 0x426
    3df4:	e3530000 	cmp	r3, #0
    3df8:	151ba430 	ldrne	sl, [fp, #-1072]	; 0x430
    3dfc:	1a000009 	bne	3e28 <search.isra.6+0x98>
    3e00:	eafffff0 	b	3dc8 <search.isra.6+0x38>
    3e04:	e1da10b4 	ldrh	r1, [sl, #4]
    3e08:	e24b302c 	sub	r3, fp, #44	; 0x2c
    3e0c:	e08aa001 	add	sl, sl, r1
    3e10:	e15a0003 	cmp	sl, r3
    3e14:	e5c94008 	strb	r4, [r9, #8]
    3e18:	2affffea 	bcs	3dc8 <search.isra.6+0x38>
    3e1c:	e5da3006 	ldrb	r3, [sl, #6]
    3e20:	e3530000 	cmp	r3, #0
    3e24:	0affffe7 	beq	3dc8 <search.isra.6+0x38>
    3e28:	e08a9003 	add	r9, sl, r3
    3e2c:	e28a0008 	add	r0, sl, #8
    3e30:	e1a01006 	mov	r1, r6
    3e34:	e5d94008 	ldrb	r4, [r9, #8]
    3e38:	e5c95008 	strb	r5, [r9, #8]
    3e3c:	eb0028fe 	bl	e23c <strcmp>
    3e40:	e3500000 	cmp	r0, #0
    3e44:	1affffee 	bne	3e04 <search.isra.6+0x74>
    3e48:	e59a0000 	ldr	r0, [sl]
    3e4c:	e24bd028 	sub	sp, fp, #40	; 0x28
    3e50:	e89d6ff0 	ldm	sp, {r4, r5, r6, r7, r8, r9, sl, fp, sp, lr}
    3e54:	e12fff1e 	bx	lr
    3e58:	e3e00000 	mvn	r0, #0
    3e5c:	e24bd028 	sub	sp, fp, #40	; 0x28
    3e60:	e89d6ff0 	ldm	sp, {r4, r5, r6, r7, r8, r9, sl, fp, sp, lr}
    3e64:	e12fff1e 	bx	lr

00003e68 <ext2_ino_by_fname.part.8>:
    3e68:	e1a0c00d 	mov	ip, sp
    3e6c:	e92ddff0 	push	{r4, r5, r6, r7, r8, r9, sl, fp, ip, lr, pc}
    3e70:	e24ddd12 	sub	sp, sp, #1152	; 0x480
    3e74:	e24cb004 	sub	fp, ip, #4
    3e78:	e24dd00c 	sub	sp, sp, #12
    3e7c:	e1a08001 	mov	r8, r1
    3e80:	e3a05000 	mov	r5, #0
    3e84:	e5d82000 	ldrb	r2, [r8]
    3e88:	e24b3e4a 	sub	r3, fp, #1184	; 0x4a0
    3e8c:	e24b6e42 	sub	r6, fp, #1056	; 0x420
    3e90:	e243300c 	sub	r3, r3, #12
    3e94:	e352002f 	cmp	r2, #47	; 0x2f
    3e98:	e1a07000 	mov	r7, r0
    3e9c:	e1a04005 	mov	r4, r5
    3ea0:	e246600c 	sub	r6, r6, #12
    3ea4:	e50b34b0 	str	r3, [fp, #-1200]	; 0x4b0
    3ea8:	0a00001d 	beq	3f24 <ext2_ino_by_fname.part.8+0xbc>
    3eac:	e3a03000 	mov	r3, #0
    3eb0:	e2461001 	sub	r1, r6, #1
    3eb4:	ea000007 	b	3ed8 <ext2_ino_by_fname.part.8+0x70>
    3eb8:	e5f80001 	ldrb	r0, [r8, #1]!
    3ebc:	e3500000 	cmp	r0, #0
    3ec0:	e5e12001 	strb	r2, [r1, #1]!
    3ec4:	e2833001 	add	r3, r3, #1
    3ec8:	0a000004 	beq	3ee0 <ext2_ino_by_fname.part.8+0x78>
    3ecc:	e353003f 	cmp	r3, #63	; 0x3f
    3ed0:	0a000002 	beq	3ee0 <ext2_ino_by_fname.part.8+0x78>
    3ed4:	e1a02000 	mov	r2, r0
    3ed8:	e352002f 	cmp	r2, #47	; 0x2f
    3edc:	1afffff5 	bne	3eb8 <ext2_ino_by_fname.part.8+0x50>
    3ee0:	e24b202c 	sub	r2, fp, #44	; 0x2c
    3ee4:	e0823003 	add	r3, r2, r3
    3ee8:	e1a00006 	mov	r0, r6
    3eec:	e5434400 	strb	r4, [r3, #-1024]	; 0x400
    3ef0:	eb000f65 	bl	7c8c <str_new>
    3ef4:	e51b34b0 	ldr	r3, [fp, #-1200]	; 0x4b0
    3ef8:	e7830105 	str	r0, [r3, r5, lsl #2]
    3efc:	e2855001 	add	r5, r5, #1
    3f00:	e3550020 	cmp	r5, #32
    3f04:	0a000009 	beq	3f30 <ext2_ino_by_fname.part.8+0xc8>
    3f08:	e5d83000 	ldrb	r3, [r8]
    3f0c:	e3530000 	cmp	r3, #0
    3f10:	0a000006 	beq	3f30 <ext2_ino_by_fname.part.8+0xc8>
    3f14:	e2888001 	add	r8, r8, #1
    3f18:	e5d82000 	ldrb	r2, [r8]
    3f1c:	e352002f 	cmp	r2, #47	; 0x2f
    3f20:	1affffe1 	bne	3eac <ext2_ino_by_fname.part.8+0x44>
    3f24:	e5d82001 	ldrb	r2, [r8, #1]
    3f28:	e2888001 	add	r8, r8, #1
    3f2c:	eaffffde 	b	3eac <ext2_ino_by_fname.part.8+0x44>
    3f30:	e5973000 	ldr	r3, [r7]
    3f34:	e3530000 	cmp	r3, #0
    3f38:	da000032 	ble	4008 <ext2_ino_by_fname.part.8+0x1a0>
    3f3c:	e3a0a000 	mov	sl, #0
    3f40:	e2453107 	sub	r3, r5, #-1073741823	; 0xc0000001
    3f44:	e51b24b0 	ldr	r2, [fp, #-1200]	; 0x4b0
    3f48:	e2878b01 	add	r8, r7, #1024	; 0x400
    3f4c:	e50b34b4 	str	r3, [fp, #-1204]	; 0x4b4
    3f50:	e0829103 	add	r9, r2, r3, lsl #2
    3f54:	e2888008 	add	r8, r8, #8
    3f58:	e5973404 	ldr	r3, [r7, #1028]	; 0x404
    3f5c:	e083328a 	add	r3, r3, sl, lsl #5
    3f60:	e5930008 	ldr	r0, [r3, #8]
    3f64:	e1a01006 	mov	r1, r6
    3f68:	e597c408 	ldr	ip, [r7, #1032]	; 0x408
    3f6c:	e1a0e00f 	mov	lr, pc
    3f70:	e12fff1c 	bx	ip
    3f74:	e3500000 	cmp	r0, #0
    3f78:	1a00001c 	bne	3ff0 <ext2_ino_by_fname.part.8+0x188>
    3f7c:	e51b34b0 	ldr	r3, [fp, #-1200]	; 0x4b0
    3f80:	e24b1feb 	sub	r1, fp, #940	; 0x3ac
    3f84:	e2434004 	sub	r4, r3, #4
    3f88:	e5b43004 	ldr	r3, [r4, #4]!
    3f8c:	e1a00008 	mov	r0, r8
    3f90:	e5932000 	ldr	r2, [r3]
    3f94:	ebffff7d 	bl	3d90 <search.isra.6>
    3f98:	e2505000 	subs	r5, r0, #0
    3f9c:	ba000013 	blt	3ff0 <ext2_ino_by_fname.part.8+0x188>
    3fa0:	e1a01005 	mov	r1, r5
    3fa4:	e1a00007 	mov	r0, r7
    3fa8:	e1a02006 	mov	r2, r6
    3fac:	ebfffe06 	bl	37cc <get_node_by_ino>
    3fb0:	e2501000 	subs	r1, r0, #0
    3fb4:	0a00000d 	beq	3ff0 <ext2_ino_by_fname.part.8+0x188>
    3fb8:	e1540009 	cmp	r4, r9
    3fbc:	1afffff1 	bne	3f88 <ext2_ino_by_fname.part.8+0x120>
    3fc0:	e51b34b0 	ldr	r3, [fp, #-1200]	; 0x4b0
    3fc4:	e51b24b4 	ldr	r2, [fp, #-1204]	; 0x4b4
    3fc8:	e2434004 	sub	r4, r3, #4
    3fcc:	e0836102 	add	r6, r3, r2, lsl #2
    3fd0:	e5b40004 	ldr	r0, [r4, #4]!
    3fd4:	eb000f9f 	bl	7e58 <str_free>
    3fd8:	e1540006 	cmp	r4, r6
    3fdc:	1afffffb 	bne	3fd0 <ext2_ino_by_fname.part.8+0x168>
    3fe0:	e1a00005 	mov	r0, r5
    3fe4:	e24bd028 	sub	sp, fp, #40	; 0x28
    3fe8:	e89d6ff0 	ldm	sp, {r4, r5, r6, r7, r8, r9, sl, fp, sp, lr}
    3fec:	e12fff1e 	bx	lr
    3ff0:	e5973000 	ldr	r3, [r7]
    3ff4:	e28aa001 	add	sl, sl, #1
    3ff8:	e15a0003 	cmp	sl, r3
    3ffc:	baffffd5 	blt	3f58 <ext2_ino_by_fname.part.8+0xf0>
    4000:	e3e05000 	mvn	r5, #0
    4004:	eaffffed 	b	3fc0 <ext2_ino_by_fname.part.8+0x158>
    4008:	e2453107 	sub	r3, r5, #-1073741823	; 0xc0000001
    400c:	e50b34b4 	str	r3, [fp, #-1204]	; 0x4b4
    4010:	eafffffa 	b	4000 <ext2_ino_by_fname.part.8+0x198>

00004014 <ext2_read_block>:
    4014:	e1a0c00d 	mov	ip, sp
    4018:	e92ddff0 	push	{r4, r5, r6, r7, r8, r9, sl, fp, ip, lr, pc}
    401c:	e24ddb02 	sub	sp, sp, #2048	; 0x800
    4020:	e24cb004 	sub	fp, ip, #4
    4024:	e24dd00c 	sub	sp, sp, #12
    4028:	e59be004 	ldr	lr, [fp, #4]
    402c:	e35e0000 	cmp	lr, #0
    4030:	e28ecfff 	add	ip, lr, #1020	; 0x3fc
    4034:	a1a0c00e 	movge	ip, lr
    4038:	e1a04fce 	asr	r4, lr, #31
    403c:	e1a05b24 	lsr	r5, r4, #22
    4040:	e08e7005 	add	r7, lr, r5
    4044:	e1a07b07 	lsl	r7, r7, #22
    4048:	e0654b27 	rsb	r4, r5, r7, lsr #22
    404c:	b28cc003 	addlt	ip, ip, #3
    4050:	e2649b01 	rsb	r9, r4, #1024	; 0x400
    4054:	e1590003 	cmp	r9, r3
    4058:	e1a0c54c 	asr	ip, ip, #10
    405c:	e5915004 	ldr	r5, [r1, #4]
    4060:	a1a06003 	movge	r6, r3
    4064:	b1a06009 	movlt	r6, r9
    4068:	e35c000b 	cmp	ip, #11
    406c:	e1a03000 	mov	r3, r0
    4070:	e1a08002 	mov	r8, r2
    4074:	e06e5005 	rsb	r5, lr, r5
    4078:	ca000021 	bgt	4104 <ext2_read_block+0xf0>
    407c:	e28cc00a 	add	ip, ip, #10
    4080:	e24b7e42 	sub	r7, fp, #1056	; 0x420
    4084:	e791010c 	ldr	r0, [r1, ip, lsl #2]
    4088:	e247700c 	sub	r7, r7, #12
    408c:	e1a01007 	mov	r1, r7
    4090:	e593c408 	ldr	ip, [r3, #1032]	; 0x408
    4094:	e1a0e00f 	mov	lr, pc
    4098:	e12fff1c 	bx	ip
    409c:	e3500000 	cmp	r0, #0
    40a0:	1a000044 	bne	41b8 <ext2_read_block+0x1a4>
    40a4:	e1a0a000 	mov	sl, r0
    40a8:	e0877004 	add	r7, r7, r4
    40ac:	e1550006 	cmp	r5, r6
    40b0:	b1a04005 	movlt	r4, r5
    40b4:	a1a04006 	movge	r4, r6
    40b8:	e1a00008 	mov	r0, r8
    40bc:	e1a02004 	mov	r2, r4
    40c0:	e1a01007 	mov	r1, r7
    40c4:	eb00278b 	bl	def8 <memcpy>
    40c8:	e0555004 	subs	r5, r5, r4
    40cc:	03a03001 	moveq	r3, #1
    40d0:	13a03000 	movne	r3, #0
    40d4:	e0566004 	subs	r6, r6, r4
    40d8:	03833001 	orreq	r3, r3, #1
    40dc:	e3530000 	cmp	r3, #0
    40e0:	e08aa004 	add	sl, sl, r4
    40e4:	e0649009 	rsb	r9, r4, r9
    40e8:	1a000001 	bne	40f4 <ext2_read_block+0xe0>
    40ec:	e3590000 	cmp	r9, #0
    40f0:	1affffed 	bne	40ac <ext2_read_block+0x98>
    40f4:	e1a0000a 	mov	r0, sl
    40f8:	e24bd028 	sub	sp, fp, #40	; 0x28
    40fc:	e89d6ff0 	ldm	sp, {r4, r5, r6, r7, r8, r9, sl, fp, sp, lr}
    4100:	e12fff1e 	bx	lr
    4104:	e24ca00c 	sub	sl, ip, #12
    4108:	e35a00ff 	cmp	sl, #255	; 0xff
    410c:	9a00001c 	bls	4184 <ext2_read_block+0x170>
    4110:	e591005c 	ldr	r0, [r1, #92]	; 0x5c
    4114:	e24b1e82 	sub	r1, fp, #2080	; 0x820
    4118:	e24ccf43 	sub	ip, ip, #268	; 0x10c
    411c:	e241100c 	sub	r1, r1, #12
    4120:	e1a0744c 	asr	r7, ip, #8
    4124:	e20ca0ff 	and	sl, ip, #255	; 0xff
    4128:	e50b3830 	str	r3, [fp, #-2096]	; 0x830
    412c:	e593c408 	ldr	ip, [r3, #1032]	; 0x408
    4130:	e1a0e00f 	mov	lr, pc
    4134:	e12fff1c 	bx	ip
    4138:	e3500000 	cmp	r0, #0
    413c:	1a00001d 	bne	41b8 <ext2_read_block+0x1a4>
    4140:	e24b302c 	sub	r3, fp, #44	; 0x2c
    4144:	e0832107 	add	r2, r3, r7, lsl #2
    4148:	e24b7e42 	sub	r7, fp, #1056	; 0x420
    414c:	e247700c 	sub	r7, r7, #12
    4150:	e5120800 	ldr	r0, [r2, #-2048]	; 0x800
    4154:	e1a01007 	mov	r1, r7
    4158:	e51b3830 	ldr	r3, [fp, #-2096]	; 0x830
    415c:	e593c408 	ldr	ip, [r3, #1032]	; 0x408
    4160:	e1a0e00f 	mov	lr, pc
    4164:	e12fff1c 	bx	ip
    4168:	e3500000 	cmp	r0, #0
    416c:	1a000011 	bne	41b8 <ext2_read_block+0x1a4>
    4170:	e24b302c 	sub	r3, fp, #44	; 0x2c
    4174:	e083a10a 	add	sl, r3, sl, lsl #2
    4178:	e51a0400 	ldr	r0, [sl, #-1024]	; 0x400
    417c:	e51b3830 	ldr	r3, [fp, #-2096]	; 0x830
    4180:	eaffffc1 	b	408c <ext2_read_block+0x78>
    4184:	e24b7e42 	sub	r7, fp, #1056	; 0x420
    4188:	e247700c 	sub	r7, r7, #12
    418c:	e5910058 	ldr	r0, [r1, #88]	; 0x58
    4190:	e1a01007 	mov	r1, r7
    4194:	e50b3830 	str	r3, [fp, #-2096]	; 0x830
    4198:	e593c408 	ldr	ip, [r3, #1032]	; 0x408
    419c:	e1a0e00f 	mov	lr, pc
    41a0:	e12fff1c 	bx	ip
    41a4:	e24b302c 	sub	r3, fp, #44	; 0x2c
    41a8:	e083a10a 	add	sl, r3, sl, lsl #2
    41ac:	e51a0400 	ldr	r0, [sl, #-1024]	; 0x400
    41b0:	e51b3830 	ldr	r3, [fp, #-2096]	; 0x830
    41b4:	eaffffb4 	b	408c <ext2_read_block+0x78>
    41b8:	e3e00000 	mvn	r0, #0
    41bc:	eaffffcd 	b	40f8 <ext2_read_block+0xe4>

000041c0 <ext2_read>:
    41c0:	e1a0c00d 	mov	ip, sp
    41c4:	e92ddbf0 	push	{r4, r5, r6, r7, r8, r9, fp, ip, lr, pc}
    41c8:	e24cb004 	sub	fp, ip, #4
    41cc:	e24dd008 	sub	sp, sp, #8
    41d0:	e2539000 	subs	r9, r3, #0
    41d4:	e1a07000 	mov	r7, r0
    41d8:	e1a08001 	mov	r8, r1
    41dc:	e1a05002 	mov	r5, r2
    41e0:	e59b6004 	ldr	r6, [fp, #4]
    41e4:	c1a04009 	movgt	r4, r9
    41e8:	ca000004 	bgt	4200 <ext2_read+0x40>
    41ec:	ea000010 	b	4234 <ext2_read+0x74>
    41f0:	e3540000 	cmp	r4, #0
    41f4:	e0866000 	add	r6, r6, r0
    41f8:	e0855000 	add	r5, r5, r0
    41fc:	da00000c 	ble	4234 <ext2_read+0x74>
    4200:	e1a03004 	mov	r3, r4
    4204:	e58d6000 	str	r6, [sp]
    4208:	e1a00007 	mov	r0, r7
    420c:	e1a01008 	mov	r1, r8
    4210:	e1a02005 	mov	r2, r5
    4214:	ebffff7e 	bl	4014 <ext2_read_block>
    4218:	e3500000 	cmp	r0, #0
    421c:	e0604004 	rsb	r4, r0, r4
    4220:	cafffff2 	bgt	41f0 <ext2_read+0x30>
    4224:	e3a00000 	mov	r0, #0
    4228:	e24bd024 	sub	sp, fp, #36	; 0x24
    422c:	e89d6bf0 	ldm	sp, {r4, r5, r6, r7, r8, r9, fp, sp, lr}
    4230:	e12fff1e 	bx	lr
    4234:	e1a00009 	mov	r0, r9
    4238:	e24bd024 	sub	sp, fp, #36	; 0x24
    423c:	e89d6bf0 	ldm	sp, {r4, r5, r6, r7, r8, r9, fp, sp, lr}
    4240:	e12fff1e 	bx	lr

00004244 <put_node>:
    4244:	e1a0c00d 	mov	ip, sp
    4248:	e92dd9f0 	push	{r4, r5, r6, r7, r8, fp, ip, lr, pc}
    424c:	e24ddb01 	sub	sp, sp, #1024	; 0x400
    4250:	e24cb004 	sub	fp, ip, #4
    4254:	e24dd004 	sub	sp, sp, #4
    4258:	e1a04001 	mov	r4, r1
    425c:	e1a05000 	mov	r5, r0
    4260:	e590102c 	ldr	r1, [r0, #44]	; 0x2c
    4264:	e1a00004 	mov	r0, r4
    4268:	e1a07002 	mov	r7, r2
    426c:	eb001f96 	bl	c0cc <div_u32>
    4270:	e595102c 	ldr	r1, [r5, #44]	; 0x2c
    4274:	e0010190 	mul	r1, r0, r1
    4278:	e5953404 	ldr	r3, [r5, #1028]	; 0x404
    427c:	e0611004 	rsb	r1, r1, r4
    4280:	e0830280 	add	r0, r3, r0, lsl #5
    4284:	e2514001 	subs	r4, r1, #1
    4288:	e5903008 	ldr	r3, [r0, #8]
    428c:	42818006 	addmi	r8, r1, #6
    4290:	51a08004 	movpl	r8, r4
    4294:	e24b6e42 	sub	r6, fp, #1056	; 0x420
    4298:	e08381c8 	add	r8, r3, r8, asr #3
    429c:	e2466004 	sub	r6, r6, #4
    42a0:	e1a01006 	mov	r1, r6
    42a4:	e1a00008 	mov	r0, r8
    42a8:	e595c408 	ldr	ip, [r5, #1032]	; 0x408
    42ac:	e1a0e00f 	mov	lr, pc
    42b0:	e12fff1c 	bx	ip
    42b4:	e1a00fc4 	asr	r0, r4, #31
    42b8:	e1a00ea0 	lsr	r0, r0, #29
    42bc:	e0844000 	add	r4, r4, r0
    42c0:	e2044007 	and	r4, r4, #7
    42c4:	e24b3024 	sub	r3, fp, #36	; 0x24
    42c8:	e0600004 	rsb	r0, r0, r4
    42cc:	e0830380 	add	r0, r3, r0, lsl #7
    42d0:	e1a01007 	mov	r1, r7
    42d4:	e3a02080 	mov	r2, #128	; 0x80
    42d8:	e2400b01 	sub	r0, r0, #1024	; 0x400
    42dc:	eb002705 	bl	def8 <memcpy>
    42e0:	e1a00008 	mov	r0, r8
    42e4:	e1a01006 	mov	r1, r6
    42e8:	e595c40c 	ldr	ip, [r5, #1036]	; 0x40c
    42ec:	e1a0e00f 	mov	lr, pc
    42f0:	e12fff1c 	bx	ip
    42f4:	e24bd020 	sub	sp, fp, #32
    42f8:	e89d69f0 	ldm	sp, {r4, r5, r6, r7, r8, fp, sp, lr}
    42fc:	e12fff1e 	bx	lr

00004300 <ext2_create_dir>:
    4300:	e1a0c00d 	mov	ip, sp
    4304:	e92ddff0 	push	{r4, r5, r6, r7, r8, r9, sl, fp, ip, lr, pc}
    4308:	e24ddb01 	sub	sp, sp, #1024	; 0x400
    430c:	e24cb004 	sub	fp, ip, #4
    4310:	e24dd00c 	sub	sp, sp, #12
    4314:	e1a08003 	mov	r8, r3
    4318:	e1a05000 	mov	r5, r0
    431c:	e1a07001 	mov	r7, r1
    4320:	e1a06002 	mov	r6, r2
    4324:	ebfffd5d 	bl	38a0 <ext2_ialloc>
    4328:	e1a04000 	mov	r4, r0
    432c:	e1a00005 	mov	r0, r5
    4330:	ebfffdb3 	bl	3a04 <ext2_balloc>
    4334:	e24b2e42 	sub	r2, fp, #1056	; 0x420
    4338:	e1a09000 	mov	r9, r0
    433c:	e1a01004 	mov	r1, r4
    4340:	e242200c 	sub	r2, r2, #12
    4344:	e1a00005 	mov	r0, r5
    4348:	ebfffd1f 	bl	37cc <get_node_by_ino>
    434c:	e1a02000 	mov	r2, r0
    4350:	e3a03000 	mov	r3, #0
    4354:	e3a0eb01 	mov	lr, #1024	; 0x400
    4358:	e3a00002 	mov	r0, #2
    435c:	e1a01002 	mov	r1, r2
    4360:	e1a0a828 	lsr	sl, r8, #16
    4364:	e1c230b0 	strh	r3, [r2]
    4368:	e1c231ba 	strh	r3, [r2, #26]
    436c:	e5823008 	str	r3, [r2, #8]
    4370:	e582300c 	str	r3, [r2, #12]
    4374:	e5823010 	str	r3, [r2, #16]
    4378:	e1c280b2 	strh	r8, [r2, #2]
    437c:	e1c2a1b8 	strh	sl, [r2, #24]
    4380:	e582e004 	str	lr, [r2, #4]
    4384:	e582001c 	str	r0, [r2, #28]
    4388:	e5a19028 	str	r9, [r1, #40]!	; 0x28
    438c:	e1a0c003 	mov	ip, r3
    4390:	e2823060 	add	r3, r2, #96	; 0x60
    4394:	e5a1c004 	str	ip, [r1, #4]!
    4398:	e1510003 	cmp	r1, r3
    439c:	1afffffc 	bne	4394 <ext2_create_dir+0x94>
    43a0:	e1a00005 	mov	r0, r5
    43a4:	e1a01004 	mov	r1, r4
    43a8:	ebffffa5 	bl	4244 <put_node>
    43ac:	e3a02002 	mov	r2, #2
    43b0:	e1a00005 	mov	r0, r5
    43b4:	e58d2000 	str	r2, [sp]
    43b8:	e1a01007 	mov	r1, r7
    43bc:	e1a03006 	mov	r3, r6
    43c0:	e1a02004 	mov	r2, r4
    43c4:	ebfffdeb 	bl	3b78 <enter_child>
    43c8:	e3500000 	cmp	r0, #0
    43cc:	a1a00004 	movge	r0, r4
    43d0:	b3e00000 	mvnlt	r0, #0
    43d4:	e24bd028 	sub	sp, fp, #40	; 0x28
    43d8:	e89d6ff0 	ldm	sp, {r4, r5, r6, r7, r8, r9, sl, fp, sp, lr}
    43dc:	e12fff1e 	bx	lr

000043e0 <ext2_create_file>:
    43e0:	e1a0c00d 	mov	ip, sp
    43e4:	e92dd9f0 	push	{r4, r5, r6, r7, r8, fp, ip, lr, pc}
    43e8:	e24ddb01 	sub	sp, sp, #1024	; 0x400
    43ec:	e24cb004 	sub	fp, ip, #4
    43f0:	e24dd00c 	sub	sp, sp, #12
    43f4:	e1a08003 	mov	r8, r3
    43f8:	e1a05000 	mov	r5, r0
    43fc:	e1a07001 	mov	r7, r1
    4400:	e1a06002 	mov	r6, r2
    4404:	ebfffd25 	bl	38a0 <ext2_ialloc>
    4408:	e1a04000 	mov	r4, r0
    440c:	e24b2e42 	sub	r2, fp, #1056	; 0x420
    4410:	e1a01004 	mov	r1, r4
    4414:	e2422004 	sub	r2, r2, #4
    4418:	e1a00005 	mov	r0, r5
    441c:	ebfffcea 	bl	37cc <get_node_by_ino>
    4420:	e3a01000 	mov	r1, #0
    4424:	e1a02000 	mov	r2, r0
    4428:	e1a03828 	lsr	r3, r8, #16
    442c:	e1c080b2 	strh	r8, [r0, #2]
    4430:	e1a0c001 	mov	ip, r1
    4434:	e1c031b8 	strh	r3, [r0, #24]
    4438:	e1c010b0 	strh	r1, [r0]
    443c:	e5801004 	str	r1, [r0, #4]
    4440:	e1c011ba 	strh	r1, [r0, #26]
    4444:	e5801008 	str	r1, [r0, #8]
    4448:	e580100c 	str	r1, [r0, #12]
    444c:	e5801010 	str	r1, [r0, #16]
    4450:	e580101c 	str	r1, [r0, #28]
    4454:	e2803024 	add	r3, r0, #36	; 0x24
    4458:	e2801060 	add	r1, r0, #96	; 0x60
    445c:	e5a3c004 	str	ip, [r3, #4]!
    4460:	e1530001 	cmp	r3, r1
    4464:	1afffffc 	bne	445c <ext2_create_file+0x7c>
    4468:	e1a00005 	mov	r0, r5
    446c:	e1a01004 	mov	r1, r4
    4470:	ebffff73 	bl	4244 <put_node>
    4474:	e3a02001 	mov	r2, #1
    4478:	e1a00005 	mov	r0, r5
    447c:	e58d2000 	str	r2, [sp]
    4480:	e1a01007 	mov	r1, r7
    4484:	e1a03006 	mov	r3, r6
    4488:	e1a02004 	mov	r2, r4
    448c:	ebfffdb9 	bl	3b78 <enter_child>
    4490:	e3500000 	cmp	r0, #0
    4494:	a1a00004 	movge	r0, r4
    4498:	b3e00000 	mvnlt	r0, #0
    449c:	e24bd020 	sub	sp, fp, #32
    44a0:	e89d69f0 	ldm	sp, {r4, r5, r6, r7, r8, fp, sp, lr}
    44a4:	e12fff1e 	bx	lr

000044a8 <ext2_write>:
    44a8:	e1a0c00d 	mov	ip, sp
    44ac:	e92ddff0 	push	{r4, r5, r6, r7, r8, r9, sl, fp, ip, lr, pc}
    44b0:	e24cb004 	sub	fp, ip, #4
    44b4:	e24dd00c 	sub	sp, sp, #12
    44b8:	e59b6004 	ldr	r6, [fp, #4]
    44bc:	e3560000 	cmp	r6, #0
    44c0:	e286afff 	add	sl, r6, #1020	; 0x3fc
    44c4:	a1a0a006 	movge	sl, r6
    44c8:	e1a04fc6 	asr	r4, r6, #31
    44cc:	b28aa003 	addlt	sl, sl, #3
    44d0:	e1a0cb24 	lsr	ip, r4, #22
    44d4:	e086400c 	add	r4, r6, ip
    44d8:	e1a0a54a 	asr	sl, sl, #10
    44dc:	e1a04b04 	lsl	r4, r4, #22
    44e0:	e35a000b 	cmp	sl, #11
    44e4:	e1a07001 	mov	r7, r1
    44e8:	e1a08002 	mov	r8, r2
    44ec:	e1a05003 	mov	r5, r3
    44f0:	e06c4b24 	rsb	r4, ip, r4, lsr #22
    44f4:	e50b0030 	str	r0, [fp, #-48]	; 0x30
    44f8:	ca00002f 	bgt	45bc <ext2_write+0x114>
    44fc:	e081a10a 	add	sl, r1, sl, lsl #2
    4500:	e59a3028 	ldr	r3, [sl, #40]	; 0x28
    4504:	e3530000 	cmp	r3, #0
    4508:	0a00004a 	beq	4638 <ext2_write+0x190>
    450c:	e50b3034 	str	r3, [fp, #-52]	; 0x34
    4510:	e59f3178 	ldr	r3, [pc, #376]	; 4690 <ext2_write+0x1e8>
    4514:	e08f3003 	add	r3, pc, r3
    4518:	e1a09003 	mov	r9, r3
    451c:	e3a0a000 	mov	sl, #0
    4520:	e1a01003 	mov	r1, r3
    4524:	e51b0034 	ldr	r0, [fp, #-52]	; 0x34
    4528:	e51b3030 	ldr	r3, [fp, #-48]	; 0x30
    452c:	e593c408 	ldr	ip, [r3, #1032]	; 0x408
    4530:	e1a0e00f 	mov	lr, pc
    4534:	e12fff1c 	bx	ip
    4538:	e0893004 	add	r3, r9, r4
    453c:	e2649b01 	rsb	r9, r4, #1024	; 0x400
    4540:	e1550009 	cmp	r5, r9
    4544:	b1a04005 	movlt	r4, r5
    4548:	a1a04009 	movge	r4, r9
    454c:	e1a02005 	mov	r2, r5
    4550:	e1a00003 	mov	r0, r3
    4554:	e1a01008 	mov	r1, r8
    4558:	eb002666 	bl	def8 <memcpy>
    455c:	e5972004 	ldr	r2, [r7, #4]
    4560:	e0866004 	add	r6, r6, r4
    4564:	e1560002 	cmp	r6, r2
    4568:	e0645005 	rsb	r5, r4, r5
    456c:	e08aa004 	add	sl, sl, r4
    4570:	e0649009 	rsb	r9, r4, r9
    4574:	c0844002 	addgt	r4, r4, r2
    4578:	c5874004 	strgt	r4, [r7, #4]
    457c:	e3550000 	cmp	r5, #0
    4580:	e1a03000 	mov	r3, r0
    4584:	da000001 	ble	4590 <ext2_write+0xe8>
    4588:	e3590000 	cmp	r9, #0
    458c:	caffffeb 	bgt	4540 <ext2_write+0x98>
    4590:	e59f10fc 	ldr	r1, [pc, #252]	; 4694 <ext2_write+0x1ec>
    4594:	e51b0034 	ldr	r0, [fp, #-52]	; 0x34
    4598:	e08f1001 	add	r1, pc, r1
    459c:	e51b3030 	ldr	r3, [fp, #-48]	; 0x30
    45a0:	e593c40c 	ldr	ip, [r3, #1036]	; 0x40c
    45a4:	e1a0e00f 	mov	lr, pc
    45a8:	e12fff1c 	bx	ip
    45ac:	e1a0000a 	mov	r0, sl
    45b0:	e24bd028 	sub	sp, fp, #40	; 0x28
    45b4:	e89d6ff0 	ldm	sp, {r4, r5, r6, r7, r8, r9, sl, fp, sp, lr}
    45b8:	e12fff1e 	bx	lr
    45bc:	e24a300c 	sub	r3, sl, #12
    45c0:	e35300ff 	cmp	r3, #255	; 0xff
    45c4:	83a0a000 	movhi	sl, #0
    45c8:	8afffff7 	bhi	45ac <ext2_write+0x104>
    45cc:	e5911058 	ldr	r1, [r1, #88]	; 0x58
    45d0:	e3510000 	cmp	r1, #0
    45d4:	0a00001b 	beq	4648 <ext2_write+0x1a0>
    45d8:	e59f90b8 	ldr	r9, [pc, #184]	; 4698 <ext2_write+0x1f0>
    45dc:	e08f9009 	add	r9, pc, r9
    45e0:	e1a00001 	mov	r0, r1
    45e4:	e24aa133 	sub	sl, sl, #-1073741812	; 0xc000000c
    45e8:	e1a01009 	mov	r1, r9
    45ec:	e51b3030 	ldr	r3, [fp, #-48]	; 0x30
    45f0:	e593c408 	ldr	ip, [r3, #1032]	; 0x408
    45f4:	e1a0e00f 	mov	lr, pc
    45f8:	e12fff1c 	bx	ip
    45fc:	e799210a 	ldr	r2, [r9, sl, lsl #2]
    4600:	e3520000 	cmp	r2, #0
    4604:	150b2034 	strne	r2, [fp, #-52]	; 0x34
    4608:	1affffc0 	bne	4510 <ext2_write+0x68>
    460c:	e51b0030 	ldr	r0, [fp, #-48]	; 0x30
    4610:	ebfffcfb 	bl	3a04 <ext2_balloc>
    4614:	e789010a 	str	r0, [r9, sl, lsl #2]
    4618:	e51b3030 	ldr	r3, [fp, #-48]	; 0x30
    461c:	e1a01009 	mov	r1, r9
    4620:	e5970058 	ldr	r0, [r7, #88]	; 0x58
    4624:	e593c40c 	ldr	ip, [r3, #1036]	; 0x40c
    4628:	e1a0e00f 	mov	lr, pc
    462c:	e12fff1c 	bx	ip
    4630:	e799310a 	ldr	r3, [r9, sl, lsl #2]
    4634:	eaffffb4 	b	450c <ext2_write+0x64>
    4638:	ebfffcf1 	bl	3a04 <ext2_balloc>
    463c:	e1a03000 	mov	r3, r0
    4640:	e58a0028 	str	r0, [sl, #40]	; 0x28
    4644:	eaffffb0 	b	450c <ext2_write+0x64>
    4648:	e50b1034 	str	r1, [fp, #-52]	; 0x34
    464c:	ebfffcec 	bl	3a04 <ext2_balloc>
    4650:	e59f3044 	ldr	r3, [pc, #68]	; 469c <ext2_write+0x1f4>
    4654:	e08f3003 	add	r3, pc, r3
    4658:	e1a09003 	mov	r9, r3
    465c:	e5870058 	str	r0, [r7, #88]	; 0x58
    4660:	e51b1034 	ldr	r1, [fp, #-52]	; 0x34
    4664:	e1a00003 	mov	r0, r3
    4668:	e3a02b01 	mov	r2, #1024	; 0x400
    466c:	eb00265d 	bl	dfe8 <memset>
    4670:	e1a01009 	mov	r1, r9
    4674:	e5970058 	ldr	r0, [r7, #88]	; 0x58
    4678:	e51b3030 	ldr	r3, [fp, #-48]	; 0x30
    467c:	e593c40c 	ldr	ip, [r3, #1036]	; 0x40c
    4680:	e1a0e00f 	mov	lr, pc
    4684:	e12fff1c 	bx	ip
    4688:	e5971058 	ldr	r1, [r7, #88]	; 0x58
    468c:	eaffffd1 	b	45d8 <ext2_write+0x130>
    4690:	00047e14 	andeq	r7, r4, r4, lsl lr
    4694:	00047d90 	muleq	r4, r0, sp
    4698:	00047d4c 	andeq	r7, r4, ip, asr #26
    469c:	00047cd4 	ldrdeq	r7, [r4], -r4

000046a0 <ext2_ino_by_fname>:
    46a0:	e1a0c00d 	mov	ip, sp
    46a4:	e92dd830 	push	{r4, r5, fp, ip, lr, pc}
    46a8:	e1a04001 	mov	r4, r1
    46ac:	e59f103c 	ldr	r1, [pc, #60]	; 46f0 <ext2_ino_by_fname+0x50>
    46b0:	e24cb004 	sub	fp, ip, #4
    46b4:	e1a05000 	mov	r5, r0
    46b8:	e08f1001 	add	r1, pc, r1
    46bc:	e1a00004 	mov	r0, r4
    46c0:	eb0026dd 	bl	e23c <strcmp>
    46c4:	e3500000 	cmp	r0, #0
    46c8:	1a000003 	bne	46dc <ext2_ino_by_fname+0x3c>
    46cc:	e3a00002 	mov	r0, #2
    46d0:	e24bd014 	sub	sp, fp, #20
    46d4:	e89d6830 	ldm	sp, {r4, r5, fp, sp, lr}
    46d8:	e12fff1e 	bx	lr
    46dc:	e1a00005 	mov	r0, r5
    46e0:	e1a01004 	mov	r1, r4
    46e4:	e24bd014 	sub	sp, fp, #20
    46e8:	e89d6830 	ldm	sp, {r4, r5, fp, sp, lr}
    46ec:	eafffddd 	b	3e68 <ext2_ino_by_fname.part.8>
    46f0:	0000ada8 	andeq	sl, r0, r8, lsr #27

000046f4 <ext2_unlink>:
    46f4:	e1a0c00d 	mov	ip, sp
    46f8:	e92ddff0 	push	{r4, r5, r6, r7, r8, r9, sl, fp, ip, lr, pc}
    46fc:	e59f5530 	ldr	r5, [pc, #1328]	; 4c34 <ext2_unlink+0x540>
    4700:	e24ddec2 	sub	sp, sp, #3104	; 0xc20
    4704:	e24cb004 	sub	fp, ip, #4
    4708:	e24dd00c 	sub	sp, sp, #12
    470c:	e08f5005 	add	r5, pc, r5
    4710:	e1a04000 	mov	r4, r0
    4714:	e1a00005 	mov	r0, r5
    4718:	e1a07001 	mov	r7, r1
    471c:	eb000d5a 	bl	7c8c <str_new>
    4720:	e1a06000 	mov	r6, r0
    4724:	e1a00005 	mov	r0, r5
    4728:	eb000d57 	bl	7c8c <str_new>
    472c:	e1a01006 	mov	r1, r6
    4730:	e1a02000 	mov	r2, r0
    4734:	e50b0c48 	str	r0, [fp, #-3144]	; 0xc48
    4738:	e1a00007 	mov	r0, r7
    473c:	eb001340 	bl	9444 <vfs_parse_name>
    4740:	e1a00004 	mov	r0, r4
    4744:	e5961000 	ldr	r1, [r6]
    4748:	ebffffd4 	bl	46a0 <ext2_ino_by_fname>
    474c:	e2503000 	subs	r3, r0, #0
    4750:	e50b3c4c 	str	r3, [fp, #-3148]	; 0xc4c
    4754:	ba00012c 	blt	4c0c <ext2_unlink+0x518>
    4758:	e24b3ec2 	sub	r3, fp, #3104	; 0xc20
    475c:	e243300c 	sub	r3, r3, #12
    4760:	e1a02003 	mov	r2, r3
    4764:	e51b1c4c 	ldr	r1, [fp, #-3148]	; 0xc4c
    4768:	e1a00004 	mov	r0, r4
    476c:	e50b3c54 	str	r3, [fp, #-3156]	; 0xc54
    4770:	ebfffc15 	bl	37cc <get_node_by_ino>
    4774:	e1a05000 	mov	r5, r0
    4778:	e50b0c44 	str	r0, [fp, #-3140]	; 0xc44
    477c:	e1a00006 	mov	r0, r6
    4780:	eb000db4 	bl	7e58 <str_free>
    4784:	e3550000 	cmp	r5, #0
    4788:	0a000125 	beq	4c24 <ext2_unlink+0x530>
    478c:	e51b5c44 	ldr	r5, [fp, #-3140]	; 0xc44
    4790:	e51b6c48 	ldr	r6, [fp, #-3144]	; 0xc48
    4794:	e2843b01 	add	r3, r4, #1024	; 0x400
    4798:	e2830008 	add	r0, r3, #8
    479c:	e1a01005 	mov	r1, r5
    47a0:	e5962000 	ldr	r2, [r6]
    47a4:	e50b3c50 	str	r3, [fp, #-3152]	; 0xc50
    47a8:	ebfffd78 	bl	3d90 <search.isra.6>
    47ac:	e50b0c3c 	str	r0, [fp, #-3132]	; 0xc3c
    47b0:	e5950028 	ldr	r0, [r5, #40]	; 0x28
    47b4:	e3500000 	cmp	r0, #0
    47b8:	e1a03005 	mov	r3, r5
    47bc:	e5967000 	ldr	r7, [r6]
    47c0:	0a00004a 	beq	48f0 <ext2_unlink+0x1fc>
    47c4:	e3a05000 	mov	r5, #0
    47c8:	e24bae42 	sub	sl, fp, #1056	; 0x420
    47cc:	e24aa00c 	sub	sl, sl, #12
    47d0:	e50b4c40 	str	r4, [fp, #-3136]	; 0xc40
    47d4:	e1a09005 	mov	r9, r5
    47d8:	e1a0400a 	mov	r4, sl
    47dc:	e2833028 	add	r3, r3, #40	; 0x28
    47e0:	e24b8e82 	sub	r8, fp, #2080	; 0x820
    47e4:	e50b3c38 	str	r3, [fp, #-3128]	; 0xc38
    47e8:	e50b5c30 	str	r5, [fp, #-3120]	; 0xc30
    47ec:	e50b5c34 	str	r5, [fp, #-3124]	; 0xc34
    47f0:	e248800c 	sub	r8, r8, #12
    47f4:	e51b3c40 	ldr	r3, [fp, #-3136]	; 0xc40
    47f8:	e1a01008 	mov	r1, r8
    47fc:	e593c408 	ldr	ip, [r3, #1032]	; 0x408
    4800:	e1a0e00f 	mov	lr, pc
    4804:	e12fff1c 	bx	ip
    4808:	e1a03004 	mov	r3, r4
    480c:	e1a0a008 	mov	sl, r8
    4810:	e1a04009 	mov	r4, r9
    4814:	e3a06000 	mov	r6, #0
    4818:	e1a09005 	mov	r9, r5
    481c:	e1a05003 	mov	r5, r3
    4820:	ea000018 	b	4888 <ext2_unlink+0x194>
    4824:	e59a3000 	ldr	r3, [sl]
    4828:	e3530000 	cmp	r3, #0
    482c:	0a000019 	beq	4898 <ext2_unlink+0x1a4>
    4830:	e28a0008 	add	r0, sl, #8
    4834:	e1a01007 	mov	r1, r7
    4838:	eb00267f 	bl	e23c <strcmp>
    483c:	e3500000 	cmp	r0, #0
    4840:	11a0900a 	movne	r9, sl
    4844:	e1da00b4 	ldrh	r0, [sl, #4]
    4848:	1a00000a 	bne	4878 <ext2_unlink+0x184>
    484c:	e3500b01 	cmp	r0, #1024	; 0x400
    4850:	0a0000b6 	beq	4b30 <ext2_unlink+0x43c>
    4854:	e3590000 	cmp	r9, #0
    4858:	0a0000b0 	beq	4b20 <ext2_unlink+0x42c>
    485c:	e068400a 	rsb	r4, r8, sl
    4860:	e0803004 	add	r3, r0, r4
    4864:	e3530b01 	cmp	r3, #1024	; 0x400
    4868:	0a0000bc 	beq	4b60 <ext2_unlink+0x46c>
    486c:	e50b4c30 	str	r4, [fp, #-3120]	; 0xc30
    4870:	e1a04000 	mov	r4, r0
    4874:	e3a06001 	mov	r6, #1
    4878:	e08a3000 	add	r3, sl, r0
    487c:	e1530005 	cmp	r3, r5
    4880:	2a000009 	bcs	48ac <ext2_unlink+0x1b8>
    4884:	e1a0a003 	mov	sl, r3
    4888:	e3560000 	cmp	r6, #0
    488c:	0affffe4 	beq	4824 <ext2_unlink+0x130>
    4890:	e1da00b4 	ldrh	r0, [sl, #4]
    4894:	eafffff6 	b	4874 <ext2_unlink+0x180>
    4898:	e1da00b4 	ldrh	r0, [sl, #4]
    489c:	e08a3000 	add	r3, sl, r0
    48a0:	e1530005 	cmp	r3, r5
    48a4:	e1a0900a 	mov	r9, sl
    48a8:	3afffff5 	bcc	4884 <ext2_unlink+0x190>
    48ac:	e1a03005 	mov	r3, r5
    48b0:	e3560001 	cmp	r6, #1
    48b4:	e1a05009 	mov	r5, r9
    48b8:	e1a09004 	mov	r9, r4
    48bc:	e1a04003 	mov	r4, r3
    48c0:	0a0000b3 	beq	4b94 <ext2_unlink+0x4a0>
    48c4:	e51b3c34 	ldr	r3, [fp, #-3124]	; 0xc34
    48c8:	e2833001 	add	r3, r3, #1
    48cc:	e353000c 	cmp	r3, #12
    48d0:	e50b3c34 	str	r3, [fp, #-3124]	; 0xc34
    48d4:	0a000004 	beq	48ec <ext2_unlink+0x1f8>
    48d8:	e51b3c38 	ldr	r3, [fp, #-3128]	; 0xc38
    48dc:	e5b30004 	ldr	r0, [r3, #4]!
    48e0:	e3500000 	cmp	r0, #0
    48e4:	e50b3c38 	str	r3, [fp, #-3128]	; 0xc38
    48e8:	1affffc1 	bne	47f4 <ext2_unlink+0x100>
    48ec:	e51b4c40 	ldr	r4, [fp, #-3136]	; 0xc40
    48f0:	e51b0c48 	ldr	r0, [fp, #-3144]	; 0xc48
    48f4:	eb000d57 	bl	7e58 <str_free>
    48f8:	e1a00004 	mov	r0, r4
    48fc:	e51b1c4c 	ldr	r1, [fp, #-3148]	; 0xc4c
    4900:	e51b2c44 	ldr	r2, [fp, #-3140]	; 0xc44
    4904:	ebfffe4e 	bl	4244 <put_node>
    4908:	e51b3c3c 	ldr	r3, [fp, #-3132]	; 0xc3c
    490c:	e3530000 	cmp	r3, #0
    4910:	ba0000bb 	blt	4c04 <ext2_unlink+0x510>
    4914:	e51b2c54 	ldr	r2, [fp, #-3156]	; 0xc54
    4918:	e1a00004 	mov	r0, r4
    491c:	e51b1c3c 	ldr	r1, [fp, #-3132]	; 0xc3c
    4920:	ebfffba9 	bl	37cc <get_node_by_ino>
    4924:	e2503000 	subs	r3, r0, #0
    4928:	e50b3c38 	str	r3, [fp, #-3128]	; 0xc38
    492c:	0a0000b4 	beq	4c04 <ext2_unlink+0x510>
    4930:	e3a08001 	mov	r8, #1
    4934:	e2836024 	add	r6, r3, #36	; 0x24
    4938:	e2837054 	add	r7, r3, #84	; 0x54
    493c:	e51b3c50 	ldr	r3, [fp, #-3152]	; 0xc50
    4940:	e2832004 	add	r2, r3, #4
    4944:	e283300c 	add	r3, r3, #12
    4948:	e24b5e42 	sub	r5, fp, #1056	; 0x420
    494c:	e50b2c30 	str	r2, [fp, #-3120]	; 0xc30
    4950:	e50b3c34 	str	r3, [fp, #-3124]	; 0xc34
    4954:	e245500c 	sub	r5, r5, #12
    4958:	e5b69004 	ldr	r9, [r6, #4]!
    495c:	e3590000 	cmp	r9, #0
    4960:	0a00002c 	beq	4a18 <ext2_unlink+0x324>
    4964:	da000029 	ble	4a10 <ext2_unlink+0x31c>
    4968:	e5941024 	ldr	r1, [r4, #36]	; 0x24
    496c:	e1a00009 	mov	r0, r9
    4970:	eb001dd5 	bl	c0cc <div_u32>
    4974:	e5942404 	ldr	r2, [r4, #1028]	; 0x404
    4978:	e1a0a000 	mov	sl, r0
    497c:	e1a01005 	mov	r1, r5
    4980:	e7920280 	ldr	r0, [r2, r0, lsl #5]
    4984:	e594c408 	ldr	ip, [r4, #1032]	; 0x408
    4988:	e1a0e00f 	mov	lr, pc
    498c:	e12fff1c 	bx	ip
    4990:	e2492001 	sub	r2, r9, #1
    4994:	e3500000 	cmp	r0, #0
    4998:	e202e007 	and	lr, r2, #7
    499c:	1a00001b 	bne	4a10 <ext2_unlink+0x31c>
    49a0:	e7d511c2 	ldrb	r1, [r5, r2, asr #3]
    49a4:	e1c11e18 	bic	r1, r1, r8, lsl lr
    49a8:	e7c511c2 	strb	r1, [r5, r2, asr #3]
    49ac:	e5942404 	ldr	r2, [r4, #1028]	; 0x404
    49b0:	e1a01005 	mov	r1, r5
    49b4:	e792028a 	ldr	r0, [r2, sl, lsl #5]
    49b8:	e594c40c 	ldr	ip, [r4, #1036]	; 0x40c
    49bc:	e1a0e00f 	mov	lr, pc
    49c0:	e12fff1c 	bx	ip
    49c4:	e3500000 	cmp	r0, #0
    49c8:	1a000010 	bne	4a10 <ext2_unlink+0x31c>
    49cc:	e5941024 	ldr	r1, [r4, #36]	; 0x24
    49d0:	e1a00009 	mov	r0, r9
    49d4:	eb001dbc 	bl	c0cc <div_u32>
    49d8:	e5943404 	ldr	r3, [r4, #1028]	; 0x404
    49dc:	e0833280 	add	r3, r3, r0, lsl #5
    49e0:	e1d310bc 	ldrh	r1, [r3, #12]
    49e4:	e2811001 	add	r1, r1, #1
    49e8:	e1c310bc 	strh	r1, [r3, #12]
    49ec:	e1a02000 	mov	r2, r0
    49f0:	e51b1c34 	ldr	r1, [fp, #-3124]	; 0xc34
    49f4:	e51b0c30 	ldr	r0, [fp, #-3120]	; 0xc30
    49f8:	ebfffb93 	bl	384c <set_gd.isra.3>
    49fc:	e5943010 	ldr	r3, [r4, #16]
    4a00:	e2833001 	add	r3, r3, #1
    4a04:	e5843010 	str	r3, [r4, #16]
    4a08:	e1a00004 	mov	r0, r4
    4a0c:	ebfffb53 	bl	3760 <set_super>
    4a10:	e1560007 	cmp	r6, r7
    4a14:	1affffcf 	bne	4958 <ext2_unlink+0x264>
    4a18:	e5943004 	ldr	r3, [r4, #4]
    4a1c:	e51b2c3c 	ldr	r2, [fp, #-3132]	; 0xc3c
    4a20:	e1520003 	cmp	r2, r3
    4a24:	ca000035 	bgt	4b00 <ext2_unlink+0x40c>
    4a28:	e51b7c3c 	ldr	r7, [fp, #-3132]	; 0xc3c
    4a2c:	e594102c 	ldr	r1, [r4, #44]	; 0x2c
    4a30:	e1a00007 	mov	r0, r7
    4a34:	eb001da4 	bl	c0cc <div_u32>
    4a38:	e5943404 	ldr	r3, [r4, #1028]	; 0x404
    4a3c:	e1a06280 	lsl	r6, r0, #5
    4a40:	e24b5e42 	sub	r5, fp, #1056	; 0x420
    4a44:	e0833006 	add	r3, r3, r6
    4a48:	e245500c 	sub	r5, r5, #12
    4a4c:	e5930004 	ldr	r0, [r3, #4]
    4a50:	e1a01005 	mov	r1, r5
    4a54:	e594c408 	ldr	ip, [r4, #1032]	; 0x408
    4a58:	e1a0e00f 	mov	lr, pc
    4a5c:	e12fff1c 	bx	ip
    4a60:	e3500000 	cmp	r0, #0
    4a64:	1a000025 	bne	4b00 <ext2_unlink+0x40c>
    4a68:	e3a00001 	mov	r0, #1
    4a6c:	e2573001 	subs	r3, r7, #1
    4a70:	e1a02fc3 	asr	r2, r3, #31
    4a74:	e1a01ea2 	lsr	r1, r2, #29
    4a78:	e0832001 	add	r2, r3, r1
    4a7c:	42873006 	addmi	r3, r7, #6
    4a80:	e7d5c1c3 	ldrb	ip, [r5, r3, asr #3]
    4a84:	e2022007 	and	r2, r2, #7
    4a88:	e0612002 	rsb	r2, r1, r2
    4a8c:	e1cc2210 	bic	r2, ip, r0, lsl r2
    4a90:	e5941404 	ldr	r1, [r4, #1028]	; 0x404
    4a94:	e7c521c3 	strb	r2, [r5, r3, asr #3]
    4a98:	e0816006 	add	r6, r1, r6
    4a9c:	e5960004 	ldr	r0, [r6, #4]
    4aa0:	e1a01005 	mov	r1, r5
    4aa4:	e594c40c 	ldr	ip, [r4, #1036]	; 0x40c
    4aa8:	e1a0e00f 	mov	lr, pc
    4aac:	e12fff1c 	bx	ip
    4ab0:	e3500000 	cmp	r0, #0
    4ab4:	1a000011 	bne	4b00 <ext2_unlink+0x40c>
    4ab8:	e594102c 	ldr	r1, [r4, #44]	; 0x2c
    4abc:	e1a00007 	mov	r0, r7
    4ac0:	eb001d81 	bl	c0cc <div_u32>
    4ac4:	e5943404 	ldr	r3, [r4, #1028]	; 0x404
    4ac8:	e0833280 	add	r3, r3, r0, lsl #5
    4acc:	e1d310be 	ldrh	r1, [r3, #14]
    4ad0:	e2811001 	add	r1, r1, #1
    4ad4:	e1c310be 	strh	r1, [r3, #14]
    4ad8:	e51b3c50 	ldr	r3, [fp, #-3152]	; 0xc50
    4adc:	e1a02000 	mov	r2, r0
    4ae0:	e283100c 	add	r1, r3, #12
    4ae4:	e2830004 	add	r0, r3, #4
    4ae8:	ebfffb57 	bl	384c <set_gd.isra.3>
    4aec:	e5943014 	ldr	r3, [r4, #20]
    4af0:	e2833001 	add	r3, r3, #1
    4af4:	e5843014 	str	r3, [r4, #20]
    4af8:	e1a00004 	mov	r0, r4
    4afc:	ebfffb17 	bl	3760 <set_super>
    4b00:	e1a00004 	mov	r0, r4
    4b04:	e51b1c3c 	ldr	r1, [fp, #-3132]	; 0xc3c
    4b08:	e51b2c38 	ldr	r2, [fp, #-3128]	; 0xc38
    4b0c:	ebfffdcc 	bl	4244 <put_node>
    4b10:	e3a00000 	mov	r0, #0
    4b14:	e24bd028 	sub	sp, fp, #40	; 0x28
    4b18:	e89d6ff0 	ldm	sp, {r4, r5, r6, r7, r8, r9, sl, fp, sp, lr}
    4b1c:	e12fff1e 	bx	lr
    4b20:	e068300a 	rsb	r3, r8, sl
    4b24:	e50b3c30 	str	r3, [fp, #-3120]	; 0xc30
    4b28:	e1a04000 	mov	r4, r0
    4b2c:	eaffff50 	b	4874 <ext2_unlink+0x180>
    4b30:	e1a0900a 	mov	r9, sl
    4b34:	e51b3c34 	ldr	r3, [fp, #-3124]	; 0xc34
    4b38:	e283a00a 	add	sl, r3, #10
    4b3c:	e51b3c44 	ldr	r3, [fp, #-3140]	; 0xc44
    4b40:	e51b4c40 	ldr	r4, [fp, #-3136]	; 0xc40
    4b44:	e793010a 	ldr	r0, [r3, sl, lsl #2]
    4b48:	e1a01008 	mov	r1, r8
    4b4c:	e5896000 	str	r6, [r9]
    4b50:	e594c40c 	ldr	ip, [r4, #1036]	; 0x40c
    4b54:	e1a0e00f 	mov	lr, pc
    4b58:	e12fff1c 	bx	ip
    4b5c:	eaffff63 	b	48f0 <ext2_unlink+0x1fc>
    4b60:	e51b2c34 	ldr	r2, [fp, #-3124]	; 0xc34
    4b64:	e0693008 	rsb	r3, r9, r8
    4b68:	e282a00a 	add	sl, r2, #10
    4b6c:	e51b2c44 	ldr	r2, [fp, #-3140]	; 0xc44
    4b70:	e2833b01 	add	r3, r3, #1024	; 0x400
    4b74:	e792010a 	ldr	r0, [r2, sl, lsl #2]
    4b78:	e51b4c40 	ldr	r4, [fp, #-3136]	; 0xc40
    4b7c:	e1c930b4 	strh	r3, [r9, #4]
    4b80:	e1a01008 	mov	r1, r8
    4b84:	e594c40c 	ldr	ip, [r4, #1036]	; 0x40c
    4b88:	e1a0e00f 	mov	lr, pc
    4b8c:	e12fff1c 	bx	ip
    4b90:	eaffff56 	b	48f0 <ext2_unlink+0x1fc>
    4b94:	e1a07009 	mov	r7, r9
    4b98:	e1a0900a 	mov	r9, sl
    4b9c:	e1a0a003 	mov	sl, r3
    4ba0:	e0805007 	add	r5, r0, r7
    4ba4:	e51b6c30 	ldr	r6, [fp, #-3120]	; 0xc30
    4ba8:	e1a05805 	lsl	r5, r5, #16
    4bac:	e1a05825 	lsr	r5, r5, #16
    4bb0:	e1a01008 	mov	r1, r8
    4bb4:	e1a02006 	mov	r2, r6
    4bb8:	e1c950b4 	strh	r5, [r9, #4]
    4bbc:	e1a0000a 	mov	r0, sl
    4bc0:	e51b4c40 	ldr	r4, [fp, #-3136]	; 0xc40
    4bc4:	eb0024cb 	bl	def8 <memcpy>
    4bc8:	e0851006 	add	r1, r5, r6
    4bcc:	e0872006 	add	r2, r7, r6
    4bd0:	e0881001 	add	r1, r8, r1
    4bd4:	e2622b01 	rsb	r2, r2, #1024	; 0x400
    4bd8:	e08a0006 	add	r0, sl, r6
    4bdc:	eb0024c5 	bl	def8 <memcpy>
    4be0:	e51b3c34 	ldr	r3, [fp, #-3124]	; 0xc34
    4be4:	e51b2c44 	ldr	r2, [fp, #-3140]	; 0xc44
    4be8:	e283300a 	add	r3, r3, #10
    4bec:	e7920103 	ldr	r0, [r2, r3, lsl #2]
    4bf0:	e1a0100a 	mov	r1, sl
    4bf4:	e594c40c 	ldr	ip, [r4, #1036]	; 0x40c
    4bf8:	e1a0e00f 	mov	lr, pc
    4bfc:	e12fff1c 	bx	ip
    4c00:	eaffff3a 	b	48f0 <ext2_unlink+0x1fc>
    4c04:	e3e00000 	mvn	r0, #0
    4c08:	eaffffc1 	b	4b14 <ext2_unlink+0x420>
    4c0c:	e1a00006 	mov	r0, r6
    4c10:	eb000c90 	bl	7e58 <str_free>
    4c14:	e51b0c48 	ldr	r0, [fp, #-3144]	; 0xc48
    4c18:	eb000c8e 	bl	7e58 <str_free>
    4c1c:	e3e00000 	mvn	r0, #0
    4c20:	eaffffbb 	b	4b14 <ext2_unlink+0x420>
    4c24:	e51b0c48 	ldr	r0, [fp, #-3144]	; 0xc48
    4c28:	eb000c8a 	bl	7e58 <str_free>
    4c2c:	e3e00000 	mvn	r0, #0
    4c30:	eaffffb7 	b	4b14 <ext2_unlink+0x420>
    4c34:	0000ade0 	andeq	sl, r0, r0, ror #27

00004c38 <ext2_node_by_ino>:
    4c38:	e1a0c00d 	mov	ip, sp
    4c3c:	e92dd810 	push	{r4, fp, ip, lr, pc}
    4c40:	e24cb004 	sub	fp, ip, #4
    4c44:	e24ddb01 	sub	sp, sp, #1024	; 0x400
    4c48:	e24dd004 	sub	sp, sp, #4
    4c4c:	e1a04002 	mov	r4, r2
    4c50:	e24b2e41 	sub	r2, fp, #1040	; 0x410
    4c54:	e2422004 	sub	r2, r2, #4
    4c58:	ebfffadb 	bl	37cc <get_node_by_ino>
    4c5c:	e2501000 	subs	r1, r0, #0
    4c60:	0a000006 	beq	4c80 <ext2_node_by_ino+0x48>
    4c64:	e1a00004 	mov	r0, r4
    4c68:	e3a02080 	mov	r2, #128	; 0x80
    4c6c:	eb0024a1 	bl	def8 <memcpy>
    4c70:	e3a00000 	mov	r0, #0
    4c74:	e24bd010 	sub	sp, fp, #16
    4c78:	e89d6810 	ldm	sp, {r4, fp, sp, lr}
    4c7c:	e12fff1e 	bx	lr
    4c80:	e3e00000 	mvn	r0, #0
    4c84:	eafffffa 	b	4c74 <ext2_node_by_ino+0x3c>

00004c88 <ext2_node_by_fname>:
    4c88:	e1a0c00d 	mov	ip, sp
    4c8c:	e92dd830 	push	{r4, r5, fp, ip, lr, pc}
    4c90:	e24cb004 	sub	fp, ip, #4
    4c94:	e1a04002 	mov	r4, r2
    4c98:	e1a05000 	mov	r5, r0
    4c9c:	ebfffe7f 	bl	46a0 <ext2_ino_by_fname>
    4ca0:	e2501000 	subs	r1, r0, #0
    4ca4:	da000004 	ble	4cbc <ext2_node_by_fname+0x34>
    4ca8:	e1a00005 	mov	r0, r5
    4cac:	e1a02004 	mov	r2, r4
    4cb0:	e24bd014 	sub	sp, fp, #20
    4cb4:	e89d6830 	ldm	sp, {r4, r5, fp, sp, lr}
    4cb8:	eaffffde 	b	4c38 <ext2_node_by_ino>
    4cbc:	e3e00000 	mvn	r0, #0
    4cc0:	e24bd014 	sub	sp, fp, #20
    4cc4:	e89d6830 	ldm	sp, {r4, r5, fp, sp, lr}
    4cc8:	e12fff1e 	bx	lr

00004ccc <ext2_rmdir>:
    4ccc:	eafffe88 	b	46f4 <ext2_unlink>

00004cd0 <ext2_init>:
    4cd0:	e1a0c00d 	mov	ip, sp
    4cd4:	e92ddff0 	push	{r4, r5, r6, r7, r8, r9, sl, fp, ip, lr, pc}
    4cd8:	e1a0a000 	mov	sl, r0
    4cdc:	e24cb004 	sub	fp, ip, #4
    4ce0:	e24ddb02 	sub	sp, sp, #2048	; 0x800
    4ce4:	e24b4e82 	sub	r4, fp, #2080	; 0x820
    4ce8:	e24dd00c 	sub	sp, sp, #12
    4cec:	e244400c 	sub	r4, r4, #12
    4cf0:	e1a03001 	mov	r3, r1
    4cf4:	e580240c 	str	r2, [r0, #1036]	; 0x40c
    4cf8:	e58a1408 	str	r1, [sl, #1032]	; 0x408
    4cfc:	e3a00001 	mov	r0, #1
    4d00:	e1a01004 	mov	r1, r4
    4d04:	e1a0e00f 	mov	lr, pc
    4d08:	e12fff13 	bx	r3
    4d0c:	e2503000 	subs	r3, r0, #0
    4d10:	e50b3834 	str	r3, [fp, #-2100]	; 0x834
    4d14:	1a000039 	bne	4e00 <ext2_init+0x130>
    4d18:	e3a02b01 	mov	r2, #1024	; 0x400
    4d1c:	e1a01004 	mov	r1, r4
    4d20:	e28a0004 	add	r0, sl, #4
    4d24:	eb002473 	bl	def8 <memcpy>
    4d28:	e59a1024 	ldr	r1, [sl, #36]	; 0x24
    4d2c:	e59a0008 	ldr	r0, [sl, #8]
    4d30:	eb001ce5 	bl	c0cc <div_u32>
    4d34:	e59a1024 	ldr	r1, [sl, #36]	; 0x24
    4d38:	e1a04000 	mov	r4, r0
    4d3c:	e59a0008 	ldr	r0, [sl, #8]
    4d40:	eb001d6f 	bl	c304 <mod_u32>
    4d44:	e3500000 	cmp	r0, #0
    4d48:	12844001 	addne	r4, r4, #1
    4d4c:	e58a4000 	str	r4, [sl]
    4d50:	e1a00284 	lsl	r0, r4, #5
    4d54:	eb00215c 	bl	d2cc <malloc>
    4d58:	e3a01020 	mov	r1, #32
    4d5c:	e58a0404 	str	r0, [sl, #1028]	; 0x404
    4d60:	e3a00b01 	mov	r0, #1024	; 0x400
    4d64:	eb001cd8 	bl	c0cc <div_u32>
    4d68:	e3a04000 	mov	r4, #0
    4d6c:	e3a07002 	mov	r7, #2
    4d70:	e24b8e42 	sub	r8, fp, #1056	; 0x420
    4d74:	e50b0830 	str	r0, [fp, #-2096]	; 0x830
    4d78:	e248800c 	sub	r8, r8, #12
    4d7c:	e1a00007 	mov	r0, r7
    4d80:	e1a01008 	mov	r1, r8
    4d84:	e59ac408 	ldr	ip, [sl, #1032]	; 0x408
    4d88:	e1a0e00f 	mov	lr, pc
    4d8c:	e12fff1c 	bx	ip
    4d90:	e51b3830 	ldr	r3, [fp, #-2096]	; 0x830
    4d94:	e3530000 	cmp	r3, #0
    4d98:	da000014 	ble	4df0 <ext2_init+0x120>
    4d9c:	e1a09008 	mov	r9, r8
    4da0:	e1a05284 	lsl	r5, r4, #5
    4da4:	e0836004 	add	r6, r3, r4
    4da8:	ea000003 	b	4dbc <ext2_init+0xec>
    4dac:	e1540006 	cmp	r4, r6
    4db0:	e2855020 	add	r5, r5, #32
    4db4:	e2899020 	add	r9, r9, #32
    4db8:	0a00000d 	beq	4df4 <ext2_init+0x124>
    4dbc:	e59a0404 	ldr	r0, [sl, #1028]	; 0x404
    4dc0:	e3a02020 	mov	r2, #32
    4dc4:	e1a01009 	mov	r1, r9
    4dc8:	e0800005 	add	r0, r0, r5
    4dcc:	eb002449 	bl	def8 <memcpy>
    4dd0:	e59a2000 	ldr	r2, [sl]
    4dd4:	e2844001 	add	r4, r4, #1
    4dd8:	e1540002 	cmp	r4, r2
    4ddc:	bafffff2 	blt	4dac <ext2_init+0xdc>
    4de0:	e51b0834 	ldr	r0, [fp, #-2100]	; 0x834
    4de4:	e24bd028 	sub	sp, fp, #40	; 0x28
    4de8:	e89d6ff0 	ldm	sp, {r4, r5, r6, r7, r8, r9, sl, fp, sp, lr}
    4dec:	e12fff1e 	bx	lr
    4df0:	e1a06004 	mov	r6, r4
    4df4:	e2877001 	add	r7, r7, #1
    4df8:	e1a04006 	mov	r4, r6
    4dfc:	eaffffde 	b	4d7c <ext2_init+0xac>
    4e00:	e3e03000 	mvn	r3, #0
    4e04:	e50b3834 	str	r3, [fp, #-2100]	; 0x834
    4e08:	eafffff4 	b	4de0 <ext2_init+0x110>

00004e0c <ext2_quit>:
    4e0c:	e1a0c00d 	mov	ip, sp
    4e10:	e5900404 	ldr	r0, [r0, #1028]	; 0x404
    4e14:	e92dd800 	push	{fp, ip, lr, pc}
    4e18:	e24cb004 	sub	fp, ip, #4
    4e1c:	eb002121 	bl	d2a8 <free>
    4e20:	e24bd00c 	sub	sp, fp, #12
    4e24:	e89d6800 	ldm	sp, {fp, sp, lr}
    4e28:	e12fff1e 	bx	lr

00004e2c <ext2_readfile>:
    4e2c:	e1a0c00d 	mov	ip, sp
    4e30:	e92ddbf0 	push	{r4, r5, r6, r7, r8, r9, fp, ip, lr, pc}
    4e34:	e2528000 	subs	r8, r2, #0
    4e38:	13e03000 	mvnne	r3, #0
    4e3c:	e24cb004 	sub	fp, ip, #4
    4e40:	e24dd088 	sub	sp, sp, #136	; 0x88
    4e44:	15883000 	strne	r3, [r8]
    4e48:	e1a06000 	mov	r6, r0
    4e4c:	ebfffe13 	bl	46a0 <ext2_ino_by_fname>
    4e50:	e2501000 	subs	r1, r0, #0
    4e54:	ba00001e 	blt	4ed4 <ext2_readfile+0xa8>
    4e58:	e24b70a4 	sub	r7, fp, #164	; 0xa4
    4e5c:	e1a02007 	mov	r2, r7
    4e60:	e1a00006 	mov	r0, r6
    4e64:	ebffff73 	bl	4c38 <ext2_node_by_ino>
    4e68:	e2504000 	subs	r4, r0, #0
    4e6c:	1a000018 	bne	4ed4 <ext2_readfile+0xa8>
    4e70:	e51b00a0 	ldr	r0, [fp, #-160]	; 0xa0
    4e74:	eb002114 	bl	d2cc <malloc>
    4e78:	e2509000 	subs	r9, r0, #0
    4e7c:	0a000015 	beq	4ed8 <ext2_readfile+0xac>
    4e80:	e1a05009 	mov	r5, r9
    4e84:	ea000004 	b	4e9c <ext2_readfile+0x70>
    4e88:	e51b30a0 	ldr	r3, [fp, #-160]	; 0xa0
    4e8c:	e1540003 	cmp	r4, r3
    4e90:	2a000009 	bcs	4ebc <ext2_readfile+0x90>
    4e94:	e0844000 	add	r4, r4, r0
    4e98:	e0855000 	add	r5, r5, r0
    4e9c:	e58d4000 	str	r4, [sp]
    4ea0:	e1a00006 	mov	r0, r6
    4ea4:	e1a01007 	mov	r1, r7
    4ea8:	e1a02005 	mov	r2, r5
    4eac:	e3a03b01 	mov	r3, #1024	; 0x400
    4eb0:	ebfffcc2 	bl	41c0 <ext2_read>
    4eb4:	e3500000 	cmp	r0, #0
    4eb8:	cafffff2 	bgt	4e88 <ext2_readfile+0x5c>
    4ebc:	e1a00009 	mov	r0, r9
    4ec0:	e3580000 	cmp	r8, #0
    4ec4:	15884000 	strne	r4, [r8]
    4ec8:	e24bd024 	sub	sp, fp, #36	; 0x24
    4ecc:	e89d6bf0 	ldm	sp, {r4, r5, r6, r7, r8, r9, fp, sp, lr}
    4ed0:	e12fff1e 	bx	lr
    4ed4:	e3a09000 	mov	r9, #0
    4ed8:	e1a00009 	mov	r0, r9
    4edc:	e24bd024 	sub	sp, fp, #36	; 0x24
    4ee0:	e89d6bf0 	ldm	sp, {r4, r5, r6, r7, r8, r9, fp, sp, lr}
    4ee4:	e12fff1e 	bx	lr

00004ee8 <sd_clk>:
    4ee8:	e1a0c00d 	mov	ip, sp
    4eec:	e1a01000 	mov	r1, r0
    4ef0:	e92dd8f0 	push	{r4, r5, r6, r7, fp, ip, lr, pc}
    4ef4:	e59f01ac 	ldr	r0, [pc, #428]	; 50a8 <sd_clk+0x1c0>
    4ef8:	e24cb004 	sub	fp, ip, #4
    4efc:	eb001c72 	bl	c0cc <div_u32>
    4f00:	e59f71a4 	ldr	r7, [pc, #420]	; 50ac <sd_clk+0x1c4>
    4f04:	e59f31a4 	ldr	r3, [pc, #420]	; 50b0 <sd_clk+0x1c8>
    4f08:	e08f7007 	add	r7, pc, r7
    4f0c:	e7975003 	ldr	r5, [r7, r3]
    4f10:	e5953000 	ldr	r3, [r5]
    4f14:	e2833603 	add	r3, r3, #3145728	; 0x300000
    4f18:	e5932024 	ldr	r2, [r3, #36]	; 0x24
    4f1c:	e3120003 	tst	r2, #3
    4f20:	e1a06000 	mov	r6, r0
    4f24:	0a00000c 	beq	4f5c <sd_clk+0x74>
    4f28:	e59f4184 	ldr	r4, [pc, #388]	; 50b4 <sd_clk+0x1cc>
    4f2c:	ea000001 	b	4f38 <sd_clk+0x50>
    4f30:	e2544001 	subs	r4, r4, #1
    4f34:	3a000057 	bcc	5098 <sd_clk+0x1b0>
    4f38:	e3a00ffa 	mov	r0, #1000	; 0x3e8
    4f3c:	eb001ffb 	bl	cf30 <usleep>
    4f40:	e5953000 	ldr	r3, [r5]
    4f44:	e2833603 	add	r3, r3, #3145728	; 0x300000
    4f48:	e5932024 	ldr	r2, [r3, #36]	; 0x24
    4f4c:	e3120003 	tst	r2, #3
    4f50:	1afffff6 	bne	4f30 <sd_clk+0x48>
    4f54:	e3540000 	cmp	r4, #0
    4f58:	0a00004e 	beq	5098 <sd_clk+0x1b0>
    4f5c:	e593202c 	ldr	r2, [r3, #44]	; 0x2c
    4f60:	e3c22004 	bic	r2, r2, #4
    4f64:	e583202c 	str	r2, [r3, #44]	; 0x2c
    4f68:	e59f0148 	ldr	r0, [pc, #328]	; 50b8 <sd_clk+0x1d0>
    4f6c:	eb001fef 	bl	cf30 <usleep>
    4f70:	e2563001 	subs	r3, r6, #1
    4f74:	1a000034 	bne	504c <sd_clk+0x164>
    4f78:	e59f213c 	ldr	r2, [pc, #316]	; 50bc <sd_clk+0x1d4>
    4f7c:	e7972002 	ldr	r2, [r7, r2]
    4f80:	e5921000 	ldr	r1, [r2]
    4f84:	e3510001 	cmp	r1, #1
    4f88:	93a06001 	movls	r6, #1
    4f8c:	91a06316 	lslls	r6, r6, r3
    4f90:	e3560002 	cmp	r6, #2
    4f94:	e5923000 	ldr	r3, [r2]
    4f98:	33a06002 	movcc	r6, #2
    4f9c:	e3530001 	cmp	r3, #1
    4fa0:	93a01000 	movls	r1, #0
    4fa4:	e5950000 	ldr	r0, [r5]
    4fa8:	e2800603 	add	r0, r0, #3145728	; 0x300000
    4fac:	e590202c 	ldr	r2, [r0, #44]	; 0x2c
    4fb0:	e3c22cff 	bic	r2, r2, #65280	; 0xff00
    4fb4:	82063c03 	andhi	r3, r6, #768	; 0x300
    4fb8:	e3c220c0 	bic	r2, r2, #192	; 0xc0
    4fbc:	e1a06c06 	lsl	r6, r6, #24
    4fc0:	81a01123 	lsrhi	r1, r3, #2
    4fc4:	e1823826 	orr	r3, r2, r6, lsr #16
    4fc8:	e1833001 	orr	r3, r3, r1
    4fcc:	e580302c 	str	r3, [r0, #44]	; 0x2c
    4fd0:	e59f00e0 	ldr	r0, [pc, #224]	; 50b8 <sd_clk+0x1d0>
    4fd4:	eb001fd5 	bl	cf30 <usleep>
    4fd8:	e5953000 	ldr	r3, [r5]
    4fdc:	e2833603 	add	r3, r3, #3145728	; 0x300000
    4fe0:	e593202c 	ldr	r2, [r3, #44]	; 0x2c
    4fe4:	e3822004 	orr	r2, r2, #4
    4fe8:	e583202c 	str	r2, [r3, #44]	; 0x2c
    4fec:	e59f00c4 	ldr	r0, [pc, #196]	; 50b8 <sd_clk+0x1d0>
    4ff0:	eb001fce 	bl	cf30 <usleep>
    4ff4:	e5953000 	ldr	r3, [r5]
    4ff8:	e2833603 	add	r3, r3, #3145728	; 0x300000
    4ffc:	e593302c 	ldr	r3, [r3, #44]	; 0x2c
    5000:	e3130002 	tst	r3, #2
    5004:	1a00000c 	bne	503c <sd_clk+0x154>
    5008:	e59f40b0 	ldr	r4, [pc, #176]	; 50c0 <sd_clk+0x1d8>
    500c:	ea000001 	b	5018 <sd_clk+0x130>
    5010:	e2544001 	subs	r4, r4, #1
    5014:	3a00001f 	bcc	5098 <sd_clk+0x1b0>
    5018:	e59f0098 	ldr	r0, [pc, #152]	; 50b8 <sd_clk+0x1d0>
    501c:	eb001fc3 	bl	cf30 <usleep>
    5020:	e5953000 	ldr	r3, [r5]
    5024:	e2833603 	add	r3, r3, #3145728	; 0x300000
    5028:	e593302c 	ldr	r3, [r3, #44]	; 0x2c
    502c:	e3130002 	tst	r3, #2
    5030:	0afffff6 	beq	5010 <sd_clk+0x128>
    5034:	e3540000 	cmp	r4, #0
    5038:	0a000016 	beq	5098 <sd_clk+0x1b0>
    503c:	e3a00000 	mov	r0, #0
    5040:	e24bd01c 	sub	sp, fp, #28
    5044:	e89d68f0 	ldm	sp, {r4, r5, r6, r7, fp, sp, lr}
    5048:	e12fff1e 	bx	lr
    504c:	e1b02823 	lsrs	r2, r3, #16
    5050:	03a02010 	moveq	r2, #16
    5054:	13a02020 	movne	r2, #32
    5058:	01a03803 	lsleq	r3, r3, #16
    505c:	e31304ff 	tst	r3, #-16777216	; 0xff000000
    5060:	01a03403 	lsleq	r3, r3, #8
    5064:	02422008 	subeq	r2, r2, #8
    5068:	e313020f 	tst	r3, #-268435456	; 0xf0000000
    506c:	01a03203 	lsleq	r3, r3, #4
    5070:	02422004 	subeq	r2, r2, #4
    5074:	e3130103 	tst	r3, #-1073741824	; 0xc0000000
    5078:	01a03103 	lsleq	r3, r3, #2
    507c:	02422002 	subeq	r2, r2, #2
    5080:	e3530000 	cmp	r3, #0
    5084:	a2422001 	subge	r2, r2, #1
    5088:	e2423001 	sub	r3, r2, #1
    508c:	e3530007 	cmp	r3, #7
    5090:	23a03007 	movcs	r3, #7
    5094:	eaffffb7 	b	4f78 <sd_clk+0x90>
    5098:	e3e00001 	mvn	r0, #1
    509c:	e24bd01c 	sub	sp, fp, #28
    50a0:	e89d68f0 	ldm	sp, {r4, r5, r6, r7, fp, sp, lr}
    50a4:	e12fff1e 	bx	lr
    50a8:	027bc86a 	rsbseq	ip, fp, #6946816	; 0x6a0000
    50ac:	00012af0 	strdeq	r2, [r1], -r0
    50b0:	00000024 	andeq	r0, r0, r4, lsr #32
    50b4:	0001869f 	muleq	r1, pc, r6	; <UNPREDICTABLE>
    50b8:	00002710 	andeq	r2, r0, r0, lsl r7
    50bc:	00000050 	andeq	r0, r0, r0, asr r0
    50c0:	0000270f 	andeq	r2, r0, pc, lsl #14

000050c4 <sd_cmd>:
    50c4:	e1a0c00d 	mov	ip, sp
    50c8:	e92ddff0 	push	{r4, r5, r6, r7, r8, r9, sl, fp, ip, lr, pc}
    50cc:	e24cb004 	sub	fp, ip, #4
    50d0:	e24dd00c 	sub	sp, sp, #12
    50d4:	e3a03000 	mov	r3, #0
    50d8:	e59fc498 	ldr	ip, [pc, #1176]	; 5578 <sd_cmd+0x4b4>
    50dc:	e59f2498 	ldr	r2, [pc, #1176]	; 557c <sd_cmd+0x4b8>
    50e0:	e08fc00c 	add	ip, pc, ip
    50e4:	e79c7002 	ldr	r7, [ip, r2]
    50e8:	e2504000 	subs	r4, r0, #0
    50ec:	e1a08001 	mov	r8, r1
    50f0:	e5873000 	str	r3, [r7]
    50f4:	ba000070 	blt	52bc <sd_cmd+0x1f8>
    50f8:	e59f3480 	ldr	r3, [pc, #1152]	; 5580 <sd_cmd+0x4bc>
    50fc:	e79c9003 	ldr	r9, [ip, r3]
    5100:	e5993000 	ldr	r3, [r9]
    5104:	e2833603 	add	r3, r3, #3145728	; 0x300000
    5108:	e5932024 	ldr	r2, [r3, #36]	; 0x24
    510c:	e3120001 	tst	r2, #1
    5110:	0a000017 	beq	5174 <sd_cmd+0xb0>
    5114:	e5931030 	ldr	r1, [r3, #48]	; 0x30
    5118:	e59f2464 	ldr	r2, [pc, #1124]	; 5584 <sd_cmd+0x4c0>
    511c:	e0022001 	and	r2, r2, r1
    5120:	e3520000 	cmp	r2, #0
    5124:	e2833030 	add	r3, r3, #48	; 0x30
    5128:	1a000012 	bne	5178 <sd_cmd+0xb4>
    512c:	e59f5454 	ldr	r5, [pc, #1108]	; 5588 <sd_cmd+0x4c4>
    5130:	ea000005 	b	514c <sd_cmd+0x88>
    5134:	e5931030 	ldr	r1, [r3, #48]	; 0x30
    5138:	e0022001 	and	r2, r2, r1
    513c:	e3520000 	cmp	r2, #0
    5140:	1a000009 	bne	516c <sd_cmd+0xa8>
    5144:	e2555001 	subs	r5, r5, #1
    5148:	3a0000e6 	bcc	54e8 <sd_cmd+0x424>
    514c:	e3a00000 	mov	r0, #0
    5150:	eb001f76 	bl	cf30 <usleep>
    5154:	e5993000 	ldr	r3, [r9]
    5158:	e2833603 	add	r3, r3, #3145728	; 0x300000
    515c:	e5931024 	ldr	r1, [r3, #36]	; 0x24
    5160:	e3110001 	tst	r1, #1
    5164:	e59f2418 	ldr	r2, [pc, #1048]	; 5584 <sd_cmd+0x4c0>
    5168:	1afffff1 	bne	5134 <sd_cmd+0x70>
    516c:	e3550000 	cmp	r5, #0
    5170:	0a0000dc 	beq	54e8 <sd_cmd+0x424>
    5174:	e2833030 	add	r3, r3, #48	; 0x30
    5178:	e5931000 	ldr	r1, [r3]
    517c:	e59f2400 	ldr	r2, [pc, #1024]	; 5584 <sd_cmd+0x4c0>
    5180:	e0022001 	and	r2, r2, r1
    5184:	e3520000 	cmp	r2, #0
    5188:	1a0000d6 	bne	54e8 <sd_cmd+0x424>
    518c:	e28424c9 	add	r2, r4, #-922746880	; 0xc9000000
    5190:	e2726000 	rsbs	r6, r2, #0
    5194:	e0a66002 	adc	r6, r6, r2
    5198:	e5932000 	ldr	r2, [r3]
    519c:	e5832000 	str	r2, [r3]
    51a0:	e5993000 	ldr	r3, [r9]
    51a4:	e59f53e0 	ldr	r5, [pc, #992]	; 558c <sd_cmd+0x4c8>
    51a8:	e2833603 	add	r3, r3, #3145728	; 0x300000
    51ac:	e5838008 	str	r8, [r3, #8]
    51b0:	e0651004 	rsb	r1, r5, r4
    51b4:	e2715000 	rsbs	r5, r1, #0
    51b8:	e5993000 	ldr	r3, [r9]
    51bc:	e0a55001 	adc	r5, r5, r1
    51c0:	e2833603 	add	r3, r3, #3145728	; 0x300000
    51c4:	e1962005 	orrs	r2, r6, r5
    51c8:	e583400c 	str	r4, [r3, #12]
    51cc:	1a0000b9 	bne	54b8 <sd_cmd+0x3f4>
    51d0:	e5992000 	ldr	r2, [r9]
    51d4:	e2822603 	add	r2, r2, #3145728	; 0x300000
    51d8:	e5921030 	ldr	r1, [r2, #48]	; 0x30
    51dc:	e59f33ac 	ldr	r3, [pc, #940]	; 5590 <sd_cmd+0x4cc>
    51e0:	e0033001 	and	r3, r3, r1
    51e4:	e3530000 	cmp	r3, #0
    51e8:	e2823030 	add	r3, r2, #48	; 0x30
    51ec:	1a0000cf 	bne	5530 <sd_cmd+0x46c>
    51f0:	e59fa39c 	ldr	sl, [pc, #924]	; 5594 <sd_cmd+0x4d0>
    51f4:	ea000001 	b	5200 <sd_cmd+0x13c>
    51f8:	e25aa001 	subs	sl, sl, #1
    51fc:	3a0000b0 	bcc	54c4 <sd_cmd+0x400>
    5200:	e3a00000 	mov	r0, #0
    5204:	eb001f49 	bl	cf30 <usleep>
    5208:	e5993000 	ldr	r3, [r9]
    520c:	e2833603 	add	r3, r3, #3145728	; 0x300000
    5210:	e5931030 	ldr	r1, [r3, #48]	; 0x30
    5214:	e59f2374 	ldr	r2, [pc, #884]	; 5590 <sd_cmd+0x4cc>
    5218:	e0022001 	and	r2, r2, r1
    521c:	e3520000 	cmp	r2, #0
    5220:	e2833030 	add	r3, r3, #48	; 0x30
    5224:	0afffff3 	beq	51f8 <sd_cmd+0x134>
    5228:	e35a0000 	cmp	sl, #0
    522c:	e5932000 	ldr	r2, [r3]
    5230:	0a0000a4 	beq	54c8 <sd_cmd+0x404>
    5234:	e3120811 	tst	r2, #1114112	; 0x110000
    5238:	1a0000a2 	bne	54c8 <sd_cmd+0x404>
    523c:	e59f0340 	ldr	r0, [pc, #832]	; 5584 <sd_cmd+0x4c0>
    5240:	e0000002 	and	r0, r0, r2
    5244:	e3500000 	cmp	r0, #0
    5248:	15832000 	strne	r2, [r3]
    524c:	13e03001 	mvnne	r3, #1
    5250:	1a00009e 	bne	54d0 <sd_cmd+0x40c>
    5254:	e3a02001 	mov	r2, #1
    5258:	e3540000 	cmp	r4, #0
    525c:	03866001 	orreq	r6, r6, #1
    5260:	e5832000 	str	r2, [r3]
    5264:	e5993000 	ldr	r3, [r9]
    5268:	e3560000 	cmp	r6, #0
    526c:	e2833603 	add	r3, r3, #3145728	; 0x300000
    5270:	e5932010 	ldr	r2, [r3, #16]
    5274:	1a00000d 	bne	52b0 <sd_cmd+0x1ec>
    5278:	e59f1318 	ldr	r1, [pc, #792]	; 5598 <sd_cmd+0x4d4>
    527c:	e1540001 	cmp	r4, r1
    5280:	02020020 	andeq	r0, r2, #32
    5284:	0a000009 	beq	52b0 <sd_cmd+0x1ec>
    5288:	e3550000 	cmp	r5, #0
    528c:	1a000099 	bne	54f8 <sd_cmd+0x434>
    5290:	e59f1304 	ldr	r1, [pc, #772]	; 559c <sd_cmd+0x4d8>
    5294:	e1540001 	cmp	r4, r1
    5298:	0a00009d 	beq	5514 <sd_cmd+0x450>
    529c:	e59f32fc 	ldr	r3, [pc, #764]	; 55a0 <sd_cmd+0x4dc>
    52a0:	e1540003 	cmp	r4, r3
    52a4:	0a0000a3 	beq	5538 <sd_cmd+0x474>
    52a8:	e59f02f4 	ldr	r0, [pc, #756]	; 55a4 <sd_cmd+0x4e0>
    52ac:	e0000002 	and	r0, r0, r2
    52b0:	e24bd028 	sub	sp, fp, #40	; 0x28
    52b4:	e89d6ff0 	ldm	sp, {r4, r5, r6, r7, r8, r9, sl, fp, sp, lr}
    52b8:	e12fff1e 	bx	lr
    52bc:	e59f22e4 	ldr	r2, [pc, #740]	; 55a8 <sd_cmd+0x4e4>
    52c0:	e79c6002 	ldr	r6, [ip, r2]
    52c4:	e5961000 	ldr	r1, [r6]
    52c8:	e5960000 	ldr	r0, [r6]
    52cc:	e59f22ac 	ldr	r2, [pc, #684]	; 5580 <sd_cmd+0x4bc>
    52d0:	e5873000 	str	r3, [r7]
    52d4:	e50b0030 	str	r0, [fp, #-48]	; 0x30
    52d8:	e79c9002 	ldr	r9, [ip, r2]
    52dc:	e5993000 	ldr	r3, [r9]
    52e0:	e2833603 	add	r3, r3, #3145728	; 0x300000
    52e4:	e5932024 	ldr	r2, [r3, #36]	; 0x24
    52e8:	e3510000 	cmp	r1, #0
    52ec:	e59f52a4 	ldr	r5, [pc, #676]	; 5598 <sd_cmd+0x4d4>
    52f0:	03a05437 	moveq	r5, #922746880	; 0x37000000
    52f4:	e3120001 	tst	r2, #1
    52f8:	0a000017 	beq	535c <sd_cmd+0x298>
    52fc:	e5931030 	ldr	r1, [r3, #48]	; 0x30
    5300:	e59f227c 	ldr	r2, [pc, #636]	; 5584 <sd_cmd+0x4c0>
    5304:	e0022001 	and	r2, r2, r1
    5308:	e3520000 	cmp	r2, #0
    530c:	e2833030 	add	r3, r3, #48	; 0x30
    5310:	1a000012 	bne	5360 <sd_cmd+0x29c>
    5314:	e59fa26c 	ldr	sl, [pc, #620]	; 5588 <sd_cmd+0x4c4>
    5318:	ea000005 	b	5334 <sd_cmd+0x270>
    531c:	e5930030 	ldr	r0, [r3, #48]	; 0x30
    5320:	e0022000 	and	r2, r2, r0
    5324:	e3520000 	cmp	r2, #0
    5328:	1a000009 	bne	5354 <sd_cmd+0x290>
    532c:	e25aa001 	subs	sl, sl, #1
    5330:	3a000074 	bcc	5508 <sd_cmd+0x444>
    5334:	e3a00000 	mov	r0, #0
    5338:	eb001efc 	bl	cf30 <usleep>
    533c:	e5993000 	ldr	r3, [r9]
    5340:	e2833603 	add	r3, r3, #3145728	; 0x300000
    5344:	e5930024 	ldr	r0, [r3, #36]	; 0x24
    5348:	e3100001 	tst	r0, #1
    534c:	e59f2230 	ldr	r2, [pc, #560]	; 5584 <sd_cmd+0x4c0>
    5350:	1afffff1 	bne	531c <sd_cmd+0x258>
    5354:	e35a0000 	cmp	sl, #0
    5358:	0a00006a 	beq	5508 <sd_cmd+0x444>
    535c:	e2833030 	add	r3, r3, #48	; 0x30
    5360:	e5931000 	ldr	r1, [r3]
    5364:	e59f2218 	ldr	r2, [pc, #536]	; 5584 <sd_cmd+0x4c0>
    5368:	e0022001 	and	r2, r2, r1
    536c:	e3520000 	cmp	r2, #0
    5370:	1a000064 	bne	5508 <sd_cmd+0x444>
    5374:	e5932000 	ldr	r2, [r3]
    5378:	e5832000 	str	r2, [r3]
    537c:	e5993000 	ldr	r3, [r9]
    5380:	e51b2030 	ldr	r2, [fp, #-48]	; 0x30
    5384:	e2833603 	add	r3, r3, #3145728	; 0x300000
    5388:	e5832008 	str	r2, [r3, #8]
    538c:	e5993000 	ldr	r3, [r9]
    5390:	e3550437 	cmp	r5, #922746880	; 0x37000000
    5394:	e2833603 	add	r3, r3, #3145728	; 0x300000
    5398:	e583500c 	str	r5, [r3, #12]
    539c:	0a00004e 	beq	54dc <sd_cmd+0x418>
    53a0:	e5992000 	ldr	r2, [r9]
    53a4:	e2822603 	add	r2, r2, #3145728	; 0x300000
    53a8:	e5921030 	ldr	r1, [r2, #48]	; 0x30
    53ac:	e59f31dc 	ldr	r3, [pc, #476]	; 5590 <sd_cmd+0x4cc>
    53b0:	e0033001 	and	r3, r3, r1
    53b4:	e3530000 	cmp	r3, #0
    53b8:	e2823030 	add	r3, r2, #48	; 0x30
    53bc:	1a00006b 	bne	5570 <sd_cmd+0x4ac>
    53c0:	e59fa1cc 	ldr	sl, [pc, #460]	; 5594 <sd_cmd+0x4d0>
    53c4:	ea000001 	b	53d0 <sd_cmd+0x30c>
    53c8:	e25aa001 	subs	sl, sl, #1
    53cc:	3a00002f 	bcc	5490 <sd_cmd+0x3cc>
    53d0:	e3a00000 	mov	r0, #0
    53d4:	eb001ed5 	bl	cf30 <usleep>
    53d8:	e5993000 	ldr	r3, [r9]
    53dc:	e2833603 	add	r3, r3, #3145728	; 0x300000
    53e0:	e5931030 	ldr	r1, [r3, #48]	; 0x30
    53e4:	e59f21a4 	ldr	r2, [pc, #420]	; 5590 <sd_cmd+0x4cc>
    53e8:	e0022001 	and	r2, r2, r1
    53ec:	e3520000 	cmp	r2, #0
    53f0:	e2833030 	add	r3, r3, #48	; 0x30
    53f4:	0afffff3 	beq	53c8 <sd_cmd+0x304>
    53f8:	e35a0000 	cmp	sl, #0
    53fc:	e5931000 	ldr	r1, [r3]
    5400:	0a000023 	beq	5494 <sd_cmd+0x3d0>
    5404:	e3110811 	tst	r1, #1114112	; 0x110000
    5408:	1a000021 	bne	5494 <sd_cmd+0x3d0>
    540c:	e59f2170 	ldr	r2, [pc, #368]	; 5584 <sd_cmd+0x4c0>
    5410:	e0022001 	and	r2, r2, r1
    5414:	e3520000 	cmp	r2, #0
    5418:	15831000 	strne	r1, [r3]
    541c:	13e03001 	mvnne	r3, #1
    5420:	1a00001d 	bne	549c <sd_cmd+0x3d8>
    5424:	e3a02001 	mov	r2, #1
    5428:	e5832000 	str	r2, [r3]
    542c:	e5993000 	ldr	r3, [r9]
    5430:	e3550437 	cmp	r5, #922746880	; 0x37000000
    5434:	e2833603 	add	r3, r3, #3145728	; 0x300000
    5438:	e5931010 	ldr	r1, [r3, #16]
    543c:	0a000017 	beq	54a0 <sd_cmd+0x3dc>
    5440:	e59f2150 	ldr	r2, [pc, #336]	; 5598 <sd_cmd+0x4d4>
    5444:	e1550002 	cmp	r5, r2
    5448:	159f2154 	ldrne	r2, [pc, #340]	; 55a4 <sd_cmd+0x4e0>
    544c:	02012020 	andeq	r2, r1, #32
    5450:	10022001 	andne	r2, r2, r1
    5454:	e5961000 	ldr	r1, [r6]
    5458:	e2722001 	rsbs	r2, r2, #1
    545c:	33a02000 	movcc	r2, #0
    5460:	e3510000 	cmp	r1, #0
    5464:	03a02000 	moveq	r2, #0
    5468:	e3520000 	cmp	r2, #0
    546c:	1a000001 	bne	5478 <sd_cmd+0x3b4>
    5470:	e3c44102 	bic	r4, r4, #-2147483648	; 0x80000000
    5474:	eaffff23 	b	5108 <sd_cmd+0x44>
    5478:	e3e03001 	mvn	r3, #1
    547c:	e3a00000 	mov	r0, #0
    5480:	e5873000 	str	r3, [r7]
    5484:	e24bd028 	sub	sp, fp, #40	; 0x28
    5488:	e89d6ff0 	ldm	sp, {r4, r5, r6, r7, r8, r9, sl, fp, sp, lr}
    548c:	e12fff1e 	bx	lr
    5490:	e5931000 	ldr	r1, [r3]
    5494:	e5831000 	str	r1, [r3]
    5498:	e3e03000 	mvn	r3, #0
    549c:	e5873000 	str	r3, [r7]
    54a0:	e5963000 	ldr	r3, [r6]
    54a4:	e3530000 	cmp	r3, #0
    54a8:	1afffff2 	bne	5478 <sd_cmd+0x3b4>
    54ac:	e5993000 	ldr	r3, [r9]
    54b0:	e2833603 	add	r3, r3, #3145728	; 0x300000
    54b4:	eaffffed 	b	5470 <sd_cmd+0x3ac>
    54b8:	e59f00ec 	ldr	r0, [pc, #236]	; 55ac <sd_cmd+0x4e8>
    54bc:	eb001e9b 	bl	cf30 <usleep>
    54c0:	eaffff42 	b	51d0 <sd_cmd+0x10c>
    54c4:	e5932000 	ldr	r2, [r3]
    54c8:	e5832000 	str	r2, [r3]
    54cc:	e3e03000 	mvn	r3, #0
    54d0:	e5873000 	str	r3, [r7]
    54d4:	e3a00000 	mov	r0, #0
    54d8:	eaffff74 	b	52b0 <sd_cmd+0x1ec>
    54dc:	e59f00c8 	ldr	r0, [pc, #200]	; 55ac <sd_cmd+0x4e8>
    54e0:	eb001e92 	bl	cf30 <usleep>
    54e4:	eaffffad 	b	53a0 <sd_cmd+0x2dc>
    54e8:	e3e03000 	mvn	r3, #0
    54ec:	e3a00000 	mov	r0, #0
    54f0:	e5873000 	str	r3, [r7]
    54f4:	eaffff6d 	b	52b0 <sd_cmd+0x1ec>
    54f8:	e1580002 	cmp	r8, r2
    54fc:	13e00001 	mvnne	r0, #1
    5500:	03a00000 	moveq	r0, #0
    5504:	eaffff69 	b	52b0 <sd_cmd+0x1ec>
    5508:	e3e03000 	mvn	r3, #0
    550c:	e5873000 	str	r3, [r7]
    5510:	eaffffe2 	b	54a0 <sd_cmd+0x3dc>
    5514:	e593001c 	ldr	r0, [r3, #28]
    5518:	e5931018 	ldr	r1, [r3, #24]
    551c:	e1800002 	orr	r0, r0, r2
    5520:	e5933014 	ldr	r3, [r3, #20]
    5524:	e1800001 	orr	r0, r0, r1
    5528:	e1800003 	orr	r0, r0, r3
    552c:	eaffff5f 	b	52b0 <sd_cmd+0x1ec>
    5530:	e5922030 	ldr	r2, [r2, #48]	; 0x30
    5534:	eaffff3e 	b	5234 <sd_cmd+0x170>
    5538:	e2023901 	and	r3, r2, #16384	; 0x4000
    553c:	e2021a02 	and	r1, r2, #8192	; 0x2000
    5540:	e1a03403 	lsl	r3, r3, #8
    5544:	e1833301 	orr	r3, r3, r1, lsl #6
    5548:	e1a01982 	lsl	r1, r2, #19
    554c:	e18339a1 	orr	r3, r3, r1, lsr #19
    5550:	e2020902 	and	r0, r2, #32768	; 0x8000
    5554:	e59f1048 	ldr	r1, [pc, #72]	; 55a4 <sd_cmd+0x4e0>
    5558:	e1833400 	orr	r3, r3, r0, lsl #8
    555c:	e0011003 	and	r1, r1, r3
    5560:	e1a00822 	lsr	r0, r2, #16
    5564:	e1a00800 	lsl	r0, r0, #16
    5568:	e5871000 	str	r1, [r7]
    556c:	eaffff4f 	b	52b0 <sd_cmd+0x1ec>
    5570:	e5921030 	ldr	r1, [r2, #48]	; 0x30
    5574:	eaffffa2 	b	5404 <sd_cmd+0x340>
    5578:	00012918 	andeq	r2, r1, r8, lsl r9
    557c:	00000028 	andeq	r0, r0, r8, lsr #32
    5580:	00000024 	andeq	r0, r0, r4, lsr #32
    5584:	017e8000 	cmneq	lr, r0
    5588:	000f423f 	andeq	r4, pc, pc, lsr r2	; <UNPREDICTABLE>
    558c:	08020000 	stmdaeq	r2, {}	; <UNPREDICTABLE>
    5590:	017e8001 	cmneq	lr, r1
    5594:	0000270f 	andeq	r2, r0, pc, lsl #14
    5598:	37020000 	strcc	r0, [r2, -r0]
    559c:	02010000 	andeq	r0, r1, #0
    55a0:	03020000 	movweq	r0, #8192	; 0x2000
    55a4:	fff9c004 			; <UNDEFINED> instruction: 0xfff9c004
    55a8:	0000002c 	andeq	r0, r0, ip, lsr #32
    55ac:	000186a0 	andeq	r8, r1, r0, lsr #13

000055b0 <bcm283x_sd_init>:
    55b0:	e1a0c00d 	mov	ip, sp
    55b4:	e92ddff0 	push	{r4, r5, r6, r7, r8, r9, sl, fp, ip, lr, pc}
    55b8:	e24cb004 	sub	fp, ip, #4
    55bc:	e24dd014 	sub	sp, sp, #20
    55c0:	e3a00000 	mov	r0, #0
    55c4:	eb001d5f 	bl	cb48 <mmio_map>
    55c8:	e3a01001 	mov	r1, #1
    55cc:	e3a0c002 	mov	ip, #2
    55d0:	e3a0e902 	mov	lr, #32768	; 0x8000
    55d4:	e59f6f64 	ldr	r6, [pc, #3940]	; 6540 <bcm283x_sd_init+0xf90>
    55d8:	e59f2f64 	ldr	r2, [pc, #3940]	; 6544 <bcm283x_sd_init+0xf94>
    55dc:	e59f3f64 	ldr	r3, [pc, #3940]	; 6548 <bcm283x_sd_init+0xf98>
    55e0:	e08f6006 	add	r6, pc, r6
    55e4:	e08f2002 	add	r2, pc, r2
    55e8:	e796a003 	ldr	sl, [r6, r3]
    55ec:	e5821204 	str	r1, [r2, #516]	; 0x204
    55f0:	e5821208 	str	r1, [r2, #520]	; 0x208
    55f4:	e3a02000 	mov	r2, #0
    55f8:	e58a0000 	str	r0, [sl]
    55fc:	e2800602 	add	r0, r0, #2097152	; 0x200000
    5600:	e5904010 	ldr	r4, [r0, #16]
    5604:	e3c4460e 	bic	r4, r4, #14680064	; 0xe00000
    5608:	e5804010 	str	r4, [r0, #16]
    560c:	e59a1000 	ldr	r1, [sl]
    5610:	e2811602 	add	r1, r1, #2097152	; 0x200000
    5614:	e581c094 	str	ip, [r1, #148]	; 0x94
    5618:	e59a1000 	ldr	r1, [sl]
    561c:	e2811602 	add	r1, r1, #2097152	; 0x200000
    5620:	e581e09c 	str	lr, [r1, #156]	; 0x9c
    5624:	e59a1000 	ldr	r1, [sl]
    5628:	e3a00803 	mov	r0, #196608	; 0x30000
    562c:	e2811602 	add	r1, r1, #2097152	; 0x200000
    5630:	e5812094 	str	r2, [r1, #148]	; 0x94
    5634:	e59a1000 	ldr	r1, [sl]
    5638:	e2811602 	add	r1, r1, #2097152	; 0x200000
    563c:	e581209c 	str	r2, [r1, #156]	; 0x9c
    5640:	e59a1000 	ldr	r1, [sl]
    5644:	e2811602 	add	r1, r1, #2097152	; 0x200000
    5648:	e591e068 	ldr	lr, [r1, #104]	; 0x68
    564c:	e38ee902 	orr	lr, lr, #32768	; 0x8000
    5650:	e581e068 	str	lr, [r1, #104]	; 0x68
    5654:	e59a1000 	ldr	r1, [sl]
    5658:	e2811602 	add	r1, r1, #2097152	; 0x200000
    565c:	e591e010 	ldr	lr, [r1, #16]
    5660:	e38ee43f 	orr	lr, lr, #1056964608	; 0x3f000000
    5664:	e581e010 	str	lr, [r1, #16]
    5668:	e59a1000 	ldr	r1, [sl]
    566c:	e2811602 	add	r1, r1, #2097152	; 0x200000
    5670:	e581c094 	str	ip, [r1, #148]	; 0x94
    5674:	e59a1000 	ldr	r1, [sl]
    5678:	e2811602 	add	r1, r1, #2097152	; 0x200000
    567c:	e581009c 	str	r0, [r1, #156]	; 0x9c
    5680:	e59a1000 	ldr	r1, [sl]
    5684:	e2811602 	add	r1, r1, #2097152	; 0x200000
    5688:	e5812094 	str	r2, [r1, #148]	; 0x94
    568c:	e59a1000 	ldr	r1, [sl]
    5690:	e2811602 	add	r1, r1, #2097152	; 0x200000
    5694:	e581209c 	str	r2, [r1, #156]	; 0x9c
    5698:	e59a0000 	ldr	r0, [sl]
    569c:	e2800602 	add	r0, r0, #2097152	; 0x200000
    56a0:	e5901014 	ldr	r1, [r0, #20]
    56a4:	e1e01621 	mvn	r1, r1, lsr #12
    56a8:	e1e01601 	mvn	r1, r1, lsl #12
    56ac:	e3a0e70f 	mov	lr, #3932160	; 0x3c0000
    56b0:	e5801014 	str	r1, [r0, #20]
    56b4:	e59a1000 	ldr	r1, [sl]
    56b8:	e2811602 	add	r1, r1, #2097152	; 0x200000
    56bc:	e581c094 	str	ip, [r1, #148]	; 0x94
    56c0:	e59a1000 	ldr	r1, [sl]
    56c4:	e2811602 	add	r1, r1, #2097152	; 0x200000
    56c8:	e581e09c 	str	lr, [r1, #156]	; 0x9c
    56cc:	e59a1000 	ldr	r1, [sl]
    56d0:	e2811602 	add	r1, r1, #2097152	; 0x200000
    56d4:	e5812094 	str	r2, [r1, #148]	; 0x94
    56d8:	e59a1000 	ldr	r1, [sl]
    56dc:	e2811602 	add	r1, r1, #2097152	; 0x200000
    56e0:	e581209c 	str	r2, [r1, #156]	; 0x9c
    56e4:	e59a0000 	ldr	r0, [sl]
    56e8:	e2800603 	add	r0, r0, #3145728	; 0x300000
    56ec:	e59010fc 	ldr	r1, [r0, #252]	; 0xfc
    56f0:	e59fce54 	ldr	ip, [pc, #3668]	; 654c <bcm283x_sd_init+0xf9c>
    56f4:	e20118ff 	and	r1, r1, #16711680	; 0xff0000
    56f8:	e796c00c 	ldr	ip, [r6, ip]
    56fc:	e1a01821 	lsr	r1, r1, #16
    5700:	e58c1000 	str	r1, [ip]
    5704:	e5802028 	str	r2, [r0, #40]	; 0x28
    5708:	e59a2000 	ldr	r2, [sl]
    570c:	e2822603 	add	r2, r2, #3145728	; 0x300000
    5710:	e592102c 	ldr	r1, [r2, #44]	; 0x2c
    5714:	e3811401 	orr	r1, r1, #16777216	; 0x1000000
    5718:	e59f8e30 	ldr	r8, [pc, #3632]	; 6550 <bcm283x_sd_init+0xfa0>
    571c:	e3a09000 	mov	r9, #0
    5720:	e3e04000 	mvn	r4, #0
    5724:	e3e05000 	mvn	r5, #0
    5728:	e582102c 	str	r1, [r2, #44]	; 0x2c
    572c:	ea000004 	b	5744 <bcm283x_sd_init+0x194>
    5730:	e2588001 	subs	r8, r8, #1
    5734:	e2c99000 	sbc	r9, r9, #0
    5738:	e1590005 	cmp	r9, r5
    573c:	01580004 	cmpeq	r8, r4
    5740:	0a000084 	beq	5958 <bcm283x_sd_init+0x3a8>
    5744:	e59f0e04 	ldr	r0, [pc, #3588]	; 6550 <bcm283x_sd_init+0xfa0>
    5748:	eb001df8 	bl	cf30 <usleep>
    574c:	e59a2000 	ldr	r2, [sl]
    5750:	e2822603 	add	r2, r2, #3145728	; 0x300000
    5754:	e592302c 	ldr	r3, [r2, #44]	; 0x2c
    5758:	e3130401 	tst	r3, #16777216	; 0x1000000
    575c:	e282202c 	add	r2, r2, #44	; 0x2c
    5760:	1afffff2 	bne	5730 <bcm283x_sd_init+0x180>
    5764:	e1983009 	orrs	r3, r8, r9
    5768:	0a00007a 	beq	5958 <bcm283x_sd_init+0x3a8>
    576c:	e5921000 	ldr	r1, [r2]
    5770:	e381180e 	orr	r1, r1, #917504	; 0xe0000
    5774:	e3811001 	orr	r1, r1, #1
    5778:	e5821000 	str	r1, [r2]
    577c:	e59f0dcc 	ldr	r0, [pc, #3532]	; 6550 <bcm283x_sd_init+0xfa0>
    5780:	eb001dea 	bl	cf30 <usleep>
    5784:	e59f0dc8 	ldr	r0, [pc, #3528]	; 6554 <bcm283x_sd_init+0xfa4>
    5788:	ebfffdd6 	bl	4ee8 <sd_clk>
    578c:	e2508000 	subs	r8, r0, #0
    5790:	0a000003 	beq	57a4 <bcm283x_sd_init+0x1f4>
    5794:	e1a00008 	mov	r0, r8
    5798:	e24bd028 	sub	sp, fp, #40	; 0x28
    579c:	e89d6ff0 	ldm	sp, {r4, r5, r6, r7, r8, r9, sl, fp, sp, lr}
    57a0:	e12fff1e 	bx	lr
    57a4:	e3e01000 	mvn	r1, #0
    57a8:	e59a2000 	ldr	r2, [sl]
    57ac:	e2822603 	add	r2, r2, #3145728	; 0x300000
    57b0:	e5821038 	str	r1, [r2, #56]	; 0x38
    57b4:	e59a2000 	ldr	r2, [sl]
    57b8:	e2822603 	add	r2, r2, #3145728	; 0x300000
    57bc:	e5821034 	str	r1, [r2, #52]	; 0x34
    57c0:	e59f2d90 	ldr	r2, [pc, #3472]	; 6558 <bcm283x_sd_init+0xfa8>
    57c4:	e7964002 	ldr	r4, [r6, r2]
    57c8:	e59f2d8c 	ldr	r2, [pc, #3468]	; 655c <bcm283x_sd_init+0xfac>
    57cc:	e5848000 	str	r8, [r4]
    57d0:	e7965002 	ldr	r5, [r6, r2]
    57d4:	e59f2d84 	ldr	r2, [pc, #3460]	; 6560 <bcm283x_sd_init+0xfb0>
    57d8:	e5858000 	str	r8, [r5]
    57dc:	e7963002 	ldr	r3, [r6, r2]
    57e0:	e59a2000 	ldr	r2, [sl]
    57e4:	e5838004 	str	r8, [r3, #4]
    57e8:	e5838000 	str	r8, [r3]
    57ec:	e5848000 	str	r8, [r4]
    57f0:	e2822603 	add	r2, r2, #3145728	; 0x300000
    57f4:	e5921024 	ldr	r1, [r2, #36]	; 0x24
    57f8:	e3110001 	tst	r1, #1
    57fc:	e50b3030 	str	r3, [fp, #-48]	; 0x30
    5800:	0a000017 	beq	5864 <bcm283x_sd_init+0x2b4>
    5804:	e5920030 	ldr	r0, [r2, #48]	; 0x30
    5808:	e59f1d54 	ldr	r1, [pc, #3412]	; 6564 <bcm283x_sd_init+0xfb4>
    580c:	e0011000 	and	r1, r1, r0
    5810:	e3510000 	cmp	r1, #0
    5814:	e2822030 	add	r2, r2, #48	; 0x30
    5818:	1a000012 	bne	5868 <bcm283x_sd_init+0x2b8>
    581c:	e59f6d44 	ldr	r6, [pc, #3396]	; 6568 <bcm283x_sd_init+0xfb8>
    5820:	ea000005 	b	583c <bcm283x_sd_init+0x28c>
    5824:	e5921030 	ldr	r1, [r2, #48]	; 0x30
    5828:	e0033001 	and	r3, r3, r1
    582c:	e3530000 	cmp	r3, #0
    5830:	1a000009 	bne	585c <bcm283x_sd_init+0x2ac>
    5834:	e2566001 	subs	r6, r6, #1
    5838:	3a000250 	bcc	6180 <bcm283x_sd_init+0xbd0>
    583c:	e3a00000 	mov	r0, #0
    5840:	eb001dba 	bl	cf30 <usleep>
    5844:	e59a2000 	ldr	r2, [sl]
    5848:	e2822603 	add	r2, r2, #3145728	; 0x300000
    584c:	e5921024 	ldr	r1, [r2, #36]	; 0x24
    5850:	e3110001 	tst	r1, #1
    5854:	e59f3d08 	ldr	r3, [pc, #3336]	; 6564 <bcm283x_sd_init+0xfb4>
    5858:	1afffff1 	bne	5824 <bcm283x_sd_init+0x274>
    585c:	e3560000 	cmp	r6, #0
    5860:	0a000246 	beq	6180 <bcm283x_sd_init+0xbd0>
    5864:	e2822030 	add	r2, r2, #48	; 0x30
    5868:	e5920000 	ldr	r0, [r2]
    586c:	e59f1cf0 	ldr	r1, [pc, #3312]	; 6564 <bcm283x_sd_init+0xfb4>
    5870:	e0011000 	and	r1, r1, r0
    5874:	e3510000 	cmp	r1, #0
    5878:	1a000240 	bne	6180 <bcm283x_sd_init+0xbd0>
    587c:	e5920000 	ldr	r0, [r2]
    5880:	e5820000 	str	r0, [r2]
    5884:	e59a2000 	ldr	r2, [sl]
    5888:	e2822603 	add	r2, r2, #3145728	; 0x300000
    588c:	e5821008 	str	r1, [r2, #8]
    5890:	e59a2000 	ldr	r2, [sl]
    5894:	e2822603 	add	r2, r2, #3145728	; 0x300000
    5898:	e582100c 	str	r1, [r2, #12]
    589c:	e59a1000 	ldr	r1, [sl]
    58a0:	e2811603 	add	r1, r1, #3145728	; 0x300000
    58a4:	e5910030 	ldr	r0, [r1, #48]	; 0x30
    58a8:	e59f2cbc 	ldr	r2, [pc, #3260]	; 656c <bcm283x_sd_init+0xfbc>
    58ac:	e0022000 	and	r2, r2, r0
    58b0:	e3520000 	cmp	r2, #0
    58b4:	059f6cb4 	ldreq	r6, [pc, #3252]	; 6570 <bcm283x_sd_init+0xfc0>
    58b8:	e2812030 	add	r2, r1, #48	; 0x30
    58bc:	0a000002 	beq	58cc <bcm283x_sd_init+0x31c>
    58c0:	ea000233 	b	6194 <bcm283x_sd_init+0xbe4>
    58c4:	e2566001 	subs	r6, r6, #1
    58c8:	3a000220 	bcc	6150 <bcm283x_sd_init+0xba0>
    58cc:	e3a00000 	mov	r0, #0
    58d0:	eb001d96 	bl	cf30 <usleep>
    58d4:	e59a3000 	ldr	r3, [sl]
    58d8:	e2833603 	add	r3, r3, #3145728	; 0x300000
    58dc:	e5931030 	ldr	r1, [r3, #48]	; 0x30
    58e0:	e59f2c84 	ldr	r2, [pc, #3204]	; 656c <bcm283x_sd_init+0xfbc>
    58e4:	e0022001 	and	r2, r2, r1
    58e8:	e3520000 	cmp	r2, #0
    58ec:	e2833030 	add	r3, r3, #48	; 0x30
    58f0:	0afffff3 	beq	58c4 <bcm283x_sd_init+0x314>
    58f4:	e3560000 	cmp	r6, #0
    58f8:	e1a02003 	mov	r2, r3
    58fc:	e5930000 	ldr	r0, [r3]
    5900:	0a000214 	beq	6158 <bcm283x_sd_init+0xba8>
    5904:	e3100811 	tst	r0, #1114112	; 0x110000
    5908:	1a000212 	bne	6158 <bcm283x_sd_init+0xba8>
    590c:	e59f1c50 	ldr	r1, [pc, #3152]	; 6564 <bcm283x_sd_init+0xfb4>
    5910:	e0011000 	and	r1, r1, r0
    5914:	e3510000 	cmp	r1, #0
    5918:	15820000 	strne	r0, [r2]
    591c:	13e02001 	mvnne	r2, #1
    5920:	1a00020e 	bne	6160 <bcm283x_sd_init+0xbb0>
    5924:	e3a01001 	mov	r1, #1
    5928:	e5821000 	str	r1, [r2]
    592c:	e59a2000 	ldr	r2, [sl]
    5930:	e2822603 	add	r2, r2, #3145728	; 0x300000
    5934:	e5922010 	ldr	r2, [r2, #16]
    5938:	e5942000 	ldr	r2, [r4]
    593c:	e3520000 	cmp	r2, #0
    5940:	0a000009 	beq	596c <bcm283x_sd_init+0x3bc>
    5944:	e5948000 	ldr	r8, [r4]
    5948:	e1a00008 	mov	r0, r8
    594c:	e24bd028 	sub	sp, fp, #40	; 0x28
    5950:	e89d6ff0 	ldm	sp, {r4, r5, r6, r7, r8, r9, sl, fp, sp, lr}
    5954:	e12fff1e 	bx	lr
    5958:	e3e08001 	mvn	r8, #1
    595c:	e1a00008 	mov	r0, r8
    5960:	e24bd028 	sub	sp, fp, #40	; 0x28
    5964:	e89d6ff0 	ldm	sp, {r4, r5, r6, r7, r8, r9, sl, fp, sp, lr}
    5968:	e12fff1e 	bx	lr
    596c:	e59f0c00 	ldr	r0, [pc, #3072]	; 6574 <bcm283x_sd_init+0xfc4>
    5970:	e59f1c00 	ldr	r1, [pc, #3072]	; 6578 <bcm283x_sd_init+0xfc8>
    5974:	ebfffdd2 	bl	50c4 <sd_cmd>
    5978:	e5942000 	ldr	r2, [r4]
    597c:	e3520000 	cmp	r2, #0
    5980:	1affffef 	bne	5944 <bcm283x_sd_init+0x394>
    5984:	e3a06006 	mov	r6, #6
    5988:	e3a07000 	mov	r7, #0
    598c:	e59f9be8 	ldr	r9, [pc, #3048]	; 657c <bcm283x_sd_init+0xfcc>
    5990:	e3e03000 	mvn	r3, #0
    5994:	e3e02000 	mvn	r2, #0
    5998:	e2566001 	subs	r6, r6, #1
    599c:	e2c77000 	sbc	r7, r7, #0
    59a0:	e1570003 	cmp	r7, r3
    59a4:	01560002 	cmpeq	r6, r2
    59a8:	0a0001e1 	beq	6134 <bcm283x_sd_init+0xb84>
    59ac:	e3a03000 	mov	r3, #0
    59b0:	e5843000 	str	r3, [r4]
    59b4:	e5950000 	ldr	r0, [r5]
    59b8:	e1500003 	cmp	r0, r3
    59bc:	11a00009 	movne	r0, r9
    59c0:	03a00437 	moveq	r0, #922746880	; 0x37000000
    59c4:	e5951000 	ldr	r1, [r5]
    59c8:	ebfffdbd 	bl	50c4 <sd_cmd>
    59cc:	e5953000 	ldr	r3, [r5]
    59d0:	e2700001 	rsbs	r0, r0, #1
    59d4:	33a00000 	movcc	r0, #0
    59d8:	e3530000 	cmp	r3, #0
    59dc:	03a00000 	moveq	r0, #0
    59e0:	e3500000 	cmp	r0, #0
    59e4:	1a0001df 	bne	6168 <bcm283x_sd_init+0xbb8>
    59e8:	e59a3000 	ldr	r3, [sl]
    59ec:	e2833603 	add	r3, r3, #3145728	; 0x300000
    59f0:	e5932024 	ldr	r2, [r3, #36]	; 0x24
    59f4:	e3120001 	tst	r2, #1
    59f8:	0a000017 	beq	5a5c <bcm283x_sd_init+0x4ac>
    59fc:	e5931030 	ldr	r1, [r3, #48]	; 0x30
    5a00:	e59f2b5c 	ldr	r2, [pc, #2908]	; 6564 <bcm283x_sd_init+0xfb4>
    5a04:	e0022001 	and	r2, r2, r1
    5a08:	e3520000 	cmp	r2, #0
    5a0c:	e2833030 	add	r3, r3, #48	; 0x30
    5a10:	059f8b50 	ldreq	r8, [pc, #2896]	; 6568 <bcm283x_sd_init+0xfb8>
    5a14:	0a000006 	beq	5a34 <bcm283x_sd_init+0x484>
    5a18:	ea000010 	b	5a60 <bcm283x_sd_init+0x4b0>
    5a1c:	e5931030 	ldr	r1, [r3, #48]	; 0x30
    5a20:	e0022001 	and	r2, r2, r1
    5a24:	e3520000 	cmp	r2, #0
    5a28:	1a000009 	bne	5a54 <bcm283x_sd_init+0x4a4>
    5a2c:	e2588001 	subs	r8, r8, #1
    5a30:	3a0001cf 	bcc	6174 <bcm283x_sd_init+0xbc4>
    5a34:	e3a00000 	mov	r0, #0
    5a38:	eb001d3c 	bl	cf30 <usleep>
    5a3c:	e59a3000 	ldr	r3, [sl]
    5a40:	e2833603 	add	r3, r3, #3145728	; 0x300000
    5a44:	e5931024 	ldr	r1, [r3, #36]	; 0x24
    5a48:	e3110001 	tst	r1, #1
    5a4c:	e59f2b10 	ldr	r2, [pc, #2832]	; 6564 <bcm283x_sd_init+0xfb4>
    5a50:	1afffff1 	bne	5a1c <bcm283x_sd_init+0x46c>
    5a54:	e3580000 	cmp	r8, #0
    5a58:	0a0001c5 	beq	6174 <bcm283x_sd_init+0xbc4>
    5a5c:	e2833030 	add	r3, r3, #48	; 0x30
    5a60:	e5931000 	ldr	r1, [r3]
    5a64:	e59f2af8 	ldr	r2, [pc, #2808]	; 6564 <bcm283x_sd_init+0xfb4>
    5a68:	e0022001 	and	r2, r2, r1
    5a6c:	e3520000 	cmp	r2, #0
    5a70:	1a0001bf 	bne	6174 <bcm283x_sd_init+0xbc4>
    5a74:	e5932000 	ldr	r2, [r3]
    5a78:	e5832000 	str	r2, [r3]
    5a7c:	e59a3000 	ldr	r3, [sl]
    5a80:	e59f2af8 	ldr	r2, [pc, #2808]	; 6580 <bcm283x_sd_init+0xfd0>
    5a84:	e2833603 	add	r3, r3, #3145728	; 0x300000
    5a88:	e5832008 	str	r2, [r3, #8]
    5a8c:	e59a3000 	ldr	r3, [sl]
    5a90:	e59f2aec 	ldr	r2, [pc, #2796]	; 6584 <bcm283x_sd_init+0xfd4>
    5a94:	e2833603 	add	r3, r3, #3145728	; 0x300000
    5a98:	e583200c 	str	r2, [r3, #12]
    5a9c:	e59a2000 	ldr	r2, [sl]
    5aa0:	e2822603 	add	r2, r2, #3145728	; 0x300000
    5aa4:	e5921030 	ldr	r1, [r2, #48]	; 0x30
    5aa8:	e59f3abc 	ldr	r3, [pc, #2748]	; 656c <bcm283x_sd_init+0xfbc>
    5aac:	e0033001 	and	r3, r3, r1
    5ab0:	e3530000 	cmp	r3, #0
    5ab4:	059f8ab4 	ldreq	r8, [pc, #2740]	; 6570 <bcm283x_sd_init+0xfc0>
    5ab8:	e2823030 	add	r3, r2, #48	; 0x30
    5abc:	0a000002 	beq	5acc <bcm283x_sd_init+0x51c>
    5ac0:	ea0001b1 	b	618c <bcm283x_sd_init+0xbdc>
    5ac4:	e2588001 	subs	r8, r8, #1
    5ac8:	3a00019b 	bcc	613c <bcm283x_sd_init+0xb8c>
    5acc:	e3a00000 	mov	r0, #0
    5ad0:	eb001d16 	bl	cf30 <usleep>
    5ad4:	e59a3000 	ldr	r3, [sl]
    5ad8:	e2833603 	add	r3, r3, #3145728	; 0x300000
    5adc:	e5931030 	ldr	r1, [r3, #48]	; 0x30
    5ae0:	e59f2a84 	ldr	r2, [pc, #2692]	; 656c <bcm283x_sd_init+0xfbc>
    5ae4:	e0022001 	and	r2, r2, r1
    5ae8:	e3520000 	cmp	r2, #0
    5aec:	e2833030 	add	r3, r3, #48	; 0x30
    5af0:	0afffff3 	beq	5ac4 <bcm283x_sd_init+0x514>
    5af4:	e3580000 	cmp	r8, #0
    5af8:	e5932000 	ldr	r2, [r3]
    5afc:	0a00018f 	beq	6140 <bcm283x_sd_init+0xb90>
    5b00:	e3120811 	tst	r2, #1114112	; 0x110000
    5b04:	1a00018d 	bne	6140 <bcm283x_sd_init+0xb90>
    5b08:	e59f8a54 	ldr	r8, [pc, #2644]	; 6564 <bcm283x_sd_init+0xfb4>
    5b0c:	e0088002 	and	r8, r8, r2
    5b10:	e3580000 	cmp	r8, #0
    5b14:	15832000 	strne	r2, [r3]
    5b18:	13e03001 	mvnne	r3, #1
    5b1c:	1a000189 	bne	6148 <bcm283x_sd_init+0xb98>
    5b20:	e3a02001 	mov	r2, #1
    5b24:	e3a01000 	mov	r1, #0
    5b28:	e5832000 	str	r2, [r3]
    5b2c:	e59a3000 	ldr	r3, [sl]
    5b30:	e2833603 	add	r3, r3, #3145728	; 0x300000
    5b34:	e593c010 	ldr	ip, [r3, #16]
    5b38:	e59f2a48 	ldr	r2, [pc, #2632]	; 6588 <bcm283x_sd_init+0xfd8>
    5b3c:	e002200c 	and	r2, r2, ip
    5b40:	e2020102 	and	r0, r2, #-2147483648	; 0x80000000
    5b44:	e1901001 	orrs	r1, r0, r1
    5b48:	e1a03fc2 	asr	r3, r2, #31
    5b4c:	0affff8f 	beq	5990 <bcm283x_sd_init+0x3e0>
    5b50:	e50b203c 	str	r2, [fp, #-60]	; 0x3c
    5b54:	e50b3038 	str	r3, [fp, #-56]	; 0x38
    5b58:	e59f2a2c 	ldr	r2, [pc, #2604]	; 658c <bcm283x_sd_init+0xfdc>
    5b5c:	e002200c 	and	r2, r2, ip
    5b60:	e3520000 	cmp	r2, #0
    5b64:	0a000007 	beq	5b88 <bcm283x_sd_init+0x5d8>
    5b68:	e31c0101 	tst	ip, #1073741824	; 0x40000000
    5b6c:	0a000005 	beq	5b88 <bcm283x_sd_init+0x5d8>
    5b70:	e5942000 	ldr	r2, [r4]
    5b74:	e3720001 	cmn	r2, #1
    5b78:	0a000002 	beq	5b88 <bcm283x_sd_init+0x5d8>
    5b7c:	e5942000 	ldr	r2, [r4]
    5b80:	e3520000 	cmp	r2, #0
    5b84:	1affff6e 	bne	5944 <bcm283x_sd_init+0x394>
    5b88:	e1963007 	orrs	r3, r6, r7
    5b8c:	0a000168 	beq	6134 <bcm283x_sd_init+0xb84>
    5b90:	e3a01000 	mov	r1, #0
    5b94:	e59f09f4 	ldr	r0, [pc, #2548]	; 6590 <bcm283x_sd_init+0xfe0>
    5b98:	e24b303c 	sub	r3, fp, #60	; 0x3c
    5b9c:	e893000c 	ldm	r3, {r2, r3}
    5ba0:	e0033001 	and	r3, r3, r1
    5ba4:	e0022000 	and	r2, r2, r0
    5ba8:	e1a00002 	mov	r0, r2
    5bac:	e1a01003 	mov	r1, r3
    5bb0:	e1903001 	orrs	r3, r0, r1
    5bb4:	0affff67 	beq	5958 <bcm283x_sd_init+0x3a8>
    5bb8:	e3a01000 	mov	r1, #0
    5bbc:	e59a2000 	ldr	r2, [sl]
    5bc0:	e5841000 	str	r1, [r4]
    5bc4:	e2822603 	add	r2, r2, #3145728	; 0x300000
    5bc8:	e5921024 	ldr	r1, [r2, #36]	; 0x24
    5bcc:	e3110001 	tst	r1, #1
    5bd0:	02822030 	addeq	r2, r2, #48	; 0x30
    5bd4:	0a00001a 	beq	5c44 <bcm283x_sd_init+0x694>
    5bd8:	e5920030 	ldr	r0, [r2, #48]	; 0x30
    5bdc:	e59f1980 	ldr	r1, [pc, #2432]	; 6564 <bcm283x_sd_init+0xfb4>
    5be0:	e0011000 	and	r1, r1, r0
    5be4:	e3510000 	cmp	r1, #0
    5be8:	e2822030 	add	r2, r2, #48	; 0x30
    5bec:	1a000014 	bne	5c44 <bcm283x_sd_init+0x694>
    5bf0:	e59f6970 	ldr	r6, [pc, #2416]	; 6568 <bcm283x_sd_init+0xfb8>
    5bf4:	ea000006 	b	5c14 <bcm283x_sd_init+0x664>
    5bf8:	e5921030 	ldr	r1, [r2, #48]	; 0x30
    5bfc:	e0033001 	and	r3, r3, r1
    5c00:	e3530000 	cmp	r3, #0
    5c04:	e2822030 	add	r2, r2, #48	; 0x30
    5c08:	1a00000b 	bne	5c3c <bcm283x_sd_init+0x68c>
    5c0c:	e2566001 	subs	r6, r6, #1
    5c10:	3a000179 	bcc	61fc <bcm283x_sd_init+0xc4c>
    5c14:	e3a00000 	mov	r0, #0
    5c18:	eb001cc4 	bl	cf30 <usleep>
    5c1c:	e59a2000 	ldr	r2, [sl]
    5c20:	e2822603 	add	r2, r2, #3145728	; 0x300000
    5c24:	e5921024 	ldr	r1, [r2, #36]	; 0x24
    5c28:	e3110001 	tst	r1, #1
    5c2c:	e59f3930 	ldr	r3, [pc, #2352]	; 6564 <bcm283x_sd_init+0xfb4>
    5c30:	e282c024 	add	ip, r2, #36	; 0x24
    5c34:	1affffef 	bne	5bf8 <bcm283x_sd_init+0x648>
    5c38:	e2822030 	add	r2, r2, #48	; 0x30
    5c3c:	e3560000 	cmp	r6, #0
    5c40:	0a00016d 	beq	61fc <bcm283x_sd_init+0xc4c>
    5c44:	e5920000 	ldr	r0, [r2]
    5c48:	e59f1914 	ldr	r1, [pc, #2324]	; 6564 <bcm283x_sd_init+0xfb4>
    5c4c:	e0011000 	and	r1, r1, r0
    5c50:	e3510000 	cmp	r1, #0
    5c54:	1a000164 	bne	61ec <bcm283x_sd_init+0xc3c>
    5c58:	e5920000 	ldr	r0, [r2]
    5c5c:	e5820000 	str	r0, [r2]
    5c60:	e59a2000 	ldr	r2, [sl]
    5c64:	e2822603 	add	r2, r2, #3145728	; 0x300000
    5c68:	e5821008 	str	r1, [r2, #8]
    5c6c:	e59a2000 	ldr	r2, [sl]
    5c70:	e59f191c 	ldr	r1, [pc, #2332]	; 6594 <bcm283x_sd_init+0xfe4>
    5c74:	e2822603 	add	r2, r2, #3145728	; 0x300000
    5c78:	e582100c 	str	r1, [r2, #12]
    5c7c:	e59a2000 	ldr	r2, [sl]
    5c80:	e2822603 	add	r2, r2, #3145728	; 0x300000
    5c84:	e5920030 	ldr	r0, [r2, #48]	; 0x30
    5c88:	e59f18dc 	ldr	r1, [pc, #2268]	; 656c <bcm283x_sd_init+0xfbc>
    5c8c:	e0011000 	and	r1, r1, r0
    5c90:	e3510000 	cmp	r1, #0
    5c94:	e2820030 	add	r0, r2, #48	; 0x30
    5c98:	059f68d0 	ldreq	r6, [pc, #2256]	; 6570 <bcm283x_sd_init+0xfc0>
    5c9c:	0a000002 	beq	5cac <bcm283x_sd_init+0x6fc>
    5ca0:	ea00015a 	b	6210 <bcm283x_sd_init+0xc60>
    5ca4:	e2566001 	subs	r6, r6, #1
    5ca8:	3a000142 	bcc	61b8 <bcm283x_sd_init+0xc08>
    5cac:	e3a00000 	mov	r0, #0
    5cb0:	eb001c9e 	bl	cf30 <usleep>
    5cb4:	e59a3000 	ldr	r3, [sl]
    5cb8:	e2833603 	add	r3, r3, #3145728	; 0x300000
    5cbc:	e5931030 	ldr	r1, [r3, #48]	; 0x30
    5cc0:	e59f28a4 	ldr	r2, [pc, #2212]	; 656c <bcm283x_sd_init+0xfbc>
    5cc4:	e0022001 	and	r2, r2, r1
    5cc8:	e3520000 	cmp	r2, #0
    5ccc:	e2833030 	add	r3, r3, #48	; 0x30
    5cd0:	0afffff3 	beq	5ca4 <bcm283x_sd_init+0x6f4>
    5cd4:	e3560000 	cmp	r6, #0
    5cd8:	e1a02003 	mov	r2, r3
    5cdc:	e1a00003 	mov	r0, r3
    5ce0:	e5931000 	ldr	r1, [r3]
    5ce4:	0a000135 	beq	61c0 <bcm283x_sd_init+0xc10>
    5ce8:	e3110811 	tst	r1, #1114112	; 0x110000
    5cec:	1a000149 	bne	6218 <bcm283x_sd_init+0xc68>
    5cf0:	e59f286c 	ldr	r2, [pc, #2156]	; 6564 <bcm283x_sd_init+0xfb4>
    5cf4:	e0022001 	and	r2, r2, r1
    5cf8:	e3520000 	cmp	r2, #0
    5cfc:	15801000 	strne	r1, [r0]
    5d00:	13e02001 	mvnne	r2, #1
    5d04:	1a00012f 	bne	61c8 <bcm283x_sd_init+0xc18>
    5d08:	e3a02001 	mov	r2, #1
    5d0c:	e5802000 	str	r2, [r0]
    5d10:	e59a2000 	ldr	r2, [sl]
    5d14:	e2822603 	add	r2, r2, #3145728	; 0x300000
    5d18:	e5921010 	ldr	r1, [r2, #16]
    5d1c:	e282c024 	add	ip, r2, #36	; 0x24
    5d20:	e592101c 	ldr	r1, [r2, #28]
    5d24:	e5921018 	ldr	r1, [r2, #24]
    5d28:	e5921014 	ldr	r1, [r2, #20]
    5d2c:	e2822030 	add	r2, r2, #48	; 0x30
    5d30:	e3a01000 	mov	r1, #0
    5d34:	e5841000 	str	r1, [r4]
    5d38:	e59c1000 	ldr	r1, [ip]
    5d3c:	e3110001 	tst	r1, #1
    5d40:	0a000017 	beq	5da4 <bcm283x_sd_init+0x7f4>
    5d44:	e5920000 	ldr	r0, [r2]
    5d48:	e59f1814 	ldr	r1, [pc, #2068]	; 6564 <bcm283x_sd_init+0xfb4>
    5d4c:	e0011000 	and	r1, r1, r0
    5d50:	e3510000 	cmp	r1, #0
    5d54:	1a000012 	bne	5da4 <bcm283x_sd_init+0x7f4>
    5d58:	e59f6808 	ldr	r6, [pc, #2056]	; 6568 <bcm283x_sd_init+0xfb8>
    5d5c:	ea000005 	b	5d78 <bcm283x_sd_init+0x7c8>
    5d60:	e5921030 	ldr	r1, [r2, #48]	; 0x30
    5d64:	e0033001 	and	r3, r3, r1
    5d68:	e3530000 	cmp	r3, #0
    5d6c:	1a000009 	bne	5d98 <bcm283x_sd_init+0x7e8>
    5d70:	e2566001 	subs	r6, r6, #1
    5d74:	3a000119 	bcc	61e0 <bcm283x_sd_init+0xc30>
    5d78:	e3a00000 	mov	r0, #0
    5d7c:	eb001c6b 	bl	cf30 <usleep>
    5d80:	e59a2000 	ldr	r2, [sl]
    5d84:	e2822603 	add	r2, r2, #3145728	; 0x300000
    5d88:	e5921024 	ldr	r1, [r2, #36]	; 0x24
    5d8c:	e3110001 	tst	r1, #1
    5d90:	e59f37cc 	ldr	r3, [pc, #1996]	; 6564 <bcm283x_sd_init+0xfb4>
    5d94:	1afffff1 	bne	5d60 <bcm283x_sd_init+0x7b0>
    5d98:	e3560000 	cmp	r6, #0
    5d9c:	0a00010f 	beq	61e0 <bcm283x_sd_init+0xc30>
    5da0:	e2822030 	add	r2, r2, #48	; 0x30
    5da4:	e5920000 	ldr	r0, [r2]
    5da8:	e59f17b4 	ldr	r1, [pc, #1972]	; 6564 <bcm283x_sd_init+0xfb4>
    5dac:	e0011000 	and	r1, r1, r0
    5db0:	e3510000 	cmp	r1, #0
    5db4:	1a000109 	bne	61e0 <bcm283x_sd_init+0xc30>
    5db8:	e5920000 	ldr	r0, [r2]
    5dbc:	e5820000 	str	r0, [r2]
    5dc0:	e59a2000 	ldr	r2, [sl]
    5dc4:	e2822603 	add	r2, r2, #3145728	; 0x300000
    5dc8:	e5821008 	str	r1, [r2, #8]
    5dcc:	e59a2000 	ldr	r2, [sl]
    5dd0:	e59f17c0 	ldr	r1, [pc, #1984]	; 6598 <bcm283x_sd_init+0xfe8>
    5dd4:	e2822603 	add	r2, r2, #3145728	; 0x300000
    5dd8:	e582100c 	str	r1, [r2, #12]
    5ddc:	e59a2000 	ldr	r2, [sl]
    5de0:	e2822603 	add	r2, r2, #3145728	; 0x300000
    5de4:	e5920030 	ldr	r0, [r2, #48]	; 0x30
    5de8:	e59f177c 	ldr	r1, [pc, #1916]	; 656c <bcm283x_sd_init+0xfbc>
    5dec:	e0011000 	and	r1, r1, r0
    5df0:	e3510000 	cmp	r1, #0
    5df4:	e2820030 	add	r0, r2, #48	; 0x30
    5df8:	059f6770 	ldreq	r6, [pc, #1904]	; 6570 <bcm283x_sd_init+0xfc0>
    5dfc:	0a000002 	beq	5e0c <bcm283x_sd_init+0x85c>
    5e00:	ea000100 	b	6208 <bcm283x_sd_init+0xc58>
    5e04:	e2566001 	subs	r6, r6, #1
    5e08:	3a0000e3 	bcc	619c <bcm283x_sd_init+0xbec>
    5e0c:	e3a00000 	mov	r0, #0
    5e10:	eb001c46 	bl	cf30 <usleep>
    5e14:	e59a3000 	ldr	r3, [sl]
    5e18:	e2833603 	add	r3, r3, #3145728	; 0x300000
    5e1c:	e5931030 	ldr	r1, [r3, #48]	; 0x30
    5e20:	e59f2744 	ldr	r2, [pc, #1860]	; 656c <bcm283x_sd_init+0xfbc>
    5e24:	e0022001 	and	r2, r2, r1
    5e28:	e3520000 	cmp	r2, #0
    5e2c:	e2833030 	add	r3, r3, #48	; 0x30
    5e30:	0afffff3 	beq	5e04 <bcm283x_sd_init+0x854>
    5e34:	e3560000 	cmp	r6, #0
    5e38:	e1a02003 	mov	r2, r3
    5e3c:	e1a00003 	mov	r0, r3
    5e40:	e5931000 	ldr	r1, [r3]
    5e44:	0a0000d6 	beq	61a4 <bcm283x_sd_init+0xbf4>
    5e48:	e3110811 	tst	r1, #1114112	; 0x110000
    5e4c:	1a0000f3 	bne	6220 <bcm283x_sd_init+0xc70>
    5e50:	e59f270c 	ldr	r2, [pc, #1804]	; 6564 <bcm283x_sd_init+0xfb4>
    5e54:	e0022001 	and	r2, r2, r1
    5e58:	e3520000 	cmp	r2, #0
    5e5c:	15801000 	strne	r1, [r0]
    5e60:	13e02001 	mvnne	r2, #1
    5e64:	1a0000d0 	bne	61ac <bcm283x_sd_init+0xbfc>
    5e68:	e3a02001 	mov	r2, #1
    5e6c:	e5802000 	str	r2, [r0]
    5e70:	e59a2000 	ldr	r2, [sl]
    5e74:	e2822603 	add	r2, r2, #3145728	; 0x300000
    5e78:	e5928010 	ldr	r8, [r2, #16]
    5e7c:	e2082901 	and	r2, r8, #16384	; 0x4000
    5e80:	e2081a02 	and	r1, r8, #8192	; 0x2000
    5e84:	e1a02402 	lsl	r2, r2, #8
    5e88:	e1822301 	orr	r2, r2, r1, lsl #6
    5e8c:	e1a01988 	lsl	r1, r8, #19
    5e90:	e18229a1 	orr	r2, r2, r1, lsr #19
    5e94:	e2080902 	and	r0, r8, #32768	; 0x8000
    5e98:	e59f16e8 	ldr	r1, [pc, #1768]	; 6588 <bcm283x_sd_init+0xfd8>
    5e9c:	e1822400 	orr	r2, r2, r0, lsl #8
    5ea0:	e0011002 	and	r1, r1, r2
    5ea4:	e1a08828 	lsr	r8, r8, #16
    5ea8:	e5841000 	str	r1, [r4]
    5eac:	e1a08808 	lsl	r8, r8, #16
    5eb0:	e5858000 	str	r8, [r5]
    5eb4:	e5942000 	ldr	r2, [r4]
    5eb8:	e3520000 	cmp	r2, #0
    5ebc:	1afffea0 	bne	5944 <bcm283x_sd_init+0x394>
    5ec0:	e5951000 	ldr	r1, [r5]
    5ec4:	e59f06d0 	ldr	r0, [pc, #1744]	; 659c <bcm283x_sd_init+0xfec>
    5ec8:	ebfffc7d 	bl	50c4 <sd_cmd>
    5ecc:	e5942000 	ldr	r2, [r4]
    5ed0:	e3520000 	cmp	r2, #0
    5ed4:	1afffe9a 	bne	5944 <bcm283x_sd_init+0x394>
    5ed8:	e59f06c0 	ldr	r0, [pc, #1728]	; 65a0 <bcm283x_sd_init+0xff0>
    5edc:	ebfffc01 	bl	4ee8 <sd_clk>
    5ee0:	e2508000 	subs	r8, r0, #0
    5ee4:	1afffe2a 	bne	5794 <bcm283x_sd_init+0x1e4>
    5ee8:	e59a2000 	ldr	r2, [sl]
    5eec:	e2820603 	add	r0, r2, #3145728	; 0x300000
    5ef0:	e5902024 	ldr	r2, [r0, #36]	; 0x24
    5ef4:	e3120002 	tst	r2, #2
    5ef8:	0a000017 	beq	5f5c <bcm283x_sd_init+0x9ac>
    5efc:	e5901030 	ldr	r1, [r0, #48]	; 0x30
    5f00:	e59f265c 	ldr	r2, [pc, #1628]	; 6564 <bcm283x_sd_init+0xfb4>
    5f04:	e0022001 	and	r2, r2, r1
    5f08:	e3520000 	cmp	r2, #0
    5f0c:	e2802030 	add	r2, r0, #48	; 0x30
    5f10:	1a000012 	bne	5f60 <bcm283x_sd_init+0x9b0>
    5f14:	e59f664c 	ldr	r6, [pc, #1612]	; 6568 <bcm283x_sd_init+0xfb8>
    5f18:	ea000005 	b	5f34 <bcm283x_sd_init+0x984>
    5f1c:	e5902030 	ldr	r2, [r0, #48]	; 0x30
    5f20:	e0033002 	and	r3, r3, r2
    5f24:	e3530000 	cmp	r3, #0
    5f28:	1a000009 	bne	5f54 <bcm283x_sd_init+0x9a4>
    5f2c:	e2566001 	subs	r6, r6, #1
    5f30:	3a00007f 	bcc	6134 <bcm283x_sd_init+0xb84>
    5f34:	e3a00000 	mov	r0, #0
    5f38:	eb001bfc 	bl	cf30 <usleep>
    5f3c:	e59a0000 	ldr	r0, [sl]
    5f40:	e2800603 	add	r0, r0, #3145728	; 0x300000
    5f44:	e5902024 	ldr	r2, [r0, #36]	; 0x24
    5f48:	e3120002 	tst	r2, #2
    5f4c:	e59f3610 	ldr	r3, [pc, #1552]	; 6564 <bcm283x_sd_init+0xfb4>
    5f50:	1afffff1 	bne	5f1c <bcm283x_sd_init+0x96c>
    5f54:	e3560000 	cmp	r6, #0
    5f58:	0a000075 	beq	6134 <bcm283x_sd_init+0xb84>
    5f5c:	e2802030 	add	r2, r0, #48	; 0x30
    5f60:	e5921000 	ldr	r1, [r2]
    5f64:	e59f25f8 	ldr	r2, [pc, #1528]	; 6564 <bcm283x_sd_init+0xfb4>
    5f68:	e0022001 	and	r2, r2, r1
    5f6c:	e3520000 	cmp	r2, #0
    5f70:	1a00006f 	bne	6134 <bcm283x_sd_init+0xb84>
    5f74:	e59f1628 	ldr	r1, [pc, #1576]	; 65a4 <bcm283x_sd_init+0xff4>
    5f78:	e5801004 	str	r1, [r0, #4]
    5f7c:	e5842000 	str	r2, [r4]
    5f80:	e59a1000 	ldr	r1, [sl]
    5f84:	e5956000 	ldr	r6, [r5]
    5f88:	e5957000 	ldr	r7, [r5]
    5f8c:	e5842000 	str	r2, [r4]
    5f90:	e2812603 	add	r2, r1, #3145728	; 0x300000
    5f94:	e59f05e0 	ldr	r0, [pc, #1504]	; 657c <bcm283x_sd_init+0xfcc>
    5f98:	e5921024 	ldr	r1, [r2, #36]	; 0x24
    5f9c:	e3560000 	cmp	r6, #0
    5fa0:	11a06000 	movne	r6, r0
    5fa4:	03a06437 	moveq	r6, #922746880	; 0x37000000
    5fa8:	e3110001 	tst	r1, #1
    5fac:	0a000017 	beq	6010 <bcm283x_sd_init+0xa60>
    5fb0:	e5920030 	ldr	r0, [r2, #48]	; 0x30
    5fb4:	e59f15a8 	ldr	r1, [pc, #1448]	; 6564 <bcm283x_sd_init+0xfb4>
    5fb8:	e0011000 	and	r1, r1, r0
    5fbc:	e3510000 	cmp	r1, #0
    5fc0:	e2822030 	add	r2, r2, #48	; 0x30
    5fc4:	1a000012 	bne	6014 <bcm283x_sd_init+0xa64>
    5fc8:	e59f9598 	ldr	r9, [pc, #1432]	; 6568 <bcm283x_sd_init+0xfb8>
    5fcc:	ea000005 	b	5fe8 <bcm283x_sd_init+0xa38>
    5fd0:	e5921030 	ldr	r1, [r2, #48]	; 0x30
    5fd4:	e0033001 	and	r3, r3, r1
    5fd8:	e3530000 	cmp	r3, #0
    5fdc:	1a000009 	bne	6008 <bcm283x_sd_init+0xa58>
    5fe0:	e2599001 	subs	r9, r9, #1
    5fe4:	3a00008f 	bcc	6228 <bcm283x_sd_init+0xc78>
    5fe8:	e3a00000 	mov	r0, #0
    5fec:	eb001bcf 	bl	cf30 <usleep>
    5ff0:	e59a2000 	ldr	r2, [sl]
    5ff4:	e2822603 	add	r2, r2, #3145728	; 0x300000
    5ff8:	e5921024 	ldr	r1, [r2, #36]	; 0x24
    5ffc:	e3110001 	tst	r1, #1
    6000:	e59f355c 	ldr	r3, [pc, #1372]	; 6564 <bcm283x_sd_init+0xfb4>
    6004:	1afffff1 	bne	5fd0 <bcm283x_sd_init+0xa20>
    6008:	e3590000 	cmp	r9, #0
    600c:	0a000085 	beq	6228 <bcm283x_sd_init+0xc78>
    6010:	e2822030 	add	r2, r2, #48	; 0x30
    6014:	e5920000 	ldr	r0, [r2]
    6018:	e59f1544 	ldr	r1, [pc, #1348]	; 6564 <bcm283x_sd_init+0xfb4>
    601c:	e0011000 	and	r1, r1, r0
    6020:	e3510000 	cmp	r1, #0
    6024:	1a00007f 	bne	6228 <bcm283x_sd_init+0xc78>
    6028:	e5921000 	ldr	r1, [r2]
    602c:	e5821000 	str	r1, [r2]
    6030:	e59a2000 	ldr	r2, [sl]
    6034:	e2822603 	add	r2, r2, #3145728	; 0x300000
    6038:	e5827008 	str	r7, [r2, #8]
    603c:	e59a2000 	ldr	r2, [sl]
    6040:	e3560437 	cmp	r6, #922746880	; 0x37000000
    6044:	e2822603 	add	r2, r2, #3145728	; 0x300000
    6048:	e582600c 	str	r6, [r2, #12]
    604c:	0a000138 	beq	6534 <bcm283x_sd_init+0xf84>
    6050:	e59a1000 	ldr	r1, [sl]
    6054:	e2811603 	add	r1, r1, #3145728	; 0x300000
    6058:	e5910030 	ldr	r0, [r1, #48]	; 0x30
    605c:	e59f2508 	ldr	r2, [pc, #1288]	; 656c <bcm283x_sd_init+0xfbc>
    6060:	e0022000 	and	r2, r2, r0
    6064:	e3520000 	cmp	r2, #0
    6068:	e2812030 	add	r2, r1, #48	; 0x30
    606c:	1a00012e 	bne	652c <bcm283x_sd_init+0xf7c>
    6070:	e59f74f8 	ldr	r7, [pc, #1272]	; 6570 <bcm283x_sd_init+0xfc0>
    6074:	ea000001 	b	6080 <bcm283x_sd_init+0xad0>
    6078:	e2577001 	subs	r7, r7, #1
    607c:	3a000125 	bcc	6518 <bcm283x_sd_init+0xf68>
    6080:	e3a00000 	mov	r0, #0
    6084:	eb001ba9 	bl	cf30 <usleep>
    6088:	e59a2000 	ldr	r2, [sl]
    608c:	e2822603 	add	r2, r2, #3145728	; 0x300000
    6090:	e5921030 	ldr	r1, [r2, #48]	; 0x30
    6094:	e59f34d0 	ldr	r3, [pc, #1232]	; 656c <bcm283x_sd_init+0xfbc>
    6098:	e0033001 	and	r3, r3, r1
    609c:	e3530000 	cmp	r3, #0
    60a0:	e2822030 	add	r2, r2, #48	; 0x30
    60a4:	0afffff3 	beq	6078 <bcm283x_sd_init+0xac8>
    60a8:	e3570000 	cmp	r7, #0
    60ac:	e5921000 	ldr	r1, [r2]
    60b0:	0a000119 	beq	651c <bcm283x_sd_init+0xf6c>
    60b4:	e3110811 	tst	r1, #1114112	; 0x110000
    60b8:	1a000117 	bne	651c <bcm283x_sd_init+0xf6c>
    60bc:	e59f04a0 	ldr	r0, [pc, #1184]	; 6564 <bcm283x_sd_init+0xfb4>
    60c0:	e0000001 	and	r0, r0, r1
    60c4:	e3500000 	cmp	r0, #0
    60c8:	15821000 	strne	r1, [r2]
    60cc:	13e02001 	mvnne	r2, #1
    60d0:	1a000113 	bne	6524 <bcm283x_sd_init+0xf74>
    60d4:	e3a01001 	mov	r1, #1
    60d8:	e5821000 	str	r1, [r2]
    60dc:	e59a2000 	ldr	r2, [sl]
    60e0:	e3560437 	cmp	r6, #922746880	; 0x37000000
    60e4:	e2822603 	add	r2, r2, #3145728	; 0x300000
    60e8:	e5920010 	ldr	r0, [r2, #16]
    60ec:	0a00004f 	beq	6230 <bcm283x_sd_init+0xc80>
    60f0:	e59f1484 	ldr	r1, [pc, #1156]	; 657c <bcm283x_sd_init+0xfcc>
    60f4:	e1560001 	cmp	r6, r1
    60f8:	159f1488 	ldrne	r1, [pc, #1160]	; 6588 <bcm283x_sd_init+0xfd8>
    60fc:	02001020 	andeq	r1, r0, #32
    6100:	10011000 	andne	r1, r1, r0
    6104:	e5950000 	ldr	r0, [r5]
    6108:	e2711001 	rsbs	r1, r1, #1
    610c:	33a01000 	movcc	r1, #0
    6110:	e3500000 	cmp	r0, #0
    6114:	03a01000 	moveq	r1, #0
    6118:	e3510000 	cmp	r1, #0
    611c:	0a000048 	beq	6244 <bcm283x_sd_init+0xc94>
    6120:	e3e02001 	mvn	r2, #1
    6124:	e5842000 	str	r2, [r4]
    6128:	ea000095 	b	6384 <bcm283x_sd_init+0xdd4>
    612c:	e5912000 	ldr	r2, [r1]
    6130:	e5812000 	str	r2, [r1]
    6134:	e3e08000 	mvn	r8, #0
    6138:	eafffd95 	b	5794 <bcm283x_sd_init+0x1e4>
    613c:	e5932000 	ldr	r2, [r3]
    6140:	e5832000 	str	r2, [r3]
    6144:	e3e03000 	mvn	r3, #0
    6148:	e5843000 	str	r3, [r4]
    614c:	eafffe0f 	b	5990 <bcm283x_sd_init+0x3e0>
    6150:	e1a02003 	mov	r2, r3
    6154:	e5930000 	ldr	r0, [r3]
    6158:	e5820000 	str	r0, [r2]
    615c:	e3e02000 	mvn	r2, #0
    6160:	e5842000 	str	r2, [r4]
    6164:	eafffdf3 	b	5938 <bcm283x_sd_init+0x388>
    6168:	e3e03001 	mvn	r3, #1
    616c:	e5843000 	str	r3, [r4]
    6170:	eafffe06 	b	5990 <bcm283x_sd_init+0x3e0>
    6174:	e3e03000 	mvn	r3, #0
    6178:	e5843000 	str	r3, [r4]
    617c:	eafffe03 	b	5990 <bcm283x_sd_init+0x3e0>
    6180:	e3e02000 	mvn	r2, #0
    6184:	e5842000 	str	r2, [r4]
    6188:	eafffdea 	b	5938 <bcm283x_sd_init+0x388>
    618c:	e5922030 	ldr	r2, [r2, #48]	; 0x30
    6190:	eafffe5a 	b	5b00 <bcm283x_sd_init+0x550>
    6194:	e5910030 	ldr	r0, [r1, #48]	; 0x30
    6198:	eafffdd9 	b	5904 <bcm283x_sd_init+0x354>
    619c:	e1a02003 	mov	r2, r3
    61a0:	e5931000 	ldr	r1, [r3]
    61a4:	e5821000 	str	r1, [r2]
    61a8:	e3e02000 	mvn	r2, #0
    61ac:	e5842000 	str	r2, [r4]
    61b0:	e3a08000 	mov	r8, #0
    61b4:	eaffff3d 	b	5eb0 <bcm283x_sd_init+0x900>
    61b8:	e1a02003 	mov	r2, r3
    61bc:	e5931000 	ldr	r1, [r3]
    61c0:	e5821000 	str	r1, [r2]
    61c4:	e3e02000 	mvn	r2, #0
    61c8:	e59ac000 	ldr	ip, [sl]
    61cc:	e28cc603 	add	ip, ip, #3145728	; 0x300000
    61d0:	e5842000 	str	r2, [r4]
    61d4:	e28c2030 	add	r2, ip, #48	; 0x30
    61d8:	e28cc024 	add	ip, ip, #36	; 0x24
    61dc:	eafffed3 	b	5d30 <bcm283x_sd_init+0x780>
    61e0:	e3e02000 	mvn	r2, #0
    61e4:	e5842000 	str	r2, [r4]
    61e8:	eaffff30 	b	5eb0 <bcm283x_sd_init+0x900>
    61ec:	e59a2000 	ldr	r2, [sl]
    61f0:	e2822603 	add	r2, r2, #3145728	; 0x300000
    61f4:	e282c024 	add	ip, r2, #36	; 0x24
    61f8:	e2822030 	add	r2, r2, #48	; 0x30
    61fc:	e3e01000 	mvn	r1, #0
    6200:	e5841000 	str	r1, [r4]
    6204:	eafffec9 	b	5d30 <bcm283x_sd_init+0x780>
    6208:	e5921030 	ldr	r1, [r2, #48]	; 0x30
    620c:	eaffff0d 	b	5e48 <bcm283x_sd_init+0x898>
    6210:	e5921030 	ldr	r1, [r2, #48]	; 0x30
    6214:	eafffeb3 	b	5ce8 <bcm283x_sd_init+0x738>
    6218:	e1a02000 	mov	r2, r0
    621c:	eaffffe7 	b	61c0 <bcm283x_sd_init+0xc10>
    6220:	e1a02000 	mov	r2, r0
    6224:	eaffffde 	b	61a4 <bcm283x_sd_init+0xbf4>
    6228:	e3e02000 	mvn	r2, #0
    622c:	e5842000 	str	r2, [r4]
    6230:	e5952000 	ldr	r2, [r5]
    6234:	e3520000 	cmp	r2, #0
    6238:	1affffb8 	bne	6120 <bcm283x_sd_init+0xb70>
    623c:	e59a2000 	ldr	r2, [sl]
    6240:	e2822603 	add	r2, r2, #3145728	; 0x300000
    6244:	e5921024 	ldr	r1, [r2, #36]	; 0x24
    6248:	e3110001 	tst	r1, #1
    624c:	0a000017 	beq	62b0 <bcm283x_sd_init+0xd00>
    6250:	e5920030 	ldr	r0, [r2, #48]	; 0x30
    6254:	e59f1308 	ldr	r1, [pc, #776]	; 6564 <bcm283x_sd_init+0xfb4>
    6258:	e0011000 	and	r1, r1, r0
    625c:	e3510000 	cmp	r1, #0
    6260:	e2822030 	add	r2, r2, #48	; 0x30
    6264:	059f62fc 	ldreq	r6, [pc, #764]	; 6568 <bcm283x_sd_init+0xfb8>
    6268:	0a000006 	beq	6288 <bcm283x_sd_init+0xcd8>
    626c:	ea000010 	b	62b4 <bcm283x_sd_init+0xd04>
    6270:	e5921030 	ldr	r1, [r2, #48]	; 0x30
    6274:	e0033001 	and	r3, r3, r1
    6278:	e3530000 	cmp	r3, #0
    627c:	1a000009 	bne	62a8 <bcm283x_sd_init+0xcf8>
    6280:	e2566001 	subs	r6, r6, #1
    6284:	3a0000a0 	bcc	650c <bcm283x_sd_init+0xf5c>
    6288:	e3a00000 	mov	r0, #0
    628c:	eb001b27 	bl	cf30 <usleep>
    6290:	e59a2000 	ldr	r2, [sl]
    6294:	e2822603 	add	r2, r2, #3145728	; 0x300000
    6298:	e5921024 	ldr	r1, [r2, #36]	; 0x24
    629c:	e3110001 	tst	r1, #1
    62a0:	e59f32bc 	ldr	r3, [pc, #700]	; 6564 <bcm283x_sd_init+0xfb4>
    62a4:	1afffff1 	bne	6270 <bcm283x_sd_init+0xcc0>
    62a8:	e3560000 	cmp	r6, #0
    62ac:	0a000096 	beq	650c <bcm283x_sd_init+0xf5c>
    62b0:	e2822030 	add	r2, r2, #48	; 0x30
    62b4:	e5920000 	ldr	r0, [r2]
    62b8:	e59f12a4 	ldr	r1, [pc, #676]	; 6564 <bcm283x_sd_init+0xfb4>
    62bc:	e0011000 	and	r1, r1, r0
    62c0:	e3510000 	cmp	r1, #0
    62c4:	1a000090 	bne	650c <bcm283x_sd_init+0xf5c>
    62c8:	e5920000 	ldr	r0, [r2]
