
../../../build/rootfs/apps/book/book:     file format elf32-littlearm


Disassembly of section .text:

00000100 <main>:
     100:	e1a0c00d 	mov	ip, sp
     104:	e92dd9f0 	push	{r4, r5, r6, r7, r8, fp, ip, lr, pc}
     108:	e24cb004 	sub	fp, ip, #4
     10c:	e24dde75 	sub	sp, sp, #1872	; 0x750
     110:	e24b6d1d 	sub	r6, fp, #1856	; 0x740
     114:	e24dd004 	sub	sp, sp, #4
     118:	e246600c 	sub	r6, r6, #12
     11c:	e1a05000 	mov	r5, r0
     120:	e1a00006 	mov	r0, r6
     124:	e1a07001 	mov	r7, r1
     128:	eb002965 	bl	a6c4 <_ZN4Ewok4XWinC1Ev>
     12c:	e3a02000 	mov	r2, #0
     130:	e59f41d4 	ldr	r4, [pc, #468]	; 30c <main+0x20c>
     134:	e59f31d4 	ldr	r3, [pc, #468]	; 310 <main+0x210>
     138:	e08f4004 	add	r4, pc, r4
     13c:	e7943003 	ldr	r3, [r4, r3]
     140:	e2833008 	add	r3, r3, #8
     144:	e59f01c8 	ldr	r0, [pc, #456]	; 314 <main+0x214>
     148:	e59f11c8 	ldr	r1, [pc, #456]	; 318 <main+0x218>
     14c:	e50b374c 	str	r3, [fp, #-1868]	; 0xfffff8b4
     150:	e59f31c4 	ldr	r3, [pc, #452]	; 31c <main+0x21c>
     154:	e08f0000 	add	r0, pc, r0
     158:	e50b173c 	str	r1, [fp, #-1852]	; 0xfffff8c4
     15c:	e50b3738 	str	r3, [fp, #-1848]	; 0xfffff8c8
     160:	e50b2740 	str	r2, [fp, #-1856]	; 0xfffff8c0
     164:	eb002e13 	bl	b9b8 <sconf_load>
     168:	e2504000 	subs	r4, r0, #0
     16c:	0a00005b 	beq	2e0 <main+0x1e0>
     170:	e59f11a8 	ldr	r1, [pc, #424]	; 320 <main+0x220>
     174:	e08f1001 	add	r1, pc, r1
     178:	eb002ddc 	bl	b8f0 <sconf_get>
     17c:	e5d03000 	ldrb	r3, [r0]
     180:	e3530000 	cmp	r3, #0
     184:	03a0800e 	moveq	r8, #14
     188:	1a000051 	bne	2d4 <main+0x1d4>
     18c:	e59f1190 	ldr	r1, [pc, #400]	; 324 <main+0x224>
     190:	e1a00004 	mov	r0, r4
     194:	e08f1001 	add	r1, pc, r1
     198:	eb002dd4 	bl	b8f0 <sconf_get>
     19c:	e5d03000 	ldrb	r3, [r0]
     1a0:	e3530000 	cmp	r3, #0
     1a4:	e1a01808 	lsl	r1, r8, #16
     1a8:	1a000039 	bne	294 <main+0x194>
     1ac:	e59f0174 	ldr	r0, [pc, #372]	; 328 <main+0x228>
     1b0:	e3a02002 	mov	r2, #2
     1b4:	e1a01821 	lsr	r1, r1, #16
     1b8:	e08f0000 	add	r0, pc, r0
     1bc:	eb000682 	bl	1bcc <ttf_font_load>
     1c0:	e50b0740 	str	r0, [fp, #-1856]	; 0xfffff8c0
     1c4:	e59f1160 	ldr	r1, [pc, #352]	; 32c <main+0x22c>
     1c8:	e1a00004 	mov	r0, r4
     1cc:	e08f1001 	add	r1, pc, r1
     1d0:	eb002dc6 	bl	b8f0 <sconf_get>
     1d4:	e5d03000 	ldrb	r3, [r0]
     1d8:	e3530000 	cmp	r3, #0
     1dc:	1a000038 	bne	2c4 <main+0x1c4>
     1e0:	e59f1148 	ldr	r1, [pc, #328]	; 330 <main+0x230>
     1e4:	e1a00004 	mov	r0, r4
     1e8:	e08f1001 	add	r1, pc, r1
     1ec:	eb002dbf 	bl	b8f0 <sconf_get>
     1f0:	e5d03000 	ldrb	r3, [r0]
     1f4:	e3530000 	cmp	r3, #0
     1f8:	1a00002d 	bne	2b4 <main+0x1b4>
     1fc:	e1a00004 	mov	r0, r4
     200:	eb002da0 	bl	b888 <sconf_free>
     204:	e3550002 	cmp	r5, #2
     208:	e1a00006 	mov	r0, r6
     20c:	0a000025 	beq	2a8 <main+0x1a8>
     210:	e59f111c 	ldr	r1, [pc, #284]	; 334 <main+0x234>
     214:	e08f1001 	add	r1, pc, r1
     218:	eb00012c 	bl	6d0 <_ZN4Book8openBookEPKc>
     21c:	e24b5e76 	sub	r5, fp, #1888	; 0x760
     220:	e2455004 	sub	r5, r5, #4
     224:	e1a00005 	mov	r0, r5
     228:	eb002871 	bl	a3f4 <_ZN4Ewok1XC1Ev>
     22c:	e3a04000 	mov	r4, #0
     230:	e3a0c0c8 	mov	ip, #200	; 0xc8
     234:	e3a02f4b 	mov	r2, #300	; 0x12c
     238:	e59f30f8 	ldr	r3, [pc, #248]	; 338 <main+0x238>
     23c:	e08f3003 	add	r3, pc, r3
     240:	e88d1004 	stm	sp, {r2, ip}
     244:	e1a01006 	mov	r1, r6
     248:	e1a02004 	mov	r2, r4
     24c:	e58d3008 	str	r3, [sp, #8]
     250:	e1a00005 	mov	r0, r5
     254:	e1a03004 	mov	r3, r4
     258:	e58d400c 	str	r4, [sp, #12]
     25c:	eb002848 	bl	a384 <_ZN4Ewok1X4openEPNS_4XWinEiimmPKcm>
     260:	e3a01001 	mov	r1, #1
     264:	e1a00006 	mov	r0, r6
     268:	eb00292d 	bl	a724 <_ZN4Ewok4XWin10setVisibleEb>
     26c:	e1a02004 	mov	r2, r4
     270:	e1a01004 	mov	r1, r4
     274:	e1a00005 	mov	r0, r5
     278:	eb002867 	bl	a41c <_ZN4Ewok1X3runEPFvPvES1_>
     27c:	e1a00006 	mov	r0, r6
     280:	eb000035 	bl	35c <_ZN4BookD1Ev>
     284:	e1a00004 	mov	r0, r4
     288:	e24bd020 	sub	sp, fp, #32
     28c:	e89d69f0 	ldm	sp, {r4, r5, r6, r7, r8, fp, sp, lr}
     290:	e12fff1e 	bx	lr
     294:	e3a02002 	mov	r2, #2
     298:	e1a01821 	lsr	r1, r1, #16
     29c:	eb00064a 	bl	1bcc <ttf_font_load>
     2a0:	e50b0740 	str	r0, [fp, #-1856]	; 0xfffff8c0
     2a4:	eaffffc6 	b	1c4 <main+0xc4>
     2a8:	e5971004 	ldr	r1, [r7, #4]
     2ac:	eb000107 	bl	6d0 <_ZN4Book8openBookEPKc>
     2b0:	eaffffd9 	b	21c <main+0x11c>
     2b4:	e3a01010 	mov	r1, #16
     2b8:	eb004529 	bl	11764 <atoi_base>
     2bc:	e50b0738 	str	r0, [fp, #-1848]	; 0xfffff8c8
     2c0:	eaffffcd 	b	1fc <main+0xfc>
     2c4:	e3a01010 	mov	r1, #16
     2c8:	eb004525 	bl	11764 <atoi_base>
     2cc:	e50b073c 	str	r0, [fp, #-1852]	; 0xfffff8c4
     2d0:	eaffffc2 	b	1e0 <main+0xe0>
     2d4:	eb00457a 	bl	118c4 <atoi>
     2d8:	e1a08000 	mov	r8, r0
     2dc:	eaffffaa 	b	18c <main+0x8c>
     2e0:	e59f0054 	ldr	r0, [pc, #84]	; 33c <main+0x23c>
     2e4:	e3a02002 	mov	r2, #2
     2e8:	e3a01018 	mov	r1, #24
     2ec:	e08f0000 	add	r0, pc, r0
     2f0:	eb000635 	bl	1bcc <ttf_font_load>
     2f4:	e1a01000 	mov	r1, r0
     2f8:	e59f0040 	ldr	r0, [pc, #64]	; 340 <main+0x240>
     2fc:	e08f0000 	add	r0, pc, r0
     300:	e50b1740 	str	r1, [fp, #-1856]	; 0xfffff8c0
     304:	eb004742 	bl	12014 <printf>
     308:	eaffffbd 	b	204 <main+0x104>
     30c:	00027aac 	andeq	r7, r2, ip, lsr #21
     310:	00000010 	andeq	r0, r0, r0, lsl r0
     314:	0001745c 	andeq	r7, r1, ip, asr r4
     318:	ffddc090 			; <UNDEFINED> instruction: 0xffddc090
     31c:	ff3e3422 			; <UNDEFINED> instruction: 0xff3e3422
     320:	00017470 	andeq	r7, r1, r0, ror r4
     324:	0001745c 	andeq	r7, r1, ip, asr r4
     328:	0001740c 	andeq	r7, r1, ip, lsl #8
     32c:	0001742c 	andeq	r7, r1, ip, lsr #8
     330:	0001741c 	andeq	r7, r1, ip, lsl r4
     334:	000173fc 	strdeq	r7, [r1], -ip
     338:	000173e8 	andeq	r7, r1, r8, ror #7
     33c:	000172d8 	ldrdeq	r7, [r1], -r8
     340:	000172e0 	andeq	r7, r1, r0, ror #5

00000344 <_ZN4Ewok4XWin7onCloseEv>:
     344:	e12fff1e 	bx	lr

00000348 <_ZN4Ewok4XWin5onMinEv>:
     348:	e12fff1e 	bx	lr

0000034c <_ZN4Ewok4XWin8onResizeEv>:
     34c:	e12fff1e 	bx	lr

00000350 <_ZN4Ewok4XWin7onFocusEv>:
     350:	e12fff1e 	bx	lr

00000354 <_ZN4Ewok4XWin9onUnfocusEv>:
     354:	e12fff1e 	bx	lr

00000358 <_ZN4Ewok4XWin7onEventEP8xevent_t>:
     358:	e12fff1e 	bx	lr

0000035c <_ZN4BookD1Ev>:
     35c:	e1a0c00d 	mov	ip, sp
     360:	e92dd830 	push	{r4, r5, fp, ip, lr, pc}
     364:	e1a04000 	mov	r4, r0
     368:	e59f5048 	ldr	r5, [pc, #72]	; 3b8 <_ZN4BookD1Ev+0x5c>
     36c:	e59f3048 	ldr	r3, [pc, #72]	; 3bc <_ZN4BookD1Ev+0x60>
     370:	e08f5005 	add	r5, pc, r5
     374:	e7953003 	ldr	r3, [r5, r3]
     378:	e590000c 	ldr	r0, [r0, #12]
     37c:	e2833008 	add	r3, r3, #8
     380:	e3500000 	cmp	r0, #0
     384:	e5843000 	str	r3, [r4]
     388:	e24cb004 	sub	fp, ip, #4
     38c:	1b000641 	blne	1c98 <ttf_font_free>
     390:	e59f3028 	ldr	r3, [pc, #40]	; 3c0 <_ZN4BookD1Ev+0x64>
     394:	e7953003 	ldr	r3, [r5, r3]
     398:	e2833008 	add	r3, r3, #8
     39c:	e1a00004 	mov	r0, r4
     3a0:	e5843000 	str	r3, [r4]
     3a4:	eb0028d1 	bl	a6f0 <_ZN4Ewok4XWin5closeEv>
     3a8:	e1a00004 	mov	r0, r4
     3ac:	e24bd014 	sub	sp, fp, #20
     3b0:	e89d6830 	ldm	sp, {r4, r5, fp, sp, lr}
     3b4:	e12fff1e 	bx	lr
     3b8:	00027874 	andeq	r7, r2, r4, ror r8
     3bc:	00000010 	andeq	r0, r0, r0, lsl r0
     3c0:	0000001c 	andeq	r0, r0, ip, lsl r0

000003c4 <_ZN4Book7onEventEP8xevent_t>:
     3c4:	e1a0c00d 	mov	ip, sp
     3c8:	e92dd870 	push	{r4, r5, r6, fp, ip, lr, pc}
     3cc:	e1a05001 	mov	r5, r1
     3d0:	e24cb004 	sub	fp, ip, #4
     3d4:	e24dd04c 	sub	sp, sp, #76	; 0x4c
     3d8:	e24b1064 	sub	r1, fp, #100	; 0x64
     3dc:	e1a04000 	mov	r4, r0
     3e0:	eb0028f1 	bl	a7ac <_ZN4Ewok4XWin7getInfoER7xinfo_t>
     3e4:	e5d53000 	ldrb	r3, [r5]
     3e8:	e3530002 	cmp	r3, #2
     3ec:	1a000012 	bne	43c <_ZN4Book7onEventEP8xevent_t+0x78>
     3f0:	e5953004 	ldr	r3, [r5, #4]
     3f4:	e3530000 	cmp	r3, #0
     3f8:	1a00000f 	bne	43c <_ZN4Book7onEventEP8xevent_t+0x78>
     3fc:	e595300c 	ldr	r3, [r5, #12]
     400:	e3530005 	cmp	r3, #5
     404:	0a000023 	beq	498 <_ZN4Book7onEventEP8xevent_t+0xd4>
     408:	e3530018 	cmp	r3, #24
     40c:	1a00001e 	bne	48c <_ZN4Book7onEventEP8xevent_t+0xc8>
     410:	e5946718 	ldr	r6, [r4, #1816]	; 0x718
     414:	e594571c 	ldr	r5, [r4, #1820]	; 0x71c
     418:	e1560005 	cmp	r6, r5
     41c:	0a00001a 	beq	48c <_ZN4Book7onEventEP8xevent_t+0xc8>
     420:	e2840e51 	add	r0, r4, #1296	; 0x510
     424:	e2801008 	add	r1, r0, #8
     428:	e3a02f7f 	mov	r2, #508	; 0x1fc
     42c:	e280000c 	add	r0, r0, #12
     430:	eb0055cc 	bl	15b68 <memmove>
     434:	e5846518 	str	r6, [r4, #1304]	; 0x518
     438:	e5845718 	str	r5, [r4, #1816]	; 0x718
     43c:	e5940724 	ldr	r0, [r4, #1828]	; 0x724
     440:	e3500000 	cmp	r0, #0
     444:	0a00000d 	beq	480 <_ZN4Book7onEventEP8xevent_t+0xbc>
     448:	e3a02000 	mov	r2, #0
     44c:	e5941718 	ldr	r1, [r4, #1816]	; 0x718
     450:	e2845018 	add	r5, r4, #24
     454:	eb00476e 	bl	12214 <fseek>
     458:	e3a02c05 	mov	r2, #1280	; 0x500
     45c:	e3a01000 	mov	r1, #0
     460:	e1a00005 	mov	r0, r5
     464:	eb005615 	bl	15cc0 <memset>
     468:	e3a02c05 	mov	r2, #1280	; 0x500
     46c:	e3a01001 	mov	r1, #1
     470:	e1a00005 	mov	r0, r5
     474:	e5943724 	ldr	r3, [r4, #1828]	; 0x724
     478:	eb00474b 	bl	121ac <fread>
     47c:	e5840720 	str	r0, [r4, #1824]	; 0x720
     480:	e3a01001 	mov	r1, #1
     484:	e1a00004 	mov	r0, r4
     488:	eb0028d6 	bl	a7e8 <_ZN4Ewok4XWin7repaintEb>
     48c:	e24bd018 	sub	sp, fp, #24
     490:	e89d6870 	ldm	sp, {r4, r5, r6, fp, sp, lr}
     494:	e12fff1e 	bx	lr
     498:	e5943518 	ldr	r3, [r4, #1304]	; 0x518
     49c:	e5942718 	ldr	r2, [r4, #1816]	; 0x718
     4a0:	e1520003 	cmp	r2, r3
     4a4:	0afffff8 	beq	48c <_ZN4Book7onEventEP8xevent_t+0xc8>
     4a8:	e2840e51 	add	r0, r4, #1296	; 0x510
     4ac:	e280100c 	add	r1, r0, #12
     4b0:	e3a02f7f 	mov	r2, #508	; 0x1fc
     4b4:	e5843718 	str	r3, [r4, #1816]	; 0x718
     4b8:	e2800008 	add	r0, r0, #8
     4bc:	eb0055a9 	bl	15b68 <memmove>
     4c0:	eaffffdd 	b	43c <_ZN4Book7onEventEP8xevent_t+0x78>

000004c4 <_ZN4Book9onRepaintEP7graph_t>:
     4c4:	e1a0c00d 	mov	ip, sp
     4c8:	e92ddff0 	push	{r4, r5, r6, r7, r8, r9, sl, fp, ip, lr, pc}
     4cc:	e1a04000 	mov	r4, r0
     4d0:	e1a07001 	mov	r7, r1
     4d4:	e3a05000 	mov	r5, #0
     4d8:	e59f0178 	ldr	r0, [pc, #376]	; 658 <_ZN4Book9onRepaintEP7graph_t+0x194>
     4dc:	e24cb004 	sub	fp, ip, #4
     4e0:	e24dd024 	sub	sp, sp, #36	; 0x24
     4e4:	e08f0000 	add	r0, pc, r0
     4e8:	eb0046c9 	bl	12014 <printf>
     4ec:	e1a00007 	mov	r0, r7
     4f0:	e5941010 	ldr	r1, [r4, #16]
     4f4:	eb000110 	bl	93c <graph_clear>
     4f8:	e594000c 	ldr	r0, [r4, #12]
     4fc:	e14b53b4 	strh	r5, [fp, #-52]	; 0xffffffcc
     500:	eb0005fa 	bl	1cf0 <ttf_font_hight>
     504:	e5943720 	ldr	r3, [r4, #1824]	; 0x720
     508:	e1530005 	cmp	r3, r5
     50c:	da000019 	ble	578 <_ZN4Book9onRepaintEP7graph_t+0xb4>
     510:	e1a08005 	mov	r8, r5
     514:	e1a09005 	mov	r9, r5
     518:	e2843018 	add	r3, r4, #24
     51c:	e1a06800 	lsl	r6, r0, #16
     520:	e50b3038 	str	r3, [fp, #-56]	; 0xffffffc8
     524:	e1a06826 	lsr	r6, r6, #16
     528:	e24ba030 	sub	sl, fp, #48	; 0x30
     52c:	e51b3038 	ldr	r3, [fp, #-56]	; 0xffffffc8
     530:	e1a0100a 	mov	r1, sl
     534:	e0830005 	add	r0, r3, r5
     538:	eb002ee7 	bl	c0dc <utf82unicode_char>
     53c:	e3500000 	cmp	r0, #0
     540:	e24b2034 	sub	r2, fp, #52	; 0x34
     544:	e24b3032 	sub	r3, fp, #50	; 0x32
     548:	ba00000a 	blt	578 <_ZN4Book9onRepaintEP7graph_t+0xb4>
     54c:	e51b1030 	ldr	r1, [fp, #-48]	; 0xffffffd0
     550:	e0855000 	add	r5, r5, r0
     554:	e351000d 	cmp	r1, #13
     558:	e1a00801 	lsl	r0, r1, #16
     55c:	e1a00820 	lsr	r0, r0, #16
     560:	1a00000c 	bne	598 <_ZN4Book9onRepaintEP7graph_t+0xd4>
     564:	e5973008 	ldr	r3, [r7, #8]
     568:	e0888006 	add	r8, r8, r6
     56c:	e0862008 	add	r2, r6, r8
     570:	e1520003 	cmp	r2, r3
     574:	ba000032 	blt	644 <_ZN4Book9onRepaintEP7graph_t+0x180>
     578:	e59f00dc 	ldr	r0, [pc, #220]	; 65c <_ZN4Book9onRepaintEP7graph_t+0x198>
     57c:	e594271c 	ldr	r2, [r4, #1820]	; 0x71c
     580:	e5941718 	ldr	r1, [r4, #1816]	; 0x718
     584:	e08f0000 	add	r0, pc, r0
     588:	eb0046a1 	bl	12014 <printf>
     58c:	e24bd028 	sub	sp, fp, #40	; 0x28
     590:	e89d6ff0 	ldm	sp, {r4, r5, r6, r7, r8, r9, sl, fp, sp, lr}
     594:	e12fff1e 	bx	lr
     598:	e594100c 	ldr	r1, [r4, #12]
     59c:	e50b203c 	str	r2, [fp, #-60]	; 0xffffffc4
     5a0:	eb0005d6 	bl	1d00 <ttf_char_size>
     5a4:	e594100c 	ldr	r1, [r4, #12]
     5a8:	e15b33b4 	ldrh	r3, [fp, #-52]	; 0xffffffcc
     5ac:	e2810f6d 	add	r0, r1, #436	; 0x1b4
     5b0:	e1d000f0 	ldrsh	r0, [r0]
     5b4:	e0833009 	add	r3, r3, r9
     5b8:	e0833000 	add	r3, r3, r0
     5bc:	e5970004 	ldr	r0, [r7, #4]
     5c0:	e1530000 	cmp	r3, r0
     5c4:	e51b203c 	ldr	r2, [fp, #-60]	; 0xffffffc4
     5c8:	ba000008 	blt	5f0 <_ZN4Book9onRepaintEP7graph_t+0x12c>
     5cc:	e5973008 	ldr	r3, [r7, #8]
     5d0:	e0888006 	add	r8, r8, r6
     5d4:	e0860008 	add	r0, r6, r8
     5d8:	e1500003 	cmp	r0, r3
     5dc:	aaffffe5 	bge	578 <_ZN4Book9onRepaintEP7graph_t+0xb4>
     5e0:	e3a09000 	mov	r9, #0
     5e4:	e5943718 	ldr	r3, [r4, #1816]	; 0x718
     5e8:	e0833005 	add	r3, r3, r5
     5ec:	e584371c 	str	r3, [r4, #1820]	; 0x71c
     5f0:	e58d2008 	str	r2, [sp, #8]
     5f4:	e3a02000 	mov	r2, #0
     5f8:	e58d1000 	str	r1, [sp]
     5fc:	e58d200c 	str	r2, [sp, #12]
     600:	e5942014 	ldr	r2, [r4, #20]
     604:	e1a01009 	mov	r1, r9
     608:	e51b3030 	ldr	r3, [fp, #-48]	; 0xffffffd0
     60c:	e58d2004 	str	r2, [sp, #4]
     610:	e1a00007 	mov	r0, r7
     614:	e1a02008 	mov	r2, r8
     618:	eb00061d 	bl	1e94 <graph_draw_char_ttf>
     61c:	e594300c 	ldr	r3, [r4, #12]
     620:	e2833f6d 	add	r3, r3, #436	; 0x1b4
     624:	e1d330f0 	ldrsh	r3, [r3]
     628:	e15b23b4 	ldrh	r2, [fp, #-52]	; 0xffffffcc
     62c:	e0833002 	add	r3, r3, r2
     630:	e0899003 	add	r9, r9, r3
     634:	e5943720 	ldr	r3, [r4, #1824]	; 0x720
     638:	e1530005 	cmp	r3, r5
     63c:	caffffba 	bgt	52c <_ZN4Book9onRepaintEP7graph_t+0x68>
     640:	eaffffcc 	b	578 <_ZN4Book9onRepaintEP7graph_t+0xb4>
     644:	e5943718 	ldr	r3, [r4, #1816]	; 0x718
     648:	e0833005 	add	r3, r3, r5
     64c:	e3a09000 	mov	r9, #0
     650:	e584371c 	str	r3, [r4, #1820]	; 0x71c
     654:	eafffff6 	b	634 <_ZN4Book9onRepaintEP7graph_t+0x170>
     658:	000170b0 	strheq	r7, [r1], -r0
     65c:	0001701c 	andeq	r7, r1, ip, lsl r0

00000660 <_ZN4BookD0Ev>:
     660:	e1a0c00d 	mov	ip, sp
     664:	e92dd830 	push	{r4, r5, fp, ip, lr, pc}
     668:	e1a04000 	mov	r4, r0
     66c:	e59f5050 	ldr	r5, [pc, #80]	; 6c4 <_ZN4BookD0Ev+0x64>
     670:	e59f3050 	ldr	r3, [pc, #80]	; 6c8 <_ZN4BookD0Ev+0x68>
     674:	e08f5005 	add	r5, pc, r5
     678:	e7953003 	ldr	r3, [r5, r3]
     67c:	e590000c 	ldr	r0, [r0, #12]
     680:	e2833008 	add	r3, r3, #8
     684:	e3500000 	cmp	r0, #0
     688:	e5843000 	str	r3, [r4]
     68c:	e24cb004 	sub	fp, ip, #4
     690:	1b000580 	blne	1c98 <ttf_font_free>
     694:	e59f3030 	ldr	r3, [pc, #48]	; 6cc <_ZN4BookD0Ev+0x6c>
     698:	e7953003 	ldr	r3, [r5, r3]
     69c:	e2833008 	add	r3, r3, #8
     6a0:	e1a00004 	mov	r0, r4
     6a4:	e5843000 	str	r3, [r4]
     6a8:	eb002810 	bl	a6f0 <_ZN4Ewok4XWin5closeEv>
     6ac:	e1a00004 	mov	r0, r4
     6b0:	eb005bb2 	bl	17580 <_ZdlPv>
     6b4:	e1a00004 	mov	r0, r4
     6b8:	e24bd014 	sub	sp, fp, #20
     6bc:	e89d6830 	ldm	sp, {r4, r5, fp, sp, lr}
     6c0:	e12fff1e 	bx	lr
     6c4:	00027570 	andeq	r7, r2, r0, ror r5
     6c8:	00000010 	andeq	r0, r0, r0, lsl r0
     6cc:	0000001c 	andeq	r0, r0, ip, lsl r0

000006d0 <_ZN4Book8openBookEPKc>:
     6d0:	e1a0c00d 	mov	ip, sp
     6d4:	e92dd830 	push	{r4, r5, fp, ip, lr, pc}
     6d8:	e1a04000 	mov	r4, r0
     6dc:	e1a00001 	mov	r0, r1
     6e0:	e59f107c 	ldr	r1, [pc, #124]	; 764 <_ZN4Book8openBookEPKc+0x94>
     6e4:	e24cb004 	sub	fp, ip, #4
     6e8:	e08f1001 	add	r1, pc, r1
     6ec:	eb004663 	bl	12080 <fopen>
     6f0:	e1a03000 	mov	r3, r0
     6f4:	e2840e51 	add	r0, r4, #1296	; 0x510
     6f8:	e5843724 	str	r3, [r4, #1828]	; 0x724
     6fc:	e3a02c02 	mov	r2, #512	; 0x200
     700:	e3a01000 	mov	r1, #0
     704:	e2800008 	add	r0, r0, #8
     708:	eb00556c 	bl	15cc0 <memset>
     70c:	e3a03000 	mov	r3, #0
     710:	e5940724 	ldr	r0, [r4, #1828]	; 0x724
     714:	e1500003 	cmp	r0, r3
     718:	e5843718 	str	r3, [r4, #1816]	; 0x718
     71c:	0a00000d 	beq	758 <_ZN4Book8openBookEPKc+0x88>
     720:	e1a02003 	mov	r2, r3
     724:	e1a01003 	mov	r1, r3
     728:	e2845018 	add	r5, r4, #24
     72c:	eb0046b8 	bl	12214 <fseek>
     730:	e3a02c05 	mov	r2, #1280	; 0x500
     734:	e3a01000 	mov	r1, #0
     738:	e1a00005 	mov	r0, r5
     73c:	eb00555f 	bl	15cc0 <memset>
     740:	e3a02c05 	mov	r2, #1280	; 0x500
     744:	e3a01001 	mov	r1, #1
     748:	e1a00005 	mov	r0, r5
     74c:	e5943724 	ldr	r3, [r4, #1828]	; 0x724
     750:	eb004695 	bl	121ac <fread>
     754:	e5840720 	str	r0, [r4, #1824]	; 0x720
     758:	e24bd014 	sub	sp, fp, #20
     75c:	e89d6830 	ldm	sp, {r4, r5, fp, sp, lr}
     760:	e12fff1e 	bx	lr
     764:	00016ec4 	andeq	r6, r1, r4, asr #29

00000768 <argb>:
     768:	e1833402 	orr	r3, r3, r2, lsl #8
     76c:	e1833801 	orr	r3, r3, r1, lsl #16
     770:	e1830c00 	orr	r0, r3, r0, lsl #24
     774:	e12fff1e 	bx	lr

00000778 <has_alpha>:
     778:	e1a00c20 	lsr	r0, r0, #24
     77c:	e25000ff 	subs	r0, r0, #255	; 0xff
     780:	13a00001 	movne	r0, #1
     784:	e12fff1e 	bx	lr

00000788 <graph_init>:
     788:	e1a0c00d 	mov	ip, sp
     78c:	e3530000 	cmp	r3, #0
     790:	c3520000 	cmpgt	r2, #0
     794:	e92dd830 	push	{r4, r5, fp, ip, lr, pc}
     798:	e24cb004 	sub	fp, ip, #4
     79c:	e1a04000 	mov	r4, r0
     7a0:	d3a0c001 	movle	ip, #1
     7a4:	c3a0c000 	movgt	ip, #0
     7a8:	da000008 	ble	7d0 <graph_init+0x48>
     7ac:	e3510000 	cmp	r1, #0
     7b0:	e980000c 	stmib	r0, {r2, r3}
     7b4:	0a000008 	beq	7dc <graph_init+0x54>
     7b8:	e5801000 	str	r1, [r0]
     7bc:	e5c0c01c 	strb	ip, [r0, #28]
     7c0:	e3a02010 	mov	r2, #16
     7c4:	e3a01000 	mov	r1, #0
     7c8:	e284000c 	add	r0, r4, #12
     7cc:	eb00553b 	bl	15cc0 <memset>
     7d0:	e24bd014 	sub	sp, fp, #20
     7d4:	e89d6830 	ldm	sp, {r4, r5, fp, sp, lr}
     7d8:	e12fff1e 	bx	lr
     7dc:	e0020293 	mul	r2, r3, r2
     7e0:	e1a00102 	lsl	r0, r2, #2
     7e4:	eb00445f 	bl	11968 <malloc>
     7e8:	e3a03001 	mov	r3, #1
     7ec:	e5840000 	str	r0, [r4]
     7f0:	e5c4301c 	strb	r3, [r4, #28]
     7f4:	eafffff1 	b	7c0 <graph_init+0x38>

000007f8 <graph_set_clip>:
     7f8:	e1a0c00d 	mov	ip, sp
     7fc:	e92dd800 	push	{fp, ip, lr, pc}
     800:	e24cb004 	sub	fp, ip, #4
     804:	e59be004 	ldr	lr, [fp, #4]
     808:	e580100c 	str	r1, [r0, #12]
     80c:	e5802010 	str	r2, [r0, #16]
     810:	e5803014 	str	r3, [r0, #20]
     814:	e580e018 	str	lr, [r0, #24]
     818:	e280100c 	add	r1, r0, #12
     81c:	eb000228 	bl	10c4 <graph_insect>
     820:	e24bd00c 	sub	sp, fp, #12
     824:	e89d6800 	ldm	sp, {fp, sp, lr}
     828:	e12fff1e 	bx	lr

0000082c <graph_unset_clip>:
     82c:	e1a0c00d 	mov	ip, sp
     830:	e3a02010 	mov	r2, #16
     834:	e92dd800 	push	{fp, ip, lr, pc}
     838:	e3a01000 	mov	r1, #0
     83c:	e24cb004 	sub	fp, ip, #4
     840:	e280000c 	add	r0, r0, #12
     844:	eb00551d 	bl	15cc0 <memset>
     848:	e24bd00c 	sub	sp, fp, #12
     84c:	e89d6800 	ldm	sp, {fp, sp, lr}
     850:	e12fff1e 	bx	lr

00000854 <graph_new>:
     854:	e1a0c00d 	mov	ip, sp
     858:	e3520000 	cmp	r2, #0
     85c:	c3510000 	cmpgt	r1, #0
     860:	e92ddbf0 	push	{r4, r5, r6, r7, r8, r9, fp, ip, lr, pc}
     864:	e1a05001 	mov	r5, r1
     868:	d3a07001 	movle	r7, #1
     86c:	c3a07000 	movgt	r7, #0
     870:	e1a08000 	mov	r8, r0
     874:	e1a06002 	mov	r6, r2
     878:	e24cb004 	sub	fp, ip, #4
     87c:	da000010 	ble	8c4 <graph_new+0x70>
     880:	e3a00020 	mov	r0, #32
     884:	eb004437 	bl	11968 <malloc>
     888:	e2504000 	subs	r4, r0, #0
     88c:	0a00000c 	beq	8c4 <graph_new+0x70>
     890:	e3580000 	cmp	r8, #0
     894:	e9840060 	stmib	r4, {r5, r6}
     898:	0a00000e 	beq	8d8 <graph_new+0x84>
     89c:	e5848000 	str	r8, [r4]
     8a0:	e5c4701c 	strb	r7, [r4, #28]
     8a4:	e3a02010 	mov	r2, #16
     8a8:	e3a01000 	mov	r1, #0
     8ac:	e284000c 	add	r0, r4, #12
     8b0:	eb005502 	bl	15cc0 <memset>
     8b4:	e1a00004 	mov	r0, r4
     8b8:	e24bd024 	sub	sp, fp, #36	; 0x24
     8bc:	e89d6bf0 	ldm	sp, {r4, r5, r6, r7, r8, r9, fp, sp, lr}
     8c0:	e12fff1e 	bx	lr
     8c4:	e3a04000 	mov	r4, #0
     8c8:	e1a00004 	mov	r0, r4
     8cc:	e24bd024 	sub	sp, fp, #36	; 0x24
     8d0:	e89d6bf0 	ldm	sp, {r4, r5, r6, r7, r8, r9, fp, sp, lr}
     8d4:	e12fff1e 	bx	lr
     8d8:	e0000596 	mul	r0, r6, r5
     8dc:	e1a00100 	lsl	r0, r0, #2
     8e0:	eb004420 	bl	11968 <malloc>
     8e4:	e3a03001 	mov	r3, #1
     8e8:	e5840000 	str	r0, [r4]
     8ec:	e5c4301c 	strb	r3, [r4, #28]
     8f0:	eaffffeb 	b	8a4 <graph_new+0x50>

000008f4 <graph_free>:
     8f4:	e1a0c00d 	mov	ip, sp
     8f8:	e92dd830 	push	{r4, r5, fp, ip, lr, pc}
     8fc:	e2504000 	subs	r4, r0, #0
     900:	e24cb004 	sub	fp, ip, #4
     904:	0a000007 	beq	928 <graph_free+0x34>
     908:	e5940000 	ldr	r0, [r4]
     90c:	e3500000 	cmp	r0, #0
     910:	0a000002 	beq	920 <graph_free+0x2c>
     914:	e5d4301c 	ldrb	r3, [r4, #28]
     918:	e3530000 	cmp	r3, #0
     91c:	1a000004 	bne	934 <graph_free+0x40>
     920:	e1a00004 	mov	r0, r4
     924:	eb004406 	bl	11944 <free>
     928:	e24bd014 	sub	sp, fp, #20
     92c:	e89d6830 	ldm	sp, {r4, r5, fp, sp, lr}
     930:	e12fff1e 	bx	lr
     934:	eb004402 	bl	11944 <free>
     938:	eafffff8 	b	920 <graph_free+0x2c>

0000093c <graph_clear>:
     93c:	e1a0c00d 	mov	ip, sp
     940:	e92dd8f0 	push	{r4, r5, r6, r7, fp, ip, lr, pc}
     944:	e2504000 	subs	r4, r0, #0
     948:	e24cb004 	sub	fp, ip, #4
     94c:	0a00001a 	beq	9bc <graph_clear+0x80>
     950:	e5946004 	ldr	r6, [r4, #4]
     954:	e3560000 	cmp	r6, #0
     958:	0a000017 	beq	9bc <graph_clear+0x80>
     95c:	e1a06106 	lsl	r6, r6, #2
     960:	da000018 	ble	9c8 <graph_clear+0x8c>
     964:	e3a03000 	mov	r3, #0
     968:	e5947000 	ldr	r7, [r4]
     96c:	e2472004 	sub	r2, r7, #4
     970:	e5a21004 	str	r1, [r2, #4]!
     974:	e5940004 	ldr	r0, [r4, #4]
     978:	e2833001 	add	r3, r3, #1
     97c:	e1500003 	cmp	r0, r3
     980:	cafffffa 	bgt	970 <graph_clear+0x34>
     984:	e5943008 	ldr	r3, [r4, #8]
     988:	e3530001 	cmp	r3, #1
     98c:	da00000a 	ble	9bc <graph_clear+0x80>
     990:	e3a05001 	mov	r5, #1
     994:	e0873006 	add	r3, r7, r6
     998:	e1a00003 	mov	r0, r3
     99c:	e1a02006 	mov	r2, r6
     9a0:	e1a01007 	mov	r1, r7
     9a4:	eb005427 	bl	15a48 <memcpy>
     9a8:	e5942008 	ldr	r2, [r4, #8]
     9ac:	e2855001 	add	r5, r5, #1
     9b0:	e1520005 	cmp	r2, r5
     9b4:	e0803006 	add	r3, r0, r6
     9b8:	cafffff6 	bgt	998 <graph_clear+0x5c>
     9bc:	e24bd01c 	sub	sp, fp, #28
     9c0:	e89d68f0 	ldm	sp, {r4, r5, r6, r7, fp, sp, lr}
     9c4:	e12fff1e 	bx	lr
     9c8:	e5947000 	ldr	r7, [r4]
     9cc:	eaffffec 	b	984 <graph_clear+0x48>

000009d0 <graph_reverse>:
     9d0:	e3500000 	cmp	r0, #0
     9d4:	e92d4010 	push	{r4, lr}
     9d8:	0a000019 	beq	a44 <graph_reverse+0x74>
     9dc:	e5903004 	ldr	r3, [r0, #4]
     9e0:	e5902008 	ldr	r2, [r0, #8]
     9e4:	e0030392 	mul	r3, r2, r3
     9e8:	e3530000 	cmp	r3, #0
     9ec:	da000014 	ble	a44 <graph_reverse+0x74>
     9f0:	e3a0e000 	mov	lr, #0
     9f4:	e590c000 	ldr	ip, [r0]
     9f8:	e24cc004 	sub	ip, ip, #4
     9fc:	e5bc2004 	ldr	r2, [ip, #4]!
     a00:	e1e01002 	mvn	r1, r2
     a04:	e1a03001 	mov	r3, r1
     a08:	e1a04001 	mov	r4, r1
     a0c:	e20224ff 	and	r2, r2, #-16777216	; 0xff000000
     a10:	e20110ff 	and	r1, r1, #255	; 0xff
     a14:	e1812002 	orr	r2, r1, r2
     a18:	e20338ff 	and	r3, r3, #16711680	; 0xff0000
     a1c:	e1833002 	orr	r3, r3, r2
     a20:	e2042cff 	and	r2, r4, #65280	; 0xff00
     a24:	e1833002 	orr	r3, r3, r2
     a28:	e58c3000 	str	r3, [ip]
     a2c:	e5903004 	ldr	r3, [r0, #4]
     a30:	e5902008 	ldr	r2, [r0, #8]
     a34:	e0030392 	mul	r3, r2, r3
     a38:	e28ee001 	add	lr, lr, #1
     a3c:	e153000e 	cmp	r3, lr
     a40:	caffffed 	bgt	9fc <graph_reverse+0x2c>
     a44:	e8bd4010 	pop	{r4, lr}
     a48:	e12fff1e 	bx	lr

00000a4c <graph_rotate_to>:
     a4c:	e3510000 	cmp	r1, #0
     a50:	13500000 	cmpne	r0, #0
     a54:	e92d40f0 	push	{r4, r5, r6, r7, lr}
     a58:	03a0e001 	moveq	lr, #1
     a5c:	13a0e000 	movne	lr, #0
     a60:	0a000005 	beq	a7c <graph_rotate_to+0x30>
     a64:	e3520001 	cmp	r2, #1
     a68:	0a000005 	beq	a84 <graph_rotate_to+0x38>
     a6c:	e3520003 	cmp	r2, #3
     a70:	0a00003b 	beq	b64 <graph_rotate_to+0x118>
     a74:	e3520002 	cmp	r2, #2
     a78:	0a00001f 	beq	afc <graph_rotate_to+0xb0>
     a7c:	e8bd40f0 	pop	{r4, r5, r6, r7, lr}
     a80:	e12fff1e 	bx	lr
     a84:	e5906004 	ldr	r6, [r0, #4]
     a88:	e3560000 	cmp	r6, #0
     a8c:	c5902008 	ldrgt	r2, [r0, #8]
     a90:	dafffff9 	ble	a7c <graph_rotate_to+0x30>
     a94:	e3520000 	cmp	r2, #0
     a98:	da000012 	ble	ae8 <graph_rotate_to+0x9c>
     a9c:	e3a0c000 	mov	ip, #0
     aa0:	e5905000 	ldr	r5, [r0]
     aa4:	e5914000 	ldr	r4, [r1]
     aa8:	e5912008 	ldr	r2, [r1, #8]
     aac:	e046300e 	sub	r3, r6, lr
     ab0:	e0233c96 	mla	r3, r6, ip, r3
     ab4:	e5917004 	ldr	r7, [r1, #4]
     ab8:	e042200e 	sub	r2, r2, lr
     abc:	e047600c 	sub	r6, r7, ip
     ac0:	e2422001 	sub	r2, r2, #1
     ac4:	e0226297 	mla	r2, r7, r2, r6
     ac8:	e2433001 	sub	r3, r3, #1
     acc:	e7953103 	ldr	r3, [r5, r3, lsl #2]
     ad0:	e7843102 	str	r3, [r4, r2, lsl #2]
     ad4:	e5902008 	ldr	r2, [r0, #8]
     ad8:	e28cc001 	add	ip, ip, #1
     adc:	e15c0002 	cmp	ip, r2
     ae0:	e5906004 	ldr	r6, [r0, #4]
     ae4:	baffffef 	blt	aa8 <graph_rotate_to+0x5c>
     ae8:	e28ee001 	add	lr, lr, #1
     aec:	e15e0006 	cmp	lr, r6
     af0:	baffffe7 	blt	a94 <graph_rotate_to+0x48>
     af4:	e8bd40f0 	pop	{r4, r5, r6, r7, lr}
     af8:	e12fff1e 	bx	lr
     afc:	e5902008 	ldr	r2, [r0, #8]
     b00:	e3520000 	cmp	r2, #0
     b04:	c5903004 	ldrgt	r3, [r0, #4]
     b08:	daffffdb 	ble	a7c <graph_rotate_to+0x30>
     b0c:	e3530000 	cmp	r3, #0
     b10:	da00000f 	ble	b54 <graph_rotate_to+0x108>
     b14:	e3a0c000 	mov	ip, #0
     b18:	e5905000 	ldr	r5, [r0]
     b1c:	e5914000 	ldr	r4, [r1]
     b20:	e042200e 	sub	r2, r2, lr
     b24:	e043600c 	sub	r6, r3, ip
     b28:	e2422001 	sub	r2, r2, #1
     b2c:	e0226293 	mla	r2, r3, r2, r6
     b30:	e023c39e 	mla	r3, lr, r3, ip
     b34:	e2422001 	sub	r2, r2, #1
     b38:	e7952102 	ldr	r2, [r5, r2, lsl #2]
     b3c:	e7842103 	str	r2, [r4, r3, lsl #2]
     b40:	e5903004 	ldr	r3, [r0, #4]
     b44:	e28cc001 	add	ip, ip, #1
     b48:	e153000c 	cmp	r3, ip
     b4c:	e5902008 	ldr	r2, [r0, #8]
     b50:	cafffff2 	bgt	b20 <graph_rotate_to+0xd4>
     b54:	e28ee001 	add	lr, lr, #1
     b58:	e15e0002 	cmp	lr, r2
     b5c:	baffffea 	blt	b0c <graph_rotate_to+0xc0>
     b60:	eaffffc5 	b	a7c <graph_rotate_to+0x30>
     b64:	e5904004 	ldr	r4, [r0, #4]
     b68:	e3540000 	cmp	r4, #0
     b6c:	c5902008 	ldrgt	r2, [r0, #8]
     b70:	daffffc1 	ble	a7c <graph_rotate_to+0x30>
     b74:	e3520000 	cmp	r2, #0
     b78:	da00000e 	ble	bb8 <graph_rotate_to+0x16c>
     b7c:	e3a0c000 	mov	ip, #0
     b80:	e5906000 	ldr	r6, [r0]
     b84:	e5915000 	ldr	r5, [r1]
     b88:	e044300e 	sub	r3, r4, lr
     b8c:	e0233c94 	mla	r3, r4, ip, r3
     b90:	e5912004 	ldr	r2, [r1, #4]
     b94:	e022c29e 	mla	r2, lr, r2, ip
     b98:	e2433001 	sub	r3, r3, #1
     b9c:	e7963103 	ldr	r3, [r6, r3, lsl #2]
     ba0:	e7853102 	str	r3, [r5, r2, lsl #2]
     ba4:	e5902008 	ldr	r2, [r0, #8]
     ba8:	e28cc001 	add	ip, ip, #1
     bac:	e15c0002 	cmp	ip, r2
     bb0:	e5904004 	ldr	r4, [r0, #4]
     bb4:	bafffff3 	blt	b88 <graph_rotate_to+0x13c>
     bb8:	e28ee001 	add	lr, lr, #1
     bbc:	e15e0004 	cmp	lr, r4
     bc0:	baffffeb 	blt	b74 <graph_rotate_to+0x128>
     bc4:	e8bd40f0 	pop	{r4, r5, r6, r7, lr}
     bc8:	e12fff1e 	bx	lr

00000bcc <graph_rotate>:
     bcc:	e1a0c00d 	mov	ip, sp
     bd0:	e92dd8f0 	push	{r4, r5, r6, r7, fp, ip, lr, pc}
     bd4:	e2504000 	subs	r4, r0, #0
     bd8:	e1a05001 	mov	r5, r1
     bdc:	e24cb004 	sub	fp, ip, #4
     be0:	0a000010 	beq	c28 <graph_rotate+0x5c>
     be4:	e3c13002 	bic	r3, r1, #2
     be8:	e3530001 	cmp	r3, #1
     bec:	0a000012 	beq	c3c <graph_rotate+0x70>
     bf0:	e3510002 	cmp	r1, #2
     bf4:	1a00000b 	bne	c28 <graph_rotate+0x5c>
     bf8:	e3a00000 	mov	r0, #0
     bfc:	e9940006 	ldmib	r4, {r1, r2}
     c00:	ebffff13 	bl	854 <graph_new>
     c04:	e1a06000 	mov	r6, r0
     c08:	e1a00004 	mov	r0, r4
     c0c:	e1a02005 	mov	r2, r5
     c10:	e1a01006 	mov	r1, r6
     c14:	ebffff8c 	bl	a4c <graph_rotate_to>
     c18:	e1a00006 	mov	r0, r6
     c1c:	e24bd01c 	sub	sp, fp, #28
     c20:	e89d68f0 	ldm	sp, {r4, r5, r6, r7, fp, sp, lr}
     c24:	e12fff1e 	bx	lr
     c28:	e3a06000 	mov	r6, #0
     c2c:	e1a00006 	mov	r0, r6
     c30:	e24bd01c 	sub	sp, fp, #28
     c34:	e89d68f0 	ldm	sp, {r4, r5, r6, r7, fp, sp, lr}
     c38:	e12fff1e 	bx	lr
     c3c:	e3a00000 	mov	r0, #0
     c40:	e5942004 	ldr	r2, [r4, #4]
     c44:	e5941008 	ldr	r1, [r4, #8]
     c48:	ebffff01 	bl	854 <graph_new>
     c4c:	e1a06000 	mov	r6, r0
     c50:	eaffffec 	b	c08 <graph_rotate+0x3c>

00000c54 <graph_scale_to>:
     c54:	e1a0c00d 	mov	ip, sp
     c58:	e92ddff0 	push	{r4, r5, r6, r7, r8, r9, sl, fp, ip, lr, pc}
     c5c:	e24cb004 	sub	fp, ip, #4
     c60:	e24dd014 	sub	sp, sp, #20
     c64:	e2529000 	subs	r9, r2, #0
     c68:	e1a0a000 	mov	sl, r0
     c6c:	e1a07001 	mov	r7, r1
     c70:	0a000024 	beq	d08 <graph_scale_to+0xb4>
     c74:	e5902004 	ldr	r2, [r0, #4]
     c78:	e0020299 	mul	r2, r9, r2
     c7c:	e5914004 	ldr	r4, [r1, #4]
     c80:	e1540002 	cmp	r4, r2
     c84:	ba00001f 	blt	d08 <graph_scale_to+0xb4>
     c88:	e5902008 	ldr	r2, [r0, #8]
     c8c:	e0020299 	mul	r2, r9, r2
     c90:	e5916008 	ldr	r6, [r1, #8]
     c94:	e1560002 	cmp	r6, r2
     c98:	ba00001a 	blt	d08 <graph_scale_to+0xb4>
     c9c:	e3590000 	cmp	r9, #0
     ca0:	ca00001b 	bgt	d14 <graph_scale_to+0xc0>
     ca4:	e3560000 	cmp	r6, #0
     ca8:	da000016 	ble	d08 <graph_scale_to+0xb4>
     cac:	e3a05000 	mov	r5, #0
     cb0:	e1a0e005 	mov	lr, r5
     cb4:	e3540000 	cmp	r4, #0
     cb8:	da00000e 	ble	cf8 <graph_scale_to+0xa4>
     cbc:	e3a01000 	mov	r1, #0
     cc0:	e1a03001 	mov	r3, r1
     cc4:	e59ac000 	ldr	ip, [sl]
     cc8:	e5970000 	ldr	r0, [r7]
     ccc:	e59a2004 	ldr	r2, [sl, #4]
     cd0:	e0221295 	mla	r2, r5, r2, r1
     cd4:	e024349e 	mla	r4, lr, r4, r3
     cd8:	e79c2102 	ldr	r2, [ip, r2, lsl #2]
     cdc:	e7802104 	str	r2, [r0, r4, lsl #2]
     ce0:	e5974004 	ldr	r4, [r7, #4]
     ce4:	e2833001 	add	r3, r3, #1
     ce8:	e1540003 	cmp	r4, r3
     cec:	e0411009 	sub	r1, r1, r9
     cf0:	cafffff5 	bgt	ccc <graph_scale_to+0x78>
     cf4:	e5976008 	ldr	r6, [r7, #8]
     cf8:	e28ee001 	add	lr, lr, #1
     cfc:	e15e0006 	cmp	lr, r6
     d00:	e0455009 	sub	r5, r5, r9
     d04:	baffffea 	blt	cb4 <graph_scale_to+0x60>
     d08:	e24bd028 	sub	sp, fp, #40	; 0x28
     d0c:	e89d6ff0 	ldm	sp, {r4, r5, r6, r7, r8, r9, sl, fp, sp, lr}
     d10:	e12fff1e 	bx	lr
     d14:	e3560000 	cmp	r6, #0
     d18:	dafffffa 	ble	d08 <graph_scale_to+0xb4>
     d1c:	e3a03000 	mov	r3, #0
     d20:	e1a05006 	mov	r5, r6
     d24:	e1a08003 	mov	r8, r3
     d28:	e50b1030 	str	r1, [fp, #-48]	; 0xffffffd0
     d2c:	e1a01009 	mov	r1, r9
     d30:	e1a00008 	mov	r0, r8
     d34:	eb004047 	bl	10e58 <__aeabi_idiv>
     d38:	e3540000 	cmp	r4, #0
     d3c:	e50b0034 	str	r0, [fp, #-52]	; 0xffffffcc
     d40:	da000021 	ble	dcc <graph_scale_to+0x178>
     d44:	e51b3030 	ldr	r3, [fp, #-48]	; 0xffffffd0
     d48:	e5933000 	ldr	r3, [r3]
     d4c:	e1a0200a 	mov	r2, sl
     d50:	e50b3038 	str	r3, [fp, #-56]	; 0xffffffc8
     d54:	e1a03009 	mov	r3, r9
     d58:	e59a6000 	ldr	r6, [sl]
     d5c:	e1a09008 	mov	r9, r8
     d60:	e1a0a006 	mov	sl, r6
     d64:	e3a07000 	mov	r7, #0
     d68:	e1a08003 	mov	r8, r3
     d6c:	e1a06002 	mov	r6, r2
     d70:	e5965004 	ldr	r5, [r6, #4]
     d74:	e51b3034 	ldr	r3, [fp, #-52]	; 0xffffffcc
     d78:	e0030395 	mul	r3, r5, r3
     d7c:	e1a00007 	mov	r0, r7
     d80:	e1a01008 	mov	r1, r8
     d84:	e1a05003 	mov	r5, r3
     d88:	eb004032 	bl	10e58 <__aeabi_idiv>
     d8c:	e0247499 	mla	r4, r9, r4, r7
     d90:	e0855000 	add	r5, r5, r0
     d94:	e51b3038 	ldr	r3, [fp, #-56]	; 0xffffffc8
     d98:	e79a0105 	ldr	r0, [sl, r5, lsl #2]
     d9c:	e7830104 	str	r0, [r3, r4, lsl #2]
     da0:	e51b3030 	ldr	r3, [fp, #-48]	; 0xffffffd0
     da4:	e5934004 	ldr	r4, [r3, #4]
     da8:	e2877001 	add	r7, r7, #1
     dac:	e1540007 	cmp	r4, r7
     db0:	caffffee 	bgt	d70 <graph_scale_to+0x11c>
     db4:	e1a03008 	mov	r3, r8
     db8:	e1a0a006 	mov	sl, r6
     dbc:	e1a08009 	mov	r8, r9
     dc0:	e1a09003 	mov	r9, r3
     dc4:	e51b3030 	ldr	r3, [fp, #-48]	; 0xffffffd0
     dc8:	e5935008 	ldr	r5, [r3, #8]
     dcc:	e2888001 	add	r8, r8, #1
     dd0:	e1580005 	cmp	r8, r5
     dd4:	baffffd4 	blt	d2c <graph_scale_to+0xd8>
     dd8:	e24bd028 	sub	sp, fp, #40	; 0x28
     ddc:	e89d6ff0 	ldm	sp, {r4, r5, r6, r7, r8, r9, sl, fp, sp, lr}
     de0:	e12fff1e 	bx	lr

00000de4 <graph_scale>:
     de4:	e1a0c00d 	mov	ip, sp
     de8:	e92dd8f0 	push	{r4, r5, r6, r7, fp, ip, lr, pc}
     dec:	e2514000 	subs	r4, r1, #0
     df0:	e1a05000 	mov	r5, r0
     df4:	01a06004 	moveq	r6, r4
     df8:	e24cb004 	sub	fp, ip, #4
     dfc:	0a000012 	beq	e4c <graph_scale+0x68>
     e00:	ca000015 	bgt	e5c <graph_scale+0x78>
     e04:	e2647000 	rsb	r7, r4, #0
     e08:	e1a01007 	mov	r1, r7
     e0c:	e5900008 	ldr	r0, [r0, #8]
     e10:	eb004010 	bl	10e58 <__aeabi_idiv>
     e14:	e1a01007 	mov	r1, r7
     e18:	e1a06000 	mov	r6, r0
     e1c:	e5950004 	ldr	r0, [r5, #4]
     e20:	eb00400c 	bl	10e58 <__aeabi_idiv>
     e24:	e1a02006 	mov	r2, r6
     e28:	e1a01000 	mov	r1, r0
     e2c:	e3a00000 	mov	r0, #0
     e30:	ebfffe87 	bl	854 <graph_new>
     e34:	e1a06000 	mov	r6, r0
     e38:	e3560000 	cmp	r6, #0
     e3c:	11a02004 	movne	r2, r4
     e40:	11a01006 	movne	r1, r6
     e44:	11a00005 	movne	r0, r5
     e48:	1bffff81 	blne	c54 <graph_scale_to>
     e4c:	e1a00006 	mov	r0, r6
     e50:	e24bd01c 	sub	sp, fp, #28
     e54:	e89d68f0 	ldm	sp, {r4, r5, r6, r7, fp, sp, lr}
     e58:	e12fff1e 	bx	lr
     e5c:	e9900006 	ldmib	r0, {r1, r2}
     e60:	e3a00000 	mov	r0, #0
     e64:	e0020294 	mul	r2, r4, r2
     e68:	e0010194 	mul	r1, r4, r1
     e6c:	ebfffe78 	bl	854 <graph_new>
     e70:	e1a06000 	mov	r6, r0
     e74:	eaffffef 	b	e38 <graph_scale+0x54>

00000e78 <graph_scale_tof>:
     e78:	e1a0c00d 	mov	ip, sp
     e7c:	e92ddff0 	push	{r4, r5, r6, r7, r8, r9, sl, fp, ip, lr, pc}
     e80:	e24cb004 	sub	fp, ip, #4
     e84:	e24dd00c 	sub	sp, sp, #12
     e88:	e1a06001 	mov	r6, r1
     e8c:	e1a09000 	mov	r9, r0
     e90:	e3a01000 	mov	r1, #0
     e94:	e1a00002 	mov	r0, r2
     e98:	e1a08002 	mov	r8, r2
     e9c:	eb004670 	bl	12864 <__aeabi_fcmple>
     ea0:	e2505000 	subs	r5, r0, #0
     ea4:	1a000031 	bne	f70 <graph_scale_tof+0xf8>
     ea8:	e5990004 	ldr	r0, [r9, #4]
     eac:	eb0046d9 	bl	12a18 <__aeabi_i2f>
     eb0:	e1a01008 	mov	r1, r8
     eb4:	eb004653 	bl	12808 <__aeabi_fmul>
     eb8:	eb00468f 	bl	128fc <__aeabi_f2iz>
     ebc:	e5964004 	ldr	r4, [r6, #4]
     ec0:	e1540000 	cmp	r4, r0
     ec4:	ba000029 	blt	f70 <graph_scale_tof+0xf8>
     ec8:	e5990008 	ldr	r0, [r9, #8]
     ecc:	eb0046d1 	bl	12a18 <__aeabi_i2f>
     ed0:	e1a01008 	mov	r1, r8
     ed4:	eb00464b 	bl	12808 <__aeabi_fmul>
     ed8:	eb004687 	bl	128fc <__aeabi_f2iz>
     edc:	e596a008 	ldr	sl, [r6, #8]
     ee0:	e15a0000 	cmp	sl, r0
     ee4:	ba000021 	blt	f70 <graph_scale_tof+0xf8>
     ee8:	e35a0000 	cmp	sl, #0
     eec:	da00001f 	ble	f70 <graph_scale_tof+0xf8>
     ef0:	e1a00005 	mov	r0, r5
     ef4:	eb0046c7 	bl	12a18 <__aeabi_i2f>
     ef8:	e1a01008 	mov	r1, r8
     efc:	eb00463d 	bl	127f8 <__aeabi_fdiv>
     f00:	eb00467d 	bl	128fc <__aeabi_f2iz>
     f04:	e3540000 	cmp	r4, #0
     f08:	e50b0030 	str	r0, [fp, #-48]	; 0xffffffd0
     f0c:	da000014 	ble	f64 <graph_scale_tof+0xec>
     f10:	e3a07000 	mov	r7, #0
     f14:	e5963000 	ldr	r3, [r6]
     f18:	e599a000 	ldr	sl, [r9]
     f1c:	e50b3034 	str	r3, [fp, #-52]	; 0xffffffcc
     f20:	e1a00007 	mov	r0, r7
     f24:	eb0046bb 	bl	12a18 <__aeabi_i2f>
     f28:	e1a01008 	mov	r1, r8
     f2c:	eb004631 	bl	127f8 <__aeabi_fdiv>
     f30:	eb004671 	bl	128fc <__aeabi_f2iz>
     f34:	e5991004 	ldr	r1, [r9, #4]
     f38:	e51b3030 	ldr	r3, [fp, #-48]	; 0xffffffd0
     f3c:	e0230391 	mla	r3, r1, r3, r0
     f40:	e0247495 	mla	r4, r5, r4, r7
     f44:	e79a1103 	ldr	r1, [sl, r3, lsl #2]
     f48:	e51b3034 	ldr	r3, [fp, #-52]	; 0xffffffcc
     f4c:	e7831104 	str	r1, [r3, r4, lsl #2]
     f50:	e5964004 	ldr	r4, [r6, #4]
     f54:	e2877001 	add	r7, r7, #1
     f58:	e1540007 	cmp	r4, r7
     f5c:	caffffef 	bgt	f20 <graph_scale_tof+0xa8>
     f60:	e596a008 	ldr	sl, [r6, #8]
     f64:	e2855001 	add	r5, r5, #1
     f68:	e155000a 	cmp	r5, sl
     f6c:	baffffdf 	blt	ef0 <graph_scale_tof+0x78>
     f70:	e24bd028 	sub	sp, fp, #40	; 0x28
     f74:	e89d6ff0 	ldm	sp, {r4, r5, r6, r7, r8, r9, sl, fp, sp, lr}
     f78:	e12fff1e 	bx	lr

00000f7c <graph_scalef>:
     f7c:	e1a0c00d 	mov	ip, sp
     f80:	e92dd8f0 	push	{r4, r5, r6, r7, fp, ip, lr, pc}
     f84:	e1a04001 	mov	r4, r1
     f88:	e1a05000 	mov	r5, r0
     f8c:	e3a01000 	mov	r1, #0
     f90:	e1a00004 	mov	r0, r4
     f94:	e24cb004 	sub	fp, ip, #4
     f98:	eb004631 	bl	12864 <__aeabi_fcmple>
     f9c:	e2506000 	subs	r6, r0, #0
     fa0:	13a06000 	movne	r6, #0
     fa4:	1a000013 	bne	ff8 <graph_scalef+0x7c>
     fa8:	e5950008 	ldr	r0, [r5, #8]
     fac:	eb004699 	bl	12a18 <__aeabi_i2f>
     fb0:	e1a01004 	mov	r1, r4
     fb4:	eb004613 	bl	12808 <__aeabi_fmul>
     fb8:	eb00464f 	bl	128fc <__aeabi_f2iz>
     fbc:	e1a07000 	mov	r7, r0
     fc0:	e5950004 	ldr	r0, [r5, #4]
     fc4:	eb004693 	bl	12a18 <__aeabi_i2f>
     fc8:	e1a01004 	mov	r1, r4
     fcc:	eb00460d 	bl	12808 <__aeabi_fmul>
     fd0:	eb004649 	bl	128fc <__aeabi_f2iz>
     fd4:	e1a02007 	mov	r2, r7
     fd8:	e1a01000 	mov	r1, r0
     fdc:	e1a00006 	mov	r0, r6
     fe0:	ebfffe1b 	bl	854 <graph_new>
     fe4:	e2506000 	subs	r6, r0, #0
     fe8:	11a02004 	movne	r2, r4
     fec:	11a01006 	movne	r1, r6
     ff0:	11a00005 	movne	r0, r5
     ff4:	1bffff9f 	blne	e78 <graph_scale_tof>
     ff8:	e1a00006 	mov	r0, r6
     ffc:	e24bd01c 	sub	sp, fp, #28
    1000:	e89d68f0 	ldm	sp, {r4, r5, r6, r7, fp, sp, lr}
    1004:	e12fff1e 	bx	lr

00001008 <grect_insect>:
    1008:	e590c000 	ldr	ip, [r0]
    100c:	e5903008 	ldr	r3, [r0, #8]
    1010:	e5912000 	ldr	r2, [r1]
    1014:	e08c3003 	add	r3, ip, r3
    1018:	e1520003 	cmp	r2, r3
    101c:	e92d41f0 	push	{r4, r5, r6, r7, r8, lr}
    1020:	aa000024 	bge	10b8 <grect_insect+0xb0>
    1024:	e5905004 	ldr	r5, [r0, #4]
    1028:	e590000c 	ldr	r0, [r0, #12]
    102c:	e591e004 	ldr	lr, [r1, #4]
    1030:	e0850000 	add	r0, r5, r0
    1034:	e15e0000 	cmp	lr, r0
    1038:	aa00001e 	bge	10b8 <grect_insect+0xb0>
    103c:	e2814008 	add	r4, r1, #8
    1040:	e8940050 	ldm	r4, {r4, r6}
    1044:	e0828004 	add	r8, r2, r4
    1048:	e1530008 	cmp	r3, r8
    104c:	d0483003 	suble	r3, r8, r3
    1050:	d0444003 	suble	r4, r4, r3
    1054:	e08e7006 	add	r7, lr, r6
    1058:	d5814008 	strle	r4, [r1, #8]
    105c:	e1500007 	cmp	r0, r7
    1060:	d0470000 	suble	r0, r7, r0
    1064:	d0466000 	suble	r6, r6, r0
    1068:	d581600c 	strle	r6, [r1, #12]
    106c:	e152000c 	cmp	r2, ip
    1070:	b04c2002 	sublt	r2, ip, r2
    1074:	b0444002 	sublt	r4, r4, r2
    1078:	b5814008 	strlt	r4, [r1, #8]
    107c:	b581c000 	strlt	ip, [r1]
    1080:	e15e0005 	cmp	lr, r5
    1084:	b591300c 	ldrlt	r3, [r1, #12]
    1088:	b045e00e 	sublt	lr, r5, lr
    108c:	b043e00e 	sublt	lr, r3, lr
    1090:	b581e00c 	strlt	lr, [r1, #12]
    1094:	b5815004 	strlt	r5, [r1, #4]
    1098:	e3540000 	cmp	r4, #0
    109c:	da000005 	ble	10b8 <grect_insect+0xb0>
    10a0:	e591300c 	ldr	r3, [r1, #12]
    10a4:	e3530000 	cmp	r3, #0
    10a8:	da000002 	ble	10b8 <grect_insect+0xb0>
    10ac:	e3a00001 	mov	r0, #1
    10b0:	e8bd41f0 	pop	{r4, r5, r6, r7, r8, lr}
    10b4:	e12fff1e 	bx	lr
    10b8:	e3a00000 	mov	r0, #0
    10bc:	e8bd41f0 	pop	{r4, r5, r6, r7, r8, lr}
    10c0:	e12fff1e 	bx	lr

000010c4 <graph_insect>:
    10c4:	e1a0c00d 	mov	ip, sp
    10c8:	e92dd800 	push	{fp, ip, lr, pc}
    10cc:	e24cb004 	sub	fp, ip, #4
    10d0:	e24dd010 	sub	sp, sp, #16
    10d4:	e5902014 	ldr	r2, [r0, #20]
    10d8:	e3520000 	cmp	r2, #0
    10dc:	e1a03001 	mov	r3, r1
    10e0:	0a000002 	beq	10f0 <graph_insect+0x2c>
    10e4:	e5902018 	ldr	r2, [r0, #24]
    10e8:	e3520000 	cmp	r2, #0
    10ec:	1a00000c 	bne	1124 <graph_insect+0x60>
    10f0:	e3a02000 	mov	r2, #0
    10f4:	e590e004 	ldr	lr, [r0, #4]
    10f8:	e590c008 	ldr	ip, [r0, #8]
    10fc:	e1a01003 	mov	r1, r3
    1100:	e24b001c 	sub	r0, fp, #28
    1104:	e50be014 	str	lr, [fp, #-20]	; 0xffffffec
    1108:	e50bc010 	str	ip, [fp, #-16]
    110c:	e50b201c 	str	r2, [fp, #-28]	; 0xffffffe4
    1110:	e50b2018 	str	r2, [fp, #-24]	; 0xffffffe8
    1114:	ebffffbb 	bl	1008 <grect_insect>
    1118:	e24bd00c 	sub	sp, fp, #12
    111c:	e89d6800 	ldm	sp, {fp, sp, lr}
    1120:	e12fff1e 	bx	lr
    1124:	e280000c 	add	r0, r0, #12
    1128:	e24bd00c 	sub	sp, fp, #12
    112c:	e89d6800 	ldm	sp, {fp, sp, lr}
    1130:	eaffffb4 	b	1008 <grect_insect>

00001134 <insect>:
    1134:	e1a0c00d 	mov	ip, sp
    1138:	e92dd8f0 	push	{r4, r5, r6, r7, fp, ip, lr, pc}
    113c:	e1a05001 	mov	r5, r1
    1140:	e24cb004 	sub	fp, ip, #4
    1144:	e591c000 	ldr	ip, [r1]
    1148:	e5931000 	ldr	r1, [r3]
    114c:	e15c0001 	cmp	ip, r1
    1150:	b1a0100c 	movlt	r1, ip
    1154:	e1a04003 	mov	r4, r3
    1158:	e1a06002 	mov	r6, r2
    115c:	e5933004 	ldr	r3, [r3, #4]
    1160:	e5952004 	ldr	r2, [r5, #4]
    1164:	e1520003 	cmp	r2, r3
    1168:	b1a03002 	movlt	r3, r2
    116c:	e3510000 	cmp	r1, #0
    1170:	aa00000a 	bge	11a0 <insect+0x6c>
    1174:	e04cc001 	sub	ip, ip, r1
    1178:	e585c000 	str	ip, [r5]
    117c:	e595c008 	ldr	ip, [r5, #8]
    1180:	e594e000 	ldr	lr, [r4]
    1184:	e08cc001 	add	ip, ip, r1
    1188:	e04ee001 	sub	lr, lr, r1
    118c:	e584e000 	str	lr, [r4]
    1190:	e585c008 	str	ip, [r5, #8]
    1194:	e594c008 	ldr	ip, [r4, #8]
    1198:	e08c1001 	add	r1, ip, r1
    119c:	e5841008 	str	r1, [r4, #8]
    11a0:	e3530000 	cmp	r3, #0
    11a4:	aa00000a 	bge	11d4 <insect+0xa0>
    11a8:	e0421003 	sub	r1, r2, r3
    11ac:	e5851004 	str	r1, [r5, #4]
    11b0:	e5942004 	ldr	r2, [r4, #4]
    11b4:	e0422003 	sub	r2, r2, r3
    11b8:	e5842004 	str	r2, [r4, #4]
    11bc:	e595200c 	ldr	r2, [r5, #12]
    11c0:	e0822003 	add	r2, r2, r3
    11c4:	e585200c 	str	r2, [r5, #12]
    11c8:	e594200c 	ldr	r2, [r4, #12]
    11cc:	e0823003 	add	r3, r2, r3
    11d0:	e584300c 	str	r3, [r4, #12]
    11d4:	e1a01005 	mov	r1, r5
    11d8:	ebffffb9 	bl	10c4 <graph_insect>
    11dc:	e3500000 	cmp	r0, #0
    11e0:	1a000003 	bne	11f4 <insect+0xc0>
    11e4:	e3a00000 	mov	r0, #0
    11e8:	e24bd01c 	sub	sp, fp, #28
    11ec:	e89d68f0 	ldm	sp, {r4, r5, r6, r7, fp, sp, lr}
    11f0:	e12fff1e 	bx	lr
    11f4:	e1a01004 	mov	r1, r4
    11f8:	e1a00006 	mov	r0, r6
    11fc:	ebffffb0 	bl	10c4 <graph_insect>
    1200:	e3500000 	cmp	r0, #0
    1204:	0afffff6 	beq	11e4 <insect+0xb0>
    1208:	e5953008 	ldr	r3, [r5, #8]
    120c:	e3530000 	cmp	r3, #0
    1210:	dafffff3 	ble	11e4 <insect+0xb0>
    1214:	e595200c 	ldr	r2, [r5, #12]
    1218:	e3520000 	cmp	r2, #0
    121c:	dafffff0 	ble	11e4 <insect+0xb0>
    1220:	e5941008 	ldr	r1, [r4, #8]
    1224:	e3510000 	cmp	r1, #0
    1228:	daffffed 	ble	11e4 <insect+0xb0>
    122c:	e594c00c 	ldr	ip, [r4, #12]
    1230:	e35c0000 	cmp	ip, #0
    1234:	daffffea 	ble	11e4 <insect+0xb0>
    1238:	e1530001 	cmp	r3, r1
    123c:	c5851008 	strgt	r1, [r5, #8]
    1240:	d5843008 	strle	r3, [r4, #8]
    1244:	e152000c 	cmp	r2, ip
    1248:	e3a00001 	mov	r0, #1
    124c:	c585c00c 	strgt	ip, [r5, #12]
    1250:	d584200c 	strle	r2, [r4, #12]
    1254:	eaffffe3 	b	11e8 <insect+0xb4>

00001258 <graph_fill>:
    1258:	e1a0c00d 	mov	ip, sp
    125c:	e92ddff0 	push	{r4, r5, r6, r7, r8, r9, sl, fp, ip, lr, pc}
    1260:	e24cb004 	sub	fp, ip, #4
    1264:	e24dd02c 	sub	sp, sp, #44	; 0x2c
    1268:	e59be004 	ldr	lr, [fp, #4]
    126c:	e35e0000 	cmp	lr, #0
    1270:	c3530000 	cmpgt	r3, #0
    1274:	d3a0c001 	movle	ip, #1
    1278:	c3a0c000 	movgt	ip, #0
    127c:	e3500000 	cmp	r0, #0
    1280:	038cc001 	orreq	ip, ip, #1
    1284:	e35c0000 	cmp	ip, #0
    1288:	e1a05000 	mov	r5, r0
    128c:	e59b7008 	ldr	r7, [fp, #8]
    1290:	0a000002 	beq	12a0 <graph_fill+0x48>
    1294:	e24bd028 	sub	sp, fp, #40	; 0x28
    1298:	e89d6ff0 	ldm	sp, {r4, r5, r6, r7, r8, r9, sl, fp, sp, lr}
    129c:	e12fff1e 	bx	lr
    12a0:	e50b103c 	str	r1, [fp, #-60]	; 0xffffffc4
    12a4:	e24b103c 	sub	r1, fp, #60	; 0x3c
    12a8:	e50b2038 	str	r2, [fp, #-56]	; 0xffffffc8
    12ac:	e50b3034 	str	r3, [fp, #-52]	; 0xffffffcc
    12b0:	e50be030 	str	lr, [fp, #-48]	; 0xffffffd0
    12b4:	ebffff82 	bl	10c4 <graph_insect>
    12b8:	e3500000 	cmp	r0, #0
    12bc:	0afffff4 	beq	1294 <graph_fill+0x3c>
    12c0:	e24b603c 	sub	r6, fp, #60	; 0x3c
    12c4:	e24b3034 	sub	r3, fp, #52	; 0x34
    12c8:	e8960140 	ldm	r6, {r6, r8}
    12cc:	e8930208 	ldm	r3, {r3, r9}
    12d0:	e1a00007 	mov	r0, r7
    12d4:	e0889009 	add	r9, r8, r9
    12d8:	e50b9044 	str	r9, [fp, #-68]	; 0xffffffbc
    12dc:	e0866003 	add	r6, r6, r3
    12e0:	ebfffd24 	bl	778 <has_alpha>
    12e4:	e3500000 	cmp	r0, #0
    12e8:	1a000010 	bne	1330 <graph_fill+0xd8>
    12ec:	e1580009 	cmp	r8, r9
    12f0:	aaffffe7 	bge	1294 <graph_fill+0x3c>
    12f4:	e51b403c 	ldr	r4, [fp, #-60]	; 0xffffffc4
    12f8:	e1560004 	cmp	r6, r4
    12fc:	da000007 	ble	1320 <graph_fill+0xc8>
    1300:	e1a01004 	mov	r1, r4
    1304:	e1a03007 	mov	r3, r7
    1308:	e1a02008 	mov	r2, r8
    130c:	e1a00005 	mov	r0, r5
    1310:	e2844001 	add	r4, r4, #1
    1314:	eb0000f6 	bl	16f4 <graph_pixel>
    1318:	e1560004 	cmp	r6, r4
    131c:	1afffff7 	bne	1300 <graph_fill+0xa8>
    1320:	e2888001 	add	r8, r8, #1
    1324:	e1590008 	cmp	r9, r8
    1328:	1afffff1 	bne	12f4 <graph_fill+0x9c>
    132c:	eaffffd8 	b	1294 <graph_fill+0x3c>
    1330:	e51b3044 	ldr	r3, [fp, #-68]	; 0xffffffbc
    1334:	e1580003 	cmp	r8, r3
    1338:	e1a03427 	lsr	r3, r7, #8
    133c:	e1a0a827 	lsr	sl, r7, #16
    1340:	e20330ff 	and	r3, r3, #255	; 0xff
    1344:	e1a09c27 	lsr	r9, r7, #24
    1348:	e50b3040 	str	r3, [fp, #-64]	; 0xffffffc0
    134c:	e20aa0ff 	and	sl, sl, #255	; 0xff
    1350:	e20770ff 	and	r7, r7, #255	; 0xff
    1354:	aaffffce 	bge	1294 <graph_fill+0x3c>
    1358:	e51b403c 	ldr	r4, [fp, #-60]	; 0xffffffc4
    135c:	e1560004 	cmp	r6, r4
    1360:	da00000b 	ble	1394 <graph_fill+0x13c>
    1364:	e51b0040 	ldr	r0, [fp, #-64]	; 0xffffffc0
    1368:	e1a01004 	mov	r1, r4
    136c:	e58d0004 	str	r0, [sp, #4]
    1370:	e1a03009 	mov	r3, r9
    1374:	e1a02008 	mov	r2, r8
    1378:	e1a00005 	mov	r0, r5
    137c:	e58d7008 	str	r7, [sp, #8]
    1380:	e58da000 	str	sl, [sp]
    1384:	e2844001 	add	r4, r4, #1
    1388:	eb000105 	bl	17a4 <graph_pixel_argb>
    138c:	e1560004 	cmp	r6, r4
    1390:	1afffff3 	bne	1364 <graph_fill+0x10c>
    1394:	e51b3044 	ldr	r3, [fp, #-68]	; 0xffffffbc
    1398:	e2888001 	add	r8, r8, #1
    139c:	e1530008 	cmp	r3, r8
    13a0:	1affffec 	bne	1358 <graph_fill+0x100>
    13a4:	eaffffba 	b	1294 <graph_fill+0x3c>

000013a8 <graph_blt>:
    13a8:	e1a0c00d 	mov	ip, sp
    13ac:	e92ddff0 	push	{r4, r5, r6, r7, r8, r9, sl, fp, ip, lr, pc}
    13b0:	e24cb004 	sub	fp, ip, #4
    13b4:	e24dd024 	sub	sp, sp, #36	; 0x24
    13b8:	e59bc004 	ldr	ip, [fp, #4]
    13bc:	e35c0000 	cmp	ip, #0
    13c0:	c3530000 	cmpgt	r3, #0
    13c4:	e28b4014 	add	r4, fp, #20
    13c8:	e1a05000 	mov	r5, r0
    13cc:	e59b6008 	ldr	r6, [fp, #8]
    13d0:	e8944010 	ldm	r4, {r4, lr}
    13d4:	da000051 	ble	1520 <graph_blt+0x178>
    13d8:	e35e0000 	cmp	lr, #0
    13dc:	c3540000 	cmpgt	r4, #0
    13e0:	da00004e 	ble	1520 <graph_blt+0x178>
    13e4:	e28b000c 	add	r0, fp, #12
    13e8:	e8900081 	ldm	r0, {r0, r7}
    13ec:	e1800007 	orr	r0, r0, r7
    13f0:	e1800002 	orr	r0, r0, r2
    13f4:	e1900001 	orrs	r0, r0, r1
    13f8:	1a000002 	bne	1408 <graph_blt+0x60>
    13fc:	e1530004 	cmp	r3, r4
    1400:	015c000e 	cmpeq	ip, lr
    1404:	0a000034 	beq	14dc <graph_blt+0x134>
    1408:	e50b3044 	str	r3, [fp, #-68]	; 0xffffffbc
    140c:	e59b300c 	ldr	r3, [fp, #12]
    1410:	e50b4034 	str	r4, [fp, #-52]	; 0xffffffcc
    1414:	e50b303c 	str	r3, [fp, #-60]	; 0xffffffc4
    1418:	e24b403c 	sub	r4, fp, #60	; 0x3c
    141c:	e59b3010 	ldr	r3, [fp, #16]
    1420:	e50b104c 	str	r1, [fp, #-76]	; 0xffffffb4
    1424:	e1a00006 	mov	r0, r6
    1428:	e1a01004 	mov	r1, r4
    142c:	e50b2048 	str	r2, [fp, #-72]	; 0xffffffb8
    1430:	e50bc040 	str	ip, [fp, #-64]	; 0xffffffc0
    1434:	e50b3038 	str	r3, [fp, #-56]	; 0xffffffc8
    1438:	e50be030 	str	lr, [fp, #-48]	; 0xffffffd0
    143c:	ebffff20 	bl	10c4 <graph_insect>
    1440:	e1a03004 	mov	r3, r4
    1444:	e1a02006 	mov	r2, r6
    1448:	e1a00005 	mov	r0, r5
    144c:	e24b104c 	sub	r1, fp, #76	; 0x4c
    1450:	ebffff37 	bl	1134 <insect>
    1454:	e3500000 	cmp	r0, #0
    1458:	0a000030 	beq	1520 <graph_blt+0x178>
    145c:	e24b304c 	sub	r3, fp, #76	; 0x4c
    1460:	e24b2044 	sub	r2, fp, #68	; 0x44
    1464:	e8934008 	ldm	r3, {r3, lr}
    1468:	e8920104 	ldm	r2, {r2, r8}
    146c:	e08e8008 	add	r8, lr, r8
    1470:	e15e0008 	cmp	lr, r8
    1474:	e51b9038 	ldr	r9, [fp, #-56]	; 0xffffffc8
    1478:	e0832002 	add	r2, r3, r2
    147c:	aa000027 	bge	1520 <graph_blt+0x178>
    1480:	e049900e 	sub	r9, r9, lr
    1484:	e1520003 	cmp	r2, r3
    1488:	e51b403c 	ldr	r4, [fp, #-60]	; 0xffffffc4
    148c:	e089000e 	add	r0, r9, lr
    1490:	da00000c 	ble	14c8 <graph_blt+0x120>
    1494:	e595a000 	ldr	sl, [r5]
    1498:	e5967000 	ldr	r7, [r6]
    149c:	e0444003 	sub	r4, r4, r3
    14a0:	e595c004 	ldr	ip, [r5, #4]
    14a4:	e5961004 	ldr	r1, [r6, #4]
    14a8:	e02c3c9e 	mla	ip, lr, ip, r3
    14ac:	e0213190 	mla	r1, r0, r1, r3
    14b0:	e79ac10c 	ldr	ip, [sl, ip, lsl #2]
    14b4:	e2833001 	add	r3, r3, #1
    14b8:	e0811004 	add	r1, r1, r4
    14bc:	e1520003 	cmp	r2, r3
    14c0:	e787c101 	str	ip, [r7, r1, lsl #2]
    14c4:	1afffff5 	bne	14a0 <graph_blt+0xf8>
    14c8:	e28ee001 	add	lr, lr, #1
    14cc:	e158000e 	cmp	r8, lr
    14d0:	0a000012 	beq	1520 <graph_blt+0x178>
    14d4:	e51b304c 	ldr	r3, [fp, #-76]	; 0xffffffb4
    14d8:	eaffffe9 	b	1484 <graph_blt+0xdc>
    14dc:	e5950004 	ldr	r0, [r5, #4]
    14e0:	e1500003 	cmp	r0, r3
    14e4:	1affffc7 	bne	1408 <graph_blt+0x60>
    14e8:	e5957008 	ldr	r7, [r5, #8]
    14ec:	e157000c 	cmp	r7, ip
    14f0:	1affffc4 	bne	1408 <graph_blt+0x60>
    14f4:	e5968004 	ldr	r8, [r6, #4]
    14f8:	e1580004 	cmp	r8, r4
    14fc:	1affffc1 	bne	1408 <graph_blt+0x60>
    1500:	e5968008 	ldr	r8, [r6, #8]
    1504:	e158000e 	cmp	r8, lr
    1508:	1affffbe 	bne	1408 <graph_blt+0x60>
    150c:	e0020097 	mul	r2, r7, r0
    1510:	e5951000 	ldr	r1, [r5]
    1514:	e5960000 	ldr	r0, [r6]
    1518:	e1a02102 	lsl	r2, r2, #2
    151c:	eb005149 	bl	15a48 <memcpy>
    1520:	e24bd028 	sub	sp, fp, #40	; 0x28
    1524:	e89d6ff0 	ldm	sp, {r4, r5, r6, r7, r8, r9, sl, fp, sp, lr}
    1528:	e12fff1e 	bx	lr

0000152c <graph_blt_alpha>:
    152c:	e1a0c00d 	mov	ip, sp
    1530:	e92ddff0 	push	{r4, r5, r6, r7, r8, r9, sl, fp, ip, lr, pc}
    1534:	e24cb004 	sub	fp, ip, #4
    1538:	e24dd044 	sub	sp, sp, #68	; 0x44
    153c:	e59bc004 	ldr	ip, [fp, #4]
    1540:	e35c0000 	cmp	ip, #0
    1544:	c3530000 	cmpgt	r3, #0
    1548:	e5dbe01c 	ldrb	lr, [fp, #28]
    154c:	e1a05000 	mov	r5, r0
    1550:	e59b9008 	ldr	r9, [fp, #8]
    1554:	e50be050 	str	lr, [fp, #-80]	; 0xffffffb0
    1558:	da000004 	ble	1570 <graph_blt_alpha+0x44>
    155c:	e28b0014 	add	r0, fp, #20
    1560:	e8904001 	ldm	r0, {r0, lr}
    1564:	e35e0000 	cmp	lr, #0
    1568:	c3500000 	cmpgt	r0, #0
    156c:	ca000002 	bgt	157c <graph_blt_alpha+0x50>
    1570:	e24bd028 	sub	sp, fp, #40	; 0x28
    1574:	e89d6ff0 	ldm	sp, {r4, r5, r6, r7, r8, r9, sl, fp, sp, lr}
    1578:	e12fff1e 	bx	lr
    157c:	e50b3044 	str	r3, [fp, #-68]	; 0xffffffbc
    1580:	e59b300c 	ldr	r3, [fp, #12]
    1584:	e50b303c 	str	r3, [fp, #-60]	; 0xffffffc4
    1588:	e59b3010 	ldr	r3, [fp, #16]
    158c:	e24b403c 	sub	r4, fp, #60	; 0x3c
    1590:	e50b3038 	str	r3, [fp, #-56]	; 0xffffffc8
    1594:	e59b3014 	ldr	r3, [fp, #20]
    1598:	e50b104c 	str	r1, [fp, #-76]	; 0xffffffb4
    159c:	e1a00009 	mov	r0, r9
    15a0:	e1a01004 	mov	r1, r4
    15a4:	e50b2048 	str	r2, [fp, #-72]	; 0xffffffb8
    15a8:	e50bc040 	str	ip, [fp, #-64]	; 0xffffffc0
    15ac:	e50b3034 	str	r3, [fp, #-52]	; 0xffffffcc
    15b0:	e50be030 	str	lr, [fp, #-48]	; 0xffffffd0
    15b4:	ebfffec2 	bl	10c4 <graph_insect>
    15b8:	e1a03004 	mov	r3, r4
    15bc:	e1a02009 	mov	r2, r9
    15c0:	e1a00005 	mov	r0, r5
    15c4:	e24b104c 	sub	r1, fp, #76	; 0x4c
    15c8:	ebfffed9 	bl	1134 <insect>
    15cc:	e3500000 	cmp	r0, #0
    15d0:	0affffe6 	beq	1570 <graph_blt_alpha+0x44>
    15d4:	e24b404c 	sub	r4, fp, #76	; 0x4c
    15d8:	e8940150 	ldm	r4, {r4, r6, r8}
    15dc:	e51b3040 	ldr	r3, [fp, #-64]	; 0xffffffc0
    15e0:	e0863003 	add	r3, r6, r3
    15e4:	e1560003 	cmp	r6, r3
    15e8:	e51b2038 	ldr	r2, [fp, #-56]	; 0xffffffc8
    15ec:	e50b3054 	str	r3, [fp, #-84]	; 0xffffffac
    15f0:	e0848008 	add	r8, r4, r8
    15f4:	aaffffdd 	bge	1570 <graph_blt_alpha+0x44>
    15f8:	e0423006 	sub	r3, r2, r6
    15fc:	e50b3058 	str	r3, [fp, #-88]	; 0xffffffa8
    1600:	e51b703c 	ldr	r7, [fp, #-60]	; 0xffffffc4
    1604:	e1580004 	cmp	r8, r4
    1608:	e51b3058 	ldr	r3, [fp, #-88]	; 0xffffffa8
    160c:	c0477004 	subgt	r7, r7, r4
    1610:	e083a006 	add	sl, r3, r6
    1614:	c1a03007 	movgt	r3, r7
    1618:	c1a07009 	movgt	r7, r9
    161c:	c1a09003 	movgt	r9, r3
    1620:	da00001a 	ble	1690 <graph_blt_alpha+0x164>
    1624:	e895000c 	ldm	r5, {r2, r3}
    1628:	e0234396 	mla	r3, r6, r3, r4
    162c:	e7922103 	ldr	r2, [r2, r3, lsl #2]
    1630:	e51b1050 	ldr	r1, [fp, #-80]	; 0xffffffb0
    1634:	e1a03c22 	lsr	r3, r2, #24
    1638:	e0010193 	mul	r1, r3, r1
    163c:	e1a03001 	mov	r3, r1
    1640:	e59f1060 	ldr	r1, [pc, #96]	; 16a8 <graph_blt_alpha+0x17c>
    1644:	e0810193 	umull	r0, r1, r3, r1
    1648:	e1a033a1 	lsr	r3, r1, #7
    164c:	e1a01422 	lsr	r1, r2, #8
    1650:	e20110ff 	and	r1, r1, #255	; 0xff
    1654:	e58d1004 	str	r1, [sp, #4]
    1658:	e1a01822 	lsr	r1, r2, #16
    165c:	e20220ff 	and	r2, r2, #255	; 0xff
    1660:	e58d2008 	str	r2, [sp, #8]
    1664:	e20120ff 	and	r2, r1, #255	; 0xff
    1668:	e58d2000 	str	r2, [sp]
    166c:	e0891004 	add	r1, r9, r4
    1670:	e1a0200a 	mov	r2, sl
    1674:	e1a00007 	mov	r0, r7
    1678:	e20330ff 	and	r3, r3, #255	; 0xff
    167c:	e2844001 	add	r4, r4, #1
    1680:	eb000047 	bl	17a4 <graph_pixel_argb>
    1684:	e1580004 	cmp	r8, r4
    1688:	1affffe5 	bne	1624 <graph_blt_alpha+0xf8>
    168c:	e1a09007 	mov	r9, r7
    1690:	e51b3054 	ldr	r3, [fp, #-84]	; 0xffffffac
    1694:	e2866001 	add	r6, r6, #1
    1698:	e1530006 	cmp	r3, r6
    169c:	0affffb3 	beq	1570 <graph_blt_alpha+0x44>
    16a0:	e51b404c 	ldr	r4, [fp, #-76]	; 0xffffffb4
    16a4:	eaffffd5 	b	1600 <graph_blt_alpha+0xd4>
    16a8:	80808081 	addhi	r8, r0, r1, lsl #1

000016ac <check_in_rect>:
    16ac:	e5923000 	ldr	r3, [r2]
    16b0:	e1530000 	cmp	r3, r0
    16b4:	ca00000c 	bgt	16ec <check_in_rect+0x40>
    16b8:	e592c008 	ldr	ip, [r2, #8]
    16bc:	e083300c 	add	r3, r3, ip
    16c0:	e1530000 	cmp	r3, r0
    16c4:	da000008 	ble	16ec <check_in_rect+0x40>
    16c8:	e5920004 	ldr	r0, [r2, #4]
    16cc:	e1500001 	cmp	r0, r1
    16d0:	ca000005 	bgt	16ec <check_in_rect+0x40>
    16d4:	e592300c 	ldr	r3, [r2, #12]
    16d8:	e0800003 	add	r0, r0, r3
    16dc:	e1500001 	cmp	r0, r1
    16e0:	d3a00000 	movle	r0, #0
    16e4:	c3a00001 	movgt	r0, #1
    16e8:	e12fff1e 	bx	lr
    16ec:	e3a00000 	mov	r0, #0
    16f0:	e12fff1e 	bx	lr

000016f4 <graph_pixel>:
    16f4:	e8901001 	ldm	r0, {r0, ip}
    16f8:	e021129c 	mla	r1, ip, r2, r1
    16fc:	e7803101 	str	r3, [r0, r1, lsl #2]
    1700:	e12fff1e 	bx	lr

00001704 <graph_pixel_safe>:
    1704:	e3500000 	cmp	r0, #0
    1708:	e92d4010 	push	{r4, lr}
    170c:	0a000014 	beq	1764 <graph_pixel_safe+0x60>
    1710:	e590c014 	ldr	ip, [r0, #20]
    1714:	e35c0000 	cmp	ip, #0
    1718:	0a000013 	beq	176c <graph_pixel_safe+0x68>
    171c:	e590e018 	ldr	lr, [r0, #24]
    1720:	e35e0000 	cmp	lr, #0
    1724:	0a000010 	beq	176c <graph_pixel_safe+0x68>
    1728:	e590400c 	ldr	r4, [r0, #12]
    172c:	e1540001 	cmp	r4, r1
    1730:	ca00000b 	bgt	1764 <graph_pixel_safe+0x60>
    1734:	e08cc004 	add	ip, ip, r4
    1738:	e15c0001 	cmp	ip, r1
    173c:	da000008 	ble	1764 <graph_pixel_safe+0x60>
    1740:	e590c010 	ldr	ip, [r0, #16]
    1744:	e15c0002 	cmp	ip, r2
    1748:	ca000005 	bgt	1764 <graph_pixel_safe+0x60>
    174c:	e08ee00c 	add	lr, lr, ip
    1750:	e15e0002 	cmp	lr, r2
    1754:	c590c004 	ldrgt	ip, [r0, #4]
    1758:	c022129c 	mlagt	r2, ip, r2, r1
    175c:	c5901000 	ldrgt	r1, [r0]
    1760:	c7813102 	strgt	r3, [r1, r2, lsl #2]
    1764:	e8bd4010 	pop	{r4, lr}
    1768:	e12fff1e 	bx	lr
    176c:	e3510000 	cmp	r1, #0
    1770:	bafffffb 	blt	1764 <graph_pixel_safe+0x60>
    1774:	e590c004 	ldr	ip, [r0, #4]
    1778:	e15c0001 	cmp	ip, r1
    177c:	c3a0e000 	movgt	lr, #0
    1780:	d3a0e001 	movle	lr, #1
    1784:	e19eefa2 	orrs	lr, lr, r2, lsr #31
    1788:	1afffff5 	bne	1764 <graph_pixel_safe+0x60>
    178c:	e590e008 	ldr	lr, [r0, #8]
    1790:	e15e0002 	cmp	lr, r2
    1794:	c022129c 	mlagt	r2, ip, r2, r1
    1798:	c5901000 	ldrgt	r1, [r0]
    179c:	c7813102 	strgt	r3, [r1, r2, lsl #2]
    17a0:	eaffffef 	b	1764 <graph_pixel_safe+0x60>

000017a4 <graph_pixel_argb>:
    17a4:	e1a0c00d 	mov	ip, sp
    17a8:	e92ddbf0 	push	{r4, r5, r6, r7, r8, r9, fp, ip, lr, pc}
    17ac:	e24cb004 	sub	fp, ip, #4
    17b0:	e253c000 	subs	ip, r3, #0
    17b4:	e1a0e000 	mov	lr, r0
    17b8:	e1a04001 	mov	r4, r1
    17bc:	e1a08002 	mov	r8, r2
    17c0:	e5db5004 	ldrb	r5, [fp, #4]
    17c4:	e5db7008 	ldrb	r7, [fp, #8]
    17c8:	e5db600c 	ldrb	r6, [fp, #12]
    17cc:	0a00002a 	beq	187c <graph_pixel_argb+0xd8>
    17d0:	e35c00ff 	cmp	ip, #255	; 0xff
    17d4:	0a00002b 	beq	1888 <graph_pixel_argb+0xe4>
    17d8:	e59e1004 	ldr	r1, [lr, #4]
    17dc:	e0244891 	mla	r4, r1, r8, r4
    17e0:	e000059c 	mul	r0, ip, r5
    17e4:	e002079c 	mul	r2, ip, r7
    17e8:	e006069c 	mul	r6, ip, r6
    17ec:	e59e5000 	ldr	r5, [lr]
    17f0:	e59f70c0 	ldr	r7, [pc, #192]	; 18b8 <graph_pixel_argb+0x114>
    17f4:	e795e104 	ldr	lr, [r5, r4, lsl #2]
    17f8:	e0813097 	umull	r3, r1, r7, r0
    17fc:	e0863697 	umull	r3, r6, r7, r6
    1800:	e0823297 	umull	r3, r2, r7, r2
    1804:	e1a03c2e 	lsr	r3, lr, #24
    1808:	e26330ff 	rsb	r3, r3, #255	; 0xff
    180c:	e000039c 	mul	r0, ip, r3
    1810:	e0803097 	umull	r3, r0, r7, r0
    1814:	e1a0342e 	lsr	r3, lr, #8
    1818:	e26c80ff 	rsb	r8, ip, #255	; 0xff
    181c:	e20330ff 	and	r3, r3, #255	; 0xff
    1820:	e0030398 	mul	r3, r8, r3
    1824:	e083c397 	umull	ip, r3, r7, r3
    1828:	e1a023a2 	lsr	r2, r2, #7
    182c:	e1a0c82e 	lsr	ip, lr, #16
    1830:	e20cc0ff 	and	ip, ip, #255	; 0xff
    1834:	e08223a3 	add	r2, r2, r3, lsr #7
    1838:	e20e30ff 	and	r3, lr, #255	; 0xff
    183c:	e0030398 	mul	r3, r8, r3
    1840:	e008089c 	mul	r8, ip, r8
    1844:	e083c397 	umull	ip, r3, r7, r3
    1848:	e087c798 	umull	ip, r7, r8, r7
    184c:	e1a063a6 	lsr	r6, r6, #7
    1850:	e1a013a1 	lsr	r1, r1, #7
    1854:	e1a003a0 	lsr	r0, r0, #7
    1858:	e0800c2e 	add	r0, r0, lr, lsr #24
    185c:	e08633a3 	add	r3, r6, r3, lsr #7
    1860:	e08113a7 	add	r1, r1, r7, lsr #7
    1864:	e20000ff 	and	r0, r0, #255	; 0xff
    1868:	e20220ff 	and	r2, r2, #255	; 0xff
    186c:	e20330ff 	and	r3, r3, #255	; 0xff
    1870:	e20110ff 	and	r1, r1, #255	; 0xff
    1874:	ebfffbbb 	bl	768 <argb>
    1878:	e7850104 	str	r0, [r5, r4, lsl #2]
    187c:	e24bd024 	sub	sp, fp, #36	; 0x24
    1880:	e89d6bf0 	ldm	sp, {r4, r5, r6, r7, r8, r9, fp, sp, lr}
    1884:	e12fff1e 	bx	lr
    1888:	e1a0000c 	mov	r0, ip
    188c:	e59ec004 	ldr	ip, [lr, #4]
    1890:	e1a01005 	mov	r1, r5
    1894:	e1a03006 	mov	r3, r6
    1898:	e1a02007 	mov	r2, r7
    189c:	e024489c 	mla	r4, ip, r8, r4
    18a0:	e59e5000 	ldr	r5, [lr]
    18a4:	ebfffbaf 	bl	768 <argb>
    18a8:	e7850104 	str	r0, [r5, r4, lsl #2]
    18ac:	e24bd024 	sub	sp, fp, #36	; 0x24
    18b0:	e89d6bf0 	ldm	sp, {r4, r5, r6, r7, r8, r9, fp, sp, lr}
    18b4:	e12fff1e 	bx	lr
    18b8:	80808081 	addhi	r8, r0, r1, lsl #1

000018bc <graph_pixel_argb_safe>:
    18bc:	e1a0c00d 	mov	ip, sp
    18c0:	e3530000 	cmp	r3, #0
    18c4:	13500000 	cmpne	r0, #0
    18c8:	e92ddbf0 	push	{r4, r5, r6, r7, r8, r9, fp, ip, lr, pc}
    18cc:	e24cb004 	sub	fp, ip, #4
    18d0:	e5dbe004 	ldrb	lr, [fp, #4]
    18d4:	e1a0c000 	mov	ip, r0
    18d8:	e5db6008 	ldrb	r6, [fp, #8]
    18dc:	e1a00003 	mov	r0, r3
    18e0:	e5db500c 	ldrb	r5, [fp, #12]
    18e4:	0a00000a 	beq	1914 <graph_pixel_argb_safe+0x58>
    18e8:	e59c3014 	ldr	r3, [ip, #20]
    18ec:	e3530000 	cmp	r3, #0
    18f0:	1a00000a 	bne	1920 <graph_pixel_argb_safe+0x64>
    18f4:	e3510000 	cmp	r1, #0
    18f8:	ba000005 	blt	1914 <graph_pixel_argb_safe+0x58>
    18fc:	e59c4004 	ldr	r4, [ip, #4]
    1900:	e1540001 	cmp	r4, r1
    1904:	c3a03000 	movgt	r3, #0
    1908:	d3a03001 	movle	r3, #1
    190c:	e1933fa2 	orrs	r3, r3, r2, lsr #31
    1910:	0a000013 	beq	1964 <graph_pixel_argb_safe+0xa8>
    1914:	e24bd024 	sub	sp, fp, #36	; 0x24
    1918:	e89d6bf0 	ldm	sp, {r4, r5, r6, r7, r8, r9, fp, sp, lr}
    191c:	e12fff1e 	bx	lr
    1920:	e59c4018 	ldr	r4, [ip, #24]
    1924:	e3540000 	cmp	r4, #0
    1928:	0afffff1 	beq	18f4 <graph_pixel_argb_safe+0x38>
    192c:	e59c700c 	ldr	r7, [ip, #12]
    1930:	e1570001 	cmp	r7, r1
    1934:	cafffff6 	bgt	1914 <graph_pixel_argb_safe+0x58>
    1938:	e0833007 	add	r3, r3, r7
    193c:	e1530001 	cmp	r3, r1
    1940:	dafffff3 	ble	1914 <graph_pixel_argb_safe+0x58>
    1944:	e59c3010 	ldr	r3, [ip, #16]
    1948:	e1530002 	cmp	r3, r2
    194c:	cafffff0 	bgt	1914 <graph_pixel_argb_safe+0x58>
    1950:	e0844003 	add	r4, r4, r3
    1954:	e1540002 	cmp	r4, r2
    1958:	daffffed 	ble	1914 <graph_pixel_argb_safe+0x58>
    195c:	e59c4004 	ldr	r4, [ip, #4]
    1960:	ea000002 	b	1970 <graph_pixel_argb_safe+0xb4>
    1964:	e59c3008 	ldr	r3, [ip, #8]
    1968:	e1530002 	cmp	r3, r2
    196c:	daffffe8 	ble	1914 <graph_pixel_argb_safe+0x58>
    1970:	e35000ff 	cmp	r0, #255	; 0xff
    1974:	e0241492 	mla	r4, r2, r4, r1
    1978:	0a000027 	beq	1a1c <graph_pixel_argb_safe+0x160>
    197c:	e0060690 	mul	r6, r0, r6
    1980:	e59c7000 	ldr	r7, [ip]
    1984:	e59fc0ac 	ldr	ip, [pc, #172]	; 1a38 <graph_pixel_argb_safe+0x17c>
    1988:	e086369c 	umull	r3, r6, ip, r6
    198c:	e0010e90 	mul	r1, r0, lr
    1990:	e0050590 	mul	r5, r0, r5
    1994:	e1a023a6 	lsr	r2, r6, #7
    1998:	e7976104 	ldr	r6, [r7, r4, lsl #2]
    199c:	e085359c 	umull	r3, r5, ip, r5
    19a0:	e081319c 	umull	r3, r1, ip, r1
    19a4:	e1a03c26 	lsr	r3, r6, #24
    19a8:	e26330ff 	rsb	r3, r3, #255	; 0xff
    19ac:	e260e0ff 	rsb	lr, r0, #255	; 0xff
    19b0:	e0000093 	mul	r0, r3, r0
    19b4:	e080309c 	umull	r3, r0, ip, r0
    19b8:	e1a03426 	lsr	r3, r6, #8
    19bc:	e20330ff 	and	r3, r3, #255	; 0xff
    19c0:	e003039e 	mul	r3, lr, r3
    19c4:	e083839c 	umull	r8, r3, ip, r3
    19c8:	e1a003a0 	lsr	r0, r0, #7
    19cc:	e1a08826 	lsr	r8, r6, #16
    19d0:	e0800c26 	add	r0, r0, r6, lsr #24
    19d4:	e08223a3 	add	r2, r2, r3, lsr #7
    19d8:	e20630ff 	and	r3, r6, #255	; 0xff
    19dc:	e20860ff 	and	r6, r8, #255	; 0xff
    19e0:	e003039e 	mul	r3, lr, r3
    19e4:	e00e0e96 	mul	lr, r6, lr
    19e8:	e083639c 	umull	r6, r3, ip, r3
    19ec:	e08c6c9e 	umull	r6, ip, lr, ip
    19f0:	e1a053a5 	lsr	r5, r5, #7
    19f4:	e1a013a1 	lsr	r1, r1, #7
    19f8:	e08113ac 	add	r1, r1, ip, lsr #7
    19fc:	e08533a3 	add	r3, r5, r3, lsr #7
    1a00:	e20000ff 	and	r0, r0, #255	; 0xff
    1a04:	e20220ff 	and	r2, r2, #255	; 0xff
    1a08:	e20330ff 	and	r3, r3, #255	; 0xff
    1a0c:	e20110ff 	and	r1, r1, #255	; 0xff
    1a10:	ebfffb54 	bl	768 <argb>
    1a14:	e7870104 	str	r0, [r7, r4, lsl #2]
    1a18:	eaffffbd 	b	1914 <graph_pixel_argb_safe+0x58>
    1a1c:	e1a03005 	mov	r3, r5
    1a20:	e1a02006 	mov	r2, r6
    1a24:	e1a0100e 	mov	r1, lr
    1a28:	e59c5000 	ldr	r5, [ip]
    1a2c:	ebfffb4d 	bl	768 <argb>
    1a30:	e7850104 	str	r0, [r5, r4, lsl #2]
    1a34:	eaffffb6 	b	1914 <graph_pixel_argb_safe+0x58>
    1a38:	80808081 	addhi	r8, r0, r1, lsl #1

00001a3c <free_cache>:
    1a3c:	e1a0c00d 	mov	ip, sp
    1a40:	e92dd830 	push	{r4, r5, fp, ip, lr, pc}
    1a44:	e1a04001 	mov	r4, r1
    1a48:	e24cb004 	sub	fp, ip, #4
    1a4c:	e1a01000 	mov	r1, r0
    1a50:	e1a00002 	mov	r0, r2
    1a54:	eb00026f 	bl	2418 <hashmap_remove>
    1a58:	e5940024 	ldr	r0, [r4, #36]	; 0x24
    1a5c:	e3500000 	cmp	r0, #0
    1a60:	1b003fb7 	blne	11944 <free>
    1a64:	e1a00004 	mov	r0, r4
    1a68:	eb003fb5 	bl	11944 <free>
    1a6c:	e3a00000 	mov	r0, #0
    1a70:	e24bd014 	sub	sp, fp, #20
    1a74:	e89d6830 	ldm	sp, {r4, r5, fp, sp, lr}
    1a78:	e12fff1e 	bx	lr

00001a7c <ttf_render_glyph_cache>:
    1a7c:	e1a0c00d 	mov	ip, sp
    1a80:	e92ddbf0 	push	{r4, r5, r6, r7, r8, r9, fp, ip, lr, pc}
    1a84:	e24cb004 	sub	fp, ip, #4
    1a88:	e24dd008 	sub	sp, sp, #8
    1a8c:	e1a06001 	mov	r6, r1
    1a90:	e1a08800 	lsl	r8, r0, #16
    1a94:	e24b7028 	sub	r7, fp, #40	; 0x28
    1a98:	e1a04002 	mov	r4, r2
    1a9c:	e1a09000 	mov	r9, r0
    1aa0:	e1a02007 	mov	r2, r7
    1aa4:	e59601b8 	ldr	r0, [r6, #440]	; 0x1b8
    1aa8:	e24b102a 	sub	r1, fp, #42	; 0x2a
    1aac:	e1a08828 	lsr	r8, r8, #16
    1ab0:	e14b82ba 	strh	r8, [fp, #-42]	; 0xffffffd6
    1ab4:	eb000232 	bl	2384 <hashmap_get>
    1ab8:	e2505000 	subs	r5, r0, #0
    1abc:	1a00000a 	bne	1aec <ttf_render_glyph_cache+0x70>
    1ac0:	e3a02028 	mov	r2, #40	; 0x28
    1ac4:	e1a00004 	mov	r0, r4
    1ac8:	e51b1028 	ldr	r1, [fp, #-40]	; 0xffffffd8
    1acc:	eb004fdd 	bl	15a48 <memcpy>
    1ad0:	e5943024 	ldr	r3, [r4, #36]	; 0x24
    1ad4:	e3530000 	cmp	r3, #0
    1ad8:	0a000028 	beq	1b80 <ttf_render_glyph_cache+0x104>
    1adc:	e1a00005 	mov	r0, r5
    1ae0:	e24bd024 	sub	sp, fp, #36	; 0x24
    1ae4:	e89d6bf0 	ldm	sp, {r4, r5, r6, r7, r8, r9, fp, sp, lr}
    1ae8:	e12fff1e 	bx	lr
    1aec:	e1a02007 	mov	r2, r7
    1af0:	e1a01009 	mov	r1, r9
    1af4:	e1a00006 	mov	r0, r6
    1af8:	eb001b6a 	bl	88a8 <tty_get_glyph_index>
    1afc:	e3500000 	cmp	r0, #0
    1b00:	1a00002f 	bne	1bc4 <ttf_render_glyph_cache+0x148>
    1b04:	e1a01004 	mov	r1, r4
    1b08:	e1a00006 	mov	r0, r6
    1b0c:	e51b2028 	ldr	r2, [fp, #-40]	; 0xffffffd8
    1b10:	eb001bd9 	bl	8a7c <tty_glyph_init>
    1b14:	e3500000 	cmp	r0, #0
    1b18:	1a000029 	bne	1bc4 <ttf_render_glyph_cache+0x148>
    1b1c:	e5943024 	ldr	r3, [r4, #36]	; 0x24
    1b20:	e3530000 	cmp	r3, #0
    1b24:	0a000020 	beq	1bac <ttf_render_glyph_cache+0x130>
    1b28:	e3a00028 	mov	r0, #40	; 0x28
    1b2c:	e14b82b8 	strh	r8, [fp, #-40]	; 0xffffffd8
    1b30:	eb003f8c 	bl	11968 <malloc>
    1b34:	e2505000 	subs	r5, r0, #0
    1b38:	0a00000b 	beq	1b6c <ttf_render_glyph_cache+0xf0>
    1b3c:	e1a0c004 	mov	ip, r4
    1b40:	e1a0e005 	mov	lr, r5
    1b44:	e8bc000f 	ldm	ip!, {r0, r1, r2, r3}
    1b48:	e8ae000f 	stmia	lr!, {r0, r1, r2, r3}
    1b4c:	e8bc000f 	ldm	ip!, {r0, r1, r2, r3}
    1b50:	e8ae000f 	stmia	lr!, {r0, r1, r2, r3}
    1b54:	e89c0003 	ldm	ip, {r0, r1}
    1b58:	e1a02005 	mov	r2, r5
    1b5c:	e88e0003 	stm	lr, {r0, r1}
    1b60:	e1a01007 	mov	r1, r7
    1b64:	e59601b8 	ldr	r0, [r6, #440]	; 0x1b8
    1b68:	eb0001b2 	bl	2238 <hashmap_put>
    1b6c:	e3a05000 	mov	r5, #0
    1b70:	e1a00005 	mov	r0, r5
    1b74:	e24bd024 	sub	sp, fp, #36	; 0x24
    1b78:	e89d6bf0 	ldm	sp, {r4, r5, r6, r7, r8, r9, fp, sp, lr}
    1b7c:	e12fff1e 	bx	lr
    1b80:	e1a02004 	mov	r2, r4
    1b84:	e1a00006 	mov	r0, r6
    1b88:	e2861f55 	add	r1, r6, #340	; 0x154
    1b8c:	eb001dc0 	bl	9294 <tty_render_glyph_cache>
    1b90:	e2500000 	subs	r0, r0, #0
    1b94:	13a00001 	movne	r0, #1
    1b98:	e2605000 	rsb	r5, r0, #0
    1b9c:	e1a00005 	mov	r0, r5
    1ba0:	e24bd024 	sub	sp, fp, #36	; 0x24
    1ba4:	e89d6bf0 	ldm	sp, {r4, r5, r6, r7, r8, r9, fp, sp, lr}
    1ba8:	e12fff1e 	bx	lr
    1bac:	e1a02004 	mov	r2, r4
    1bb0:	e1a00006 	mov	r0, r6
    1bb4:	e2861f55 	add	r1, r6, #340	; 0x154
    1bb8:	eb001db5 	bl	9294 <tty_render_glyph_cache>
    1bbc:	e3500000 	cmp	r0, #0
    1bc0:	0affffd8 	beq	1b28 <ttf_render_glyph_cache+0xac>
    1bc4:	e3e05000 	mvn	r5, #0
    1bc8:	eaffffc3 	b	1adc <ttf_render_glyph_cache+0x60>

00001bcc <ttf_font_load>:
    1bcc:	e1a0c00d 	mov	ip, sp
    1bd0:	e92dd8f0 	push	{r4, r5, r6, r7, fp, ip, lr, pc}
    1bd4:	e1a05000 	mov	r5, r0
    1bd8:	e24cb004 	sub	fp, ip, #4
    1bdc:	e3a00f6f 	mov	r0, #444	; 0x1bc
    1be0:	e1a06001 	mov	r6, r1
    1be4:	e1a07002 	mov	r7, r2
    1be8:	eb003f5e 	bl	11968 <malloc>
    1bec:	e1a01005 	mov	r1, r5
    1bf0:	e1a04000 	mov	r4, r0
    1bf4:	eb001753 	bl	7948 <tty_font_init>
    1bf8:	e2505000 	subs	r5, r0, #0
    1bfc:	1a00000e 	bne	1c3c <ttf_font_load+0x70>
    1c00:	e1a03005 	mov	r3, r5
    1c04:	e1a02006 	mov	r2, r6
    1c08:	e1a00004 	mov	r0, r4
    1c0c:	e2841f55 	add	r1, r4, #340	; 0x154
    1c10:	eb001abd 	bl	870c <tty_instance_init>
    1c14:	e3500000 	cmp	r0, #0
    1c18:	1a000007 	bne	1c3c <ttf_font_load+0x70>
    1c1c:	e2843f6d 	add	r3, r4, #436	; 0x1b4
    1c20:	e1c370b0 	strh	r7, [r3]
    1c24:	eb00024e 	bl	2564 <hashmap_new>
    1c28:	e58401b8 	str	r0, [r4, #440]	; 0x1b8
    1c2c:	e1a00004 	mov	r0, r4
    1c30:	e24bd01c 	sub	sp, fp, #28
    1c34:	e89d68f0 	ldm	sp, {r4, r5, r6, r7, fp, sp, lr}
    1c38:	e12fff1e 	bx	lr
    1c3c:	e1a00004 	mov	r0, r4
    1c40:	e3a04000 	mov	r4, #0
    1c44:	eb003f3e 	bl	11944 <free>
    1c48:	e1a00004 	mov	r0, r4
    1c4c:	e24bd01c 	sub	sp, fp, #28
    1c50:	e89d68f0 	ldm	sp, {r4, r5, r6, r7, fp, sp, lr}
    1c54:	e12fff1e 	bx	lr

00001c58 <ttf_font_resize>:
    1c58:	e1a0c00d 	mov	ip, sp
    1c5c:	e2503000 	subs	r3, r0, #0
    1c60:	e92dd800 	push	{fp, ip, lr, pc}
    1c64:	e1a02001 	mov	r2, r1
    1c68:	e24cb004 	sub	fp, ip, #4
    1c6c:	0a000007 	beq	1c90 <ttf_font_resize+0x38>
    1c70:	e2831f55 	add	r1, r3, #340	; 0x154
    1c74:	eb0019d5 	bl	83d0 <tty_instance_resize>
    1c78:	e2500000 	subs	r0, r0, #0
    1c7c:	13a00001 	movne	r0, #1
    1c80:	e2600000 	rsb	r0, r0, #0
    1c84:	e24bd00c 	sub	sp, fp, #12
    1c88:	e89d6800 	ldm	sp, {fp, sp, lr}
    1c8c:	e12fff1e 	bx	lr
    1c90:	e3e00000 	mvn	r0, #0
    1c94:	eafffffa 	b	1c84 <ttf_font_resize+0x2c>

00001c98 <ttf_font_free>:
    1c98:	e1a0c00d 	mov	ip, sp
    1c9c:	e92dd830 	push	{r4, r5, fp, ip, lr, pc}
    1ca0:	e2504000 	subs	r4, r0, #0
    1ca4:	e24cb004 	sub	fp, ip, #4
    1ca8:	0a00000c 	beq	1ce0 <ttf_font_free+0x48>
    1cac:	e59421b8 	ldr	r2, [r4, #440]	; 0x1b8
    1cb0:	e59f1034 	ldr	r1, [pc, #52]	; 1cec <ttf_font_free+0x54>
    1cb4:	e1a00002 	mov	r0, r2
    1cb8:	e08f1001 	add	r1, pc, r1
    1cbc:	eb000247 	bl	25e0 <hashmap_iterate>
    1cc0:	e59401b8 	ldr	r0, [r4, #440]	; 0x1b8
    1cc4:	eb000206 	bl	24e4 <hashmap_free>
    1cc8:	e2840f55 	add	r0, r4, #340	; 0x154
    1ccc:	eb001ae9 	bl	8878 <tty_instance_free>
    1cd0:	e1a00004 	mov	r0, r4
    1cd4:	eb00170f 	bl	7918 <tty_font_free>
    1cd8:	e1a00004 	mov	r0, r4
    1cdc:	eb003f18 	bl	11944 <free>
    1ce0:	e24bd014 	sub	sp, fp, #20
    1ce4:	e89d6830 	ldm	sp, {r4, r5, fp, sp, lr}
    1ce8:	e12fff1e 	bx	lr
    1cec:	fffffd7c 			; <UNDEFINED> instruction: 0xfffffd7c

00001cf0 <ttf_font_hight>:
    1cf0:	e59001a8 	ldr	r0, [r0, #424]	; 0x1a8
    1cf4:	e12fff1e 	bx	lr

00001cf8 <ttf_font_width>:
    1cf8:	e59001a4 	ldr	r0, [r0, #420]	; 0x1a4
    1cfc:	e12fff1e 	bx	lr

00001d00 <ttf_char_size>:
    1d00:	e1a0c00d 	mov	ip, sp
    1d04:	e92dd830 	push	{r4, r5, fp, ip, lr, pc}
    1d08:	e2525000 	subs	r5, r2, #0
    1d0c:	e1a04003 	mov	r4, r3
    1d10:	13a03000 	movne	r3, #0
    1d14:	e24cb004 	sub	fp, ip, #4
    1d18:	e24dd028 	sub	sp, sp, #40	; 0x28
    1d1c:	11c530b0 	strhne	r3, [r5]
    1d20:	e3540000 	cmp	r4, #0
    1d24:	13a03000 	movne	r3, #0
    1d28:	e24b203c 	sub	r2, fp, #60	; 0x3c
    1d2c:	11c430b0 	strhne	r3, [r4]
    1d30:	ebffff51 	bl	1a7c <ttf_render_glyph_cache>
    1d34:	e3500000 	cmp	r0, #0
    1d38:	1a000013 	bne	1d8c <ttf_char_size+0x8c>
    1d3c:	e3550000 	cmp	r5, #0
    1d40:	0a000007 	beq	1d64 <ttf_char_size+0x64>
    1d44:	e51b3024 	ldr	r3, [fp, #-36]	; 0xffffffdc
    1d48:	e3530000 	cmp	r3, #0
    1d4c:	11a03803 	lslne	r3, r3, #16
    1d50:	e15b22bc 	ldrh	r2, [fp, #-44]	; 0xffffffd4
    1d54:	015b33b4 	ldrheq	r3, [fp, #-52]	; 0xffffffcc
    1d58:	11a03823 	lsrne	r3, r3, #16
    1d5c:	e0823003 	add	r3, r2, r3
    1d60:	e1c530b0 	strh	r3, [r5]
    1d64:	e3540000 	cmp	r4, #0
    1d68:	0a000007 	beq	1d8c <ttf_char_size+0x8c>
    1d6c:	e51b3020 	ldr	r3, [fp, #-32]	; 0xffffffe0
    1d70:	e3530000 	cmp	r3, #0
    1d74:	11a03803 	lslne	r3, r3, #16
    1d78:	e15b22b8 	ldrh	r2, [fp, #-40]	; 0xffffffd8
    1d7c:	015b33b0 	ldrheq	r3, [fp, #-48]	; 0xffffffd0
    1d80:	11a03823 	lsrne	r3, r3, #16
    1d84:	e0823003 	add	r3, r2, r3
    1d88:	e1c430b0 	strh	r3, [r4]
    1d8c:	e24bd014 	sub	sp, fp, #20
    1d90:	e89d6830 	ldm	sp, {r4, r5, fp, sp, lr}
    1d94:	e12fff1e 	bx	lr

00001d98 <ttf_text_size>:
    1d98:	e1a0c00d 	mov	ip, sp
    1d9c:	e92ddff0 	push	{r4, r5, r6, r7, r8, r9, sl, fp, ip, lr, pc}
    1da0:	e3520000 	cmp	r2, #0
    1da4:	e24cb004 	sub	fp, ip, #4
    1da8:	e24dd01c 	sub	sp, sp, #28
    1dac:	e50b3038 	str	r3, [fp, #-56]	; 0xffffffc8
    1db0:	13a03000 	movne	r3, #0
    1db4:	e50b2040 	str	r2, [fp, #-64]	; 0xffffffc0
    1db8:	15823000 	strne	r3, [r2]
    1dbc:	e51b2038 	ldr	r2, [fp, #-56]	; 0xffffffc8
    1dc0:	e3520000 	cmp	r2, #0
    1dc4:	13a03000 	movne	r3, #0
    1dc8:	15823000 	strne	r3, [r2]
    1dcc:	e1a07001 	mov	r7, r1
    1dd0:	e1a04000 	mov	r4, r0
    1dd4:	eb00535a 	bl	16b44 <strlen>
    1dd8:	e2805001 	add	r5, r0, #1
    1ddc:	e1a00085 	lsl	r0, r5, #1
    1de0:	eb003ee0 	bl	11968 <malloc>
    1de4:	e2503000 	subs	r3, r0, #0
    1de8:	e50b303c 	str	r3, [fp, #-60]	; 0xffffffc4
    1dec:	0a000023 	beq	1e80 <ttf_text_size+0xe8>
    1df0:	e1a00004 	mov	r0, r4
    1df4:	e1a02005 	mov	r2, r5
    1df8:	e1a01003 	mov	r1, r3
    1dfc:	e1a04003 	mov	r4, r3
    1e00:	eb002913 	bl	c254 <utf82unicode>
    1e04:	e3500000 	cmp	r0, #0
    1e08:	da00001f 	ble	1e8c <ttf_text_size+0xf4>
    1e0c:	e3a05000 	mov	r5, #0
    1e10:	e1a08005 	mov	r8, r5
    1e14:	e2444002 	sub	r4, r4, #2
    1e18:	e0846080 	add	r6, r4, r0, lsl #1
    1e1c:	e24ba02e 	sub	sl, fp, #46	; 0x2e
    1e20:	e2879f6d 	add	r9, r7, #436	; 0x1b4
    1e24:	e3a03000 	mov	r3, #0
    1e28:	e1a0200a 	mov	r2, sl
    1e2c:	e1f400b2 	ldrh	r0, [r4, #2]!
    1e30:	e1a01007 	mov	r1, r7
    1e34:	e14b82be 	strh	r8, [fp, #-46]	; 0xffffffd2
    1e38:	ebffffb0 	bl	1d00 <ttf_char_size>
    1e3c:	e15b22be 	ldrh	r2, [fp, #-46]	; 0xffffffd2
    1e40:	e1d930f0 	ldrsh	r3, [r9]
    1e44:	e0833002 	add	r3, r3, r2
    1e48:	e3530000 	cmp	r3, #0
    1e4c:	d1a030a2 	lsrle	r3, r2, #1
    1e50:	e1560004 	cmp	r6, r4
    1e54:	e0855003 	add	r5, r5, r3
    1e58:	1afffff1 	bne	1e24 <ttf_text_size+0x8c>
    1e5c:	e51b3040 	ldr	r3, [fp, #-64]	; 0xffffffc0
    1e60:	e51b2038 	ldr	r2, [fp, #-56]	; 0xffffffc8
    1e64:	e3530000 	cmp	r3, #0
    1e68:	15835000 	strne	r5, [r3]
    1e6c:	e3520000 	cmp	r2, #0
    1e70:	159731a8 	ldrne	r3, [r7, #424]	; 0x1a8
    1e74:	e51b003c 	ldr	r0, [fp, #-60]	; 0xffffffc4
    1e78:	15823000 	strne	r3, [r2]
    1e7c:	eb003eb0 	bl	11944 <free>
    1e80:	e24bd028 	sub	sp, fp, #40	; 0x28
    1e84:	e89d6ff0 	ldm	sp, {r4, r5, r6, r7, r8, r9, sl, fp, sp, lr}
    1e88:	e12fff1e 	bx	lr
    1e8c:	e3a05000 	mov	r5, #0
    1e90:	eafffff1 	b	1e5c <ttf_text_size+0xc4>

00001e94 <graph_draw_char_ttf>:
    1e94:	e1a0c00d 	mov	ip, sp
    1e98:	e92ddff0 	push	{r4, r5, r6, r7, r8, r9, sl, fp, ip, lr, pc}
    1e9c:	e24cb004 	sub	fp, ip, #4
    1ea0:	e24dd04c 	sub	sp, sp, #76	; 0x4c
    1ea4:	e28b4008 	add	r4, fp, #8
    1ea8:	e8941010 	ldm	r4, {r4, ip}
    1eac:	e35c0000 	cmp	ip, #0
    1eb0:	e50b2064 	str	r2, [fp, #-100]	; 0xffffff9c
    1eb4:	e1a07000 	mov	r7, r0
    1eb8:	11a0200c 	movne	r2, ip
    1ebc:	e1a00003 	mov	r0, r3
    1ec0:	13a03000 	movne	r3, #0
    1ec4:	11c230b0 	strhne	r3, [r2]
    1ec8:	e59b3010 	ldr	r3, [fp, #16]
    1ecc:	e3530000 	cmp	r3, #0
    1ed0:	13a03000 	movne	r3, #0
    1ed4:	159b2010 	ldrne	r2, [fp, #16]
    1ed8:	e59b6004 	ldr	r6, [fp, #4]
    1edc:	11c230b0 	strhne	r3, [r2]
    1ee0:	e1a08001 	mov	r8, r1
    1ee4:	e24b2054 	sub	r2, fp, #84	; 0x54
    1ee8:	e1a01006 	mov	r1, r6
    1eec:	ebfffee2 	bl	1a7c <ttf_render_glyph_cache>
    1ef0:	e2505000 	subs	r5, r0, #0
    1ef4:	1a000046 	bne	2014 <graph_draw_char_ttf+0x180>
    1ef8:	e51b3030 	ldr	r3, [fp, #-48]	; 0xffffffd0
    1efc:	e3530000 	cmp	r3, #0
    1f00:	0a00002b 	beq	1fb4 <graph_draw_char_ttf+0x120>
    1f04:	e59621a8 	ldr	r2, [r6, #424]	; 0x1a8
    1f08:	e3520000 	cmp	r2, #0
    1f0c:	da000028 	ble	1fb4 <graph_draw_char_ttf+0x120>
    1f10:	e1a01c24 	lsr	r1, r4, #24
    1f14:	e1a09424 	lsr	r9, r4, #8
    1f18:	e20930ff 	and	r3, r9, #255	; 0xff
    1f1c:	e50b1058 	str	r1, [fp, #-88]	; 0xffffffa8
    1f20:	e20410ff 	and	r1, r4, #255	; 0xff
    1f24:	e50b305c 	str	r3, [fp, #-92]	; 0xffffffa4
    1f28:	e1a0a824 	lsr	sl, r4, #16
    1f2c:	e59631a4 	ldr	r3, [r6, #420]	; 0x1a4
    1f30:	e50b1060 	str	r1, [fp, #-96]	; 0xffffffa0
    1f34:	e20aa0ff 	and	sl, sl, #255	; 0xff
    1f38:	e3530000 	cmp	r3, #0
    1f3c:	da000019 	ble	1fa8 <graph_draw_char_ttf+0x114>
    1f40:	e51b2064 	ldr	r2, [fp, #-100]	; 0xffffff9c
    1f44:	e0859002 	add	r9, r5, r2
    1f48:	e1a02007 	mov	r2, r7
    1f4c:	e3a04000 	mov	r4, #0
    1f50:	e1a07009 	mov	r7, r9
    1f54:	e1a09002 	mov	r9, r2
    1f58:	e51b1030 	ldr	r1, [fp, #-48]	; 0xffffffd0
    1f5c:	e0231395 	mla	r3, r5, r3, r1
    1f60:	e51b2060 	ldr	r2, [fp, #-96]	; 0xffffffa0
    1f64:	e7d33004 	ldrb	r3, [r3, r4]
    1f68:	e58d2008 	str	r2, [sp, #8]
    1f6c:	e51b205c 	ldr	r2, [fp, #-92]	; 0xffffffa4
    1f70:	e58d2004 	str	r2, [sp, #4]
    1f74:	e51b2058 	ldr	r2, [fp, #-88]	; 0xffffffa8
    1f78:	e0841008 	add	r1, r4, r8
    1f7c:	e0033002 	and	r3, r3, r2
    1f80:	e1a00009 	mov	r0, r9
    1f84:	e1a02007 	mov	r2, r7
    1f88:	e58da000 	str	sl, [sp]
    1f8c:	ebfffe4a 	bl	18bc <graph_pixel_argb_safe>
    1f90:	e59631a4 	ldr	r3, [r6, #420]	; 0x1a4
    1f94:	e2844001 	add	r4, r4, #1
    1f98:	e1530004 	cmp	r3, r4
    1f9c:	caffffed 	bgt	1f58 <graph_draw_char_ttf+0xc4>
    1fa0:	e1a07009 	mov	r7, r9
    1fa4:	e59621a8 	ldr	r2, [r6, #424]	; 0x1a8
    1fa8:	e2855001 	add	r5, r5, #1
    1fac:	e1520005 	cmp	r2, r5
    1fb0:	caffffe0 	bgt	1f38 <graph_draw_char_ttf+0xa4>
    1fb4:	e59b300c 	ldr	r3, [fp, #12]
    1fb8:	e3530000 	cmp	r3, #0
    1fbc:	0a000008 	beq	1fe4 <graph_draw_char_ttf+0x150>
    1fc0:	e51b303c 	ldr	r3, [fp, #-60]	; 0xffffffc4
    1fc4:	e3530000 	cmp	r3, #0
    1fc8:	e15b24b4 	ldrh	r2, [fp, #-68]	; 0xffffffbc
    1fcc:	11a03803 	lslne	r3, r3, #16
    1fd0:	015b34bc 	ldrheq	r3, [fp, #-76]	; 0xffffffb4
    1fd4:	11a03823 	lsrne	r3, r3, #16
    1fd8:	e0823003 	add	r3, r2, r3
    1fdc:	e59b200c 	ldr	r2, [fp, #12]
    1fe0:	e1c230b0 	strh	r3, [r2]
    1fe4:	e59b3010 	ldr	r3, [fp, #16]
    1fe8:	e3530000 	cmp	r3, #0
    1fec:	0a000008 	beq	2014 <graph_draw_char_ttf+0x180>
    1ff0:	e51b3038 	ldr	r3, [fp, #-56]	; 0xffffffc8
    1ff4:	e3530000 	cmp	r3, #0
    1ff8:	e15b24b0 	ldrh	r2, [fp, #-64]	; 0xffffffc0
    1ffc:	11a03803 	lslne	r3, r3, #16
    2000:	015b34b8 	ldrheq	r3, [fp, #-72]	; 0xffffffb8
    2004:	11a03823 	lsrne	r3, r3, #16
    2008:	e0823003 	add	r3, r2, r3
    200c:	e59b2010 	ldr	r2, [fp, #16]
    2010:	e1c230b0 	strh	r3, [r2]
    2014:	e24bd028 	sub	sp, fp, #40	; 0x28
    2018:	e89d6ff0 	ldm	sp, {r4, r5, r6, r7, r8, r9, sl, fp, sp, lr}
    201c:	e12fff1e 	bx	lr

00002020 <graph_draw_text_ttf>:
    2020:	e1a0c00d 	mov	ip, sp
    2024:	e92ddff0 	push	{r4, r5, r6, r7, r8, r9, sl, fp, ip, lr, pc}
    2028:	e24cb004 	sub	fp, ip, #4
    202c:	e24ddf49 	sub	sp, sp, #292	; 0x124
    2030:	e2508000 	subs	r8, r0, #0
    2034:	e1a05001 	mov	r5, r1
    2038:	e1a09002 	mov	r9, r2
    203c:	e1a00003 	mov	r0, r3
    2040:	0a000020 	beq	20c8 <graph_draw_text_ttf+0xa8>
    2044:	e24b4f4b 	sub	r4, fp, #300	; 0x12c
    2048:	e3a02080 	mov	r2, #128	; 0x80
    204c:	e1a01004 	mov	r1, r4
    2050:	eb00287f 	bl	c254 <utf82unicode>
    2054:	e3500000 	cmp	r0, #0
    2058:	da00001a 	ble	20c8 <graph_draw_text_ttf+0xa8>
    205c:	e3a07000 	mov	r7, #0
    2060:	e59b3004 	ldr	r3, [fp, #4]
    2064:	e283af6d 	add	sl, r3, #436	; 0x1b4
    2068:	e0843080 	add	r3, r4, r0, lsl #1
    206c:	e50b3138 	str	r3, [fp, #-312]	; 0xfffffec8
    2070:	e2446002 	sub	r6, r4, #2
    2074:	e59b2008 	ldr	r2, [fp, #8]
    2078:	e58d2004 	str	r2, [sp, #4]
    207c:	e59b2004 	ldr	r2, [fp, #4]
    2080:	e1a01005 	mov	r1, r5
    2084:	e0d430b2 	ldrh	r3, [r4], #2
    2088:	e58d2000 	str	r2, [sp]
    208c:	e58d700c 	str	r7, [sp, #12]
    2090:	e1a02009 	mov	r2, r9
    2094:	e58d6008 	str	r6, [sp, #8]
    2098:	e1a00008 	mov	r0, r8
    209c:	e1c670b0 	strh	r7, [r6]
    20a0:	ebffff7b 	bl	1e94 <graph_draw_char_ttf>
    20a4:	e1d610b0 	ldrh	r1, [r6]
    20a8:	e1da30f0 	ldrsh	r3, [sl]
    20ac:	e51b2138 	ldr	r2, [fp, #-312]	; 0xfffffec8
    20b0:	e0833001 	add	r3, r3, r1
    20b4:	e3530000 	cmp	r3, #0
    20b8:	d1a030a1 	lsrle	r3, r1, #1
    20bc:	e1540002 	cmp	r4, r2
    20c0:	e0855003 	add	r5, r5, r3
    20c4:	1affffea 	bne	2074 <graph_draw_text_ttf+0x54>
    20c8:	e24bd028 	sub	sp, fp, #40	; 0x28
    20cc:	e89d6ff0 	ldm	sp, {r4, r5, r6, r7, r8, r9, sl, fp, sp, lr}
    20d0:	e12fff1e 	bx	lr

000020d4 <crc32>:
    20d4:	e3510000 	cmp	r1, #0
    20d8:	e1a02000 	mov	r2, r0
    20dc:	0a00000c 	beq	2114 <crc32+0x40>
    20e0:	e3a00000 	mov	r0, #0
    20e4:	e59fc030 	ldr	ip, [pc, #48]	; 211c <crc32+0x48>
    20e8:	e2422001 	sub	r2, r2, #1
    20ec:	e08fc00c 	add	ip, pc, ip
    20f0:	e0821001 	add	r1, r2, r1
    20f4:	e5f23001 	ldrb	r3, [r2, #1]!
    20f8:	e0233000 	eor	r3, r3, r0
    20fc:	e20330ff 	and	r3, r3, #255	; 0xff
    2100:	e79c3103 	ldr	r3, [ip, r3, lsl #2]
    2104:	e1510002 	cmp	r1, r2
    2108:	e0230420 	eor	r0, r3, r0, lsr #8
    210c:	1afffff8 	bne	20f4 <crc32+0x20>
    2110:	e12fff1e 	bx	lr
    2114:	e1a00001 	mov	r0, r1
    2118:	e12fff1e 	bx	lr
    211c:	00015540 	andeq	r5, r1, r0, asr #10

00002120 <hashmap_hash_int>:
    2120:	e1a0c00d 	mov	ip, sp
    2124:	e92dd830 	push	{r4, r5, fp, ip, lr, pc}
    2128:	e24cb004 	sub	fp, ip, #4
    212c:	e1a05000 	mov	r5, r0
    2130:	e1a00001 	mov	r0, r1
    2134:	e1a04001 	mov	r4, r1
    2138:	eb005281 	bl	16b44 <strlen>
    213c:	e1a01000 	mov	r1, r0
    2140:	e1a00004 	mov	r0, r4
    2144:	ebffffe2 	bl	20d4 <crc32>
    2148:	e0803600 	add	r3, r0, r0, lsl #12
    214c:	e0233b23 	eor	r3, r3, r3, lsr #22
    2150:	e0833203 	add	r3, r3, r3, lsl #4
    2154:	e02334a3 	eor	r3, r3, r3, lsr #9
    2158:	e0833503 	add	r3, r3, r3, lsl #10
    215c:	e0233123 	eor	r3, r3, r3, lsr #2
    2160:	e0833383 	add	r3, r3, r3, lsl #7
    2164:	e59f2020 	ldr	r2, [pc, #32]	; 218c <hashmap_hash_int+0x6c>
    2168:	e0233623 	eor	r3, r3, r3, lsr #12
    216c:	e1a031a3 	lsr	r3, r3, #3
    2170:	e0000392 	mul	r0, r2, r3
    2174:	e5951000 	ldr	r1, [r5]
    2178:	eb003b25 	bl	10e14 <__aeabi_uidivmod>
    217c:	e1a00001 	mov	r0, r1
    2180:	e24bd014 	sub	sp, fp, #20
    2184:	e89d6830 	ldm	sp, {r4, r5, fp, sp, lr}
    2188:	e12fff1e 	bx	lr
    218c:	9e3779b1 			; <UNDEFINED> instruction: 0x9e3779b1

00002190 <hashmap_hash>:
    2190:	e1a0c00d 	mov	ip, sp
    2194:	e5903000 	ldr	r3, [r0]
    2198:	e5902004 	ldr	r2, [r0, #4]
    219c:	e0833fa3 	add	r3, r3, r3, lsr #31
    21a0:	e15200c3 	cmp	r2, r3, asr #1
    21a4:	e92ddbf0 	push	{r4, r5, r6, r7, r8, r9, fp, ip, lr, pc}
    21a8:	e1a06000 	mov	r6, r0
    21ac:	e1a08001 	mov	r8, r1
    21b0:	e24cb004 	sub	fp, ip, #4
    21b4:	aa00001a 	bge	2224 <hashmap_hash+0x94>
    21b8:	ebffffd8 	bl	2120 <hashmap_hash_int>
    21bc:	e3a05008 	mov	r5, #8
    21c0:	e1a04000 	mov	r4, r0
    21c4:	e5967008 	ldr	r7, [r6, #8]
    21c8:	ea000005 	b	21e4 <hashmap_hash+0x54>
    21cc:	e2840001 	add	r0, r4, #1
    21d0:	e5961000 	ldr	r1, [r6]
    21d4:	eb003b41 	bl	10ee0 <__aeabi_idivmod>
    21d8:	e2555001 	subs	r5, r5, #1
    21dc:	e1a04001 	mov	r4, r1
    21e0:	0a00000f 	beq	2224 <hashmap_hash+0x94>
    21e4:	e0842084 	add	r2, r4, r4, lsl #1
    21e8:	e0873102 	add	r3, r7, r2, lsl #2
    21ec:	e5933004 	ldr	r3, [r3, #4]
    21f0:	e3530000 	cmp	r3, #0
    21f4:	0a000006 	beq	2214 <hashmap_hash+0x84>
    21f8:	e3530001 	cmp	r3, #1
    21fc:	1afffff2 	bne	21cc <hashmap_hash+0x3c>
    2200:	e1a01008 	mov	r1, r8
    2204:	e7970102 	ldr	r0, [r7, r2, lsl #2]
    2208:	eb005188 	bl	16830 <strcmp>
    220c:	e3500000 	cmp	r0, #0
    2210:	1affffed 	bne	21cc <hashmap_hash+0x3c>
    2214:	e1a00004 	mov	r0, r4
    2218:	e24bd024 	sub	sp, fp, #36	; 0x24
    221c:	e89d6bf0 	ldm	sp, {r4, r5, r6, r7, r8, r9, fp, sp, lr}
    2220:	e12fff1e 	bx	lr
    2224:	e3e04001 	mvn	r4, #1
    2228:	e1a00004 	mov	r0, r4
    222c:	e24bd024 	sub	sp, fp, #36	; 0x24
    2230:	e89d6bf0 	ldm	sp, {r4, r5, r6, r7, r8, r9, fp, sp, lr}
    2234:	e12fff1e 	bx	lr

00002238 <hashmap_put>:
    2238:	e1a0c00d 	mov	ip, sp
    223c:	e92ddbf0 	push	{r4, r5, r6, r7, r8, r9, fp, ip, lr, pc}
    2240:	e24cb004 	sub	fp, ip, #4
    2244:	e1a05000 	mov	r5, r0
    2248:	e1a06001 	mov	r6, r1
    224c:	e1a04002 	mov	r4, r2
    2250:	ebffffce 	bl	2190 <hashmap_hash>
    2254:	e3700002 	cmn	r0, #2
    2258:	0a000005 	beq	2274 <hashmap_put+0x3c>
    225c:	ea00000b 	b	2290 <hashmap_put+0x58>
    2260:	e1a01006 	mov	r1, r6
    2264:	e1a00005 	mov	r0, r5
    2268:	ebffffc8 	bl	2190 <hashmap_hash>
    226c:	e3700002 	cmn	r0, #2
    2270:	1a000006 	bne	2290 <hashmap_put+0x58>
    2274:	e1a00005 	mov	r0, r5
    2278:	eb000019 	bl	22e4 <hashmap_rehash>
    227c:	e3700001 	cmn	r0, #1
    2280:	1afffff6 	bne	2260 <hashmap_put+0x28>
    2284:	e24bd024 	sub	sp, fp, #36	; 0x24
    2288:	e89d6bf0 	ldm	sp, {r4, r5, r6, r7, r8, r9, fp, sp, lr}
    228c:	e12fff1e 	bx	lr
    2290:	e5958008 	ldr	r8, [r5, #8]
    2294:	e0803080 	add	r3, r0, r0, lsl #1
    2298:	e0887103 	add	r7, r8, r3, lsl #2
    229c:	e5874008 	str	r4, [r7, #8]
    22a0:	e1a00006 	mov	r0, r6
    22a4:	e1a04103 	lsl	r4, r3, #2
    22a8:	eb005225 	bl	16b44 <strlen>
    22ac:	e2800001 	add	r0, r0, #1
    22b0:	eb003dac 	bl	11968 <malloc>
    22b4:	e1a01006 	mov	r1, r6
    22b8:	e7880004 	str	r0, [r8, r4]
    22bc:	eb0051e4 	bl	16a54 <strcpy>
    22c0:	e3a02001 	mov	r2, #1
    22c4:	e3a00000 	mov	r0, #0
    22c8:	e5953004 	ldr	r3, [r5, #4]
    22cc:	e0833002 	add	r3, r3, r2
    22d0:	e5872004 	str	r2, [r7, #4]
    22d4:	e5853004 	str	r3, [r5, #4]
    22d8:	e24bd024 	sub	sp, fp, #36	; 0x24
    22dc:	e89d6bf0 	ldm	sp, {r4, r5, r6, r7, r8, r9, fp, sp, lr}
    22e0:	e12fff1e 	bx	lr

000022e4 <hashmap_rehash>:
    22e4:	e1a0c00d 	mov	ip, sp
    22e8:	e92ddbf0 	push	{r4, r5, r6, r7, r8, r9, fp, ip, lr, pc}
    22ec:	e1a06000 	mov	r6, r0
    22f0:	e5900000 	ldr	r0, [r0]
    22f4:	e3a0100c 	mov	r1, #12
    22f8:	e24cb004 	sub	fp, ip, #4
    22fc:	e1a00080 	lsl	r0, r0, #1
    2300:	eb003d71 	bl	118cc <calloc>
    2304:	e3500000 	cmp	r0, #0
    2308:	0a00001b 	beq	237c <hashmap_rehash+0x98>
    230c:	e3a05000 	mov	r5, #0
    2310:	e5968000 	ldr	r8, [r6]
    2314:	e1a03088 	lsl	r3, r8, #1
    2318:	e1580005 	cmp	r8, r5
    231c:	e5967008 	ldr	r7, [r6, #8]
    2320:	e8860028 	stm	r6, {r3, r5}
    2324:	e5860008 	str	r0, [r6, #8]
    2328:	da00000d 	ble	2364 <hashmap_rehash+0x80>
    232c:	e1a04007 	mov	r4, r7
    2330:	e5943004 	ldr	r3, [r4, #4]
    2334:	e3530000 	cmp	r3, #0
    2338:	e2855001 	add	r5, r5, #1
    233c:	0a000005 	beq	2358 <hashmap_rehash+0x74>
    2340:	e1a00006 	mov	r0, r6
    2344:	e5942008 	ldr	r2, [r4, #8]
    2348:	e5941000 	ldr	r1, [r4]
    234c:	ebffffb9 	bl	2238 <hashmap_put>
    2350:	e3500000 	cmp	r0, #0
    2354:	1a000005 	bne	2370 <hashmap_rehash+0x8c>
    2358:	e1580005 	cmp	r8, r5
    235c:	e284400c 	add	r4, r4, #12
    2360:	1afffff2 	bne	2330 <hashmap_rehash+0x4c>
    2364:	e1a00007 	mov	r0, r7
    2368:	eb003d75 	bl	11944 <free>
    236c:	e3a00000 	mov	r0, #0
    2370:	e24bd024 	sub	sp, fp, #36	; 0x24
    2374:	e89d6bf0 	ldm	sp, {r4, r5, r6, r7, r8, r9, fp, sp, lr}
    2378:	e12fff1e 	bx	lr
    237c:	e3e00000 	mvn	r0, #0
    2380:	eafffffa 	b	2370 <hashmap_rehash+0x8c>

00002384 <hashmap_get>:
    2384:	e1a0c00d 	mov	ip, sp
    2388:	e92ddff8 	push	{r3, r4, r5, r6, r7, r8, r9, sl, fp, ip, lr, pc}
    238c:	e24cb004 	sub	fp, ip, #4
    2390:	e1a06000 	mov	r6, r0
    2394:	e1a08001 	mov	r8, r1
    2398:	e1a09002 	mov	r9, r2
    239c:	ebffff5f 	bl	2120 <hashmap_hash_int>
    23a0:	e3a05008 	mov	r5, #8
    23a4:	e1a04000 	mov	r4, r0
    23a8:	e5967008 	ldr	r7, [r6, #8]
    23ac:	ea000005 	b	23c8 <hashmap_get+0x44>
    23b0:	e2840001 	add	r0, r4, #1
    23b4:	e5961000 	ldr	r1, [r6]
    23b8:	eb003ac8 	bl	10ee0 <__aeabi_idivmod>
    23bc:	e2555001 	subs	r5, r5, #1
    23c0:	e1a04001 	mov	r4, r1
    23c4:	0a00000e 	beq	2404 <hashmap_get+0x80>
    23c8:	e0843084 	add	r3, r4, r4, lsl #1
    23cc:	e087a103 	add	sl, r7, r3, lsl #2
    23d0:	e59a2004 	ldr	r2, [sl, #4]
    23d4:	e3520001 	cmp	r2, #1
    23d8:	1afffff4 	bne	23b0 <hashmap_get+0x2c>
    23dc:	e7970103 	ldr	r0, [r7, r3, lsl #2]
    23e0:	e3500000 	cmp	r0, #0
    23e4:	0afffff1 	beq	23b0 <hashmap_get+0x2c>
    23e8:	e1a01008 	mov	r1, r8
    23ec:	eb00510f 	bl	16830 <strcmp>
    23f0:	e3500000 	cmp	r0, #0
    23f4:	1affffed 	bne	23b0 <hashmap_get+0x2c>
    23f8:	e59a3008 	ldr	r3, [sl, #8]
    23fc:	e5893000 	str	r3, [r9]
    2400:	ea000001 	b	240c <hashmap_get+0x88>
    2404:	e3e00002 	mvn	r0, #2
    2408:	e5895000 	str	r5, [r9]
    240c:	e24bd02c 	sub	sp, fp, #44	; 0x2c
    2410:	e89d6ff8 	ldm	sp, {r3, r4, r5, r6, r7, r8, r9, sl, fp, sp, lr}
    2414:	e12fff1e 	bx	lr

00002418 <hashmap_remove>:
    2418:	e1a0c00d 	mov	ip, sp
    241c:	e92ddff0 	push	{r4, r5, r6, r7, r8, r9, sl, fp, ip, lr, pc}
    2420:	e24cb004 	sub	fp, ip, #4
    2424:	e24dd00c 	sub	sp, sp, #12
    2428:	e1a07000 	mov	r7, r0
    242c:	e1a09001 	mov	r9, r1
    2430:	ebffff3a 	bl	2120 <hashmap_hash_int>
    2434:	e3a05008 	mov	r5, #8
    2438:	e1a04000 	mov	r4, r0
    243c:	e5978008 	ldr	r8, [r7, #8]
    2440:	ea000005 	b	245c <hashmap_remove+0x44>
    2444:	e2840001 	add	r0, r4, #1
    2448:	e5971000 	ldr	r1, [r7]
    244c:	eb003aa3 	bl	10ee0 <__aeabi_idivmod>
    2450:	e2555001 	subs	r5, r5, #1
    2454:	e1a04001 	mov	r4, r1
    2458:	0a00001c 	beq	24d0 <hashmap_remove+0xb8>
    245c:	e0843084 	add	r3, r4, r4, lsl #1
    2460:	e0886103 	add	r6, r8, r3, lsl #2
    2464:	e5962004 	ldr	r2, [r6, #4]
    2468:	e3520001 	cmp	r2, #1
    246c:	e1a0a103 	lsl	sl, r3, #2
    2470:	1afffff3 	bne	2444 <hashmap_remove+0x2c>
    2474:	e7983103 	ldr	r3, [r8, r3, lsl #2]
    2478:	e1a01009 	mov	r1, r9
    247c:	e1a00003 	mov	r0, r3
    2480:	e50b3030 	str	r3, [fp, #-48]	; 0xffffffd0
    2484:	eb0050e9 	bl	16830 <strcmp>
    2488:	e2502000 	subs	r2, r0, #0
    248c:	e51b3030 	ldr	r3, [fp, #-48]	; 0xffffffd0
    2490:	1affffeb 	bne	2444 <hashmap_remove+0x2c>
    2494:	e1a00003 	mov	r0, r3
    2498:	e5862004 	str	r2, [r6, #4]
    249c:	e5862008 	str	r2, [r6, #8]
    24a0:	e50b2030 	str	r2, [fp, #-48]	; 0xffffffd0
    24a4:	eb003d26 	bl	11944 <free>
    24a8:	e51b2030 	ldr	r2, [fp, #-48]	; 0xffffffd0
    24ac:	e1a00002 	mov	r0, r2
    24b0:	e5973004 	ldr	r3, [r7, #4]
    24b4:	e5971008 	ldr	r1, [r7, #8]
    24b8:	e2433001 	sub	r3, r3, #1
    24bc:	e781200a 	str	r2, [r1, sl]
    24c0:	e5873004 	str	r3, [r7, #4]
    24c4:	e24bd028 	sub	sp, fp, #40	; 0x28
    24c8:	e89d6ff0 	ldm	sp, {r4, r5, r6, r7, r8, r9, sl, fp, sp, lr}
    24cc:	e12fff1e 	bx	lr
    24d0:	e3e02002 	mvn	r2, #2
    24d4:	e1a00002 	mov	r0, r2
    24d8:	e24bd028 	sub	sp, fp, #40	; 0x28
    24dc:	e89d6ff0 	ldm	sp, {r4, r5, r6, r7, r8, r9, sl, fp, sp, lr}
    24e0:	e12fff1e 	bx	lr

000024e4 <hashmap_free>:
    24e4:	e1a0c00d 	mov	ip, sp
    24e8:	e92dd830 	push	{r4, r5, fp, ip, lr, pc}
    24ec:	e24cb004 	sub	fp, ip, #4
    24f0:	e590c000 	ldr	ip, [r0]
    24f4:	e35c0000 	cmp	ip, #0
    24f8:	e1a05000 	mov	r5, r0
    24fc:	da000016 	ble	255c <hashmap_free+0x78>
    2500:	e3a04000 	mov	r4, #0
    2504:	e5902008 	ldr	r2, [r0, #8]
    2508:	e0843084 	add	r3, r4, r4, lsl #1
    250c:	e0821103 	add	r1, r2, r3, lsl #2
    2510:	e5911004 	ldr	r1, [r1, #4]
    2514:	e3510000 	cmp	r1, #0
    2518:	e2844001 	add	r4, r4, #1
    251c:	0a000005 	beq	2538 <hashmap_free+0x54>
    2520:	e7920103 	ldr	r0, [r2, r3, lsl #2]
    2524:	e3500000 	cmp	r0, #0
    2528:	0a000002 	beq	2538 <hashmap_free+0x54>
    252c:	eb003d04 	bl	11944 <free>
    2530:	e595c000 	ldr	ip, [r5]
    2534:	e5952008 	ldr	r2, [r5, #8]
    2538:	e15c0004 	cmp	ip, r4
    253c:	cafffff1 	bgt	2508 <hashmap_free+0x24>
    2540:	e1a00002 	mov	r0, r2
    2544:	eb003cfe 	bl	11944 <free>
    2548:	e1a00005 	mov	r0, r5
    254c:	eb003cfc 	bl	11944 <free>
    2550:	e24bd014 	sub	sp, fp, #20
    2554:	e89d6830 	ldm	sp, {r4, r5, fp, sp, lr}
    2558:	e12fff1e 	bx	lr
    255c:	e5902008 	ldr	r2, [r0, #8]
    2560:	eafffff6 	b	2540 <hashmap_free+0x5c>

00002564 <hashmap_new>:
    2564:	e1a0c00d 	mov	ip, sp
    2568:	e3a0000c 	mov	r0, #12
    256c:	e92dd830 	push	{r4, r5, fp, ip, lr, pc}
    2570:	e24cb004 	sub	fp, ip, #4
    2574:	eb003cfb 	bl	11968 <malloc>
    2578:	e2504000 	subs	r4, r0, #0
    257c:	0a000009 	beq	25a8 <hashmap_new+0x44>
    2580:	e3a0100c 	mov	r1, #12
    2584:	e3a00080 	mov	r0, #128	; 0x80
    2588:	eb003ccf 	bl	118cc <calloc>
    258c:	e3500000 	cmp	r0, #0
    2590:	e1a05000 	mov	r5, r0
    2594:	e5840008 	str	r0, [r4, #8]
    2598:	0a000006 	beq	25b8 <hashmap_new+0x54>
    259c:	e3a02080 	mov	r2, #128	; 0x80
    25a0:	e3a03000 	mov	r3, #0
    25a4:	e884000c 	stm	r4, {r2, r3}
    25a8:	e1a00004 	mov	r0, r4
    25ac:	e24bd014 	sub	sp, fp, #20
    25b0:	e89d6830 	ldm	sp, {r4, r5, fp, sp, lr}
    25b4:	e12fff1e 	bx	lr
    25b8:	e1a00004 	mov	r0, r4
    25bc:	e1a04005 	mov	r4, r5
    25c0:	ebffffc7 	bl	24e4 <hashmap_free>
    25c4:	e1a00004 	mov	r0, r4
    25c8:	e24bd014 	sub	sp, fp, #20
    25cc:	e89d6830 	ldm	sp, {r4, r5, fp, sp, lr}
    25d0:	e12fff1e 	bx	lr

000025d4 <hashmap_length>:
    25d4:	e3500000 	cmp	r0, #0
    25d8:	15900004 	ldrne	r0, [r0, #4]
    25dc:	e12fff1e 	bx	lr

000025e0 <hashmap_iterate>:
    25e0:	e1a0c00d 	mov	ip, sp
    25e4:	e92dd8f0 	push	{r4, r5, r6, r7, fp, ip, lr, pc}
    25e8:	e24cb004 	sub	fp, ip, #4
    25ec:	e1a07000 	mov	r7, r0
    25f0:	e1a05001 	mov	r5, r1
    25f4:	e1a06002 	mov	r6, r2
    25f8:	ebfffff5 	bl	25d4 <hashmap_length>
    25fc:	e3500000 	cmp	r0, #0
    2600:	da00001a 	ble	2670 <hashmap_iterate+0x90>
    2604:	e5972000 	ldr	r2, [r7]
    2608:	e3520000 	cmp	r2, #0
    260c:	c3a04000 	movgt	r4, #0
    2610:	da000012 	ble	2660 <hashmap_iterate+0x80>
    2614:	e5973008 	ldr	r3, [r7, #8]
    2618:	e084c084 	add	ip, r4, r4, lsl #1
    261c:	e083e10c 	add	lr, r3, ip, lsl #2
    2620:	e59e1004 	ldr	r1, [lr, #4]
    2624:	e3510000 	cmp	r1, #0
    2628:	0a000009 	beq	2654 <hashmap_iterate+0x74>
    262c:	e793010c 	ldr	r0, [r3, ip, lsl #2]
    2630:	e3500000 	cmp	r0, #0
    2634:	0a000006 	beq	2654 <hashmap_iterate+0x74>
    2638:	e1a02006 	mov	r2, r6
    263c:	e59e1008 	ldr	r1, [lr, #8]
    2640:	e1a0e00f 	mov	lr, pc
    2644:	e12fff15 	bx	r5
    2648:	e3500000 	cmp	r0, #0
    264c:	1a000004 	bne	2664 <hashmap_iterate+0x84>
    2650:	e5972000 	ldr	r2, [r7]
    2654:	e2844001 	add	r4, r4, #1
    2658:	e1520004 	cmp	r2, r4
    265c:	caffffec 	bgt	2614 <hashmap_iterate+0x34>
    2660:	e3a00000 	mov	r0, #0
    2664:	e24bd01c 	sub	sp, fp, #28
    2668:	e89d68f0 	ldm	sp, {r4, r5, r6, r7, fp, sp, lr}
    266c:	e12fff1e 	bx	lr
    2670:	e3e00002 	mvn	r0, #2
    2674:	eafffffa 	b	2664 <hashmap_iterate+0x84>

00002678 <tty_ins_stream_jump_to_else_or_eif>:
    2678:	e92d4010 	push	{r4, lr}
    267c:	e1a0c000 	mov	ip, r0
    2680:	e3a04000 	mov	r4, #0
    2684:	e590e004 	ldr	lr, [r0, #4]
    2688:	e5902008 	ldr	r2, [r0, #8]
    268c:	e2821001 	add	r1, r2, #1
    2690:	e58c1008 	str	r1, [ip, #8]
    2694:	e7de0002 	ldrb	r0, [lr, r2]
    2698:	e2803050 	add	r3, r0, #80	; 0x50
    269c:	e20330ff 	and	r3, r3, #255	; 0xff
    26a0:	e3530007 	cmp	r3, #7
    26a4:	92000007 	andls	r0, r0, #7
    26a8:	92800001 	addls	r0, r0, #1
    26ac:	90802001 	addls	r2, r0, r1
    26b0:	9afffff5 	bls	268c <tty_ins_stream_jump_to_else_or_eif+0x14>
    26b4:	e2803048 	add	r3, r0, #72	; 0x48
    26b8:	e20330ff 	and	r3, r3, #255	; 0xff
    26bc:	e3530007 	cmp	r3, #7
    26c0:	92000007 	andls	r0, r0, #7
    26c4:	92800001 	addls	r0, r0, #1
    26c8:	90812080 	addls	r2, r1, r0, lsl #1
    26cc:	9affffee 	bls	268c <tty_ins_stream_jump_to_else_or_eif+0x14>
    26d0:	e3500040 	cmp	r0, #64	; 0x40
    26d4:	0a00000c 	beq	270c <tty_ins_stream_jump_to_else_or_eif+0x94>
    26d8:	e3500041 	cmp	r0, #65	; 0x41
    26dc:	0a00000f 	beq	2720 <tty_ins_stream_jump_to_else_or_eif+0xa8>
    26e0:	e3500058 	cmp	r0, #88	; 0x58
    26e4:	01a02001 	moveq	r2, r1
    26e8:	02844001 	addeq	r4, r4, #1
    26ec:	0affffe6 	beq	268c <tty_ins_stream_jump_to_else_or_eif+0x14>
    26f0:	e3540000 	cmp	r4, #0
    26f4:	1a00000e 	bne	2734 <tty_ins_stream_jump_to_else_or_eif+0xbc>
    26f8:	e350001b 	cmp	r0, #27
    26fc:	13500059 	cmpne	r0, #89	; 0x59
    2700:	0a000010 	beq	2748 <tty_ins_stream_jump_to_else_or_eif+0xd0>
    2704:	e1a02001 	mov	r2, r1
    2708:	eaffffdf 	b	268c <tty_ins_stream_jump_to_else_or_eif+0x14>
    270c:	e2820002 	add	r0, r2, #2
    2710:	e58c0008 	str	r0, [ip, #8]
    2714:	e7de2001 	ldrb	r2, [lr, r1]
    2718:	e0822000 	add	r2, r2, r0
    271c:	eaffffda 	b	268c <tty_ins_stream_jump_to_else_or_eif+0x14>
    2720:	e2820002 	add	r0, r2, #2
    2724:	e58c0008 	str	r0, [ip, #8]
    2728:	e7de2001 	ldrb	r2, [lr, r1]
    272c:	e0802082 	add	r2, r0, r2, lsl #1
    2730:	eaffffd5 	b	268c <tty_ins_stream_jump_to_else_or_eif+0x14>
    2734:	e3500059 	cmp	r0, #89	; 0x59
    2738:	01a02001 	moveq	r2, r1
    273c:	02444001 	subeq	r4, r4, #1
    2740:	1affffef 	bne	2704 <tty_ins_stream_jump_to_else_or_eif+0x8c>
    2744:	eaffffd0 	b	268c <tty_ins_stream_jump_to_else_or_eif+0x14>
    2748:	e8bd4010 	pop	{r4, lr}
    274c:	e12fff1e 	bx	lr

00002750 <tty_interp_stack_push_words_from_stream>:
    2750:	e1d030b6 	ldrh	r3, [r0, #6]
    2754:	e92d41f0 	push	{r4, r5, r6, r7, r8, lr}
    2758:	e242e001 	sub	lr, r2, #1
    275c:	e20ee0ff 	and	lr, lr, #255	; 0xff
    2760:	e283c001 	add	ip, r3, #1
    2764:	e08ee00c 	add	lr, lr, ip
    2768:	e1a0e80e 	lsl	lr, lr, #16
    276c:	e5914004 	ldr	r4, [r1, #4]
    2770:	e5907000 	ldr	r7, [r0]
    2774:	e1a0e82e 	lsr	lr, lr, #16
    2778:	e1a05003 	mov	r5, r3
    277c:	e5912008 	ldr	r2, [r1, #8]
    2780:	e1a0380c 	lsl	r3, ip, #16
    2784:	e282c001 	add	ip, r2, #1
    2788:	e581c008 	str	ip, [r1, #8]
    278c:	e2828002 	add	r8, r2, #2
    2790:	e19460d2 	ldrsb	r6, [r4, r2]
    2794:	e5818008 	str	r8, [r1, #8]
    2798:	e7d4200c 	ldrb	r2, [r4, ip]
    279c:	e1a03823 	lsr	r3, r3, #16
    27a0:	e1822406 	orr	r2, r2, r6, lsl #8
    27a4:	e153000e 	cmp	r3, lr
    27a8:	e1c030b6 	strh	r3, [r0, #6]
    27ac:	e283c001 	add	ip, r3, #1
    27b0:	e7872105 	str	r2, [r7, r5, lsl #2]
    27b4:	1affffef 	bne	2778 <tty_interp_stack_push_words_from_stream+0x28>
    27b8:	e8bd41f0 	pop	{r4, r5, r6, r7, r8, lr}
    27bc:	e12fff1e 	bx	lr

000027c0 <tty_call_func>:
    27c0:	e1a0c00d 	mov	ip, sp
    27c4:	e92dd9f0 	push	{r4, r5, r6, r7, r8, fp, ip, lr, pc}
    27c8:	e24cb004 	sub	fp, ip, #4
    27cc:	e24dd014 	sub	sp, sp, #20
    27d0:	e1a04000 	mov	r4, r0
    27d4:	e5903000 	ldr	r3, [r0]
    27d8:	e2525000 	subs	r5, r2, #0
    27dc:	e283200c 	add	r2, r3, #12
    27e0:	e892000c 	ldm	r2, {r2, r3}
    27e4:	e280700c 	add	r7, r0, #12
    27e8:	e792e101 	ldr	lr, [r2, r1, lsl #2]
    27ec:	e793c101 	ldr	ip, [r3, r1, lsl #2]
    27f0:	e897000f 	ldm	r7, {r0, r1, r2, r3}
    27f4:	e24b8034 	sub	r8, fp, #52	; 0x34
    27f8:	e888000f 	stm	r8, {r0, r1, r2, r3}
    27fc:	e584e010 	str	lr, [r4, #16]
    2800:	e584c018 	str	ip, [r4, #24]
    2804:	0a000011 	beq	2850 <tty_call_func+0x90>
    2808:	e3a06000 	mov	r6, #0
    280c:	e3a03000 	mov	r3, #0
    2810:	e5846014 	str	r6, [r4, #20]
    2814:	ea000008 	b	283c <tty_call_func+0x7c>
    2818:	e594300c 	ldr	r3, [r4, #12]
    281c:	e1a00004 	mov	r0, r4
    2820:	e1a0e00f 	mov	lr, pc
    2824:	e12fff13 	bx	r3
    2828:	e5d4301d 	ldrb	r3, [r4, #29]
    282c:	e3530000 	cmp	r3, #0
    2830:	1a000003 	bne	2844 <tty_call_func+0x84>
    2834:	e2843014 	add	r3, r4, #20
    2838:	e8931008 	ldm	r3, {r3, ip}
    283c:	e153000c 	cmp	r3, ip
    2840:	3afffff4 	bcc	2818 <tty_call_func+0x58>
    2844:	e2555001 	subs	r5, r5, #1
    2848:	1594c018 	ldrne	ip, [r4, #24]
    284c:	1affffee 	bne	280c <tty_call_func+0x4c>
    2850:	e898000f 	ldm	r8, {r0, r1, r2, r3}
    2854:	e887000f 	stm	r7, {r0, r1, r2, r3}
    2858:	e24bd020 	sub	sp, fp, #32
    285c:	e89d69f0 	ldm	sp, {r4, r5, r6, r7, r8, fp, sp, lr}
    2860:	e12fff1e 	bx	lr

00002864 <tty_move_point_x>:
    2864:	e5911010 	ldr	r1, [r1, #16]
    2868:	e7d13002 	ldrb	r3, [r1, r2]
    286c:	e3833001 	orr	r3, r3, #1
    2870:	e7c13002 	strb	r3, [r1, r2]
    2874:	e12fff1e 	bx	lr

00002878 <tty_move_point_y>:
    2878:	e5d0001c 	ldrb	r0, [r0, #28]
    287c:	e3500003 	cmp	r0, #3
    2880:	15910008 	ldrne	r0, [r1, #8]
    2884:	10800182 	addne	r0, r0, r2, lsl #3
    2888:	1590c004 	ldrne	ip, [r0, #4]
    288c:	108c3003 	addne	r3, ip, r3
    2890:	15803004 	strne	r3, [r0, #4]
    2894:	e5911010 	ldr	r1, [r1, #16]
    2898:	e7d13002 	ldrb	r3, [r1, r2]
    289c:	e3833002 	orr	r3, r3, #2
    28a0:	e7c13002 	strb	r3, [r1, r2]
    28a4:	e12fff1e 	bx	lr

000028a8 <tty_FDEF>:
    28a8:	e3a0c001 	mov	ip, #1
    28ac:	e5901000 	ldr	r1, [r0]
    28b0:	e1d130ba 	ldrh	r3, [r1, #10]
    28b4:	e2433001 	sub	r3, r3, #1
    28b8:	e5912004 	ldr	r2, [r1, #4]
    28bc:	e1a03803 	lsl	r3, r3, #16
    28c0:	e1a03823 	lsr	r3, r3, #16
    28c4:	e92d4010 	push	{r4, lr}
    28c8:	e792e103 	ldr	lr, [r2, r3, lsl #2]
    28cc:	e591400c 	ldr	r4, [r1, #12]
    28d0:	e1c130ba 	strh	r3, [r1, #10]
    28d4:	e5912010 	ldr	r2, [r1, #16]
    28d8:	e2801010 	add	r1, r0, #16
    28dc:	e891000a 	ldm	r1, {r1, r3}
    28e0:	e0811003 	add	r1, r1, r3
    28e4:	e083300c 	add	r3, r3, ip
    28e8:	e5803014 	str	r3, [r0, #20]
    28ec:	e784110e 	str	r1, [r4, lr, lsl #2]
    28f0:	e782c10e 	str	ip, [r2, lr, lsl #2]
    28f4:	e590c010 	ldr	ip, [r0, #16]
    28f8:	e5903014 	ldr	r3, [r0, #20]
    28fc:	e082210e 	add	r2, r2, lr, lsl #2
    2900:	ea000003 	b	2914 <tty_FDEF+0x6c>
    2904:	e5923000 	ldr	r3, [r2]
    2908:	e2833001 	add	r3, r3, #1
    290c:	e5823000 	str	r3, [r2]
    2910:	e5903014 	ldr	r3, [r0, #20]
    2914:	e2831001 	add	r1, r3, #1
    2918:	e5801014 	str	r1, [r0, #20]
    291c:	e7dc3003 	ldrb	r3, [ip, r3]
    2920:	e353002d 	cmp	r3, #45	; 0x2d
    2924:	1afffff6 	bne	2904 <tty_FDEF+0x5c>
    2928:	e8bd4010 	pop	{r4, lr}
    292c:	e12fff1e 	bx	lr

00002930 <tty_NPUSHB>:
    2930:	e92d4070 	push	{r4, r5, r6, lr}
    2934:	e5903014 	ldr	r3, [r0, #20]
    2938:	e2832001 	add	r2, r3, #1
    293c:	e5904010 	ldr	r4, [r0, #16]
    2940:	e5802014 	str	r2, [r0, #20]
    2944:	e590e000 	ldr	lr, [r0]
    2948:	e7d4c003 	ldrb	ip, [r4, r3]
    294c:	e1de10ba 	ldrh	r1, [lr, #10]
    2950:	e24cc001 	sub	ip, ip, #1
    2954:	e20cc0ff 	and	ip, ip, #255	; 0xff
    2958:	e2813001 	add	r3, r1, #1
    295c:	e08cc003 	add	ip, ip, r3
    2960:	e1a0c80c 	lsl	ip, ip, #16
    2964:	e59e5004 	ldr	r5, [lr, #4]
    2968:	e1a0c82c 	lsr	ip, ip, #16
    296c:	ea000002 	b	297c <tty_NPUSHB+0x4c>
    2970:	e5902014 	ldr	r2, [r0, #20]
    2974:	e1a01003 	mov	r1, r3
    2978:	e2833001 	add	r3, r3, #1
    297c:	e2826001 	add	r6, r2, #1
    2980:	e5806014 	str	r6, [r0, #20]
    2984:	e1a03803 	lsl	r3, r3, #16
    2988:	e7d42002 	ldrb	r2, [r4, r2]
    298c:	e1a03823 	lsr	r3, r3, #16
    2990:	e15c0003 	cmp	ip, r3
    2994:	e1ce30ba 	strh	r3, [lr, #10]
    2998:	e7852101 	str	r2, [r5, r1, lsl #2]
    299c:	1afffff3 	bne	2970 <tty_NPUSHB+0x40>
    29a0:	e8bd4070 	pop	{r4, r5, r6, lr}
    29a4:	e12fff1e 	bx	lr

000029a8 <tty_round_phantom_points>:
    29a8:	e5901000 	ldr	r1, [r0]
    29ac:	e5902008 	ldr	r2, [r0, #8]
    29b0:	e1a0c081 	lsl	ip, r1, #1
    29b4:	e20cc040 	and	ip, ip, #64	; 0x40
    29b8:	e3c1103f 	bic	r1, r1, #63	; 0x3f
    29bc:	e5903014 	ldr	r3, [r0, #20]
    29c0:	e08cc001 	add	ip, ip, r1
    29c4:	e1a01082 	lsl	r1, r2, #1
    29c8:	e2011040 	and	r1, r1, #64	; 0x40
    29cc:	e3c2203f 	bic	r2, r2, #63	; 0x3f
    29d0:	e52de004 	push	{lr}		; (str lr, [sp, #-4]!)
    29d4:	e0811002 	add	r1, r1, r2
    29d8:	e590e01c 	ldr	lr, [r0, #28]
    29dc:	e1a02083 	lsl	r2, r3, #1
    29e0:	e2022040 	and	r2, r2, #64	; 0x40
    29e4:	e3c3303f 	bic	r3, r3, #63	; 0x3f
    29e8:	e0822003 	add	r2, r2, r3
    29ec:	e1a0308e 	lsl	r3, lr, #1
    29f0:	e2033040 	and	r3, r3, #64	; 0x40
    29f4:	e3cee03f 	bic	lr, lr, #63	; 0x3f
    29f8:	e083300e 	add	r3, r3, lr
    29fc:	e580c000 	str	ip, [r0]
    2a00:	e5801008 	str	r1, [r0, #8]
    2a04:	e5802014 	str	r2, [r0, #20]
    2a08:	e580301c 	str	r3, [r0, #28]
    2a0c:	e49de004 	pop	{lr}		; (ldr lr, [sp], #4)
    2a10:	e12fff1e 	bx	lr

00002a14 <tty_compare_edges>:
    2a14:	e5902014 	ldr	r2, [r0, #20]
    2a18:	e5913014 	ldr	r3, [r1, #20]
    2a1c:	e1520003 	cmp	r2, r3
    2a20:	d3a00001 	movle	r0, #1
    2a24:	c3e00000 	mvngt	r0, #0
    2a28:	e12fff1e 	bx	lr

00002a2c <tty_deltap_impl>:
    2a2c:	e1a0c00d 	mov	ip, sp
    2a30:	e92ddbf0 	push	{r4, r5, r6, r7, r8, r9, fp, ip, lr, pc}
    2a34:	e1a05000 	mov	r5, r0
    2a38:	e5900000 	ldr	r0, [r0]
    2a3c:	e1d030ba 	ldrh	r3, [r0, #10]
    2a40:	e2433001 	sub	r3, r3, #1
    2a44:	e1a04001 	mov	r4, r1
    2a48:	e1a03803 	lsl	r3, r3, #16
    2a4c:	e5901004 	ldr	r1, [r0, #4]
    2a50:	e1a03823 	lsr	r3, r3, #16
    2a54:	e7916103 	ldr	r6, [r1, r3, lsl #2]
    2a58:	e3560000 	cmp	r6, #0
    2a5c:	e1c030ba 	strh	r3, [r0, #10]
    2a60:	e24cb004 	sub	fp, ip, #4
    2a64:	1a000011 	bne	2ab0 <tty_deltap_impl+0x84>
    2a68:	ea000031 	b	2b34 <tty_deltap_impl+0x108>
    2a6c:	e590101c 	ldr	r1, [r0, #28]
    2a70:	e591c010 	ldr	ip, [r1, #16]
    2a74:	e7dcc002 	ldrb	ip, [ip, r2]
    2a78:	e31c0002 	tst	ip, #2
    2a7c:	0a000006 	beq	2a9c <tty_deltap_impl+0x70>
    2a80:	e590c058 	ldr	ip, [r0, #88]	; 0x58
    2a84:	e26cc006 	rsb	ip, ip, #6
    2a88:	e5907018 	ldr	r7, [r0, #24]
    2a8c:	e1a03c13 	lsl	r3, r3, ip
    2a90:	e1a00005 	mov	r0, r5
    2a94:	e1a0e00f 	mov	lr, pc
    2a98:	e12fff17 	bx	r7
    2a9c:	e2566001 	subs	r6, r6, #1
    2aa0:	0a000023 	beq	2b34 <tty_deltap_impl+0x108>
    2aa4:	e5950000 	ldr	r0, [r5]
    2aa8:	e5901004 	ldr	r1, [r0, #4]
    2aac:	e1d030ba 	ldrh	r3, [r0, #10]
    2ab0:	e243c002 	sub	ip, r3, #2
    2ab4:	e1a0c80c 	lsl	ip, ip, #16
    2ab8:	e1a0c82c 	lsr	ip, ip, #16
    2abc:	e791e10c 	ldr	lr, [r1, ip, lsl #2]
    2ac0:	e5957004 	ldr	r7, [r5, #4]
    2ac4:	e5902054 	ldr	r2, [r0, #84]	; 0x54
    2ac8:	e5977040 	ldr	r7, [r7, #64]	; 0x40
    2acc:	e2433001 	sub	r3, r3, #1
    2ad0:	e0842002 	add	r2, r4, r2
    2ad4:	e1a08c0e 	lsl	r8, lr, #24
    2ad8:	e0822e28 	add	r2, r2, r8, lsr #28
    2adc:	e1a03803 	lsl	r3, r3, #16
    2ae0:	e1a03823 	lsr	r3, r3, #16
    2ae4:	e1520007 	cmp	r2, r7
    2ae8:	e7912103 	ldr	r2, [r1, r3, lsl #2]
    2aec:	e1c0c0ba 	strh	ip, [r0, #10]
    2af0:	1affffe9 	bne	2a9c <tty_deltap_impl+0x70>
    2af4:	e20ee00f 	and	lr, lr, #15
    2af8:	e24e3008 	sub	r3, lr, #8
    2afc:	e5d5101c 	ldrb	r1, [r5, #28]
    2b00:	e3530000 	cmp	r3, #0
    2b04:	c24e3007 	subgt	r3, lr, #7
    2b08:	e3510003 	cmp	r1, #3
    2b0c:	0affffe2 	beq	2a9c <tty_deltap_impl+0x70>
    2b10:	e5951008 	ldr	r1, [r5, #8]
    2b14:	e1d112f0 	ldrsh	r1, [r1, #32]
    2b18:	e3510000 	cmp	r1, #0
    2b1c:	aaffffd2 	bge	2a6c <tty_deltap_impl+0x40>
    2b20:	e5901048 	ldr	r1, [r0, #72]	; 0x48
    2b24:	e3510000 	cmp	r1, #0
    2b28:	0affffcf 	beq	2a6c <tty_deltap_impl+0x40>
    2b2c:	e590101c 	ldr	r1, [r0, #28]
    2b30:	eaffffd2 	b	2a80 <tty_deltap_impl+0x54>
    2b34:	e24bd024 	sub	sp, fp, #36	; 0x24
    2b38:	e89d6bf0 	ldm	sp, {r4, r5, r6, r7, r8, r9, fp, sp, lr}
    2b3c:	e12fff1e 	bx	lr

00002b40 <tty_round_according_to_round_state.isra.0>:
    2b40:	e5d0306f 	ldrb	r3, [r0, #111]	; 0x6f
    2b44:	e3530005 	cmp	r3, #5
    2b48:	908ff103 	addls	pc, pc, r3, lsl #2
    2b4c:	ea000035 	b	2c28 <tty_round_according_to_round_state.isra.0+0xe8>
    2b50:	ea00000d 	b	2b8c <tty_round_according_to_round_state.isra.0+0x4c>
    2b54:	ea000014 	b	2bac <tty_round_according_to_round_state.isra.0+0x6c>
    2b58:	ea00001a 	b	2bc8 <tty_round_according_to_round_state.isra.0+0x88>
    2b5c:	ea00001d 	b	2bd8 <tty_round_according_to_round_state.isra.0+0x98>
    2b60:	ea000002 	b	2b70 <tty_round_according_to_round_state.isra.0+0x30>
    2b64:	eaffffff 	b	2b68 <tty_round_according_to_round_state.isra.0+0x28>
    2b68:	e1a00001 	mov	r0, r1
    2b6c:	e12fff1e 	bx	lr
    2b70:	e3510000 	cmp	r1, #0
    2b74:	ba000022 	blt	2c04 <tty_round_according_to_round_state.isra.0+0xc4>
    2b78:	e311003f 	tst	r1, #63	; 0x3f
    2b7c:	0afffff9 	beq	2b68 <tty_round_according_to_round_state.isra.0+0x28>
    2b80:	e3c1103f 	bic	r1, r1, #63	; 0x3f
    2b84:	e2810040 	add	r0, r1, #64	; 0x40
    2b88:	e12fff1e 	bx	lr
    2b8c:	e3510000 	cmp	r1, #0
    2b90:	b2611000 	rsblt	r1, r1, #0
    2b94:	b3c1103f 	biclt	r1, r1, #63	; 0x3f
    2b98:	b3811020 	orrlt	r1, r1, #32
    2b9c:	a3c1103f 	bicge	r1, r1, #63	; 0x3f
    2ba0:	b2610000 	rsblt	r0, r1, #0
    2ba4:	a3810020 	orrge	r0, r1, #32
    2ba8:	e12fff1e 	bx	lr
    2bac:	e3510000 	cmp	r1, #0
    2bb0:	ba00000c 	blt	2be8 <tty_round_according_to_round_state.isra.0+0xa8>
    2bb4:	e1a00081 	lsl	r0, r1, #1
    2bb8:	e2000040 	and	r0, r0, #64	; 0x40
    2bbc:	e3c1103f 	bic	r1, r1, #63	; 0x3f
    2bc0:	e0800001 	add	r0, r0, r1
    2bc4:	e12fff1e 	bx	lr
    2bc8:	e3110030 	tst	r1, #48	; 0x30
    2bcc:	1afffff8 	bne	2bb4 <tty_round_according_to_round_state.isra.0+0x74>
    2bd0:	e3c1001f 	bic	r0, r1, #31
    2bd4:	e12fff1e 	bx	lr
    2bd8:	e3510000 	cmp	r1, #0
    2bdc:	ba00000d 	blt	2c18 <tty_round_according_to_round_state.isra.0+0xd8>
    2be0:	e3c1003f 	bic	r0, r1, #63	; 0x3f
    2be4:	e12fff1e 	bx	lr
    2be8:	e2611000 	rsb	r1, r1, #0
    2bec:	e1a00081 	lsl	r0, r1, #1
    2bf0:	e2000040 	and	r0, r0, #64	; 0x40
    2bf4:	e3c1103f 	bic	r1, r1, #63	; 0x3f
    2bf8:	e0801001 	add	r1, r0, r1
    2bfc:	e2610000 	rsb	r0, r1, #0
    2c00:	e12fff1e 	bx	lr
    2c04:	e2613000 	rsb	r3, r1, #0
    2c08:	e313003f 	tst	r3, #63	; 0x3f
    2c0c:	0affffd5 	beq	2b68 <tty_round_according_to_round_state.isra.0+0x28>
    2c10:	e2411001 	sub	r1, r1, #1
    2c14:	eafffff1 	b	2be0 <tty_round_according_to_round_state.isra.0+0xa0>
    2c18:	e2611000 	rsb	r1, r1, #0
    2c1c:	e3c1103f 	bic	r1, r1, #63	; 0x3f
    2c20:	e2610000 	rsb	r0, r1, #0
    2c24:	e12fff1e 	bx	lr
    2c28:	e3a00000 	mov	r0, #0
    2c2c:	e12fff1e 	bx	lr

00002c30 <tty_update_proj_dot_free.isra.0>:
    2c30:	e3a03202 	mov	r3, #536870912	; 0x20000000
    2c34:	e3a01000 	mov	r1, #0
    2c38:	e92d4030 	push	{r4, r5, lr}
    2c3c:	e1a02003 	mov	r2, r3
    2c40:	e1a05001 	mov	r5, r1
    2c44:	e590404c 	ldr	r4, [r0, #76]	; 0x4c
    2c48:	e590c044 	ldr	ip, [r0, #68]	; 0x44
    2c4c:	e1a04804 	lsl	r4, r4, #16
    2c50:	e1a0c80c 	lsl	ip, ip, #16
    2c54:	e0e52c94 	smlal	r2, r5, r4, ip
    2c58:	e590e050 	ldr	lr, [r0, #80]	; 0x50
    2c5c:	e590c048 	ldr	ip, [r0, #72]	; 0x48
    2c60:	e1a0e80e 	lsl	lr, lr, #16
    2c64:	e1a0c80c 	lsl	ip, ip, #16
    2c68:	e0e13c9e 	smlal	r3, r1, lr, ip
    2c6c:	e1a02f22 	lsr	r2, r2, #30
    2c70:	e1a03f23 	lsr	r3, r3, #30
    2c74:	e1822105 	orr	r2, r2, r5, lsl #2
    2c78:	e1833101 	orr	r3, r3, r1, lsl #2
    2c7c:	e0823003 	add	r3, r2, r3
    2c80:	e243237f 	sub	r2, r3, #-67108863	; 0xfc000001
    2c84:	e37203be 	cmn	r2, #-134217726	; 0xf8000002
    2c88:	93a03101 	movls	r3, #1073741824	; 0x40000000
    2c8c:	e8bd4030 	pop	{r4, r5, lr}
    2c90:	e5803028 	str	r3, [r0, #40]	; 0x28
    2c94:	e12fff1e 	bx	lr

00002c98 <tty_fix_v2_mag.isra.0>:
    2c98:	e1a03000 	mov	r3, r0
    2c9c:	e92d41f0 	push	{r4, r5, r6, r7, r8, lr}
    2ca0:	e59fe0ac 	ldr	lr, [pc, #172]	; 2d54 <tty_fix_v2_mag.isra.0+0xbc>
    2ca4:	e003200e 	and	r2, r3, lr
    2ca8:	e00ee001 	and	lr, lr, r1
    2cac:	e1a05002 	mov	r5, r2
    2cb0:	e1a0700e 	mov	r7, lr
    2cb4:	e1a03843 	asr	r3, r3, #16
    2cb8:	e1a08003 	mov	r8, r3
    2cbc:	e0060392 	mul	r6, r2, r3
    2cc0:	e0050592 	mul	r5, r2, r5
    2cc4:	e007079e 	mul	r7, lr, r7
    2cc8:	e3a0c000 	mov	ip, #0
    2ccc:	e1a01841 	asr	r1, r1, #16
    2cd0:	e1a02005 	mov	r2, r5
    2cd4:	e005019e 	mul	r5, lr, r1
    2cd8:	e1a0e007 	mov	lr, r7
    2cdc:	e1a077c6 	asr	r7, r6, #15
    2ce0:	e0287893 	mla	r8, r3, r8, r7
    2ce4:	e1a07001 	mov	r7, r1
    2ce8:	e3a04020 	mov	r4, #32
    2cec:	e1a0000c 	mov	r0, ip
    2cf0:	e1a06886 	lsl	r6, r6, #17
    2cf4:	e0922006 	adds	r2, r2, r6
    2cf8:	e1a067c5 	asr	r6, r5, #15
    2cfc:	e0276791 	mla	r7, r1, r7, r6
    2d00:	e1a05885 	lsl	r5, r5, #17
    2d04:	e2a83000 	adc	r3, r8, #0
    2d08:	e09ee005 	adds	lr, lr, r5
    2d0c:	e2a71000 	adc	r1, r7, #0
    2d10:	e092200e 	adds	r2, r2, lr
    2d14:	e0a31001 	adc	r1, r3, r1
    2d18:	e1a0ef21 	lsr	lr, r1, #30
    2d1c:	e1a03100 	lsl	r3, r0, #2
    2d20:	e18ec10c 	orr	ip, lr, ip, lsl #2
    2d24:	e2833001 	add	r3, r3, #1
    2d28:	e15c0003 	cmp	ip, r3
    2d2c:	e1a00080 	lsl	r0, r0, #1
    2d30:	e1a0ef22 	lsr	lr, r2, #30
    2d34:	204cc003 	subcs	ip, ip, r3
    2d38:	22800001 	addcs	r0, r0, #1
    2d3c:	e2544001 	subs	r4, r4, #1
    2d40:	e18e1101 	orr	r1, lr, r1, lsl #2
    2d44:	e1a02102 	lsl	r2, r2, #2
    2d48:	1afffff2 	bne	2d18 <tty_fix_v2_mag.isra.0+0x80>
    2d4c:	e8bd41f0 	pop	{r4, r5, r6, r7, r8, lr}
    2d50:	e12fff1e 	bx	lr
    2d54:	0000ffff 	strdeq	pc, [r0], -pc	; <UNPREDICTABLE>

00002d58 <tty_deltac_impl>:
    2d58:	e92d47f0 	push	{r4, r5, r6, r7, r8, r9, sl, lr}
    2d5c:	e590e000 	ldr	lr, [r0]
    2d60:	e1de60ba 	ldrh	r6, [lr, #10]
    2d64:	e2463001 	sub	r3, r6, #1
    2d68:	e59e4004 	ldr	r4, [lr, #4]
    2d6c:	e1a03803 	lsl	r3, r3, #16
    2d70:	e1a03823 	lsr	r3, r3, #16
    2d74:	e7947103 	ldr	r7, [r4, r3, lsl #2]
    2d78:	e3570000 	cmp	r7, #0
    2d7c:	e1ce30ba 	strh	r3, [lr, #10]
    2d80:	0a000024 	beq	2e18 <tty_deltac_impl+0xc0>
    2d84:	e2466003 	sub	r6, r6, #3
    2d88:	e1a06806 	lsl	r6, r6, #16
    2d8c:	e1a06826 	lsr	r6, r6, #16
    2d90:	e1a03006 	mov	r3, r6
    2d94:	e1a0c007 	mov	ip, r7
    2d98:	e5905004 	ldr	r5, [r0, #4]
    2d9c:	e7940103 	ldr	r0, [r4, r3, lsl #2]
    2da0:	e59e2054 	ldr	r2, [lr, #84]	; 0x54
    2da4:	e1a08c00 	lsl	r8, r0, #24
    2da8:	e595a040 	ldr	sl, [r5, #64]	; 0x40
    2dac:	e0812002 	add	r2, r1, r2
    2db0:	e0822e28 	add	r2, r2, r8, lsr #28
    2db4:	e200000f 	and	r0, r0, #15
    2db8:	e152000a 	cmp	r2, sl
    2dbc:	e2439002 	sub	r9, r3, #2
    2dc0:	e2408008 	sub	r8, r0, #8
    2dc4:	1a00000b 	bne	2df8 <tty_deltac_impl+0xa0>
    2dc8:	e2833001 	add	r3, r3, #1
    2dcc:	e1a03803 	lsl	r3, r3, #16
    2dd0:	e3580000 	cmp	r8, #0
    2dd4:	e1a03823 	lsr	r3, r3, #16
    2dd8:	e5952004 	ldr	r2, [r5, #4]
    2ddc:	c2408007 	subgt	r8, r0, #7
    2de0:	e7940103 	ldr	r0, [r4, r3, lsl #2]
    2de4:	e59ea058 	ldr	sl, [lr, #88]	; 0x58
    2de8:	e7923100 	ldr	r3, [r2, r0, lsl #2]
    2dec:	e26aa006 	rsb	sl, sl, #6
    2df0:	e0838a18 	add	r8, r3, r8, lsl sl
    2df4:	e7828100 	str	r8, [r2, r0, lsl #2]
    2df8:	e1a03809 	lsl	r3, r9, #16
    2dfc:	e25cc001 	subs	ip, ip, #1
    2e00:	e1a03823 	lsr	r3, r3, #16
    2e04:	1affffe4 	bne	2d9c <tty_deltac_impl+0x44>
    2e08:	e2477001 	sub	r7, r7, #1
    2e0c:	e0677787 	rsb	r7, r7, r7, lsl #15
    2e10:	e0867087 	add	r7, r6, r7, lsl #1
    2e14:	e1ce70ba 	strh	r7, [lr, #10]
    2e18:	e8bd47f0 	pop	{r4, r5, r6, r7, r8, r9, sl, lr}
    2e1c:	e12fff1e 	bx	lr

00002e20 <tty_execute_next_font_program_ins>:
    2e20:	e92d4070 	push	{r4, r5, r6, lr}
    2e24:	e2804010 	add	r4, r0, #16
    2e28:	e8944010 	ldm	r4, {r4, lr}
    2e2c:	e28ec001 	add	ip, lr, #1
    2e30:	e580c014 	str	ip, [r0, #20]
    2e34:	e7d4200e 	ldrb	r2, [r4, lr]
    2e38:	e3520040 	cmp	r2, #64	; 0x40
    2e3c:	e1a03000 	mov	r3, r0
    2e40:	0a000019 	beq	2eac <tty_execute_next_font_program_ins+0x8c>
    2e44:	e3520041 	cmp	r2, #65	; 0x41
    2e48:	0a00000f 	beq	2e8c <tty_execute_next_font_program_ins+0x6c>
    2e4c:	e352002c 	cmp	r2, #44	; 0x2c
    2e50:	0a00000b 	beq	2e84 <tty_execute_next_font_program_ins+0x64>
    2e54:	e2821050 	add	r1, r2, #80	; 0x50
    2e58:	e20110ff 	and	r1, r1, #255	; 0xff
    2e5c:	e3510007 	cmp	r1, #7
    2e60:	9a000013 	bls	2eb4 <tty_execute_next_font_program_ins+0x94>
    2e64:	e2821048 	add	r1, r2, #72	; 0x48
    2e68:	e20110ff 	and	r1, r1, #255	; 0xff
    2e6c:	e3510007 	cmp	r1, #7
    2e70:	83a02001 	movhi	r2, #1
    2e74:	85c0201d 	strbhi	r2, [r0, #29]
    2e78:	9a000023 	bls	2f0c <tty_execute_next_font_program_ins+0xec>
    2e7c:	e8bd4070 	pop	{r4, r5, r6, lr}
    2e80:	e12fff1e 	bx	lr
    2e84:	e8bd4070 	pop	{r4, r5, r6, lr}
    2e88:	eafffe86 	b	28a8 <tty_FDEF>
    2e8c:	e1a01000 	mov	r1, r0
    2e90:	e28ee002 	add	lr, lr, #2
    2e94:	e580e014 	str	lr, [r0, #20]
    2e98:	e491000c 	ldr	r0, [r1], #12
    2e9c:	e7d4200c 	ldrb	r2, [r4, ip]
    2ea0:	e2800004 	add	r0, r0, #4
    2ea4:	e8bd4070 	pop	{r4, r5, r6, lr}
    2ea8:	eafffe28 	b	2750 <tty_interp_stack_push_words_from_stream>
    2eac:	e8bd4070 	pop	{r4, r5, r6, lr}
    2eb0:	eafffe9e 	b	2930 <tty_NPUSHB>
    2eb4:	e5905000 	ldr	r5, [r0]
    2eb8:	e1d500ba 	ldrh	r0, [r5, #10]
    2ebc:	e2021007 	and	r1, r2, #7
    2ec0:	e2802001 	add	r2, r0, #1
    2ec4:	e0811002 	add	r1, r1, r2
    2ec8:	e1a01801 	lsl	r1, r1, #16
    2ecc:	e5956004 	ldr	r6, [r5, #4]
    2ed0:	e1a01821 	lsr	r1, r1, #16
    2ed4:	ea000002 	b	2ee4 <tty_execute_next_font_program_ins+0xc4>
    2ed8:	e593c014 	ldr	ip, [r3, #20]
    2edc:	e1a00002 	mov	r0, r2
    2ee0:	e2822001 	add	r2, r2, #1
    2ee4:	e28ce001 	add	lr, ip, #1
    2ee8:	e583e014 	str	lr, [r3, #20]
    2eec:	e1a02802 	lsl	r2, r2, #16
    2ef0:	e7d4c00c 	ldrb	ip, [r4, ip]
    2ef4:	e1a02822 	lsr	r2, r2, #16
    2ef8:	e1520001 	cmp	r2, r1
    2efc:	e1c520ba 	strh	r2, [r5, #10]
    2f00:	e786c100 	str	ip, [r6, r0, lsl #2]
    2f04:	1afffff3 	bne	2ed8 <tty_execute_next_font_program_ins+0xb8>
    2f08:	eaffffdb 	b	2e7c <tty_execute_next_font_program_ins+0x5c>
    2f0c:	e1a01000 	mov	r1, r0
    2f10:	e491000c 	ldr	r0, [r1], #12
    2f14:	e2022007 	and	r2, r2, #7
    2f18:	e8bd4070 	pop	{r4, r5, r6, lr}
    2f1c:	e2822001 	add	r2, r2, #1
    2f20:	e2800004 	add	r0, r0, #4
    2f24:	eafffe09 	b	2750 <tty_interp_stack_push_words_from_stream>

00002f28 <tty_execute_glyph_program>:
    2f28:	e1a0c00d 	mov	ip, sp
    2f2c:	e92dd810 	push	{r4, fp, ip, lr, pc}
    2f30:	e24cb004 	sub	fp, ip, #4
    2f34:	e24dd024 	sub	sp, sp, #36	; 0x24
    2f38:	e50b1030 	str	r1, [fp, #-48]	; 0xffffffd0
    2f3c:	e1a01000 	mov	r1, r0
    2f40:	e59f0110 	ldr	r0, [pc, #272]	; 3058 <tty_execute_glyph_program+0x130>
    2f44:	e08f0000 	add	r0, pc, r0
    2f48:	e50b0028 	str	r0, [fp, #-40]	; 0xffffffd8
    2f4c:	e3a00101 	mov	r0, #1073741824	; 0x40000000
    2f50:	e3a0e009 	mov	lr, #9
    2f54:	e50b3024 	str	r3, [fp, #-36]	; 0xffffffdc
    2f58:	e3a03901 	mov	r3, #16384	; 0x4000
    2f5c:	e5810028 	str	r0, [r1, #40]	; 0x28
    2f60:	e2810074 	add	r0, r1, #116	; 0x74
    2f64:	e581e054 	str	lr, [r1, #84]	; 0x54
    2f68:	e581001c 	str	r0, [r1, #28]
    2f6c:	e3a0e003 	mov	lr, #3
    2f70:	e5810020 	str	r0, [r1, #32]
    2f74:	e5810024 	str	r0, [r1, #36]	; 0x24
    2f78:	e3a00040 	mov	r0, #64	; 0x40
    2f7c:	e581303c 	str	r3, [r1, #60]	; 0x3c
    2f80:	e5813044 	str	r3, [r1, #68]	; 0x44
    2f84:	e581304c 	str	r3, [r1, #76]	; 0x4c
    2f88:	e3a03001 	mov	r3, #1
    2f8c:	e50b202c 	str	r2, [fp, #-44]	; 0xffffffd4
    2f90:	e581e058 	str	lr, [r1, #88]	; 0x58
    2f94:	e3a02000 	mov	r2, #0
    2f98:	e581002c 	str	r0, [r1, #44]	; 0x2c
    2f9c:	e3a0e044 	mov	lr, #68	; 0x44
    2fa0:	e3a00c01 	mov	r0, #256	; 0x100
    2fa4:	e581305c 	str	r3, [r1, #92]	; 0x5c
    2fa8:	e59f30ac 	ldr	r3, [pc, #172]	; 305c <tty_execute_glyph_program+0x134>
    2fac:	e581306c 	str	r3, [r1, #108]	; 0x6c
    2fb0:	e59f30a8 	ldr	r3, [pc, #168]	; 3060 <tty_execute_glyph_program+0x138>
    2fb4:	e59bc004 	ldr	ip, [fp, #4]
    2fb8:	e08f3003 	add	r3, pc, r3
    2fbc:	e5813018 	str	r3, [r1, #24]
    2fc0:	e5812034 	str	r2, [r1, #52]	; 0x34
    2fc4:	e5812038 	str	r2, [r1, #56]	; 0x38
    2fc8:	e5812040 	str	r2, [r1, #64]	; 0x40
    2fcc:	e5812048 	str	r2, [r1, #72]	; 0x48
    2fd0:	e5812050 	str	r2, [r1, #80]	; 0x50
    2fd4:	e5812060 	str	r2, [r1, #96]	; 0x60
    2fd8:	e5812064 	str	r2, [r1, #100]	; 0x64
    2fdc:	e5812068 	str	r2, [r1, #104]	; 0x68
    2fe0:	e5c12072 	strb	r2, [r1, #114]	; 0x72
    2fe4:	e1c120ba 	strh	r2, [r1, #10]
    2fe8:	e50b1034 	str	r1, [fp, #-52]	; 0xffffffcc
    2fec:	e50b2020 	str	r2, [fp, #-32]	; 0xffffffe0
    2ff0:	e1a03002 	mov	r3, r2
    2ff4:	e581e030 	str	lr, [r1, #48]	; 0x30
    2ff8:	e24b4034 	sub	r4, fp, #52	; 0x34
    2ffc:	e1c107b0 	strh	r0, [r1, #112]	; 0x70
    3000:	e50bc01c 	str	ip, [fp, #-28]	; 0xffffffe4
    3004:	e14b21b8 	strh	r2, [fp, #-24]	; 0xffffffe8
    3008:	ea000008 	b	3030 <tty_execute_glyph_program+0x108>
    300c:	e51b3028 	ldr	r3, [fp, #-40]	; 0xffffffd8
    3010:	e1a00004 	mov	r0, r4
    3014:	e1a0e00f 	mov	lr, pc
    3018:	e12fff13 	bx	r3
    301c:	e55b3017 	ldrb	r3, [fp, #-23]	; 0xffffffe9
    3020:	e3530000 	cmp	r3, #0
    3024:	1a000007 	bne	3048 <tty_execute_glyph_program+0x120>
    3028:	e24b3020 	sub	r3, fp, #32
    302c:	e8931008 	ldm	r3, {r3, ip}
    3030:	e15c0003 	cmp	ip, r3
    3034:	8afffff4 	bhi	300c <tty_execute_glyph_program+0xe4>
    3038:	e3a00000 	mov	r0, #0
    303c:	e24bd010 	sub	sp, fp, #16
    3040:	e89d6810 	ldm	sp, {r4, fp, sp, lr}
    3044:	e12fff1e 	bx	lr
    3048:	e3a00006 	mov	r0, #6
    304c:	e24bd010 	sub	sp, fp, #16
    3050:	e89d6810 	ldm	sp, {r4, fp, sp, lr}
    3054:	e12fff1e 	bx	lr
    3058:	00002d70 	andeq	r2, r0, r0, ror sp
    305c:	01010101 	tsteq	r1, r1, lsl #2
    3060:	fffff8a4 			; <UNDEFINED> instruction: 0xfffff8a4

00003064 <tty_get_phantom_points_and_types.isra.0>:
    3064:	e92d47f0 	push	{r4, r5, r6, r7, r8, r9, sl, lr}
    3068:	e5d1c002 	ldrb	ip, [r1, #2]
    306c:	e5d11003 	ldrb	r1, [r1, #3]
    3070:	e590709c 	ldr	r7, [r0, #156]	; 0x9c
    3074:	e590e0e0 	ldr	lr, [r0, #224]	; 0xe0
    3078:	e18c1401 	orr	r1, ip, r1, lsl #8
    307c:	e1a0c421 	lsr	ip, r1, #8
    3080:	e087e00e 	add	lr, r7, lr
    3084:	e18cc401 	orr	ip, ip, r1, lsl #8
    3088:	e5de1022 	ldrb	r1, [lr, #34]	; 0x22
    308c:	e5dee023 	ldrb	lr, [lr, #35]	; 0x23
    3090:	e181140e 	orr	r1, r1, lr, lsl #8
    3094:	e1a0e421 	lsr	lr, r1, #8
    3098:	e18e1401 	orr	r1, lr, r1, lsl #8
    309c:	e1a01801 	lsl	r1, r1, #16
    30a0:	e1a01821 	lsr	r1, r1, #16
    30a4:	e1520001 	cmp	r2, r1
    30a8:	e59050ec 	ldr	r5, [r0, #236]	; 0xec
    30ac:	3087e102 	addcc	lr, r7, r2, lsl #2
    30b0:	308e4005 	addcc	r4, lr, r5
    30b4:	35d44001 	ldrbcc	r4, [r4, #1]
    30b8:	37dee005 	ldrbcc	lr, [lr, r5]
    30bc:	318ee404 	orrcc	lr, lr, r4, lsl #8
    30c0:	31a0442e 	lsrcc	r4, lr, #8
    30c4:	3184440e 	orrcc	r4, r4, lr, lsl #8
    30c8:	e5d08118 	ldrb	r8, [r0, #280]	; 0x118
    30cc:	31a04804 	lslcc	r4, r4, #16
    30d0:	23a04000 	movcs	r4, #0
    30d4:	e1a0c80c 	lsl	ip, ip, #16
    30d8:	31a04824 	lsrcc	r4, r4, #16
    30dc:	e3580000 	cmp	r8, #0
    30e0:	e59d6020 	ldr	r6, [sp, #32]
    30e4:	e1a0c84c 	asr	ip, ip, #16
    30e8:	1a000029 	bne	3194 <tty_get_phantom_points_and_types.isra.0+0x130>
    30ec:	e280ef52 	add	lr, r0, #328	; 0x148
    30f0:	e1de90f2 	ldrsh	r9, [lr, #2]
    30f4:	e280ef53 	add	lr, r0, #332	; 0x14c
    30f8:	e1dee0f0 	ldrsh	lr, [lr]
    30fc:	e1520001 	cmp	r2, r1
    3100:	e049e00e 	sub	lr, r9, lr
    3104:	e0875005 	add	r5, r7, r5
    3108:	3a000035 	bcc	31e4 <tty_get_phantom_points_and_types.isra.0+0x180>
    310c:	e0412002 	sub	r2, r1, r2
    3110:	e1a01101 	lsl	r1, r1, #2
    3114:	e0811082 	add	r1, r1, r2, lsl #1
    3118:	e0859001 	add	r9, r5, r1
    311c:	e7d52001 	ldrb	r2, [r5, r1]
    3120:	e5d91001 	ldrb	r1, [r9, #1]
    3124:	e1822401 	orr	r2, r2, r1, lsl #8
    3128:	e1a01422 	lsr	r1, r2, #8
    312c:	e1812402 	orr	r2, r1, r2, lsl #8
    3130:	e1a02802 	lsl	r2, r2, #16
    3134:	e3580000 	cmp	r8, #0
    3138:	e1a02842 	asr	r2, r2, #16
    313c:	1a000032 	bne	320c <tty_get_phantom_points_and_types.isra.0+0x1a8>
    3140:	e2800f52 	add	r0, r0, #328	; 0x148
    3144:	e1d010f2 	ldrsh	r1, [r0, #2]
    3148:	e3a00000 	mov	r0, #0
    314c:	e04cc002 	sub	ip, ip, r2
    3150:	e3a02001 	mov	r2, #1
    3154:	e08c4004 	add	r4, ip, r4
    3158:	e041e00e 	sub	lr, r1, lr
    315c:	e5834008 	str	r4, [r3, #8]
    3160:	e583e01c 	str	lr, [r3, #28]
    3164:	e583c000 	str	ip, [r3]
    3168:	e5831014 	str	r1, [r3, #20]
    316c:	e5830004 	str	r0, [r3, #4]
    3170:	e583000c 	str	r0, [r3, #12]
    3174:	e5830010 	str	r0, [r3, #16]
    3178:	e5830018 	str	r0, [r3, #24]
    317c:	e5c62000 	strb	r2, [r6]
    3180:	e5c62001 	strb	r2, [r6, #1]
    3184:	e5c62002 	strb	r2, [r6, #2]
    3188:	e5c62003 	strb	r2, [r6, #3]
    318c:	e8bd47f0 	pop	{r4, r5, r6, r7, r8, r9, sl, lr}
    3190:	e12fff1e 	bx	lr
    3194:	e5909110 	ldr	r9, [r0, #272]	; 0x110
    3198:	e0879009 	add	r9, r7, r9
    319c:	e5d9a045 	ldrb	sl, [r9, #69]	; 0x45
    31a0:	e5d9e044 	ldrb	lr, [r9, #68]	; 0x44
    31a4:	e18ee40a 	orr	lr, lr, sl, lsl #8
    31a8:	e5d9a046 	ldrb	sl, [r9, #70]	; 0x46
    31ac:	e5d99047 	ldrb	r9, [r9, #71]	; 0x47
    31b0:	e18aa409 	orr	sl, sl, r9, lsl #8
    31b4:	e1a0942e 	lsr	r9, lr, #8
    31b8:	e189e40e 	orr	lr, r9, lr, lsl #8
    31bc:	e1a0980e 	lsl	r9, lr, #16
    31c0:	e1a0e42a 	lsr	lr, sl, #8
    31c4:	e18ee40a 	orr	lr, lr, sl, lsl #8
    31c8:	e1a0e80e 	lsl	lr, lr, #16
    31cc:	e1a09849 	asr	r9, r9, #16
    31d0:	e1a0e84e 	asr	lr, lr, #16
    31d4:	e1520001 	cmp	r2, r1
    31d8:	e049e00e 	sub	lr, r9, lr
    31dc:	e0875005 	add	r5, r7, r5
    31e0:	2affffc9 	bcs	310c <tty_get_phantom_points_and_types.isra.0+0xa8>
    31e4:	e0852102 	add	r2, r5, r2, lsl #2
    31e8:	e5d29002 	ldrb	r9, [r2, #2]
    31ec:	e5d22003 	ldrb	r2, [r2, #3]
    31f0:	e1892402 	orr	r2, r9, r2, lsl #8
    31f4:	e1a01422 	lsr	r1, r2, #8
    31f8:	e1812402 	orr	r2, r1, r2, lsl #8
    31fc:	e1a02802 	lsl	r2, r2, #16
    3200:	e3580000 	cmp	r8, #0
    3204:	e1a02842 	asr	r2, r2, #16
    3208:	0affffcc 	beq	3140 <tty_get_phantom_points_and_types.isra.0+0xdc>
    320c:	e5901110 	ldr	r1, [r0, #272]	; 0x110
    3210:	e0877001 	add	r7, r7, r1
    3214:	e5d71044 	ldrb	r1, [r7, #68]	; 0x44
    3218:	e5d70045 	ldrb	r0, [r7, #69]	; 0x45
    321c:	e1810400 	orr	r0, r1, r0, lsl #8
    3220:	e1a01420 	lsr	r1, r0, #8
    3224:	e1811400 	orr	r1, r1, r0, lsl #8
    3228:	e1a01801 	lsl	r1, r1, #16
    322c:	e1a01841 	asr	r1, r1, #16
    3230:	eaffffc4 	b	3148 <tty_get_phantom_points_and_types.isra.0+0xe4>

00003234 <tty_add_simple_glyph_points_to_zone1>:
    3234:	e1a0c00d 	mov	ip, sp
    3238:	e92ddff0 	push	{r4, r5, r6, r7, r8, r9, sl, fp, ip, lr, pc}
    323c:	e24cb004 	sub	fp, ip, #4
    3240:	e24dd024 	sub	sp, sp, #36	; 0x24
    3244:	e1a03002 	mov	r3, r2
    3248:	e1a04000 	mov	r4, r0
    324c:	e3a0c000 	mov	ip, #0
    3250:	e593e000 	ldr	lr, [r3]
    3254:	e1d332f0 	ldrsh	r3, [r3, #32]
    3258:	e08e5083 	add	r5, lr, r3, lsl #1
    325c:	e50b103c 	str	r1, [fp, #-60]	; 0xffffffc4
    3260:	e5d51008 	ldrb	r1, [r5, #8]
    3264:	e5d55009 	ldrb	r5, [r5, #9]
    3268:	e1815405 	orr	r5, r1, r5, lsl #8
    326c:	e1a01425 	lsr	r1, r5, #8
    3270:	e1811405 	orr	r1, r1, r5, lsl #8
    3274:	e1a01801 	lsl	r1, r1, #16
    3278:	e1a01821 	lsr	r1, r1, #16
    327c:	e1a03803 	lsl	r3, r3, #16
    3280:	e1a03823 	lsr	r3, r3, #16
    3284:	e2815001 	add	r5, r1, #1
    3288:	e2811005 	add	r1, r1, #5
    328c:	e1c439b8 	strh	r3, [r4, #152]	; 0x98
    3290:	e584108c 	str	r1, [r4, #140]	; 0x8c
    3294:	e5845090 	str	r5, [r4, #144]	; 0x90
    3298:	e2833005 	add	r3, r3, #5
    329c:	e08e1083 	add	r1, lr, r3, lsl #1
    32a0:	e7de3083 	ldrb	r3, [lr, r3, lsl #1]
    32a4:	e5d1e001 	ldrb	lr, [r1, #1]
    32a8:	e183e40e 	orr	lr, r3, lr, lsl #8
    32ac:	e1a0342e 	lsr	r3, lr, #8
    32b0:	e183340e 	orr	r3, r3, lr, lsl #8
    32b4:	e1a03803 	lsl	r3, r3, #16
    32b8:	e1a03823 	lsr	r3, r3, #16
    32bc:	e2833002 	add	r3, r3, #2
    32c0:	e081e003 	add	lr, r1, r3
    32c4:	e50b2040 	str	r2, [fp, #-64]	; 0xffffffc0
    32c8:	e1a0000c 	mov	r0, ip
    32cc:	e1a0200c 	mov	r2, ip
    32d0:	e50be038 	str	lr, [fp, #-56]	; 0xffffffc8
    32d4:	ea000009 	b	3300 <tty_add_simple_glyph_points_to_zone1+0xcc>
    32d8:	e5d66001 	ldrb	r6, [r6, #1]
    32dc:	e2863001 	add	r3, r6, #1
    32e0:	e20330ff 	and	r3, r3, #255	; 0xff
    32e4:	e3530000 	cmp	r3, #0
    32e8:	e08cc003 	add	ip, ip, r3
    32ec:	e2822002 	add	r2, r2, #2
    32f0:	10800001 	addne	r0, r0, r1
    32f4:	10200691 	mlane	r0, r1, r6, r0
    32f8:	e155000c 	cmp	r5, ip
    32fc:	9a00000d 	bls	3338 <tty_add_simple_glyph_points_to_zone1+0x104>
    3300:	e7de3002 	ldrb	r3, [lr, r2]
    3304:	e2131002 	ands	r1, r3, #2
    3308:	13a01001 	movne	r1, #1
    330c:	1a000001 	bne	3318 <tty_add_simple_glyph_points_to_zone1+0xe4>
    3310:	e3130010 	tst	r3, #16
    3314:	03a01002 	moveq	r1, #2
    3318:	e3130008 	tst	r3, #8
    331c:	e08e6002 	add	r6, lr, r2
    3320:	1affffec 	bne	32d8 <tty_add_simple_glyph_points_to_zone1+0xa4>
    3324:	e28cc001 	add	ip, ip, #1
    3328:	e155000c 	cmp	r5, ip
    332c:	e2822001 	add	r2, r2, #1
    3330:	e0800001 	add	r0, r0, r1
    3334:	8afffff1 	bhi	3300 <tty_add_simple_glyph_points_to_zone1+0xcc>
    3338:	e3a01000 	mov	r1, #0
    333c:	e51b3038 	ldr	r3, [fp, #-56]	; 0xffffffc8
    3340:	e1a0c001 	mov	ip, r1
    3344:	e0838002 	add	r8, r3, r2
    3348:	e1a02001 	mov	r2, r1
    334c:	e0887000 	add	r7, r8, r0
    3350:	e51b0038 	ldr	r0, [fp, #-56]	; 0xffffffc8
    3354:	e5d0e000 	ldrb	lr, [r0]
    3358:	e31e0008 	tst	lr, #8
    335c:	0a000094 	beq	35b4 <tty_add_simple_glyph_points_to_zone1+0x380>
    3360:	e5d03001 	ldrb	r3, [r0, #1]
    3364:	e2833001 	add	r3, r3, #1
    3368:	e2800002 	add	r0, r0, #2
    336c:	e21330ff 	ands	r3, r3, #255	; 0xff
    3370:	e50b0038 	str	r0, [fp, #-56]	; 0xffffffc8
    3374:	0a000040 	beq	347c <tty_add_simple_glyph_points_to_zone1+0x248>
    3378:	e1e0500e 	mvn	r5, lr
    337c:	e2433001 	sub	r3, r3, #1
    3380:	e20300ff 	and	r0, r3, #255	; 0xff
    3384:	e20e3004 	and	r3, lr, #4
    3388:	e50b3034 	str	r3, [fp, #-52]	; 0xffffffcc
    338c:	e2823001 	add	r3, r2, #1
    3390:	e0830000 	add	r0, r3, r0
    3394:	e20e9002 	and	r9, lr, #2
    3398:	e20e6010 	and	r6, lr, #16
    339c:	e50b0030 	str	r0, [fp, #-48]	; 0xffffffd0
    33a0:	e20ee020 	and	lr, lr, #32
    33a4:	e2055001 	and	r5, r5, #1
    33a8:	ea000017 	b	340c <tty_add_simple_glyph_points_to_zone1+0x1d8>
    33ac:	e5d80000 	ldrb	r0, [r8]
    33b0:	e3560000 	cmp	r6, #0
    33b4:	02600000 	rsbeq	r0, r0, #0
    33b8:	e0811000 	add	r1, r1, r0
    33bc:	e2888001 	add	r8, r8, #1
    33c0:	e51b0034 	ldr	r0, [fp, #-52]	; 0xffffffcc
    33c4:	e3500000 	cmp	r0, #0
    33c8:	0a00001f 	beq	344c <tty_add_simple_glyph_points_to_zone1+0x218>
    33cc:	e5d70000 	ldrb	r0, [r7]
    33d0:	e35e0000 	cmp	lr, #0
    33d4:	02600000 	rsbeq	r0, r0, #0
    33d8:	e08cc000 	add	ip, ip, r0
    33dc:	e2877001 	add	r7, r7, #1
    33e0:	e51b0030 	ldr	r0, [fp, #-48]	; 0xffffffd0
    33e4:	e1530000 	cmp	r3, r0
    33e8:	e5940080 	ldr	r0, [r4, #128]	; 0x80
    33ec:	e7c05002 	strb	r5, [r0, r2]
    33f0:	e5940074 	ldr	r0, [r4, #116]	; 0x74
    33f4:	e7801182 	str	r1, [r0, r2, lsl #3]
    33f8:	e0802182 	add	r2, r0, r2, lsl #3
    33fc:	e582c004 	str	ip, [r2, #4]
    3400:	e1a02003 	mov	r2, r3
    3404:	0a00001c 	beq	347c <tty_add_simple_glyph_points_to_zone1+0x248>
    3408:	e2833001 	add	r3, r3, #1
    340c:	e3590000 	cmp	r9, #0
    3410:	1affffe5 	bne	33ac <tty_add_simple_glyph_points_to_zone1+0x178>
    3414:	e3560000 	cmp	r6, #0
    3418:	1affffe8 	bne	33c0 <tty_add_simple_glyph_points_to_zone1+0x18c>
    341c:	e5d80001 	ldrb	r0, [r8, #1]
    3420:	e5d8a000 	ldrb	sl, [r8]
    3424:	e18aa400 	orr	sl, sl, r0, lsl #8
    3428:	e1a0042a 	lsr	r0, sl, #8
    342c:	e180040a 	orr	r0, r0, sl, lsl #8
    3430:	e1a00800 	lsl	r0, r0, #16
    3434:	e1a00840 	asr	r0, r0, #16
    3438:	e0811000 	add	r1, r1, r0
    343c:	e51b0034 	ldr	r0, [fp, #-52]	; 0xffffffcc
    3440:	e3500000 	cmp	r0, #0
    3444:	e2888002 	add	r8, r8, #2
    3448:	1affffdf 	bne	33cc <tty_add_simple_glyph_points_to_zone1+0x198>
    344c:	e35e0000 	cmp	lr, #0
    3450:	1affffe2 	bne	33e0 <tty_add_simple_glyph_points_to_zone1+0x1ac>
    3454:	e5d70001 	ldrb	r0, [r7, #1]
    3458:	e5d7a000 	ldrb	sl, [r7]
    345c:	e18aa400 	orr	sl, sl, r0, lsl #8
    3460:	e1a0042a 	lsr	r0, sl, #8
    3464:	e180040a 	orr	r0, r0, sl, lsl #8
    3468:	e1a00800 	lsl	r0, r0, #16
    346c:	e1a00840 	asr	r0, r0, #16
    3470:	e2877002 	add	r7, r7, #2
    3474:	e08cc000 	add	ip, ip, r0
    3478:	eaffffd8 	b	33e0 <tty_add_simple_glyph_points_to_zone1+0x1ac>
    347c:	e5943090 	ldr	r3, [r4, #144]	; 0x90
    3480:	e1530002 	cmp	r3, r2
    3484:	8affffb1 	bhi	3350 <tty_add_simple_glyph_points_to_zone1+0x11c>
    3488:	e5942080 	ldr	r2, [r4, #128]	; 0x80
    348c:	e0822003 	add	r2, r2, r3
    3490:	e5941074 	ldr	r1, [r4, #116]	; 0x74
    3494:	e51bc040 	ldr	ip, [fp, #-64]	; 0xffffffc0
    3498:	e58d2000 	str	r2, [sp]
    349c:	e0813183 	add	r3, r1, r3, lsl #3
    34a0:	e59c2004 	ldr	r2, [ip, #4]
    34a4:	e59c1000 	ldr	r1, [ip]
    34a8:	e1a00004 	mov	r0, r4
    34ac:	ebfffeec 	bl	3064 <tty_get_phantom_points_and_types.isra.0>
    34b0:	e594208c 	ldr	r2, [r4, #140]	; 0x8c
    34b4:	e51b303c 	ldr	r3, [fp, #-60]	; 0xffffffc4
    34b8:	e3520000 	cmp	r2, #0
    34bc:	e5947074 	ldr	r7, [r4, #116]	; 0x74
    34c0:	e593e058 	ldr	lr, [r3, #88]	; 0x58
    34c4:	e5941078 	ldr	r1, [r4, #120]	; 0x78
    34c8:	0a000017 	beq	352c <tty_add_simple_glyph_points_to_zone1+0x2f8>
    34cc:	e3a03000 	mov	r3, #0
    34d0:	e3a05602 	mov	r5, #2097152	; 0x200000
    34d4:	e1a06003 	mov	r6, r3
    34d8:	e2819004 	add	r9, r1, #4
    34dc:	e2878004 	add	r8, r7, #4
    34e0:	e1a00005 	mov	r0, r5
    34e4:	e1a0c006 	mov	ip, r6
    34e8:	e797a183 	ldr	sl, [r7, r3, lsl #3]
    34ec:	e1a0a30a 	lsl	sl, sl, #6
    34f0:	e0ec0e9a 	smlal	r0, ip, sl, lr
    34f4:	e1a00b20 	lsr	r0, r0, #22
    34f8:	e180050c 	orr	r0, r0, ip, lsl #10
    34fc:	e7810183 	str	r0, [r1, r3, lsl #3]
    3500:	e1a0c006 	mov	ip, r6
    3504:	e1a00005 	mov	r0, r5
    3508:	e798a183 	ldr	sl, [r8, r3, lsl #3]
    350c:	e1a0a30a 	lsl	sl, sl, #6
    3510:	e0ec0e9a 	smlal	r0, ip, sl, lr
    3514:	e1a00b20 	lsr	r0, r0, #22
    3518:	e180050c 	orr	r0, r0, ip, lsl #10
    351c:	e7890183 	str	r0, [r9, r3, lsl #3]
    3520:	e2833001 	add	r3, r3, #1
    3524:	e1520003 	cmp	r2, r3
    3528:	1affffec 	bne	34e0 <tty_add_simple_glyph_points_to_zone1+0x2ac>
    352c:	e1a02182 	lsl	r2, r2, #3
    3530:	e594007c 	ldr	r0, [r4, #124]	; 0x7c
    3534:	eb004943 	bl	15a48 <memcpy>
    3538:	e594307c 	ldr	r3, [r4, #124]	; 0x7c
    353c:	e5940090 	ldr	r0, [r4, #144]	; 0x90
    3540:	e0830180 	add	r0, r3, r0, lsl #3
    3544:	ebfffd17 	bl	29a8 <tty_round_phantom_points>
    3548:	e1d439b8 	ldrh	r3, [r4, #152]	; 0x98
    354c:	e3530000 	cmp	r3, #0
    3550:	0a000010 	beq	3598 <tty_add_simple_glyph_points_to_zone1+0x364>
    3554:	e3a00000 	mov	r0, #0
    3558:	e51b3040 	ldr	r3, [fp, #-64]	; 0xffffffc0
    355c:	e594c088 	ldr	ip, [r4, #136]	; 0x88
    3560:	e5932000 	ldr	r2, [r3]
    3564:	e24cc002 	sub	ip, ip, #2
    3568:	e282200a 	add	r2, r2, #10
    356c:	e5d21001 	ldrb	r1, [r2, #1]
    3570:	e5d23000 	ldrb	r3, [r2]
    3574:	e1833401 	orr	r3, r3, r1, lsl #8
    3578:	e1a01423 	lsr	r1, r3, #8
    357c:	e1813403 	orr	r3, r1, r3, lsl #8
    3580:	e1ec30b2 	strh	r3, [ip, #2]!
    3584:	e1d439b8 	ldrh	r3, [r4, #152]	; 0x98
    3588:	e2800001 	add	r0, r0, #1
    358c:	e1530000 	cmp	r3, r0
    3590:	e2822002 	add	r2, r2, #2
    3594:	8afffff4 	bhi	356c <tty_add_simple_glyph_points_to_zone1+0x338>
    3598:	e51b303c 	ldr	r3, [fp, #-60]	; 0xffffffc4
    359c:	e5d3005c 	ldrb	r0, [r3, #92]	; 0x5c
    35a0:	e3500000 	cmp	r0, #0
    35a4:	1a000007 	bne	35c8 <tty_add_simple_glyph_points_to_zone1+0x394>
    35a8:	e24bd028 	sub	sp, fp, #40	; 0x28
    35ac:	e89d6ff0 	ldm	sp, {r4, r5, r6, r7, r8, r9, sl, fp, sp, lr}
    35b0:	e12fff1e 	bx	lr
    35b4:	e3a03001 	mov	r3, #1
    35b8:	e51b0038 	ldr	r0, [fp, #-56]	; 0xffffffc8
    35bc:	e0800003 	add	r0, r0, r3
    35c0:	e50b0038 	str	r0, [fp, #-56]	; 0xffffffc8
    35c4:	eaffff6b 	b	3378 <tty_add_simple_glyph_points_to_zone1+0x144>
    35c8:	e51b1040 	ldr	r1, [fp, #-64]	; 0xffffffc0
    35cc:	e1d122f0 	ldrsh	r2, [r1, #32]
    35d0:	e5913000 	ldr	r3, [r1]
    35d4:	e2822005 	add	r2, r2, #5
    35d8:	e1a05082 	lsl	r5, r2, #1
    35dc:	e083e005 	add	lr, r3, r5
    35e0:	e7d3c082 	ldrb	ip, [r3, r2, lsl #1]
    35e4:	e5dee001 	ldrb	lr, [lr, #1]
    35e8:	e18ce40e 	orr	lr, ip, lr, lsl #8
    35ec:	e1a0c42e 	lsr	ip, lr, #8
    35f0:	e18cc40e 	orr	ip, ip, lr, lsl #8
    35f4:	e1a0c80c 	lsl	ip, ip, #16
    35f8:	e1a0c82c 	lsr	ip, ip, #16
    35fc:	e2855002 	add	r5, r5, #2
    3600:	e1a02001 	mov	r2, r1
    3604:	e1a00004 	mov	r0, r4
    3608:	e51b103c 	ldr	r1, [fp, #-60]	; 0xffffffc4
    360c:	e58dc000 	str	ip, [sp]
    3610:	e0833005 	add	r3, r3, r5
    3614:	ebfffe43 	bl	2f28 <tty_execute_glyph_program>
    3618:	e24bd028 	sub	sp, fp, #40	; 0x28
    361c:	e89d6ff0 	ldm	sp, {r4, r5, r6, r7, r8, r9, sl, fp, sp, lr}
    3620:	e12fff1e 	bx	lr

00003624 <tty_try_execute_shared_ins>:
    3624:	e1a0c00d 	mov	ip, sp
    3628:	e241300c 	sub	r3, r1, #12
    362c:	e92dd8f0 	push	{r4, r5, r6, r7, fp, ip, lr, pc}
    3630:	e1a04000 	mov	r4, r0
    3634:	e24cb004 	sub	fp, ip, #4
    3638:	e3530081 	cmp	r3, #129	; 0x81
    363c:	908ff103 	addls	pc, pc, r3, lsl #2
    3640:	ea000081 	b	384c <tty_try_execute_shared_ins+0x228>
    3644:	ea0003b5 	b	4520 <tty_try_execute_shared_ins+0xefc>
    3648:	ea00007f 	b	384c <tty_try_execute_shared_ins+0x228>
    364c:	ea0003a3 	b	44e0 <tty_try_execute_shared_ins+0xebc>
    3650:	ea00007d 	b	384c <tty_try_execute_shared_ins+0x228>
    3654:	ea00007c 	b	384c <tty_try_execute_shared_ins+0x228>
    3658:	ea00007b 	b	384c <tty_try_execute_shared_ins+0x228>
    365c:	ea00007a 	b	384c <tty_try_execute_shared_ins+0x228>
    3660:	ea000079 	b	384c <tty_try_execute_shared_ins+0x228>
    3664:	ea000078 	b	384c <tty_try_execute_shared_ins+0x228>
    3668:	ea000077 	b	384c <tty_try_execute_shared_ins+0x228>
    366c:	ea000076 	b	384c <tty_try_execute_shared_ins+0x228>
    3670:	ea00038f 	b	44b4 <tty_try_execute_shared_ins+0xe90>
    3674:	ea000389 	b	44a0 <tty_try_execute_shared_ins+0xe7c>
    3678:	ea000383 	b	448c <tty_try_execute_shared_ins+0xe68>
    367c:	ea000072 	b	384c <tty_try_execute_shared_ins+0x228>
    3680:	ea000071 	b	384c <tty_try_execute_shared_ins+0x228>
    3684:	ea000372 	b	4454 <tty_try_execute_shared_ins+0xe30>
    3688:	ea000366 	b	4428 <tty_try_execute_shared_ins+0xe04>
    368c:	ea00006e 	b	384c <tty_try_execute_shared_ins+0x228>
    3690:	ea00006d 	b	384c <tty_try_execute_shared_ins+0x228>
    3694:	ea000357 	b	43f8 <tty_try_execute_shared_ins+0xdd4>
    3698:	ea000350 	b	43e0 <tty_try_execute_shared_ins+0xdbc>
    369c:	ea00006a 	b	384c <tty_try_execute_shared_ins+0x228>
    36a0:	ea00033e 	b	43a0 <tty_try_execute_shared_ins+0xd7c>
    36a4:	ea000335 	b	4380 <tty_try_execute_shared_ins+0xd5c>
    36a8:	ea000328 	b	4350 <tty_try_execute_shared_ins+0xd2c>
    36ac:	ea000314 	b	4304 <tty_try_execute_shared_ins+0xce0>
    36b0:	ea000065 	b	384c <tty_try_execute_shared_ins+0x228>
    36b4:	ea000064 	b	384c <tty_try_execute_shared_ins+0x228>
    36b8:	ea000063 	b	384c <tty_try_execute_shared_ins+0x228>
    36bc:	ea000301 	b	42c8 <tty_try_execute_shared_ins+0xca4>
    36c0:	ea0002f4 	b	4298 <tty_try_execute_shared_ins+0xc74>
    36c4:	ea000060 	b	384c <tty_try_execute_shared_ins+0x228>
    36c8:	ea00005f 	b	384c <tty_try_execute_shared_ins+0x228>
    36cc:	ea00005e 	b	384c <tty_try_execute_shared_ins+0x228>
    36d0:	ea00005d 	b	384c <tty_try_execute_shared_ins+0x228>
    36d4:	ea00005c 	b	384c <tty_try_execute_shared_ins+0x228>
    36d8:	ea00005b 	b	384c <tty_try_execute_shared_ins+0x228>
    36dc:	ea00005a 	b	384c <tty_try_execute_shared_ins+0x228>
    36e0:	ea000059 	b	384c <tty_try_execute_shared_ins+0x228>
    36e4:	ea000058 	b	384c <tty_try_execute_shared_ins+0x228>
    36e8:	ea000057 	b	384c <tty_try_execute_shared_ins+0x228>
    36ec:	ea000056 	b	384c <tty_try_execute_shared_ins+0x228>
    36f0:	ea000055 	b	384c <tty_try_execute_shared_ins+0x228>
    36f4:	ea000054 	b	384c <tty_try_execute_shared_ins+0x228>
    36f8:	ea000053 	b	384c <tty_try_execute_shared_ins+0x228>
    36fc:	ea000052 	b	384c <tty_try_execute_shared_ins+0x228>
    3700:	ea000051 	b	384c <tty_try_execute_shared_ins+0x228>
    3704:	ea000050 	b	384c <tty_try_execute_shared_ins+0x228>
    3708:	ea0002dd 	b	4284 <tty_try_execute_shared_ins+0xc60>
    370c:	ea00004e 	b	384c <tty_try_execute_shared_ins+0x228>
    3710:	ea00004d 	b	384c <tty_try_execute_shared_ins+0x228>
    3714:	ea0002d7 	b	4278 <tty_try_execute_shared_ins+0xc54>
    3718:	ea0002cb 	b	424c <tty_try_execute_shared_ins+0xc28>
    371c:	ea0002ba 	b	420c <tty_try_execute_shared_ins+0xbe8>
    3720:	ea0002ac 	b	41d8 <tty_try_execute_shared_ins+0xbb4>
    3724:	ea00029b 	b	4198 <tty_try_execute_shared_ins+0xb74>
    3728:	ea00028d 	b	4164 <tty_try_execute_shared_ins+0xb40>
    372c:	ea000046 	b	384c <tty_try_execute_shared_ins+0x228>
    3730:	ea000045 	b	384c <tty_try_execute_shared_ins+0x228>
    3734:	ea000044 	b	384c <tty_try_execute_shared_ins+0x228>
    3738:	ea000043 	b	384c <tty_try_execute_shared_ins+0x228>
    373c:	ea000042 	b	384c <tty_try_execute_shared_ins+0x228>
    3740:	ea00027d 	b	413c <tty_try_execute_shared_ins+0xb18>
    3744:	ea000040 	b	384c <tty_try_execute_shared_ins+0x228>
    3748:	ea00003f 	b	384c <tty_try_execute_shared_ins+0x228>
    374c:	ea00003e 	b	384c <tty_try_execute_shared_ins+0x228>
    3750:	ea00003d 	b	384c <tty_try_execute_shared_ins+0x228>
    3754:	ea000266 	b	40f4 <tty_try_execute_shared_ins+0xad0>
    3758:	ea000253 	b	40ac <tty_try_execute_shared_ins+0xa88>
    375c:	ea000240 	b	4064 <tty_try_execute_shared_ins+0xa40>
    3760:	ea00022d 	b	401c <tty_try_execute_shared_ins+0x9f8>
    3764:	ea00021a 	b	3fd4 <tty_try_execute_shared_ins+0x9b0>
    3768:	ea000208 	b	3f90 <tty_try_execute_shared_ins+0x96c>
    376c:	ea000036 	b	384c <tty_try_execute_shared_ins+0x228>
    3770:	ea000035 	b	384c <tty_try_execute_shared_ins+0x228>
    3774:	ea0001e7 	b	3f18 <tty_try_execute_shared_ins+0x8f4>
    3778:	ea000033 	b	384c <tty_try_execute_shared_ins+0x228>
    377c:	ea0001d2 	b	3ecc <tty_try_execute_shared_ins+0x8a8>
    3780:	ea0001bf 	b	3e84 <tty_try_execute_shared_ins+0x860>
    3784:	ea0001b2 	b	3e54 <tty_try_execute_shared_ins+0x830>
    3788:	ea00002f 	b	384c <tty_try_execute_shared_ins+0x228>
    378c:	ea0001a5 	b	3e28 <tty_try_execute_shared_ins+0x804>
    3790:	ea000199 	b	3dfc <tty_try_execute_shared_ins+0x7d8>
    3794:	ea000188 	b	3dbc <tty_try_execute_shared_ins+0x798>
    3798:	ea000177 	b	3d7c <tty_try_execute_shared_ins+0x758>
    379c:	ea00015c 	b	3d14 <tty_try_execute_shared_ins+0x6f0>
    37a0:	ea000147 	b	3cc4 <tty_try_execute_shared_ins+0x6a0>
    37a4:	ea00013a 	b	3c94 <tty_try_execute_shared_ins+0x670>
    37a8:	ea00012e 	b	3c68 <tty_try_execute_shared_ins+0x644>
    37ac:	ea000122 	b	3c3c <tty_try_execute_shared_ins+0x618>
    37b0:	ea000025 	b	384c <tty_try_execute_shared_ins+0x228>
    37b4:	ea000024 	b	384c <tty_try_execute_shared_ins+0x228>
    37b8:	ea000023 	b	384c <tty_try_execute_shared_ins+0x228>
    37bc:	ea000022 	b	384c <tty_try_execute_shared_ins+0x228>
    37c0:	ea000021 	b	384c <tty_try_execute_shared_ins+0x228>
    37c4:	ea000020 	b	384c <tty_try_execute_shared_ins+0x228>
    37c8:	ea00001f 	b	384c <tty_try_execute_shared_ins+0x228>
    37cc:	ea00001e 	b	384c <tty_try_execute_shared_ins+0x228>
    37d0:	ea00001d 	b	384c <tty_try_execute_shared_ins+0x228>
    37d4:	ea0000ff 	b	3bd8 <tty_try_execute_shared_ins+0x5b4>
    37d8:	ea00001b 	b	384c <tty_try_execute_shared_ins+0x228>
    37dc:	ea00001a 	b	384c <tty_try_execute_shared_ins+0x228>
    37e0:	ea0000f8 	b	3bc8 <tty_try_execute_shared_ins+0x5a4>
    37e4:	ea0000f3 	b	3bb8 <tty_try_execute_shared_ins+0x594>
    37e8:	ea0000ee 	b	3ba8 <tty_try_execute_shared_ins+0x584>
    37ec:	ea000016 	b	384c <tty_try_execute_shared_ins+0x228>
    37f0:	ea000015 	b	384c <tty_try_execute_shared_ins+0x228>
    37f4:	ea0000d7 	b	3b58 <tty_try_execute_shared_ins+0x534>
    37f8:	ea000013 	b	384c <tty_try_execute_shared_ins+0x228>
    37fc:	ea0000d0 	b	3b44 <tty_try_execute_shared_ins+0x520>
    3800:	ea000011 	b	384c <tty_try_execute_shared_ins+0x228>
    3804:	ea0000a5 	b	3aa0 <tty_try_execute_shared_ins+0x47c>
    3808:	ea00009f 	b	3a8c <tty_try_execute_shared_ins+0x468>
    380c:	ea00000e 	b	384c <tty_try_execute_shared_ins+0x228>
    3810:	ea00000d 	b	384c <tty_try_execute_shared_ins+0x228>
    3814:	ea00000c 	b	384c <tty_try_execute_shared_ins+0x228>
    3818:	ea00000b 	b	384c <tty_try_execute_shared_ins+0x228>
    381c:	ea00000a 	b	384c <tty_try_execute_shared_ins+0x228>
    3820:	ea000009 	b	384c <tty_try_execute_shared_ins+0x228>
    3824:	ea000008 	b	384c <tty_try_execute_shared_ins+0x228>
    3828:	ea00005a 	b	3998 <tty_try_execute_shared_ins+0x374>
    382c:	ea000006 	b	384c <tty_try_execute_shared_ins+0x228>
    3830:	ea000005 	b	384c <tty_try_execute_shared_ins+0x228>
    3834:	ea000037 	b	3918 <tty_try_execute_shared_ins+0x2f4>
    3838:	ea000003 	b	384c <tty_try_execute_shared_ins+0x228>
    383c:	ea0000ab 	b	3af0 <tty_try_execute_shared_ins+0x4cc>
    3840:	ea00009b 	b	3ab4 <tty_try_execute_shared_ins+0x490>
    3844:	ea000022 	b	38d4 <tty_try_execute_shared_ins+0x2b0>
    3848:	ea000016 	b	38a8 <tty_try_execute_shared_ins+0x284>
    384c:	e2813050 	add	r3, r1, #80	; 0x50
    3850:	e20330ff 	and	r3, r3, #255	; 0xff
    3854:	e3530007 	cmp	r3, #7
    3858:	9a000356 	bls	45b8 <tty_try_execute_shared_ins+0xf94>
    385c:	e2813048 	add	r3, r1, #72	; 0x48
    3860:	e20330ff 	and	r3, r3, #255	; 0xff
    3864:	e3530007 	cmp	r3, #7
    3868:	9a00036c 	bls	4620 <tty_try_execute_shared_ins+0xffc>
    386c:	e2413068 	sub	r3, r1, #104	; 0x68
    3870:	e3530003 	cmp	r3, #3
    3874:	9a00037d 	bls	4670 <tty_try_execute_shared_ins+0x104c>
    3878:	e2413004 	sub	r3, r1, #4
    387c:	e3530001 	cmp	r3, #1
    3880:	9a000389 	bls	46ac <tty_try_execute_shared_ins+0x1088>
    3884:	e2413002 	sub	r3, r1, #2
    3888:	e3530001 	cmp	r3, #1
    388c:	9a0003b4 	bls	4764 <tty_try_execute_shared_ins+0x1140>
    3890:	e3510001 	cmp	r1, #1
    3894:	83a00000 	movhi	r0, #0
    3898:	9a00039c 	bls	4710 <tty_try_execute_shared_ins+0x10ec>
    389c:	e24bd01c 	sub	sp, fp, #28
    38a0:	e89d68f0 	ldm	sp, {r4, r5, r6, r7, fp, sp, lr}
    38a4:	e12fff1e 	bx	lr
    38a8:	e5902000 	ldr	r2, [r0]
    38ac:	e1d230ba 	ldrh	r3, [r2, #10]
    38b0:	e2433001 	sub	r3, r3, #1
    38b4:	e5921004 	ldr	r1, [r2, #4]
    38b8:	e1a03803 	lsl	r3, r3, #16
    38bc:	e1a03823 	lsr	r3, r3, #16
    38c0:	e7911103 	ldr	r1, [r1, r3, lsl #2]
    38c4:	e3a00001 	mov	r0, #1
    38c8:	e1c230ba 	strh	r3, [r2, #10]
    38cc:	e5c21070 	strb	r1, [r2, #112]	; 0x70
    38d0:	eafffff1 	b	389c <tty_try_execute_shared_ins+0x278>
    38d4:	e5900000 	ldr	r0, [r0]
    38d8:	e1d030ba 	ldrh	r3, [r0, #10]
    38dc:	e2432001 	sub	r2, r3, #1
    38e0:	e2433002 	sub	r3, r3, #2
    38e4:	e590c004 	ldr	ip, [r0, #4]
    38e8:	e1a02802 	lsl	r2, r2, #16
    38ec:	e1a03803 	lsl	r3, r3, #16
    38f0:	e1a02822 	lsr	r2, r2, #16
    38f4:	e1a03823 	lsr	r3, r3, #16
    38f8:	e79c1102 	ldr	r1, [ip, r2, lsl #2]
    38fc:	e79ce103 	ldr	lr, [ip, r3, lsl #2]
    3900:	e151000e 	cmp	r1, lr
    3904:	a1a0100e 	movge	r1, lr
    3908:	e1c020ba 	strh	r2, [r0, #10]
    390c:	e3a00001 	mov	r0, #1
    3910:	e78c1103 	str	r1, [ip, r3, lsl #2]
    3914:	eaffffe0 	b	389c <tty_try_execute_shared_ins+0x278>
    3918:	e5902000 	ldr	r2, [r0]
    391c:	e1d230ba 	ldrh	r3, [r2, #10]
    3920:	e2433001 	sub	r3, r3, #1
    3924:	e592c004 	ldr	ip, [r2, #4]
    3928:	e1a03803 	lsl	r3, r3, #16
    392c:	e1a03823 	lsr	r3, r3, #16
    3930:	e79c2103 	ldr	r2, [ip, r3, lsl #2]
    3934:	e2121001 	ands	r1, r2, #1
    3938:	13a01028 	movne	r1, #40	; 0x28
    393c:	e3120002 	tst	r2, #2
    3940:	0a000003 	beq	3954 <tty_try_execute_shared_ins+0x330>
    3944:	e5900004 	ldr	r0, [r0, #4]
    3948:	e5d0005e 	ldrb	r0, [r0, #94]	; 0x5e
    394c:	e3500000 	cmp	r0, #0
    3950:	13811c01 	orrne	r1, r1, #256	; 0x100
    3954:	e3120004 	tst	r2, #4
    3958:	0a000003 	beq	396c <tty_try_execute_shared_ins+0x348>
    395c:	e5940004 	ldr	r0, [r4, #4]
    3960:	e5d0005f 	ldrb	r0, [r0, #95]	; 0x5f
    3964:	e3500000 	cmp	r0, #0
    3968:	13811c02 	orrne	r1, r1, #512	; 0x200
    396c:	e3120020 	tst	r2, #32
    3970:	0a000003 	beq	3984 <tty_try_execute_shared_ins+0x360>
    3974:	e5940004 	ldr	r0, [r4, #4]
    3978:	e5d0005d 	ldrb	r0, [r0, #93]	; 0x5d
    397c:	e3500000 	cmp	r0, #0
    3980:	03811a01 	orreq	r1, r1, #4096	; 0x1000
    3984:	e3120040 	tst	r2, #64	; 0x40
    3988:	13811a02 	orrne	r1, r1, #8192	; 0x2000
    398c:	e3a00001 	mov	r0, #1
    3990:	e78c1103 	str	r1, [ip, r3, lsl #2]
    3994:	eaffffc0 	b	389c <tty_try_execute_shared_ins+0x278>
    3998:	e5902000 	ldr	r2, [r0]
    399c:	e1d230ba 	ldrh	r3, [r2, #10]
    39a0:	e2433001 	sub	r3, r3, #1
    39a4:	e5921004 	ldr	r1, [r2, #4]
    39a8:	e1a03803 	lsl	r3, r3, #16
    39ac:	e1a03823 	lsr	r3, r3, #16
    39b0:	e7911103 	ldr	r1, [r1, r3, lsl #2]
    39b4:	e1c230ba 	strh	r3, [r2, #10]
    39b8:	e20130ff 	and	r3, r1, #255	; 0xff
    39bc:	e35300ff 	cmp	r3, #255	; 0xff
    39c0:	03a03001 	moveq	r3, #1
    39c4:	01a00003 	moveq	r0, r3
    39c8:	05c23072 	strbeq	r3, [r2, #114]	; 0x72
    39cc:	0affffb2 	beq	389c <tty_try_execute_shared_ins+0x278>
    39d0:	e3530000 	cmp	r3, #0
    39d4:	0a000029 	beq	3a80 <tty_try_execute_shared_ins+0x45c>
    39d8:	e1a00801 	lsl	r0, r1, #16
    39dc:	e3110c01 	tst	r1, #256	; 0x100
    39e0:	e1a00820 	lsr	r0, r0, #16
    39e4:	0a000004 	beq	39fc <tty_try_execute_shared_ins+0x3d8>
    39e8:	e5941004 	ldr	r1, [r4, #4]
    39ec:	e5911040 	ldr	r1, [r1, #64]	; 0x40
    39f0:	e1510003 	cmp	r1, r3
    39f4:	93a01001 	movls	r1, #1
    39f8:	95c21072 	strbls	r1, [r2, #114]	; 0x72
    39fc:	e3100c02 	tst	r0, #512	; 0x200
    3a00:	0a000004 	beq	3a18 <tty_try_execute_shared_ins+0x3f4>
    3a04:	e5941004 	ldr	r1, [r4, #4]
    3a08:	e5d1105e 	ldrb	r1, [r1, #94]	; 0x5e
    3a0c:	e3510000 	cmp	r1, #0
    3a10:	13a01001 	movne	r1, #1
    3a14:	15c21072 	strbne	r1, [r2, #114]	; 0x72
    3a18:	e3100b01 	tst	r0, #1024	; 0x400
    3a1c:	0a000004 	beq	3a34 <tty_try_execute_shared_ins+0x410>
    3a20:	e5941004 	ldr	r1, [r4, #4]
    3a24:	e5d1105f 	ldrb	r1, [r1, #95]	; 0x5f
    3a28:	e3510000 	cmp	r1, #0
    3a2c:	13a01001 	movne	r1, #1
    3a30:	15c21072 	strbne	r1, [r2, #114]	; 0x72
    3a34:	e3100b02 	tst	r0, #2048	; 0x800
    3a38:	0a000004 	beq	3a50 <tty_try_execute_shared_ins+0x42c>
    3a3c:	e5941004 	ldr	r1, [r4, #4]
    3a40:	e5911040 	ldr	r1, [r1, #64]	; 0x40
    3a44:	e1530001 	cmp	r3, r1
    3a48:	83a03000 	movhi	r3, #0
    3a4c:	85c23072 	strbhi	r3, [r2, #114]	; 0x72
    3a50:	e3100a01 	tst	r0, #4096	; 0x1000
    3a54:	0a000003 	beq	3a68 <tty_try_execute_shared_ins+0x444>
    3a58:	e5943004 	ldr	r3, [r4, #4]
    3a5c:	e5d3305e 	ldrb	r3, [r3, #94]	; 0x5e
    3a60:	e3530000 	cmp	r3, #0
    3a64:	05c23072 	strbeq	r3, [r2, #114]	; 0x72
    3a68:	e3100a02 	tst	r0, #8192	; 0x2000
    3a6c:	0a0002a9 	beq	4518 <tty_try_execute_shared_ins+0xef4>
    3a70:	e5943004 	ldr	r3, [r4, #4]
    3a74:	e5d3305f 	ldrb	r3, [r3, #95]	; 0x5f
    3a78:	e3530000 	cmp	r3, #0
    3a7c:	1a0002a5 	bne	4518 <tty_try_execute_shared_ins+0xef4>
    3a80:	e3a00001 	mov	r0, #1
    3a84:	e5c23072 	strb	r3, [r2, #114]	; 0x72
    3a88:	eaffff83 	b	389c <tty_try_execute_shared_ins+0x278>
    3a8c:	e3a02003 	mov	r2, #3
    3a90:	e5903000 	ldr	r3, [r0]
    3a94:	e3a00001 	mov	r0, #1
    3a98:	e5c3206f 	strb	r2, [r3, #111]	; 0x6f
    3a9c:	eaffff7e 	b	389c <tty_try_execute_shared_ins+0x278>
    3aa0:	e3a02004 	mov	r2, #4
    3aa4:	e5903000 	ldr	r3, [r0]
    3aa8:	e3a00001 	mov	r0, #1
    3aac:	e5c3206f 	strb	r2, [r3, #111]	; 0x6f
    3ab0:	eaffff79 	b	389c <tty_try_execute_shared_ins+0x278>
    3ab4:	e5900000 	ldr	r0, [r0]
    3ab8:	e1d030ba 	ldrh	r3, [r0, #10]
    3abc:	e2432001 	sub	r2, r3, #1
    3ac0:	e2433002 	sub	r3, r3, #2
    3ac4:	e590c004 	ldr	ip, [r0, #4]
    3ac8:	e1a02802 	lsl	r2, r2, #16
    3acc:	e1a03803 	lsl	r3, r3, #16
    3ad0:	e1a02822 	lsr	r2, r2, #16
    3ad4:	e1a03823 	lsr	r3, r3, #16
    3ad8:	e79c1102 	ldr	r1, [ip, r2, lsl #2]
    3adc:	e79ce103 	ldr	lr, [ip, r3, lsl #2]
    3ae0:	e151000e 	cmp	r1, lr
    3ae4:	b1a0100e 	movlt	r1, lr
    3ae8:	e1c020ba 	strh	r2, [r0, #10]
    3aec:	eaffffa6 	b	398c <tty_try_execute_shared_ins+0x368>
    3af0:	e590e000 	ldr	lr, [r0]
    3af4:	e1dec0ba 	ldrh	ip, [lr, #10]
    3af8:	e24c2001 	sub	r2, ip, #1
    3afc:	e24c1002 	sub	r1, ip, #2
    3b00:	e24c0003 	sub	r0, ip, #3
    3b04:	e59e3004 	ldr	r3, [lr, #4]
    3b08:	e1a02802 	lsl	r2, r2, #16
    3b0c:	e1a01801 	lsl	r1, r1, #16
    3b10:	e1a00800 	lsl	r0, r0, #16
    3b14:	e1a00820 	lsr	r0, r0, #16
    3b18:	e1a02822 	lsr	r2, r2, #16
    3b1c:	e1a01821 	lsr	r1, r1, #16
    3b20:	e7934100 	ldr	r4, [r3, r0, lsl #2]
    3b24:	e7935102 	ldr	r5, [r3, r2, lsl #2]
    3b28:	e7936101 	ldr	r6, [r3, r1, lsl #2]
    3b2c:	e7836100 	str	r6, [r3, r0, lsl #2]
    3b30:	e7835101 	str	r5, [r3, r1, lsl #2]
    3b34:	e3a00001 	mov	r0, #1
    3b38:	e1cec0ba 	strh	ip, [lr, #10]
    3b3c:	e7834102 	str	r4, [r3, r2, lsl #2]
    3b40:	eaffff55 	b	389c <tty_try_execute_shared_ins+0x278>
    3b44:	e3a02005 	mov	r2, #5
    3b48:	e5903000 	ldr	r3, [r0]
    3b4c:	e3a00001 	mov	r0, #1
    3b50:	e5c3206f 	strb	r2, [r3, #111]	; 0x6f
    3b54:	eaffff50 	b	389c <tty_try_execute_shared_ins+0x278>
    3b58:	e5901000 	ldr	r1, [r0]
    3b5c:	e1d130ba 	ldrh	r3, [r1, #10]
    3b60:	e2432001 	sub	r2, r3, #1
    3b64:	e5910004 	ldr	r0, [r1, #4]
    3b68:	e1a02802 	lsl	r2, r2, #16
    3b6c:	e1a02822 	lsr	r2, r2, #16
    3b70:	e7902102 	ldr	r2, [r0, r2, lsl #2]
    3b74:	e2433002 	sub	r3, r3, #2
    3b78:	e1a03803 	lsl	r3, r3, #16
    3b7c:	e1a03823 	lsr	r3, r3, #16
    3b80:	e3520000 	cmp	r2, #0
    3b84:	e1c130ba 	strh	r3, [r1, #10]
    3b88:	0a000262 	beq	4518 <tty_try_execute_shared_ins+0xef4>
    3b8c:	e7902103 	ldr	r2, [r0, r3, lsl #2]
    3b90:	e5943014 	ldr	r3, [r4, #20]
    3b94:	e2422001 	sub	r2, r2, #1
    3b98:	e0833002 	add	r3, r3, r2
    3b9c:	e3a00001 	mov	r0, #1
    3ba0:	e5843014 	str	r3, [r4, #20]
    3ba4:	eaffff3c 	b	389c <tty_try_execute_shared_ins+0x278>
    3ba8:	e3a01020 	mov	r1, #32
    3bac:	ebfffc69 	bl	2d58 <tty_deltac_impl>
    3bb0:	e3a00001 	mov	r0, #1
    3bb4:	eaffff38 	b	389c <tty_try_execute_shared_ins+0x278>
    3bb8:	e3a01010 	mov	r1, #16
    3bbc:	ebfffc65 	bl	2d58 <tty_deltac_impl>
    3bc0:	e3a00001 	mov	r0, #1
    3bc4:	eaffff34 	b	389c <tty_try_execute_shared_ins+0x278>
    3bc8:	e3a01000 	mov	r1, #0
    3bcc:	ebfffc61 	bl	2d58 <tty_deltac_impl>
    3bd0:	e3a00001 	mov	r0, #1
    3bd4:	eaffff30 	b	389c <tty_try_execute_shared_ins+0x278>
    3bd8:	e8901001 	ldm	r0, {r0, ip}
    3bdc:	e1d030ba 	ldrh	r3, [r0, #10]
    3be0:	e2432001 	sub	r2, r3, #1
    3be4:	e590e004 	ldr	lr, [r0, #4]
    3be8:	e1a02802 	lsl	r2, r2, #16
    3bec:	e2433002 	sub	r3, r3, #2
    3bf0:	e1a02822 	lsr	r2, r2, #16
    3bf4:	e1a03803 	lsl	r3, r3, #16
    3bf8:	e79e2102 	ldr	r2, [lr, r2, lsl #2]
    3bfc:	e1a03823 	lsr	r3, r3, #16
    3c00:	e79ee103 	ldr	lr, [lr, r3, lsl #2]
    3c04:	e1c030ba 	strh	r3, [r0, #10]
    3c08:	e59c0058 	ldr	r0, [ip, #88]	; 0x58
    3c0c:	e1a01302 	lsl	r1, r2, #6
    3c10:	e0823091 	umull	r3, r2, r1, r0
    3c14:	e1a04fc0 	asr	r4, r0, #31
    3c18:	e0222491 	mla	r2, r1, r4, r2
    3c1c:	e2933602 	adds	r3, r3, #2097152	; 0x200000
    3c20:	e59cc004 	ldr	ip, [ip, #4]
    3c24:	e1a03b23 	lsr	r3, r3, #22
    3c28:	e2a22000 	adc	r2, r2, #0
    3c2c:	e1833502 	orr	r3, r3, r2, lsl #10
    3c30:	e3a00001 	mov	r0, #1
    3c34:	e78c310e 	str	r3, [ip, lr, lsl #2]
    3c38:	eaffff17 	b	389c <tty_try_execute_shared_ins+0x278>
    3c3c:	e5902000 	ldr	r2, [r0]
    3c40:	e1d230ba 	ldrh	r3, [r2, #10]
    3c44:	e2433001 	sub	r3, r3, #1
    3c48:	e5921004 	ldr	r1, [r2, #4]
    3c4c:	e1a03803 	lsl	r3, r3, #16
    3c50:	e1a03823 	lsr	r3, r3, #16
    3c54:	e7912103 	ldr	r2, [r1, r3, lsl #2]
    3c58:	e3c2203f 	bic	r2, r2, #63	; 0x3f
    3c5c:	e3a00001 	mov	r0, #1
    3c60:	e7812103 	str	r2, [r1, r3, lsl #2]
    3c64:	eaffff0c 	b	389c <tty_try_execute_shared_ins+0x278>
    3c68:	e5902000 	ldr	r2, [r0]
    3c6c:	e1d230ba 	ldrh	r3, [r2, #10]
    3c70:	e2433001 	sub	r3, r3, #1
    3c74:	e5921004 	ldr	r1, [r2, #4]
    3c78:	e1a03803 	lsl	r3, r3, #16
    3c7c:	e1a03823 	lsr	r3, r3, #16
    3c80:	e7912103 	ldr	r2, [r1, r3, lsl #2]
    3c84:	e2622000 	rsb	r2, r2, #0
    3c88:	e3a00001 	mov	r0, #1
    3c8c:	e7812103 	str	r2, [r1, r3, lsl #2]
    3c90:	eaffff01 	b	389c <tty_try_execute_shared_ins+0x278>
    3c94:	e5902000 	ldr	r2, [r0]
    3c98:	e1d230ba 	ldrh	r3, [r2, #10]
    3c9c:	e2433001 	sub	r3, r3, #1
    3ca0:	e5921004 	ldr	r1, [r2, #4]
    3ca4:	e1a03803 	lsl	r3, r3, #16
    3ca8:	e1a03823 	lsr	r3, r3, #16
    3cac:	e7912103 	ldr	r2, [r1, r3, lsl #2]
    3cb0:	e3520000 	cmp	r2, #0
    3cb4:	b2622000 	rsblt	r2, r2, #0
    3cb8:	e3a00001 	mov	r0, #1
    3cbc:	e7812103 	str	r2, [r1, r3, lsl #2]
    3cc0:	eafffef5 	b	389c <tty_try_execute_shared_ins+0x278>
    3cc4:	e5900000 	ldr	r0, [r0]
    3cc8:	e1d030ba 	ldrh	r3, [r0, #10]
    3ccc:	e2432001 	sub	r2, r3, #1
    3cd0:	e2433002 	sub	r3, r3, #2
    3cd4:	e5901004 	ldr	r1, [r0, #4]
    3cd8:	e1a02802 	lsl	r2, r2, #16
    3cdc:	e1a03803 	lsl	r3, r3, #16
    3ce0:	e1a02822 	lsr	r2, r2, #16
    3ce4:	e1a03823 	lsr	r3, r3, #16
    3ce8:	e7914102 	ldr	r4, [r1, r2, lsl #2]
    3cec:	e791e103 	ldr	lr, [r1, r3, lsl #2]
    3cf0:	e3a0c000 	mov	ip, #0
    3cf4:	e1c020ba 	strh	r2, [r0, #10]
    3cf8:	e3a02020 	mov	r2, #32
    3cfc:	e0ec2e94 	smlal	r2, ip, r4, lr
    3d00:	e1a02322 	lsr	r2, r2, #6
    3d04:	e1822d0c 	orr	r2, r2, ip, lsl #26
    3d08:	e3a00001 	mov	r0, #1
    3d0c:	e7812103 	str	r2, [r1, r3, lsl #2]
    3d10:	eafffee1 	b	389c <tty_try_execute_shared_ins+0x278>
    3d14:	e5907000 	ldr	r7, [r0]
    3d18:	e1d740ba 	ldrh	r4, [r7, #10]
    3d1c:	e2445002 	sub	r5, r4, #2
    3d20:	e5976004 	ldr	r6, [r7, #4]
    3d24:	e1a05805 	lsl	r5, r5, #16
    3d28:	e1a05825 	lsr	r5, r5, #16
    3d2c:	e7960105 	ldr	r0, [r6, r5, lsl #2]
    3d30:	e2444001 	sub	r4, r4, #1
    3d34:	e1a04804 	lsl	r4, r4, #16
    3d38:	e1a04824 	lsr	r4, r4, #16
    3d3c:	e3500000 	cmp	r0, #0
    3d40:	e7962104 	ldr	r2, [r6, r4, lsl #2]
    3d44:	ba000203 	blt	4558 <tty_try_execute_shared_ins+0xf34>
    3d48:	e3520000 	cmp	r2, #0
    3d4c:	ba00023b 	blt	4640 <tty_try_execute_shared_ins+0x101c>
    3d50:	e1a01fc0 	asr	r1, r0, #31
    3d54:	e1a01301 	lsl	r1, r1, #6
    3d58:	e1811d20 	orr	r1, r1, r0, lsr #26
    3d5c:	e1a03fc2 	asr	r3, r2, #31
    3d60:	e1a00300 	lsl	r0, r0, #6
    3d64:	eb0033ed 	bl	10d20 <__aeabi_ldivmod>
    3d68:	e1a03000 	mov	r3, r0
    3d6c:	e1c740ba 	strh	r4, [r7, #10]
    3d70:	e3a00001 	mov	r0, #1
    3d74:	e7863105 	str	r3, [r6, r5, lsl #2]
    3d78:	eafffec7 	b	389c <tty_try_execute_shared_ins+0x278>
    3d7c:	e590c000 	ldr	ip, [r0]
    3d80:	e1dc30ba 	ldrh	r3, [ip, #10]
    3d84:	e2432001 	sub	r2, r3, #1
    3d88:	e2433002 	sub	r3, r3, #2
    3d8c:	e59c1004 	ldr	r1, [ip, #4]
    3d90:	e1a02802 	lsl	r2, r2, #16
    3d94:	e1a03803 	lsl	r3, r3, #16
    3d98:	e1a02822 	lsr	r2, r2, #16
    3d9c:	e1a03823 	lsr	r3, r3, #16
    3da0:	e7910103 	ldr	r0, [r1, r3, lsl #2]
    3da4:	e791e102 	ldr	lr, [r1, r2, lsl #2]
    3da8:	e1cc20ba 	strh	r2, [ip, #10]
    3dac:	e040200e 	sub	r2, r0, lr
    3db0:	e7812103 	str	r2, [r1, r3, lsl #2]
    3db4:	e3a00001 	mov	r0, #1
    3db8:	eafffeb7 	b	389c <tty_try_execute_shared_ins+0x278>
    3dbc:	e590c000 	ldr	ip, [r0]
    3dc0:	e1dc30ba 	ldrh	r3, [ip, #10]
    3dc4:	e2432001 	sub	r2, r3, #1
    3dc8:	e2433002 	sub	r3, r3, #2
    3dcc:	e59c1004 	ldr	r1, [ip, #4]
    3dd0:	e1a02802 	lsl	r2, r2, #16
    3dd4:	e1a03803 	lsl	r3, r3, #16
    3dd8:	e1a02822 	lsr	r2, r2, #16
    3ddc:	e1a03823 	lsr	r3, r3, #16
    3de0:	e7910102 	ldr	r0, [r1, r2, lsl #2]
    3de4:	e791e103 	ldr	lr, [r1, r3, lsl #2]
    3de8:	e1cc20ba 	strh	r2, [ip, #10]
    3dec:	e080200e 	add	r2, r0, lr
    3df0:	e7812103 	str	r2, [r1, r3, lsl #2]
    3df4:	e3a00001 	mov	r0, #1
    3df8:	eafffea7 	b	389c <tty_try_execute_shared_ins+0x278>
    3dfc:	e5902000 	ldr	r2, [r0]
    3e00:	e1d230ba 	ldrh	r3, [r2, #10]
    3e04:	e2433001 	sub	r3, r3, #1
    3e08:	e5921004 	ldr	r1, [r2, #4]
    3e0c:	e1a03803 	lsl	r3, r3, #16
    3e10:	e1a03823 	lsr	r3, r3, #16
    3e14:	e7911103 	ldr	r1, [r1, r3, lsl #2]
    3e18:	e3a00001 	mov	r0, #1
    3e1c:	e1c230ba 	strh	r3, [r2, #10]
    3e20:	e5821058 	str	r1, [r2, #88]	; 0x58
    3e24:	eafffe9c 	b	389c <tty_try_execute_shared_ins+0x278>
    3e28:	e5902000 	ldr	r2, [r0]
    3e2c:	e1d230ba 	ldrh	r3, [r2, #10]
    3e30:	e2433001 	sub	r3, r3, #1
    3e34:	e5921004 	ldr	r1, [r2, #4]
    3e38:	e1a03803 	lsl	r3, r3, #16
    3e3c:	e1a03823 	lsr	r3, r3, #16
    3e40:	e7911103 	ldr	r1, [r1, r3, lsl #2]
    3e44:	e3a00001 	mov	r0, #1
    3e48:	e1c230ba 	strh	r3, [r2, #10]
    3e4c:	e5821054 	str	r1, [r2, #84]	; 0x54
    3e50:	eafffe91 	b	389c <tty_try_execute_shared_ins+0x278>
    3e54:	e5902000 	ldr	r2, [r0]
    3e58:	e1d230ba 	ldrh	r3, [r2, #10]
    3e5c:	e2433001 	sub	r3, r3, #1
    3e60:	e5921004 	ldr	r1, [r2, #4]
    3e64:	e1a03803 	lsl	r3, r3, #16
    3e68:	e1a03823 	lsr	r3, r3, #16
    3e6c:	e7912103 	ldr	r2, [r1, r3, lsl #2]
    3e70:	e2722001 	rsbs	r2, r2, #1
    3e74:	33a02000 	movcc	r2, #0
    3e78:	e3a00001 	mov	r0, #1
    3e7c:	e7812103 	str	r2, [r1, r3, lsl #2]
    3e80:	eafffe85 	b	389c <tty_try_execute_shared_ins+0x278>
    3e84:	e5900000 	ldr	r0, [r0]
    3e88:	e1d030ba 	ldrh	r3, [r0, #10]
    3e8c:	e2432001 	sub	r2, r3, #1
    3e90:	e2433002 	sub	r3, r3, #2
    3e94:	e5901004 	ldr	r1, [r0, #4]
    3e98:	e1a02802 	lsl	r2, r2, #16
    3e9c:	e1a03803 	lsl	r3, r3, #16
    3ea0:	e1a02822 	lsr	r2, r2, #16
    3ea4:	e1a03823 	lsr	r3, r3, #16
    3ea8:	e791e102 	ldr	lr, [r1, r2, lsl #2]
    3eac:	e791c103 	ldr	ip, [r1, r3, lsl #2]
    3eb0:	e1c020ba 	strh	r2, [r0, #10]
    3eb4:	e19e200c 	orrs	r2, lr, ip
    3eb8:	13a02001 	movne	r2, #1
    3ebc:	03a02000 	moveq	r2, #0
    3ec0:	e3a00001 	mov	r0, #1
    3ec4:	e7812103 	str	r2, [r1, r3, lsl #2]
    3ec8:	eafffe73 	b	389c <tty_try_execute_shared_ins+0x278>
    3ecc:	e590c000 	ldr	ip, [r0]
    3ed0:	e1dc30ba 	ldrh	r3, [ip, #10]
    3ed4:	e2432001 	sub	r2, r3, #1
    3ed8:	e2433002 	sub	r3, r3, #2
    3edc:	e59c1004 	ldr	r1, [ip, #4]
    3ee0:	e1a02802 	lsl	r2, r2, #16
    3ee4:	e1a03803 	lsl	r3, r3, #16
    3ee8:	e1a02822 	lsr	r2, r2, #16
    3eec:	e1a03823 	lsr	r3, r3, #16
    3ef0:	e7910102 	ldr	r0, [r1, r2, lsl #2]
    3ef4:	e791e103 	ldr	lr, [r1, r3, lsl #2]
    3ef8:	e3500000 	cmp	r0, #0
    3efc:	135e0000 	cmpne	lr, #0
    3f00:	e1cc20ba 	strh	r2, [ip, #10]
    3f04:	13a02001 	movne	r2, #1
    3f08:	03a02000 	moveq	r2, #0
    3f0c:	e3a00001 	mov	r0, #1
    3f10:	e7812103 	str	r2, [r1, r3, lsl #2]
    3f14:	eafffe60 	b	389c <tty_try_execute_shared_ins+0x278>
    3f18:	e5902000 	ldr	r2, [r0]
    3f1c:	e1d230ba 	ldrh	r3, [r2, #10]
    3f20:	e2433001 	sub	r3, r3, #1
    3f24:	e5921004 	ldr	r1, [r2, #4]
    3f28:	e1a03803 	lsl	r3, r3, #16
    3f2c:	e1a03823 	lsr	r3, r3, #16
    3f30:	e7911103 	ldr	r1, [r1, r3, lsl #2]
    3f34:	e3510000 	cmp	r1, #0
    3f38:	e1c230ba 	strh	r3, [r2, #10]
    3f3c:	1a000009 	bne	3f68 <tty_try_execute_shared_ins+0x944>
    3f40:	ea000197 	b	45a4 <tty_try_execute_shared_ins+0xf80>
    3f44:	e3530059 	cmp	r3, #89	; 0x59
    3f48:	0a0001b0 	beq	4610 <tty_try_execute_shared_ins+0xfec>
    3f4c:	e594300c 	ldr	r3, [r4, #12]
    3f50:	e1a00004 	mov	r0, r4
    3f54:	e1a0e00f 	mov	lr, pc
    3f58:	e12fff13 	bx	r3
    3f5c:	e5d4301d 	ldrb	r3, [r4, #29]
    3f60:	e3530000 	cmp	r3, #0
    3f64:	1a00016b 	bne	4518 <tty_try_execute_shared_ins+0xef4>
    3f68:	e5942014 	ldr	r2, [r4, #20]
    3f6c:	e5943010 	ldr	r3, [r4, #16]
    3f70:	e7d33002 	ldrb	r3, [r3, r2]
    3f74:	e353001b 	cmp	r3, #27
    3f78:	1afffff1 	bne	3f44 <tty_try_execute_shared_ins+0x920>
    3f7c:	e2822001 	add	r2, r2, #1
    3f80:	e5842014 	str	r2, [r4, #20]
    3f84:	e284000c 	add	r0, r4, #12
    3f88:	ebfff9ba 	bl	2678 <tty_ins_stream_jump_to_else_or_eif>
    3f8c:	ea000161 	b	4518 <tty_try_execute_shared_ins+0xef4>
    3f90:	e590c000 	ldr	ip, [r0]
    3f94:	e1dc30ba 	ldrh	r3, [ip, #10]
    3f98:	e2432001 	sub	r2, r3, #1
    3f9c:	e2433002 	sub	r3, r3, #2
    3fa0:	e59c1004 	ldr	r1, [ip, #4]
    3fa4:	e1a02802 	lsl	r2, r2, #16
    3fa8:	e1a03803 	lsl	r3, r3, #16
    3fac:	e1a02822 	lsr	r2, r2, #16
    3fb0:	e1a03823 	lsr	r3, r3, #16
    3fb4:	e7910102 	ldr	r0, [r1, r2, lsl #2]
    3fb8:	e791e103 	ldr	lr, [r1, r3, lsl #2]
    3fbc:	e1cc20ba 	strh	r2, [ip, #10]
    3fc0:	e050200e 	subs	r2, r0, lr
    3fc4:	13a02001 	movne	r2, #1
    3fc8:	e3a00001 	mov	r0, #1
    3fcc:	e7812103 	str	r2, [r1, r3, lsl #2]
    3fd0:	eafffe31 	b	389c <tty_try_execute_shared_ins+0x278>
    3fd4:	e590c000 	ldr	ip, [r0]
    3fd8:	e1dc30ba 	ldrh	r3, [ip, #10]
    3fdc:	e2432001 	sub	r2, r3, #1
    3fe0:	e2433002 	sub	r3, r3, #2
    3fe4:	e59c1004 	ldr	r1, [ip, #4]
    3fe8:	e1a02802 	lsl	r2, r2, #16
    3fec:	e1a03803 	lsl	r3, r3, #16
    3ff0:	e1a02822 	lsr	r2, r2, #16
    3ff4:	e1a03823 	lsr	r3, r3, #16
    3ff8:	e7910102 	ldr	r0, [r1, r2, lsl #2]
    3ffc:	e791e103 	ldr	lr, [r1, r3, lsl #2]
    4000:	e040000e 	sub	r0, r0, lr
    4004:	e1cc20ba 	strh	r2, [ip, #10]
    4008:	e2702000 	rsbs	r2, r0, #0
    400c:	e0a22000 	adc	r2, r2, r0
    4010:	e7812103 	str	r2, [r1, r3, lsl #2]
    4014:	e3a00001 	mov	r0, #1
    4018:	eafffe1f 	b	389c <tty_try_execute_shared_ins+0x278>
    401c:	e590c000 	ldr	ip, [r0]
    4020:	e1dc30ba 	ldrh	r3, [ip, #10]
    4024:	e2432001 	sub	r2, r3, #1
    4028:	e2433002 	sub	r3, r3, #2
    402c:	e59c1004 	ldr	r1, [ip, #4]
    4030:	e1a02802 	lsl	r2, r2, #16
    4034:	e1a03803 	lsl	r3, r3, #16
    4038:	e1a02822 	lsr	r2, r2, #16
    403c:	e1a03823 	lsr	r3, r3, #16
    4040:	e7910102 	ldr	r0, [r1, r2, lsl #2]
    4044:	e791e103 	ldr	lr, [r1, r3, lsl #2]
    4048:	e150000e 	cmp	r0, lr
    404c:	e1cc20ba 	strh	r2, [ip, #10]
    4050:	c3a02000 	movgt	r2, #0
    4054:	d3a02001 	movle	r2, #1
    4058:	e3a00001 	mov	r0, #1
    405c:	e7812103 	str	r2, [r1, r3, lsl #2]
    4060:	eafffe0d 	b	389c <tty_try_execute_shared_ins+0x278>
    4064:	e590c000 	ldr	ip, [r0]
    4068:	e1dc30ba 	ldrh	r3, [ip, #10]
    406c:	e2432001 	sub	r2, r3, #1
    4070:	e2433002 	sub	r3, r3, #2
    4074:	e59c1004 	ldr	r1, [ip, #4]
    4078:	e1a02802 	lsl	r2, r2, #16
    407c:	e1a03803 	lsl	r3, r3, #16
    4080:	e1a02822 	lsr	r2, r2, #16
    4084:	e1a03823 	lsr	r3, r3, #16
    4088:	e7910102 	ldr	r0, [r1, r2, lsl #2]
    408c:	e791e103 	ldr	lr, [r1, r3, lsl #2]
    4090:	e150000e 	cmp	r0, lr
    4094:	e1cc20ba 	strh	r2, [ip, #10]
    4098:	a3a02000 	movge	r2, #0
    409c:	b3a02001 	movlt	r2, #1
    40a0:	e3a00001 	mov	r0, #1
    40a4:	e7812103 	str	r2, [r1, r3, lsl #2]
    40a8:	eafffdfb 	b	389c <tty_try_execute_shared_ins+0x278>
    40ac:	e590c000 	ldr	ip, [r0]
    40b0:	e1dc30ba 	ldrh	r3, [ip, #10]
    40b4:	e2432001 	sub	r2, r3, #1
    40b8:	e2433002 	sub	r3, r3, #2
    40bc:	e59c1004 	ldr	r1, [ip, #4]
    40c0:	e1a02802 	lsl	r2, r2, #16
    40c4:	e1a03803 	lsl	r3, r3, #16
    40c8:	e1a02822 	lsr	r2, r2, #16
    40cc:	e1a03823 	lsr	r3, r3, #16
    40d0:	e7910102 	ldr	r0, [r1, r2, lsl #2]
    40d4:	e791e103 	ldr	lr, [r1, r3, lsl #2]
    40d8:	e150000e 	cmp	r0, lr
    40dc:	e1cc20ba 	strh	r2, [ip, #10]
    40e0:	b3a02000 	movlt	r2, #0
    40e4:	a3a02001 	movge	r2, #1
    40e8:	e3a00001 	mov	r0, #1
    40ec:	e7812103 	str	r2, [r1, r3, lsl #2]
    40f0:	eafffde9 	b	389c <tty_try_execute_shared_ins+0x278>
    40f4:	e590c000 	ldr	ip, [r0]
    40f8:	e1dc30ba 	ldrh	r3, [ip, #10]
    40fc:	e2432001 	sub	r2, r3, #1
    4100:	e2433002 	sub	r3, r3, #2
    4104:	e59c1004 	ldr	r1, [ip, #4]
    4108:	e1a02802 	lsl	r2, r2, #16
    410c:	e1a03803 	lsl	r3, r3, #16
    4110:	e1a02822 	lsr	r2, r2, #16
    4114:	e1a03823 	lsr	r3, r3, #16
    4118:	e7910102 	ldr	r0, [r1, r2, lsl #2]
    411c:	e791e103 	ldr	lr, [r1, r3, lsl #2]
    4120:	e150000e 	cmp	r0, lr
    4124:	e1cc20ba 	strh	r2, [ip, #10]
    4128:	d3a02000 	movle	r2, #0
    412c:	c3a02001 	movgt	r2, #1
    4130:	e3a00001 	mov	r0, #1
    4134:	e7812103 	str	r2, [r1, r3, lsl #2]
    4138:	eafffdd7 	b	389c <tty_try_execute_shared_ins+0x278>
    413c:	e5903000 	ldr	r3, [r0]
    4140:	e5901004 	ldr	r1, [r0, #4]
    4144:	e1d320ba 	ldrh	r2, [r3, #10]
    4148:	e591c040 	ldr	ip, [r1, #64]	; 0x40
    414c:	e5931004 	ldr	r1, [r3, #4]
    4150:	e2820001 	add	r0, r2, #1
    4154:	e1c300ba 	strh	r0, [r3, #10]
    4158:	e3a00001 	mov	r0, #1
    415c:	e781c102 	str	ip, [r1, r2, lsl #2]
    4160:	eafffdcd 	b	389c <tty_try_execute_shared_ins+0x278>
    4164:	e5902000 	ldr	r2, [r0]
    4168:	e1d230ba 	ldrh	r3, [r2, #10]
    416c:	e2433001 	sub	r3, r3, #1
    4170:	e5901004 	ldr	r1, [r0, #4]
    4174:	e5922004 	ldr	r2, [r2, #4]
    4178:	e1a03803 	lsl	r3, r3, #16
    417c:	e1a03823 	lsr	r3, r3, #16
    4180:	e792c103 	ldr	ip, [r2, r3, lsl #2]
    4184:	e5911004 	ldr	r1, [r1, #4]
    4188:	e791110c 	ldr	r1, [r1, ip, lsl #2]
    418c:	e3a00001 	mov	r0, #1
    4190:	e7821103 	str	r1, [r2, r3, lsl #2]
    4194:	eafffdc0 	b	389c <tty_try_execute_shared_ins+0x278>
    4198:	e8900012 	ldm	r0, {r1, r4}
    419c:	e1d130ba 	ldrh	r3, [r1, #10]
    41a0:	e2432001 	sub	r2, r3, #1
    41a4:	e2433002 	sub	r3, r3, #2
    41a8:	e5910004 	ldr	r0, [r1, #4]
    41ac:	e1a02802 	lsl	r2, r2, #16
    41b0:	e1a03803 	lsl	r3, r3, #16
    41b4:	e1a03823 	lsr	r3, r3, #16
    41b8:	e1a02822 	lsr	r2, r2, #16
    41bc:	e790e102 	ldr	lr, [r0, r2, lsl #2]
    41c0:	e790c103 	ldr	ip, [r0, r3, lsl #2]
    41c4:	e5942004 	ldr	r2, [r4, #4]
    41c8:	e3a00001 	mov	r0, #1
    41cc:	e1c130ba 	strh	r3, [r1, #10]
    41d0:	e782e10c 	str	lr, [r2, ip, lsl #2]
    41d4:	eafffdb0 	b	389c <tty_try_execute_shared_ins+0x278>
    41d8:	e5902000 	ldr	r2, [r0]
    41dc:	e1d230ba 	ldrh	r3, [r2, #10]
    41e0:	e2433001 	sub	r3, r3, #1
    41e4:	e5901004 	ldr	r1, [r0, #4]
    41e8:	e5922004 	ldr	r2, [r2, #4]
    41ec:	e1a03803 	lsl	r3, r3, #16
    41f0:	e1a03823 	lsr	r3, r3, #16
    41f4:	e792c103 	ldr	ip, [r2, r3, lsl #2]
    41f8:	e591100c 	ldr	r1, [r1, #12]
    41fc:	e791110c 	ldr	r1, [r1, ip, lsl #2]
    4200:	e3a00001 	mov	r0, #1
    4204:	e7821103 	str	r1, [r2, r3, lsl #2]
    4208:	eafffda3 	b	389c <tty_try_execute_shared_ins+0x278>
    420c:	e8900012 	ldm	r0, {r1, r4}
    4210:	e1d130ba 	ldrh	r3, [r1, #10]
    4214:	e2432001 	sub	r2, r3, #1
    4218:	e2433002 	sub	r3, r3, #2
    421c:	e5910004 	ldr	r0, [r1, #4]
    4220:	e1a02802 	lsl	r2, r2, #16
    4224:	e1a03803 	lsl	r3, r3, #16
    4228:	e1a03823 	lsr	r3, r3, #16
    422c:	e1a02822 	lsr	r2, r2, #16
    4230:	e790e102 	ldr	lr, [r0, r2, lsl #2]
    4234:	e790c103 	ldr	ip, [r0, r3, lsl #2]
    4238:	e594200c 	ldr	r2, [r4, #12]
    423c:	e3a00001 	mov	r0, #1
    4240:	e1c130ba 	strh	r3, [r1, #10]
    4244:	e782e10c 	str	lr, [r2, ip, lsl #2]
    4248:	eafffd93 	b	389c <tty_try_execute_shared_ins+0x278>
    424c:	e1a01000 	mov	r1, r0
    4250:	e2802010 	add	r2, r0, #16
    4254:	e892000c 	ldm	r2, {r2, r3}
    4258:	e2830001 	add	r0, r3, #1
    425c:	e5840014 	str	r0, [r4, #20]
    4260:	e491000c 	ldr	r0, [r1], #12
    4264:	e7d22003 	ldrb	r2, [r2, r3]
    4268:	e2800004 	add	r0, r0, #4
    426c:	ebfff937 	bl	2750 <tty_interp_stack_push_words_from_stream>
    4270:	e3a00001 	mov	r0, #1
    4274:	eafffd88 	b	389c <tty_try_execute_shared_ins+0x278>
    4278:	ebfff9ac 	bl	2930 <tty_NPUSHB>
    427c:	e3a00001 	mov	r0, #1
    4280:	eafffd85 	b	389c <tty_try_execute_shared_ins+0x278>
    4284:	e3a02002 	mov	r2, #2
    4288:	e5903000 	ldr	r3, [r0]
    428c:	e3a00001 	mov	r0, #1
    4290:	e5c3206f 	strb	r2, [r3, #111]	; 0x6f
    4294:	eafffd80 	b	389c <tty_try_execute_shared_ins+0x278>
    4298:	e5901000 	ldr	r1, [r0]
    429c:	e1d130ba 	ldrh	r3, [r1, #10]
    42a0:	e2433001 	sub	r3, r3, #1
    42a4:	e591c004 	ldr	ip, [r1, #4]
    42a8:	e1a03803 	lsl	r3, r3, #16
    42ac:	e1a03823 	lsr	r3, r3, #16
    42b0:	e1c130ba 	strh	r3, [r1, #10]
    42b4:	e3a02001 	mov	r2, #1
    42b8:	e79c1103 	ldr	r1, [ip, r3, lsl #2]
    42bc:	ebfff93f 	bl	27c0 <tty_call_func>
    42c0:	e3a00001 	mov	r0, #1
    42c4:	eafffd74 	b	389c <tty_try_execute_shared_ins+0x278>
    42c8:	e590c000 	ldr	ip, [r0]
    42cc:	e1dc30ba 	ldrh	r3, [ip, #10]
    42d0:	e2432001 	sub	r2, r3, #1
    42d4:	e2433002 	sub	r3, r3, #2
    42d8:	e59ce004 	ldr	lr, [ip, #4]
    42dc:	e1a02802 	lsl	r2, r2, #16
    42e0:	e1a03803 	lsl	r3, r3, #16
    42e4:	e1a03823 	lsr	r3, r3, #16
    42e8:	e1a02822 	lsr	r2, r2, #16
    42ec:	e79e1102 	ldr	r1, [lr, r2, lsl #2]
    42f0:	e1cc30ba 	strh	r3, [ip, #10]
    42f4:	e79e2103 	ldr	r2, [lr, r3, lsl #2]
    42f8:	ebfff930 	bl	27c0 <tty_call_func>
    42fc:	e3a00001 	mov	r0, #1
    4300:	eafffd65 	b	389c <tty_try_execute_shared_ins+0x278>
    4304:	e590e000 	ldr	lr, [r0]
    4308:	e1de10ba 	ldrh	r1, [lr, #10]
    430c:	e59ec004 	ldr	ip, [lr, #4]
    4310:	e2413107 	sub	r3, r1, #-1073741823	; 0xc0000001
    4314:	e79c2103 	ldr	r2, [ip, r3, lsl #2]
    4318:	e2413001 	sub	r3, r1, #1
    431c:	e1a03803 	lsl	r3, r3, #16
    4320:	e0411002 	sub	r1, r1, r2
    4324:	e2410001 	sub	r0, r1, #1
    4328:	e1a03823 	lsr	r3, r3, #16
    432c:	e1ce30ba 	strh	r3, [lr, #10]
    4330:	e79ce100 	ldr	lr, [ip, r0, lsl #2]
    4334:	e1a02102 	lsl	r2, r2, #2
    4338:	e78ce103 	str	lr, [ip, r3, lsl #2]
    433c:	e08c1101 	add	r1, ip, r1, lsl #2
    4340:	e08c0100 	add	r0, ip, r0, lsl #2
    4344:	eb0045bf 	bl	15a48 <memcpy>
    4348:	e3a00001 	mov	r0, #1
    434c:	eafffd52 	b	389c <tty_try_execute_shared_ins+0x278>
    4350:	e5902000 	ldr	r2, [r0]
    4354:	e1d230ba 	ldrh	r3, [r2, #10]
    4358:	e2433001 	sub	r3, r3, #1
    435c:	e5922004 	ldr	r2, [r2, #4]
    4360:	e1a03803 	lsl	r3, r3, #16
    4364:	e1a03823 	lsr	r3, r3, #16
    4368:	e7921103 	ldr	r1, [r2, r3, lsl #2]
    436c:	e0431001 	sub	r1, r3, r1
    4370:	e7921101 	ldr	r1, [r2, r1, lsl #2]
    4374:	e3a00001 	mov	r0, #1
    4378:	e7821103 	str	r1, [r2, r3, lsl #2]
    437c:	eafffd46 	b	389c <tty_try_execute_shared_ins+0x278>
    4380:	e5902000 	ldr	r2, [r0]
    4384:	e3a00001 	mov	r0, #1
    4388:	e1d230ba 	ldrh	r3, [r2, #10]
    438c:	e5921004 	ldr	r1, [r2, #4]
    4390:	e083c000 	add	ip, r3, r0
    4394:	e1c2c0ba 	strh	ip, [r2, #10]
    4398:	e7813103 	str	r3, [r1, r3, lsl #2]
    439c:	eafffd3e 	b	389c <tty_try_execute_shared_ins+0x278>
    43a0:	e590c000 	ldr	ip, [r0]
    43a4:	e1dce0ba 	ldrh	lr, [ip, #10]
    43a8:	e24e3001 	sub	r3, lr, #1
    43ac:	e24e2002 	sub	r2, lr, #2
    43b0:	e59c1004 	ldr	r1, [ip, #4]
    43b4:	e1a03803 	lsl	r3, r3, #16
    43b8:	e1a02802 	lsl	r2, r2, #16
    43bc:	e1a03823 	lsr	r3, r3, #16
    43c0:	e1a02822 	lsr	r2, r2, #16
    43c4:	e7910103 	ldr	r0, [r1, r3, lsl #2]
    43c8:	e7914102 	ldr	r4, [r1, r2, lsl #2]
    43cc:	e7810102 	str	r0, [r1, r2, lsl #2]
    43d0:	e1cce0ba 	strh	lr, [ip, #10]
    43d4:	e3a00001 	mov	r0, #1
    43d8:	e7814103 	str	r4, [r1, r3, lsl #2]
    43dc:	eafffd2e 	b	389c <tty_try_execute_shared_ins+0x278>
    43e0:	e5902000 	ldr	r2, [r0]
    43e4:	e1d230ba 	ldrh	r3, [r2, #10]
    43e8:	e2433001 	sub	r3, r3, #1
    43ec:	e3a00001 	mov	r0, #1
    43f0:	e1c230ba 	strh	r3, [r2, #10]
    43f4:	eafffd28 	b	389c <tty_try_execute_shared_ins+0x278>
    43f8:	e5901000 	ldr	r1, [r0]
    43fc:	e3a00001 	mov	r0, #1
    4400:	e1d120ba 	ldrh	r2, [r1, #10]
    4404:	e2423001 	sub	r3, r2, #1
    4408:	e591c004 	ldr	ip, [r1, #4]
    440c:	e1a03803 	lsl	r3, r3, #16
    4410:	e1a03823 	lsr	r3, r3, #16
    4414:	e79c3103 	ldr	r3, [ip, r3, lsl #2]
    4418:	e082e000 	add	lr, r2, r0
    441c:	e1c1e0ba 	strh	lr, [r1, #10]
    4420:	e78c3102 	str	r3, [ip, r2, lsl #2]
    4424:	eafffd1c 	b	389c <tty_try_execute_shared_ins+0x278>
    4428:	e5902000 	ldr	r2, [r0]
    442c:	e1d230ba 	ldrh	r3, [r2, #10]
    4430:	e2433001 	sub	r3, r3, #1
    4434:	e5921004 	ldr	r1, [r2, #4]
    4438:	e1a03803 	lsl	r3, r3, #16
    443c:	e1a03823 	lsr	r3, r3, #16
    4440:	e7911103 	ldr	r1, [r1, r3, lsl #2]
    4444:	e3a00001 	mov	r0, #1
    4448:	e1c230ba 	strh	r3, [r2, #10]
    444c:	e5821030 	str	r1, [r2, #48]	; 0x30
    4450:	eafffd11 	b	389c <tty_try_execute_shared_ins+0x278>
    4454:	e5900000 	ldr	r0, [r0]
    4458:	e1d030ba 	ldrh	r3, [r0, #10]
    445c:	e2433001 	sub	r3, r3, #1
    4460:	e5901004 	ldr	r1, [r0, #4]
    4464:	e1a03803 	lsl	r3, r3, #16
    4468:	e1a03823 	lsr	r3, r3, #16
    446c:	e7911103 	ldr	r1, [r1, r3, lsl #2]
    4470:	e5942014 	ldr	r2, [r4, #20]
    4474:	e1c030ba 	strh	r3, [r0, #10]
    4478:	e2413001 	sub	r3, r1, #1
    447c:	e0823003 	add	r3, r2, r3
    4480:	e3a00001 	mov	r0, #1
    4484:	e5843014 	str	r3, [r4, #20]
    4488:	eafffd03 	b	389c <tty_try_execute_shared_ins+0x278>
    448c:	e3a02000 	mov	r2, #0
    4490:	e5903000 	ldr	r3, [r0]
    4494:	e3a00001 	mov	r0, #1
    4498:	e5c3206f 	strb	r2, [r3, #111]	; 0x6f
    449c:	eafffcfe 	b	389c <tty_try_execute_shared_ins+0x278>
    44a0:	e3a03001 	mov	r3, #1
    44a4:	e5902000 	ldr	r2, [r0]
    44a8:	e1a00003 	mov	r0, r3
    44ac:	e5c2306f 	strb	r3, [r2, #111]	; 0x6f
    44b0:	eafffcf9 	b	389c <tty_try_execute_shared_ins+0x278>
    44b4:	e5902000 	ldr	r2, [r0]
    44b8:	e1d230ba 	ldrh	r3, [r2, #10]
    44bc:	e2433001 	sub	r3, r3, #1
    44c0:	e5921004 	ldr	r1, [r2, #4]
    44c4:	e1a03803 	lsl	r3, r3, #16
    44c8:	e1a03823 	lsr	r3, r3, #16
    44cc:	e7911103 	ldr	r1, [r1, r3, lsl #2]
    44d0:	e3a00001 	mov	r0, #1
    44d4:	e1c230ba 	strh	r3, [r2, #10]
    44d8:	e582105c 	str	r1, [r2, #92]	; 0x5c
    44dc:	eafffcee 	b	389c <tty_try_execute_shared_ins+0x278>
    44e0:	e5903000 	ldr	r3, [r0]
    44e4:	e283204c 	add	r2, r3, #76	; 0x4c
    44e8:	e8920003 	ldm	r2, {r0, r1}
    44ec:	e2832044 	add	r2, r3, #68	; 0x44
    44f0:	e8820003 	stm	r2, {r0, r1}
    44f4:	e1a00003 	mov	r0, r3
    44f8:	ebfff9cc 	bl	2c30 <tty_update_proj_dot_free.isra.0>
    44fc:	e5942000 	ldr	r2, [r4]
    4500:	e59f332c 	ldr	r3, [pc, #812]	; 4834 <tty_try_execute_shared_ins+0x1210>
    4504:	e5921028 	ldr	r1, [r2, #40]	; 0x28
    4508:	e08f3003 	add	r3, pc, r3
    450c:	e3510301 	cmp	r1, #67108864	; 0x4000000
    4510:	e5823018 	str	r3, [r2, #24]
    4514:	0a00001a 	beq	4584 <tty_try_execute_shared_ins+0xf60>
    4518:	e3a00001 	mov	r0, #1
    451c:	eafffcde 	b	389c <tty_try_execute_shared_ins+0x278>
    4520:	e5902000 	ldr	r2, [r0]
    4524:	e3a00001 	mov	r0, #1
    4528:	e1d230ba 	ldrh	r3, [r2, #10]
    452c:	e592c04c 	ldr	ip, [r2, #76]	; 0x4c
    4530:	e5921004 	ldr	r1, [r2, #4]
    4534:	e781c103 	str	ip, [r1, r3, lsl #2]
    4538:	e283e002 	add	lr, r3, #2
    453c:	e0833000 	add	r3, r3, r0
    4540:	e592c050 	ldr	ip, [r2, #80]	; 0x50
    4544:	e1a03803 	lsl	r3, r3, #16
    4548:	e1a03823 	lsr	r3, r3, #16
    454c:	e1c2e0ba 	strh	lr, [r2, #10]
    4550:	e781c103 	str	ip, [r1, r3, lsl #2]
    4554:	eafffcd0 	b	389c <tty_try_execute_shared_ins+0x278>
    4558:	e3520000 	cmp	r2, #0
    455c:	e2600000 	rsb	r0, r0, #0
    4560:	ba000040 	blt	4668 <tty_try_execute_shared_ins+0x1044>
    4564:	e1a01fc0 	asr	r1, r0, #31
    4568:	e1a01301 	lsl	r1, r1, #6
    456c:	e1811d20 	orr	r1, r1, r0, lsr #26
    4570:	e1a03fc2 	asr	r3, r2, #31
    4574:	e1a00300 	lsl	r0, r0, #6
    4578:	eb0031e8 	bl	10d20 <__aeabi_ldivmod>
    457c:	e2603000 	rsb	r3, r0, #0
    4580:	eafffdf9 	b	3d6c <tty_try_execute_shared_ins+0x748>
    4584:	e5923044 	ldr	r3, [r2, #68]	; 0x44
    4588:	e3530000 	cmp	r3, #0
    458c:	1a00002d 	bne	4648 <tty_try_execute_shared_ins+0x1024>
    4590:	e59f32a0 	ldr	r3, [pc, #672]	; 4838 <tty_try_execute_shared_ins+0x1214>
    4594:	e08f3003 	add	r3, pc, r3
    4598:	e3a00001 	mov	r0, #1
    459c:	e5823018 	str	r3, [r2, #24]
    45a0:	eafffcbd 	b	389c <tty_try_execute_shared_ins+0x278>
    45a4:	e280000c 	add	r0, r0, #12
    45a8:	ebfff832 	bl	2678 <tty_ins_stream_jump_to_else_or_eif>
    45ac:	e3500059 	cmp	r0, #89	; 0x59
    45b0:	1afffe6c 	bne	3f68 <tty_try_execute_shared_ins+0x944>
    45b4:	eaffffd7 	b	4518 <tty_try_execute_shared_ins+0xef4>
    45b8:	e5905000 	ldr	r5, [r0]
    45bc:	e1d530ba 	ldrh	r3, [r5, #10]
    45c0:	e5907010 	ldr	r7, [r0, #16]
    45c4:	e201e007 	and	lr, r1, #7
    45c8:	e2830001 	add	r0, r3, #1
    45cc:	e08ee000 	add	lr, lr, r0
    45d0:	e1a0e80e 	lsl	lr, lr, #16
    45d4:	e5956004 	ldr	r6, [r5, #4]
    45d8:	e1a0e82e 	lsr	lr, lr, #16
    45dc:	e1a01003 	mov	r1, r3
    45e0:	e5942014 	ldr	r2, [r4, #20]
    45e4:	e282c001 	add	ip, r2, #1
    45e8:	e584c014 	str	ip, [r4, #20]
    45ec:	e1a03800 	lsl	r3, r0, #16
    45f0:	e1a03823 	lsr	r3, r3, #16
    45f4:	e7d72002 	ldrb	r2, [r7, r2]
    45f8:	e153000e 	cmp	r3, lr
    45fc:	e1c530ba 	strh	r3, [r5, #10]
    4600:	e2830001 	add	r0, r3, #1
    4604:	e7862101 	str	r2, [r6, r1, lsl #2]
    4608:	1afffff3 	bne	45dc <tty_try_execute_shared_ins+0xfb8>
    460c:	eaffffc1 	b	4518 <tty_try_execute_shared_ins+0xef4>
    4610:	e2822001 	add	r2, r2, #1
    4614:	e3a00001 	mov	r0, #1
    4618:	e5842014 	str	r2, [r4, #20]
    461c:	eafffc9e 	b	389c <tty_try_execute_shared_ins+0x278>
    4620:	e494000c 	ldr	r0, [r4], #12
    4624:	e2012007 	and	r2, r1, #7
    4628:	e2800004 	add	r0, r0, #4
    462c:	e1a01004 	mov	r1, r4
    4630:	e2822001 	add	r2, r2, #1
    4634:	ebfff845 	bl	2750 <tty_interp_stack_push_words_from_stream>
    4638:	e3a00001 	mov	r0, #1
    463c:	eafffc96 	b	389c <tty_try_execute_shared_ins+0x278>
    4640:	e2622000 	rsb	r2, r2, #0
    4644:	eaffffc6 	b	4564 <tty_try_execute_shared_ins+0xf40>
    4648:	e5923048 	ldr	r3, [r2, #72]	; 0x48
    464c:	e3530000 	cmp	r3, #0
    4650:	1affffb0 	bne	4518 <tty_try_execute_shared_ins+0xef4>
    4654:	e59f31e0 	ldr	r3, [pc, #480]	; 483c <tty_try_execute_shared_ins+0x1218>
    4658:	e08f3003 	add	r3, pc, r3
    465c:	e3a00001 	mov	r0, #1
    4660:	e5823018 	str	r3, [r2, #24]
    4664:	eafffc8c 	b	389c <tty_try_execute_shared_ins+0x278>
    4668:	e2622000 	rsb	r2, r2, #0
    466c:	eafffdb7 	b	3d50 <tty_try_execute_shared_ins+0x72c>
    4670:	e5904000 	ldr	r4, [r0]
    4674:	e1d460ba 	ldrh	r6, [r4, #10]
    4678:	e2462001 	sub	r2, r6, #1
    467c:	e5945004 	ldr	r5, [r4, #4]
    4680:	e1a02802 	lsl	r2, r2, #16
    4684:	e1a02822 	lsr	r2, r2, #16
    4688:	e7951102 	ldr	r1, [r5, r2, lsl #2]
    468c:	e1a00004 	mov	r0, r4
    4690:	e1c420ba 	strh	r2, [r4, #10]
    4694:	ebfff929 	bl	2b40 <tty_round_according_to_round_state.isra.0>
    4698:	e1a03000 	mov	r3, r0
    469c:	e1c460ba 	strh	r6, [r4, #10]
    46a0:	e3a00001 	mov	r0, #1
    46a4:	e7853102 	str	r3, [r5, r2, lsl #2]
    46a8:	eafffc7b 	b	389c <tty_try_execute_shared_ins+0x278>
    46ac:	e3510004 	cmp	r1, #4
    46b0:	13a01901 	movne	r1, #16384	; 0x4000
    46b4:	13a02000 	movne	r2, #0
    46b8:	03a01000 	moveq	r1, #0
    46bc:	03a02901 	moveq	r2, #16384	; 0x4000
    46c0:	e5903000 	ldr	r3, [r0]
    46c4:	e5900000 	ldr	r0, [r0]
    46c8:	e5831044 	str	r1, [r3, #68]	; 0x44
    46cc:	e5832048 	str	r2, [r3, #72]	; 0x48
    46d0:	ebfff956 	bl	2c30 <tty_update_proj_dot_free.isra.0>
    46d4:	e5943000 	ldr	r3, [r4]
    46d8:	e59f2160 	ldr	r2, [pc, #352]	; 4840 <tty_try_execute_shared_ins+0x121c>
    46dc:	e5931028 	ldr	r1, [r3, #40]	; 0x28
    46e0:	e08f2002 	add	r2, pc, r2
    46e4:	e3510301 	cmp	r1, #67108864	; 0x4000000
    46e8:	e5832018 	str	r2, [r3, #24]
    46ec:	1affff89 	bne	4518 <tty_try_execute_shared_ins+0xef4>
    46f0:	e5932044 	ldr	r2, [r3, #68]	; 0x44
    46f4:	e3520000 	cmp	r2, #0
    46f8:	1a00003d 	bne	47f4 <tty_try_execute_shared_ins+0x11d0>
    46fc:	e59f2140 	ldr	r2, [pc, #320]	; 4844 <tty_try_execute_shared_ins+0x1220>
    4700:	e08f2002 	add	r2, pc, r2
    4704:	e3a00001 	mov	r0, #1
    4708:	e5832018 	str	r2, [r3, #24]
    470c:	eafffc62 	b	389c <tty_try_execute_shared_ins+0x278>
    4710:	e3510000 	cmp	r1, #0
    4714:	e5943000 	ldr	r3, [r4]
    4718:	0a00002e 	beq	47d8 <tty_try_execute_shared_ins+0x11b4>
    471c:	e3a01901 	mov	r1, #16384	; 0x4000
    4720:	e3a02000 	mov	r2, #0
    4724:	e59f011c 	ldr	r0, [pc, #284]	; 4848 <tty_try_execute_shared_ins+0x1224>
    4728:	e08f0000 	add	r0, pc, r0
    472c:	e5830018 	str	r0, [r3, #24]
    4730:	e5831044 	str	r1, [r3, #68]	; 0x44
    4734:	e5832048 	str	r2, [r3, #72]	; 0x48
    4738:	e3a0e101 	mov	lr, #1073741824	; 0x40000000
    473c:	e2832044 	add	r2, r3, #68	; 0x44
    4740:	e8920003 	ldm	r2, {r0, r1}
    4744:	e283c04c 	add	ip, r3, #76	; 0x4c
    4748:	e88c0003 	stm	ip, {r0, r1}
    474c:	e8920003 	ldm	r2, {r0, r1}
    4750:	e283203c 	add	r2, r3, #60	; 0x3c
    4754:	e8820003 	stm	r2, {r0, r1}
    4758:	e3a00001 	mov	r0, #1
    475c:	e583e028 	str	lr, [r3, #40]	; 0x28
    4760:	eafffc4d 	b	389c <tty_try_execute_shared_ins+0x278>
    4764:	e3510002 	cmp	r1, #2
    4768:	13a01901 	movne	r1, #16384	; 0x4000
    476c:	13a02000 	movne	r2, #0
    4770:	03a01000 	moveq	r1, #0
    4774:	03a02901 	moveq	r2, #16384	; 0x4000
    4778:	e5903000 	ldr	r3, [r0]
    477c:	e5832050 	str	r2, [r3, #80]	; 0x50
    4780:	e583104c 	str	r1, [r3, #76]	; 0x4c
    4784:	e283204c 	add	r2, r3, #76	; 0x4c
    4788:	e8920003 	ldm	r2, {r0, r1}
    478c:	e283203c 	add	r2, r3, #60	; 0x3c
    4790:	e8820003 	stm	r2, {r0, r1}
    4794:	e1a00003 	mov	r0, r3
    4798:	ebfff924 	bl	2c30 <tty_update_proj_dot_free.isra.0>
    479c:	e5943000 	ldr	r3, [r4]
    47a0:	e59f20a4 	ldr	r2, [pc, #164]	; 484c <tty_try_execute_shared_ins+0x1228>
    47a4:	e5931028 	ldr	r1, [r3, #40]	; 0x28
    47a8:	e08f2002 	add	r2, pc, r2
    47ac:	e3510301 	cmp	r1, #67108864	; 0x4000000
    47b0:	e5832018 	str	r2, [r3, #24]
    47b4:	1affff57 	bne	4518 <tty_try_execute_shared_ins+0xef4>
    47b8:	e5932044 	ldr	r2, [r3, #68]	; 0x44
    47bc:	e3520000 	cmp	r2, #0
    47c0:	1a000013 	bne	4814 <tty_try_execute_shared_ins+0x11f0>
    47c4:	e59f2084 	ldr	r2, [pc, #132]	; 4850 <tty_try_execute_shared_ins+0x122c>
    47c8:	e08f2002 	add	r2, pc, r2
    47cc:	e3a00001 	mov	r0, #1
    47d0:	e5832018 	str	r2, [r3, #24]
    47d4:	eafffc30 	b	389c <tty_try_execute_shared_ins+0x278>
    47d8:	e3a00901 	mov	r0, #16384	; 0x4000
    47dc:	e59f2070 	ldr	r2, [pc, #112]	; 4854 <tty_try_execute_shared_ins+0x1230>
    47e0:	e08f2002 	add	r2, pc, r2
    47e4:	e5831044 	str	r1, [r3, #68]	; 0x44
    47e8:	e5832018 	str	r2, [r3, #24]
    47ec:	e5830048 	str	r0, [r3, #72]	; 0x48
    47f0:	eaffffd0 	b	4738 <tty_try_execute_shared_ins+0x1114>
    47f4:	e5932048 	ldr	r2, [r3, #72]	; 0x48
    47f8:	e3520000 	cmp	r2, #0
    47fc:	1affff45 	bne	4518 <tty_try_execute_shared_ins+0xef4>
    4800:	e59f2050 	ldr	r2, [pc, #80]	; 4858 <tty_try_execute_shared_ins+0x1234>
    4804:	e08f2002 	add	r2, pc, r2
    4808:	e3a00001 	mov	r0, #1
    480c:	e5832018 	str	r2, [r3, #24]
    4810:	eafffc21 	b	389c <tty_try_execute_shared_ins+0x278>
    4814:	e5932048 	ldr	r2, [r3, #72]	; 0x48
    4818:	e3520000 	cmp	r2, #0
    481c:	1affff3d 	bne	4518 <tty_try_execute_shared_ins+0xef4>
    4820:	e59f2034 	ldr	r2, [pc, #52]	; 485c <tty_try_execute_shared_ins+0x1238>
    4824:	e08f2002 	add	r2, pc, r2
    4828:	e3a00001 	mov	r0, #1
    482c:	e5832018 	str	r2, [r3, #24]
    4830:	eafffc19 	b	389c <tty_try_execute_shared_ins+0x278>
    4834:	000003b0 			; <UNDEFINED> instruction: 0x000003b0
    4838:	ffffe2dc 			; <UNDEFINED> instruction: 0xffffe2dc
    483c:	ffffe204 			; <UNDEFINED> instruction: 0xffffe204
    4840:	000001d8 	ldrdeq	r0, [r0], -r8
    4844:	ffffe170 			; <UNDEFINED> instruction: 0xffffe170
    4848:	ffffe134 			; <UNDEFINED> instruction: 0xffffe134
    484c:	00000110 	andeq	r0, r0, r0, lsl r1
    4850:	ffffe0a8 			; <UNDEFINED> instruction: 0xffffe0a8
    4854:	ffffe090 			; <UNDEFINED> instruction: 0xffffe090
    4858:	ffffe058 			; <UNDEFINED> instruction: 0xffffe058
    485c:	ffffe038 			; <UNDEFINED> instruction: 0xffffe038

00004860 <tty_execute_next_cv_program_ins>:
    4860:	e1a0c00d 	mov	ip, sp
    4864:	e2802010 	add	r2, r0, #16
    4868:	e92dd830 	push	{r4, r5, fp, ip, lr, pc}
    486c:	e892000c 	ldm	r2, {r2, r3}
    4870:	e2831001 	add	r1, r3, #1
    4874:	e5801014 	str	r1, [r0, #20]
    4878:	e7d25003 	ldrb	r5, [r2, r3]
    487c:	e24cb004 	sub	fp, ip, #4
    4880:	e1a01005 	mov	r1, r5
    4884:	e1a04000 	mov	r4, r0
    4888:	ebfffb65 	bl	3624 <tty_try_execute_shared_ins>
    488c:	e3500000 	cmp	r0, #0
    4890:	1a000003 	bne	48a4 <tty_execute_next_cv_program_ins+0x44>
    4894:	e355002c 	cmp	r5, #44	; 0x2c
    4898:	13a03001 	movne	r3, #1
    489c:	15c4301d 	strbne	r3, [r4, #29]
    48a0:	0a000002 	beq	48b0 <tty_execute_next_cv_program_ins+0x50>
    48a4:	e24bd014 	sub	sp, fp, #20
    48a8:	e89d6830 	ldm	sp, {r4, r5, fp, sp, lr}
    48ac:	e12fff1e 	bx	lr
    48b0:	e1a00004 	mov	r0, r4
    48b4:	e24bd014 	sub	sp, fp, #20
    48b8:	e89d6830 	ldm	sp, {r4, r5, fp, sp, lr}
    48bc:	eafff7f9 	b	28a8 <tty_FDEF>

000048c0 <tty_move_point>:
    48c0:	e1a0c00d 	mov	ip, sp
    48c4:	e92dd8f0 	push	{r4, r5, r6, r7, fp, ip, lr, pc}
    48c8:	e1a05001 	mov	r5, r1
    48cc:	e1a04002 	mov	r4, r2
    48d0:	e5902000 	ldr	r2, [r0]
    48d4:	e5921044 	ldr	r1, [r2, #68]	; 0x44
    48d8:	e3510000 	cmp	r1, #0
    48dc:	15951010 	ldrne	r1, [r5, #16]
    48e0:	17d12004 	ldrbne	r2, [r1, r4]
    48e4:	13822001 	orrne	r2, r2, #1
    48e8:	17c12004 	strbne	r2, [r1, r4]
    48ec:	15902000 	ldrne	r2, [r0]
    48f0:	e5921048 	ldr	r1, [r2, #72]	; 0x48
    48f4:	e3510000 	cmp	r1, #0
    48f8:	e24cb004 	sub	fp, ip, #4
    48fc:	0a000020 	beq	4984 <tty_move_point+0xc4>
    4900:	e5d0001c 	ldrb	r0, [r0, #28]
    4904:	e3500003 	cmp	r0, #3
    4908:	e5956010 	ldr	r6, [r5, #16]
    490c:	0a000019 	beq	4978 <tty_move_point+0xb8>
    4910:	e5922028 	ldr	r2, [r2, #40]	; 0x28
    4914:	e1920fc2 	orrs	r0, r2, r2, asr #31
    4918:	03a00000 	moveq	r0, #0
    491c:	e1a0efc2 	asr	lr, r2, #31
    4920:	0a00000f 	beq	4964 <tty_move_point+0xa4>
    4924:	e1a01801 	lsl	r1, r1, #16
    4928:	e0c70391 	smull	r0, r7, r1, r3
    492c:	e1a03fae 	lsr	r3, lr, #31
    4930:	e1530fa7 	cmp	r3, r7, lsr #31
    4934:	0a000015 	beq	4990 <tty_move_point+0xd0>
    4938:	e093c002 	adds	ip, r3, r2
    493c:	e2ae1000 	adc	r1, lr, #0
    4940:	e1a0c0ac 	lsr	ip, ip, #1
    4944:	e18ccf81 	orr	ip, ip, r1, lsl #31
    4948:	e27cc000 	rsbs	ip, ip, #0
    494c:	e1a010c1 	asr	r1, r1, #1
    4950:	e2e11000 	rsc	r1, r1, #0
    4954:	e09c0000 	adds	r0, ip, r0
    4958:	e1a0300e 	mov	r3, lr
    495c:	e0a71001 	adc	r1, r7, r1
    4960:	eb0030ee 	bl	10d20 <__aeabi_ldivmod>
    4964:	e5953008 	ldr	r3, [r5, #8]
    4968:	e0833184 	add	r3, r3, r4, lsl #3
    496c:	e5932004 	ldr	r2, [r3, #4]
    4970:	e0820000 	add	r0, r2, r0
    4974:	e5830004 	str	r0, [r3, #4]
    4978:	e7d63004 	ldrb	r3, [r6, r4]
    497c:	e3833002 	orr	r3, r3, #2
    4980:	e7c63004 	strb	r3, [r6, r4]
    4984:	e24bd01c 	sub	sp, fp, #28
    4988:	e89d68f0 	ldm	sp, {r4, r5, r6, r7, fp, sp, lr}
    498c:	e12fff1e 	bx	lr
    4990:	e093c002 	adds	ip, r3, r2
    4994:	e2ae1000 	adc	r1, lr, #0
    4998:	e1a0c0ac 	lsr	ip, ip, #1
    499c:	e18ccf81 	orr	ip, ip, r1, lsl #31
    49a0:	e09c0000 	adds	r0, ip, r0
    49a4:	e1a0300e 	mov	r3, lr
    49a8:	e0a710c1 	adc	r1, r7, r1, asr #1
    49ac:	eb0030db 	bl	10d20 <__aeabi_ldivmod>
    49b0:	eaffffeb 	b	4964 <tty_move_point+0xa4>

000049b4 <tty_subdivide_curve_into_edges>:
    49b4:	e1a0c00d 	mov	ip, sp
    49b8:	e24dd008 	sub	sp, sp, #8
    49bc:	e92ddff0 	push	{r4, r5, r6, r7, r8, r9, sl, fp, ip, lr, pc}
    49c0:	e1a05001 	mov	r5, r1
    49c4:	e24cb00c 	sub	fp, ip, #12
    49c8:	e24bc04c 	sub	ip, fp, #76	; 0x4c
    49cc:	e24dd054 	sub	sp, sp, #84	; 0x54
    49d0:	e88c0006 	stm	ip, {r1, r2}
    49d4:	e59b7014 	ldr	r7, [fp, #20]
    49d8:	e51b8048 	ldr	r8, [fp, #-72]	; 0xffffffb8
    49dc:	e59b6010 	ldr	r6, [fp, #16]
    49e0:	e1a04000 	mov	r4, r0
    49e4:	e0870008 	add	r0, r7, r8
    49e8:	e50b0058 	str	r0, [fp, #-88]	; 0xffffffa8
    49ec:	e0852006 	add	r2, r5, r6
    49f0:	e1a00fc0 	asr	r0, r0, #31
    49f4:	e1a0afc2 	asr	sl, r2, #31
    49f8:	e50b005c 	str	r0, [fp, #-92]	; 0xffffffa4
    49fc:	e0830005 	add	r0, r3, r5
    4a00:	e50ba054 	str	sl, [fp, #-84]	; 0xffffffac
    4a04:	e290a001 	adds	sl, r0, #1
    4a08:	e1a00fc0 	asr	r0, r0, #31
    4a0c:	e59b100c 	ldr	r1, [fp, #12]
    4a10:	e2a00000 	adc	r0, r0, #0
    4a14:	e1a00280 	lsl	r0, r0, #5
    4a18:	e1800daa 	orr	r0, r0, sl, lsr #27
    4a1c:	e50bc060 	str	ip, [fp, #-96]	; 0xffffffa0
    4a20:	e1a0a28a 	lsl	sl, sl, #5
    4a24:	e081c008 	add	ip, r1, r8
    4a28:	e1a09fcc 	asr	r9, ip, #31
    4a2c:	e58b3008 	str	r3, [fp, #8]
    4a30:	e29cc001 	adds	ip, ip, #1
    4a34:	e0833006 	add	r3, r3, r6
    4a38:	e1a0a32a 	lsr	sl, sl, #6
    4a3c:	e18aad00 	orr	sl, sl, r0, lsl #26
    4a40:	e0811007 	add	r1, r1, r7
    4a44:	e2a99000 	adc	r9, r9, #0
    4a48:	e2930001 	adds	r0, r3, #1
    4a4c:	e1a03fc3 	asr	r3, r3, #31
    4a50:	e1a0efc1 	asr	lr, r1, #31
    4a54:	e2a33000 	adc	r3, r3, #0
    4a58:	e1a09289 	lsl	r9, r9, #5
    4a5c:	e2911001 	adds	r1, r1, #1
    4a60:	e1899dac 	orr	r9, r9, ip, lsr #27
    4a64:	e2aee000 	adc	lr, lr, #0
    4a68:	e1a0c28c 	lsl	ip, ip, #5
    4a6c:	e1a03283 	lsl	r3, r3, #5
    4a70:	e1833da0 	orr	r3, r3, r0, lsr #27
    4a74:	e1a0c32c 	lsr	ip, ip, #6
    4a78:	e1a00280 	lsl	r0, r0, #5
    4a7c:	e1a0e28e 	lsl	lr, lr, #5
    4a80:	e18ccd09 	orr	ip, ip, r9, lsl #26
    4a84:	e18eeda1 	orr	lr, lr, r1, lsr #27
    4a88:	e1a09320 	lsr	r9, r0, #6
    4a8c:	e1a01281 	lsl	r1, r1, #5
    4a90:	e1899d03 	orr	r9, r9, r3, lsl #26
    4a94:	e1a03321 	lsr	r3, r1, #6
    4a98:	e183ed0e 	orr	lr, r3, lr, lsl #26
    4a9c:	e08a3009 	add	r3, sl, r9
    4aa0:	e50bc050 	str	ip, [fp, #-80]	; 0xffffffb0
    4aa4:	e293c001 	adds	ip, r3, #1
    4aa8:	e1a03fc3 	asr	r3, r3, #31
    4aac:	e2a33000 	adc	r3, r3, #0
    4ab0:	e51b1050 	ldr	r1, [fp, #-80]	; 0xffffffb0
    4ab4:	e1a03283 	lsl	r3, r3, #5
    4ab8:	e1833dac 	orr	r3, r3, ip, lsr #27
    4abc:	e081100e 	add	r1, r1, lr
    4ac0:	e1a0c28c 	lsl	ip, ip, #5
    4ac4:	e2910001 	adds	r0, r1, #1
    4ac8:	e50ba064 	str	sl, [fp, #-100]	; 0xffffff9c
    4acc:	e1a0c32c 	lsr	ip, ip, #6
    4ad0:	e51ba054 	ldr	sl, [fp, #-84]	; 0xffffffac
    4ad4:	e1a01fc1 	asr	r1, r1, #31
    4ad8:	e18ccd03 	orr	ip, ip, r3, lsl #26
    4adc:	e2a11000 	adc	r1, r1, #0
    4ae0:	e51b3058 	ldr	r3, [fp, #-88]	; 0xffffffa8
    4ae4:	e2922001 	adds	r2, r2, #1
    4ae8:	e50be068 	str	lr, [fp, #-104]	; 0xffffff98
    4aec:	e2aae000 	adc	lr, sl, #0
    4af0:	e51ba05c 	ldr	sl, [fp, #-92]	; 0xffffffa4
    4af4:	e2933001 	adds	r3, r3, #1
    4af8:	e2aaa000 	adc	sl, sl, #0
    4afc:	e1a01281 	lsl	r1, r1, #5
    4b00:	e1a0a28a 	lsl	sl, sl, #5
    4b04:	e1811da0 	orr	r1, r1, r0, lsr #27
    4b08:	e18aada3 	orr	sl, sl, r3, lsr #27
    4b0c:	e1a00280 	lsl	r0, r0, #5
    4b10:	e1a03283 	lsl	r3, r3, #5
    4b14:	e1a00320 	lsr	r0, r0, #6
    4b18:	e1a03323 	lsr	r3, r3, #6
    4b1c:	e1800d01 	orr	r0, r0, r1, lsl #26
    4b20:	e1833d0a 	orr	r3, r3, sl, lsl #26
    4b24:	e3a01020 	mov	r1, #32
    4b28:	e3a0a000 	mov	sl, #0
    4b2c:	e1a0e28e 	lsl	lr, lr, #5
    4b30:	e18eeda2 	orr	lr, lr, r2, lsr #27
    4b34:	e1a02282 	lsl	r2, r2, #5
    4b38:	e1a02322 	lsr	r2, r2, #6
    4b3c:	e1822d0e 	orr	r2, r2, lr, lsl #26
    4b40:	e042200c 	sub	r2, r2, ip
    4b44:	e0ea1292 	smlal	r1, sl, r2, r2
    4b48:	e3a0e000 	mov	lr, #0
    4b4c:	e3a02020 	mov	r2, #32
    4b50:	e0433000 	sub	r3, r3, r0
    4b54:	e0ee2393 	smlal	r2, lr, r3, r3
    4b58:	e1a01321 	lsr	r1, r1, #6
    4b5c:	e1a02322 	lsr	r2, r2, #6
    4b60:	e1811d0a 	orr	r1, r1, sl, lsl #26
    4b64:	e1822d0e 	orr	r2, r2, lr, lsl #26
    4b68:	e0811002 	add	r1, r1, r2
    4b6c:	e3510001 	cmp	r1, #1
    4b70:	ca000044 	bgt	4c88 <tty_subdivide_curve_into_edges+0x2d4>
    4b74:	e9940408 	ldmib	r4, {r3, sl}
    4b78:	e15a0003 	cmp	sl, r3
    4b7c:	0a000036 	beq	4c5c <tty_subdivide_curve_into_edges+0x2a8>
    4b80:	e5949000 	ldr	r9, [r4]
    4b84:	e08aa18a 	add	sl, sl, sl, lsl #3
    4b88:	e789510a 	str	r5, [r9, sl, lsl #2]
    4b8c:	e1550006 	cmp	r5, r6
    4b90:	e089910a 	add	r9, r9, sl, lsl #2
    4b94:	e5898004 	str	r8, [r9, #4]
    4b98:	e5896008 	str	r6, [r9, #8]
    4b9c:	e589700c 	str	r7, [r9, #12]
    4ba0:	0a000019 	beq	4c0c <tty_subdivide_curve_into_edges+0x258>
    4ba4:	e0462005 	sub	r2, r6, r5
    4ba8:	e0470008 	sub	r0, r7, r8
    4bac:	e1a03fa2 	lsr	r3, r2, #31
    4bb0:	e1530fa0 	cmp	r3, r0, lsr #31
    4bb4:	e1a010c0 	asr	r1, r0, #1
    4bb8:	e1a03fc2 	asr	r3, r2, #31
    4bbc:	e1a00f80 	lsl	r0, r0, #31
    4bc0:	e1a0cfa2 	lsr	ip, r2, #31
    4bc4:	0a00005b 	beq	4d38 <tty_subdivide_curve_into_edges+0x384>
    4bc8:	e09cc002 	adds	ip, ip, r2
    4bcc:	e2a3e000 	adc	lr, r3, #0
    4bd0:	e1a0c0ac 	lsr	ip, ip, #1
    4bd4:	e18ccf8e 	orr	ip, ip, lr, lsl #31
    4bd8:	e27cc000 	rsbs	ip, ip, #0
    4bdc:	e1a0e0ce 	asr	lr, lr, #1
    4be0:	e2eee000 	rsc	lr, lr, #0
    4be4:	e09c0000 	adds	r0, ip, r0
    4be8:	e0a1100e 	adc	r1, r1, lr
    4bec:	eb00304b 	bl	10d20 <__aeabi_ldivmod>
    4bf0:	e2902901 	adds	r2, r0, #16384	; 0x4000
    4bf4:	e2a11000 	adc	r1, r1, #0
    4bf8:	e1a027a2 	lsr	r2, r2, #15
    4bfc:	e1822881 	orr	r2, r2, r1, lsl #17
    4c00:	e1923fc2 	orrs	r3, r2, r2, asr #31
    4c04:	e1a03fc2 	asr	r3, r2, #31
    4c08:	1a00003a 	bne	4cf8 <tty_subdivide_curve_into_edges+0x344>
    4c0c:	e3a01000 	mov	r1, #0
    4c10:	e1550006 	cmp	r5, r6
    4c14:	a1a05006 	movge	r5, r6
    4c18:	e1570008 	cmp	r7, r8
    4c1c:	e589101c 	str	r1, [r9, #28]
    4c20:	ca00002e 	bgt	4ce0 <tty_subdivide_curve_into_edges+0x32c>
    4c24:	e3e03000 	mvn	r3, #0
    4c28:	e1570008 	cmp	r7, r8
    4c2c:	e5895018 	str	r5, [r9, #24]
    4c30:	e5c93020 	strb	r3, [r9, #32]
    4c34:	aa00002c 	bge	4cec <tty_subdivide_curve_into_edges+0x338>
    4c38:	e5898014 	str	r8, [r9, #20]
    4c3c:	e5897010 	str	r7, [r9, #16]
    4c40:	e3a00000 	mov	r0, #0
    4c44:	e5943008 	ldr	r3, [r4, #8]
    4c48:	e2833001 	add	r3, r3, #1
    4c4c:	e5843008 	str	r3, [r4, #8]
    4c50:	e24bd028 	sub	sp, fp, #40	; 0x28
    4c54:	e89d6ff0 	ldm	sp, {r4, r5, r6, r7, r8, r9, sl, fp, sp, lr}
    4c58:	e12fff1e 	bx	lr
    4c5c:	e08a118a 	add	r1, sl, sl, lsl #3
    4c60:	e5940000 	ldr	r0, [r4]
    4c64:	e1a01181 	lsl	r1, r1, #3
    4c68:	eb003347 	bl	1198c <realloc>
    4c6c:	e2509000 	subs	r9, r0, #0
    4c70:	03a00005 	moveq	r0, #5
    4c74:	0afffff5 	beq	4c50 <tty_subdivide_curve_into_edges+0x29c>
    4c78:	e1a0a08a 	lsl	sl, sl, #1
    4c7c:	e8840600 	stm	r4, {r9, sl}
    4c80:	e594a008 	ldr	sl, [r4, #8]
    4c84:	eaffffbe 	b	4b84 <tty_subdivide_curve_into_edges+0x1d0>
    4c88:	e51b3050 	ldr	r3, [fp, #-80]	; 0xffffffb0
    4c8c:	e50bc034 	str	ip, [fp, #-52]	; 0xffffffcc
    4c90:	e58d3000 	str	r3, [sp]
    4c94:	e50b0030 	str	r0, [fp, #-48]	; 0xffffffd0
    4c98:	e24b5034 	sub	r5, fp, #52	; 0x34
    4c9c:	e8950003 	ldm	r5, {r0, r1}
    4ca0:	e98d0003 	stmib	sp, {r0, r1}
    4ca4:	e51b2060 	ldr	r2, [fp, #-96]	; 0xffffffa0
    4ca8:	e1a00004 	mov	r0, r4
    4cac:	e51b3064 	ldr	r3, [fp, #-100]	; 0xffffff9c
    4cb0:	e8920006 	ldm	r2, {r1, r2}
    4cb4:	ebffff3e 	bl	49b4 <tty_subdivide_curve_into_edges>
    4cb8:	e3500000 	cmp	r0, #0
    4cbc:	1affffe3 	bne	4c50 <tty_subdivide_curve_into_edges+0x29c>
    4cc0:	e51b3068 	ldr	r3, [fp, #-104]	; 0xffffff98
    4cc4:	e1a00004 	mov	r0, r4
    4cc8:	e58b300c 	str	r3, [fp, #12]
    4ccc:	e1a03009 	mov	r3, r9
    4cd0:	e8950006 	ldm	r5, {r1, r2}
    4cd4:	e24bd028 	sub	sp, fp, #40	; 0x28
    4cd8:	e89d6ff0 	ldm	sp, {r4, r5, r6, r7, r8, r9, sl, fp, sp, lr}
    4cdc:	eaffff34 	b	49b4 <tty_subdivide_curve_into_edges>
    4ce0:	e3a03001 	mov	r3, #1
    4ce4:	e5895018 	str	r5, [r9, #24]
    4ce8:	e5c93020 	strb	r3, [r9, #32]
    4cec:	e5897014 	str	r7, [r9, #20]
    4cf0:	e5898010 	str	r8, [r9, #16]
    4cf4:	eaffffd1 	b	4c40 <tty_subdivide_curve_into_edges+0x28c>
    4cf8:	e3530000 	cmp	r3, #0
    4cfc:	aa000015 	bge	4d58 <tty_subdivide_curve_into_edges+0x3a4>
    4d00:	e1a00fa3 	lsr	r0, r3, #31
    4d04:	e0900002 	adds	r0, r0, r2
    4d08:	e2a31000 	adc	r1, r3, #0
    4d0c:	e1a000a0 	lsr	r0, r0, #1
    4d10:	e1800f81 	orr	r0, r0, r1, lsl #31
    4d14:	e2700000 	rsbs	r0, r0, #0
    4d18:	e1a010c1 	asr	r1, r1, #1
    4d1c:	e2e11902 	rsc	r1, r1, #32768	; 0x8000
    4d20:	eb002ffe 	bl	10d20 <__aeabi_ldivmod>
    4d24:	e2900901 	adds	r0, r0, #16384	; 0x4000
    4d28:	e2a11000 	adc	r1, r1, #0
    4d2c:	e1a007a0 	lsr	r0, r0, #15
    4d30:	e1801881 	orr	r1, r0, r1, lsl #17
    4d34:	eaffffb5 	b	4c10 <tty_subdivide_curve_into_edges+0x25c>
    4d38:	e09cc002 	adds	ip, ip, r2
    4d3c:	e2a3e000 	adc	lr, r3, #0
    4d40:	e1a0c0ac 	lsr	ip, ip, #1
    4d44:	e18ccf8e 	orr	ip, ip, lr, lsl #31
    4d48:	e09c0000 	adds	r0, ip, r0
    4d4c:	e0a110ce 	adc	r1, r1, lr, asr #1
    4d50:	eb002ff2 	bl	10d20 <__aeabi_ldivmod>
    4d54:	eaffffa5 	b	4bf0 <tty_subdivide_curve_into_edges+0x23c>
    4d58:	e1a000a2 	lsr	r0, r2, #1
    4d5c:	e1800f83 	orr	r0, r0, r3, lsl #31
    4d60:	e2831902 	add	r1, r3, #32768	; 0x8000
    4d64:	eaffffed 	b	4d20 <tty_subdivide_curve_into_edges+0x36c>

00004d68 <tty_iup_interpolate_or_shift>:
    4d68:	e1a0c00d 	mov	ip, sp
    4d6c:	e92ddff0 	push	{r4, r5, r6, r7, r8, r9, sl, fp, ip, lr, pc}
    4d70:	e24cb004 	sub	fp, ip, #4
    4d74:	e24dd03c 	sub	sp, sp, #60	; 0x3c
    4d78:	e1dbc0b4 	ldrh	ip, [fp, #4]
    4d7c:	e50bc044 	str	ip, [fp, #-68]	; 0xffffffbc
    4d80:	e5904000 	ldr	r4, [r0]
    4d84:	e1dbc0b8 	ldrh	ip, [fp, #8]
    4d88:	e50b303c 	str	r3, [fp, #-60]	; 0xffffffc4
    4d8c:	e51b3044 	ldr	r3, [fp, #-68]	; 0xffffffbc
    4d90:	e3510001 	cmp	r1, #1
    4d94:	07949183 	ldreq	r9, [r4, r3, lsl #3]
    4d98:	01a0300c 	moveq	r3, ip
    4d9c:	e50bc038 	str	ip, [fp, #-56]	; 0xffffffc8
    4da0:	10843183 	addne	r3, r4, r3, lsl #3
    4da4:	15939004 	ldrne	r9, [r3, #4]
    4da8:	151b3038 	ldrne	r3, [fp, #-56]	; 0xffffffc8
    4dac:	10843183 	addne	r3, r4, r3, lsl #3
    4db0:	e50b2060 	str	r2, [fp, #-96]	; 0xffffffa0
    4db4:	07942183 	ldreq	r2, [r4, r3, lsl #3]
    4db8:	15932004 	ldrne	r2, [r3, #4]
    4dbc:	e1590002 	cmp	r9, r2
    4dc0:	d1a03002 	movle	r3, r2
    4dc4:	c1a03009 	movgt	r3, r9
    4dc8:	d1a02009 	movle	r2, r9
    4dcc:	e1a09003 	mov	r9, r3
    4dd0:	e50b2034 	str	r2, [fp, #-52]	; 0xffffffcc
    4dd4:	e51b3044 	ldr	r3, [fp, #-68]	; 0xffffffbc
    4dd8:	e51b2038 	ldr	r2, [fp, #-56]	; 0xffffffc8
    4ddc:	e1530002 	cmp	r3, r2
    4de0:	e1a0a000 	mov	sl, r0
    4de4:	e50b1030 	str	r1, [fp, #-48]	; 0xffffffd0
    4de8:	3a0000c9 	bcc	5114 <tty_iup_interpolate_or_shift+0x3ac>
    4dec:	e2836001 	add	r6, r3, #1
    4df0:	e51b303c 	ldr	r3, [fp, #-60]	; 0xffffffc4
    4df4:	e1560003 	cmp	r6, r3
    4df8:	8a00005f 	bhi	4f7c <tty_iup_interpolate_or_shift+0x214>
    4dfc:	e51b3044 	ldr	r3, [fp, #-68]	; 0xffffffbc
    4e00:	e1a02183 	lsl	r2, r3, #3
    4e04:	e5905008 	ldr	r5, [r0, #8]
    4e08:	e50b2050 	str	r2, [fp, #-80]	; 0xffffffb0
    4e0c:	e51b2038 	ldr	r2, [fp, #-56]	; 0xffffffc8
    4e10:	e0840183 	add	r0, r4, r3, lsl #3
    4e14:	e1a01182 	lsl	r1, r2, #3
    4e18:	e50b0048 	str	r0, [fp, #-72]	; 0xffffffb8
    4e1c:	e0853183 	add	r3, r5, r3, lsl #3
    4e20:	e0840182 	add	r0, r4, r2, lsl #3
    4e24:	e0852182 	add	r2, r5, r2, lsl #3
    4e28:	e50b9040 	str	r9, [fp, #-64]	; 0xffffffc0
    4e2c:	e50b004c 	str	r0, [fp, #-76]	; 0xffffffb4
    4e30:	e1a09001 	mov	r9, r1
    4e34:	e50b2058 	str	r2, [fp, #-88]	; 0xffffffa8
    4e38:	e50b305c 	str	r3, [fp, #-92]	; 0xffffffa4
    4e3c:	ea000028 	b	4ee4 <tty_iup_interpolate_or_shift+0x17c>
    4e40:	e0843186 	add	r3, r4, r6, lsl #3
    4e44:	e5937004 	ldr	r7, [r3, #4]
    4e48:	e51b3040 	ldr	r3, [fp, #-64]	; 0xffffffc0
    4e4c:	e51b2034 	ldr	r2, [fp, #-52]	; 0xffffffcc
    4e50:	e1570003 	cmp	r7, r3
    4e54:	c3a03000 	movgt	r3, #0
    4e58:	d3a03001 	movle	r3, #1
    4e5c:	e1570002 	cmp	r7, r2
    4e60:	b3a03000 	movlt	r3, #0
    4e64:	e3530000 	cmp	r3, #0
    4e68:	e1a08186 	lsl	r8, r6, #3
    4e6c:	e51b3048 	ldr	r3, [fp, #-72]	; 0xffffffb8
    4e70:	1a000106 	bne	5290 <tty_iup_interpolate_or_shift+0x528>
    4e74:	e5932004 	ldr	r2, [r3, #4]
    4e78:	e51b304c 	ldr	r3, [fp, #-76]	; 0xffffffb4
    4e7c:	e5933004 	ldr	r3, [r3, #4]
    4e80:	e0422007 	sub	r2, r2, r7
    4e84:	e3520000 	cmp	r2, #0
    4e88:	e0437007 	sub	r7, r3, r7
    4e8c:	b2622000 	rsblt	r2, r2, #0
    4e90:	e3570000 	cmp	r7, #0
    4e94:	b2677000 	rsblt	r7, r7, #0
    4e98:	e1520007 	cmp	r2, r7
    4e9c:	e59a3004 	ldr	r3, [sl, #4]
    4ea0:	b51b2050 	ldrlt	r2, [fp, #-80]	; 0xffffffb0
    4ea4:	a0833009 	addge	r3, r3, r9
    4ea8:	b0833002 	addlt	r3, r3, r2
    4eac:	b5932004 	ldrlt	r2, [r3, #4]
    4eb0:	a5932004 	ldrge	r2, [r3, #4]
    4eb4:	b51b305c 	ldrlt	r3, [fp, #-92]	; 0xffffffa4
    4eb8:	a51b3058 	ldrge	r3, [fp, #-88]	; 0xffffffa8
    4ebc:	e5933004 	ldr	r3, [r3, #4]
    4ec0:	e0858008 	add	r8, r5, r8
    4ec4:	e0432002 	sub	r2, r3, r2
    4ec8:	e5983004 	ldr	r3, [r8, #4]
    4ecc:	e0833002 	add	r3, r3, r2
    4ed0:	e5883004 	str	r3, [r8, #4]
    4ed4:	e51b303c 	ldr	r3, [fp, #-60]	; 0xffffffc4
    4ed8:	e2866001 	add	r6, r6, #1
    4edc:	e1560003 	cmp	r6, r3
    4ee0:	8a000024 	bhi	4f78 <tty_iup_interpolate_or_shift+0x210>
    4ee4:	e51b3030 	ldr	r3, [fp, #-48]	; 0xffffffd0
    4ee8:	e3530001 	cmp	r3, #1
    4eec:	1affffd3 	bne	4e40 <tty_iup_interpolate_or_shift+0xd8>
    4ef0:	e51b3040 	ldr	r3, [fp, #-64]	; 0xffffffc0
    4ef4:	e7948186 	ldr	r8, [r4, r6, lsl #3]
    4ef8:	e51b2034 	ldr	r2, [fp, #-52]	; 0xffffffcc
    4efc:	e1580003 	cmp	r8, r3
    4f00:	c3a03000 	movgt	r3, #0
    4f04:	d3a03001 	movle	r3, #1
    4f08:	e1580002 	cmp	r8, r2
    4f0c:	b3a03000 	movlt	r3, #0
    4f10:	e3530000 	cmp	r3, #0
    4f14:	e1a07186 	lsl	r7, r6, #3
    4f18:	1a00016f 	bne	54dc <tty_iup_interpolate_or_shift+0x774>
    4f1c:	e51b1050 	ldr	r1, [fp, #-80]	; 0xffffffb0
    4f20:	e7942001 	ldr	r2, [r4, r1]
    4f24:	e7943009 	ldr	r3, [r4, r9]
    4f28:	e0422008 	sub	r2, r2, r8
    4f2c:	e3520000 	cmp	r2, #0
    4f30:	e0438008 	sub	r8, r3, r8
    4f34:	b2622000 	rsblt	r2, r2, #0
    4f38:	e3580000 	cmp	r8, #0
    4f3c:	e59a3004 	ldr	r3, [sl, #4]
    4f40:	b2688000 	rsblt	r8, r8, #0
    4f44:	e1520008 	cmp	r2, r8
    4f48:	b7932001 	ldrlt	r2, [r3, r1]
    4f4c:	a7932009 	ldrge	r2, [r3, r9]
    4f50:	b7953001 	ldrlt	r3, [r5, r1]
    4f54:	a7953009 	ldrge	r3, [r5, r9]
    4f58:	e0432002 	sub	r2, r3, r2
    4f5c:	e7953007 	ldr	r3, [r5, r7]
    4f60:	e0833002 	add	r3, r3, r2
    4f64:	e7853007 	str	r3, [r5, r7]
    4f68:	e51b303c 	ldr	r3, [fp, #-60]	; 0xffffffc4
    4f6c:	e2866001 	add	r6, r6, #1
    4f70:	e1560003 	cmp	r6, r3
    4f74:	9affffda 	bls	4ee4 <tty_iup_interpolate_or_shift+0x17c>
    4f78:	e51b9040 	ldr	r9, [fp, #-64]	; 0xffffffc0
    4f7c:	e51b6060 	ldr	r6, [fp, #-96]	; 0xffffffa0
    4f80:	e51b3038 	ldr	r3, [fp, #-56]	; 0xffffffc8
    4f84:	e1560003 	cmp	r6, r3
    4f88:	2a00005e 	bcs	5108 <tty_iup_interpolate_or_shift+0x3a0>
    4f8c:	e51b3044 	ldr	r3, [fp, #-68]	; 0xffffffbc
    4f90:	e59a5008 	ldr	r5, [sl, #8]
    4f94:	e1a02183 	lsl	r2, r3, #3
    4f98:	e50b2048 	str	r2, [fp, #-72]	; 0xffffffb8
    4f9c:	e51b2038 	ldr	r2, [fp, #-56]	; 0xffffffc8
    4fa0:	e0840183 	add	r0, r4, r3, lsl #3
    4fa4:	e0853183 	add	r3, r5, r3, lsl #3
    4fa8:	e50b3054 	str	r3, [fp, #-84]	; 0xffffffac
    4fac:	e0843182 	add	r3, r4, r2, lsl #3
    4fb0:	e50b3044 	str	r3, [fp, #-68]	; 0xffffffbc
    4fb4:	e1a01182 	lsl	r1, r2, #3
    4fb8:	e0853182 	add	r3, r5, r2, lsl #3
    4fbc:	e50b903c 	str	r9, [fp, #-60]	; 0xffffffc4
    4fc0:	e50b0040 	str	r0, [fp, #-64]	; 0xffffffc0
    4fc4:	e1a09001 	mov	r9, r1
    4fc8:	e50b3050 	str	r3, [fp, #-80]	; 0xffffffb0
    4fcc:	ea000028 	b	5074 <tty_iup_interpolate_or_shift+0x30c>
    4fd0:	e0843186 	add	r3, r4, r6, lsl #3
    4fd4:	e5937004 	ldr	r7, [r3, #4]
    4fd8:	e51b303c 	ldr	r3, [fp, #-60]	; 0xffffffc4
    4fdc:	e51b2034 	ldr	r2, [fp, #-52]	; 0xffffffcc
    4fe0:	e1570003 	cmp	r7, r3
    4fe4:	c3a03000 	movgt	r3, #0
    4fe8:	d3a03001 	movle	r3, #1
    4fec:	e1570002 	cmp	r7, r2
    4ff0:	b3a03000 	movlt	r3, #0
    4ff4:	e3530000 	cmp	r3, #0
    4ff8:	e1a08186 	lsl	r8, r6, #3
    4ffc:	e51b3040 	ldr	r3, [fp, #-64]	; 0xffffffc0
    5000:	1a000104 	bne	5418 <tty_iup_interpolate_or_shift+0x6b0>
    5004:	e5932004 	ldr	r2, [r3, #4]
    5008:	e51b3044 	ldr	r3, [fp, #-68]	; 0xffffffbc
    500c:	e5933004 	ldr	r3, [r3, #4]
    5010:	e0422007 	sub	r2, r2, r7
    5014:	e3520000 	cmp	r2, #0
    5018:	e0437007 	sub	r7, r3, r7
    501c:	b2622000 	rsblt	r2, r2, #0
    5020:	e3570000 	cmp	r7, #0
    5024:	b2677000 	rsblt	r7, r7, #0
    5028:	e1520007 	cmp	r2, r7
    502c:	e59a3004 	ldr	r3, [sl, #4]
    5030:	b51b2048 	ldrlt	r2, [fp, #-72]	; 0xffffffb8
    5034:	a0833009 	addge	r3, r3, r9
    5038:	b0833002 	addlt	r3, r3, r2
    503c:	b5932004 	ldrlt	r2, [r3, #4]
    5040:	a5932004 	ldrge	r2, [r3, #4]
    5044:	b51b3054 	ldrlt	r3, [fp, #-84]	; 0xffffffac
    5048:	a51b3050 	ldrge	r3, [fp, #-80]	; 0xffffffb0
    504c:	e5933004 	ldr	r3, [r3, #4]
    5050:	e0858008 	add	r8, r5, r8
    5054:	e0432002 	sub	r2, r3, r2
    5058:	e5983004 	ldr	r3, [r8, #4]
    505c:	e0833002 	add	r3, r3, r2
    5060:	e5883004 	str	r3, [r8, #4]
    5064:	e51b3038 	ldr	r3, [fp, #-56]	; 0xffffffc8
    5068:	e2866001 	add	r6, r6, #1
    506c:	e1560003 	cmp	r6, r3
    5070:	0a000024 	beq	5108 <tty_iup_interpolate_or_shift+0x3a0>
    5074:	e51b3030 	ldr	r3, [fp, #-48]	; 0xffffffd0
    5078:	e3530001 	cmp	r3, #1
    507c:	1affffd3 	bne	4fd0 <tty_iup_interpolate_or_shift+0x268>
    5080:	e51b3034 	ldr	r3, [fp, #-52]	; 0xffffffcc
    5084:	e7948186 	ldr	r8, [r4, r6, lsl #3]
    5088:	e51b203c 	ldr	r2, [fp, #-60]	; 0xffffffc4
    508c:	e1580003 	cmp	r8, r3
    5090:	b3a03000 	movlt	r3, #0
    5094:	a3a03001 	movge	r3, #1
    5098:	e1580002 	cmp	r8, r2
    509c:	c3a03000 	movgt	r3, #0
    50a0:	e3530000 	cmp	r3, #0
    50a4:	e1a07186 	lsl	r7, r6, #3
    50a8:	1a000167 	bne	564c <tty_iup_interpolate_or_shift+0x8e4>
    50ac:	e51b1048 	ldr	r1, [fp, #-72]	; 0xffffffb8
    50b0:	e7942001 	ldr	r2, [r4, r1]
    50b4:	e7943009 	ldr	r3, [r4, r9]
    50b8:	e0422008 	sub	r2, r2, r8
    50bc:	e3520000 	cmp	r2, #0
    50c0:	e0438008 	sub	r8, r3, r8
    50c4:	b2622000 	rsblt	r2, r2, #0
    50c8:	e3580000 	cmp	r8, #0
    50cc:	e59a3004 	ldr	r3, [sl, #4]
    50d0:	b2688000 	rsblt	r8, r8, #0
    50d4:	e1520008 	cmp	r2, r8
    50d8:	b7932001 	ldrlt	r2, [r3, r1]
    50dc:	a7932009 	ldrge	r2, [r3, r9]
    50e0:	b7953001 	ldrlt	r3, [r5, r1]
    50e4:	a7953009 	ldrge	r3, [r5, r9]
    50e8:	e0432002 	sub	r2, r3, r2
    50ec:	e7953007 	ldr	r3, [r5, r7]
    50f0:	e0833002 	add	r3, r3, r2
    50f4:	e7853007 	str	r3, [r5, r7]
    50f8:	e51b3038 	ldr	r3, [fp, #-56]	; 0xffffffc8
    50fc:	e2866001 	add	r6, r6, #1
    5100:	e1560003 	cmp	r6, r3
    5104:	1affffda 	bne	5074 <tty_iup_interpolate_or_shift+0x30c>
    5108:	e24bd028 	sub	sp, fp, #40	; 0x28
    510c:	e89d6ff0 	ldm	sp, {r4, r5, r6, r7, r8, r9, sl, fp, sp, lr}
    5110:	e12fff1e 	bx	lr
    5114:	e51b3044 	ldr	r3, [fp, #-68]	; 0xffffffbc
    5118:	e51b2038 	ldr	r2, [fp, #-56]	; 0xffffffc8
    511c:	e2836001 	add	r6, r3, #1
    5120:	e1560002 	cmp	r6, r2
    5124:	2afffff7 	bcs	5108 <tty_iup_interpolate_or_shift+0x3a0>
    5128:	e5905008 	ldr	r5, [r0, #8]
    512c:	e1a01183 	lsl	r1, r3, #3
    5130:	e0840183 	add	r0, r4, r3, lsl #3
    5134:	e0853183 	add	r3, r5, r3, lsl #3
    5138:	e50b3054 	str	r3, [fp, #-84]	; 0xffffffac
    513c:	e0843182 	add	r3, r4, r2, lsl #3
    5140:	e50b1048 	str	r1, [fp, #-72]	; 0xffffffb8
    5144:	e50b3044 	str	r3, [fp, #-68]	; 0xffffffbc
    5148:	e1a01182 	lsl	r1, r2, #3
    514c:	e0853182 	add	r3, r5, r2, lsl #3
    5150:	e50b903c 	str	r9, [fp, #-60]	; 0xffffffc4
    5154:	e50b0040 	str	r0, [fp, #-64]	; 0xffffffc0
    5158:	e1a09001 	mov	r9, r1
    515c:	e50b3050 	str	r3, [fp, #-80]	; 0xffffffb0
    5160:	ea000028 	b	5208 <tty_iup_interpolate_or_shift+0x4a0>
    5164:	e0843186 	add	r3, r4, r6, lsl #3
    5168:	e5937004 	ldr	r7, [r3, #4]
    516c:	e51b3034 	ldr	r3, [fp, #-52]	; 0xffffffcc
    5170:	e51b203c 	ldr	r2, [fp, #-60]	; 0xffffffc4
    5174:	e1570003 	cmp	r7, r3
    5178:	b3a03000 	movlt	r3, #0
    517c:	a3a03001 	movge	r3, #1
    5180:	e1570002 	cmp	r7, r2
    5184:	c3a03000 	movgt	r3, #0
    5188:	e3530000 	cmp	r3, #0
    518c:	e1a08186 	lsl	r8, r6, #3
    5190:	e51b3040 	ldr	r3, [fp, #-64]	; 0xffffffc0
    5194:	1a00006e 	bne	5354 <tty_iup_interpolate_or_shift+0x5ec>
    5198:	e5932004 	ldr	r2, [r3, #4]
    519c:	e51b3044 	ldr	r3, [fp, #-68]	; 0xffffffbc
    51a0:	e5933004 	ldr	r3, [r3, #4]
    51a4:	e0422007 	sub	r2, r2, r7
    51a8:	e3520000 	cmp	r2, #0
    51ac:	e0437007 	sub	r7, r3, r7
    51b0:	b2622000 	rsblt	r2, r2, #0
    51b4:	e3570000 	cmp	r7, #0
    51b8:	b2677000 	rsblt	r7, r7, #0
    51bc:	e1520007 	cmp	r2, r7
    51c0:	e59a3004 	ldr	r3, [sl, #4]
    51c4:	b51b2048 	ldrlt	r2, [fp, #-72]	; 0xffffffb8
    51c8:	a0833009 	addge	r3, r3, r9
    51cc:	b0833002 	addlt	r3, r3, r2
    51d0:	b5932004 	ldrlt	r2, [r3, #4]
    51d4:	a5932004 	ldrge	r2, [r3, #4]
    51d8:	b51b3054 	ldrlt	r3, [fp, #-84]	; 0xffffffac
    51dc:	a51b3050 	ldrge	r3, [fp, #-80]	; 0xffffffb0
    51e0:	e5933004 	ldr	r3, [r3, #4]
    51e4:	e0858008 	add	r8, r5, r8
    51e8:	e0432002 	sub	r2, r3, r2
    51ec:	e5983004 	ldr	r3, [r8, #4]
    51f0:	e0833002 	add	r3, r3, r2
    51f4:	e5883004 	str	r3, [r8, #4]
    51f8:	e51b3038 	ldr	r3, [fp, #-56]	; 0xffffffc8
    51fc:	e2866001 	add	r6, r6, #1
    5200:	e1560003 	cmp	r6, r3
    5204:	2affffbf 	bcs	5108 <tty_iup_interpolate_or_shift+0x3a0>
    5208:	e51b3030 	ldr	r3, [fp, #-48]	; 0xffffffd0
    520c:	e3530001 	cmp	r3, #1
    5210:	1affffd3 	bne	5164 <tty_iup_interpolate_or_shift+0x3fc>
    5214:	e51b303c 	ldr	r3, [fp, #-60]	; 0xffffffc4
    5218:	e7948186 	ldr	r8, [r4, r6, lsl #3]
    521c:	e51b2034 	ldr	r2, [fp, #-52]	; 0xffffffcc
    5220:	e1580003 	cmp	r8, r3
    5224:	c3a03000 	movgt	r3, #0
    5228:	d3a03001 	movle	r3, #1
    522c:	e1580002 	cmp	r8, r2
    5230:	b3a03000 	movlt	r3, #0
    5234:	e3530000 	cmp	r3, #0
    5238:	e1a07186 	lsl	r7, r6, #3
    523c:	1a0000d4 	bne	5594 <tty_iup_interpolate_or_shift+0x82c>
    5240:	e51b1048 	ldr	r1, [fp, #-72]	; 0xffffffb8
    5244:	e7942001 	ldr	r2, [r4, r1]
    5248:	e7943009 	ldr	r3, [r4, r9]
    524c:	e0422008 	sub	r2, r2, r8
    5250:	e3520000 	cmp	r2, #0
    5254:	e0438008 	sub	r8, r3, r8
    5258:	b2622000 	rsblt	r2, r2, #0
    525c:	e3580000 	cmp	r8, #0
    5260:	e59a3004 	ldr	r3, [sl, #4]
    5264:	b2688000 	rsblt	r8, r8, #0
    5268:	e1520008 	cmp	r2, r8
    526c:	b7932001 	ldrlt	r2, [r3, r1]
    5270:	a7932009 	ldrge	r2, [r3, r9]
    5274:	b7953001 	ldrlt	r3, [r5, r1]
    5278:	a7953009 	ldrge	r3, [r5, r9]
    527c:	e0432002 	sub	r2, r3, r2
    5280:	e7953007 	ldr	r3, [r5, r7]
    5284:	e0833002 	add	r3, r3, r2
    5288:	e7853007 	str	r3, [r5, r7]
    528c:	eaffffd9 	b	51f8 <tty_iup_interpolate_or_shift+0x490>
    5290:	e5931004 	ldr	r1, [r3, #4]
    5294:	e51b304c 	ldr	r3, [fp, #-76]	; 0xffffffb4
    5298:	e5932004 	ldr	r2, [r3, #4]
    529c:	e0422001 	sub	r2, r2, r1
    52a0:	e1923fc2 	orrs	r3, r2, r2, asr #31
    52a4:	e51b3058 	ldr	r3, [fp, #-88]	; 0xffffffa8
    52a8:	e5930004 	ldr	r0, [r3, #4]
    52ac:	e51b305c 	ldr	r3, [fp, #-92]	; 0xffffffa4
    52b0:	e593c004 	ldr	ip, [r3, #4]
    52b4:	e1a03fc2 	asr	r3, r2, #31
    52b8:	e50bc054 	str	ip, [fp, #-84]	; 0xffffffac
    52bc:	0a000020 	beq	5344 <tty_iup_interpolate_or_shift+0x5dc>
    52c0:	e040000c 	sub	r0, r0, ip
    52c4:	e0477001 	sub	r7, r7, r1
    52c8:	e1a01fa3 	lsr	r1, r3, #31
    52cc:	e1510fa0 	cmp	r1, r0, lsr #31
    52d0:	e1a0e800 	lsl	lr, r0, #16
    52d4:	e1a01840 	asr	r1, r0, #16
    52d8:	e1a00fa3 	lsr	r0, r3, #31
    52dc:	0a000136 	beq	57bc <tty_iup_interpolate_or_shift+0xa54>
    52e0:	e0900002 	adds	r0, r0, r2
    52e4:	e2a3c000 	adc	ip, r3, #0
    52e8:	e1a000a0 	lsr	r0, r0, #1
    52ec:	e1800f8c 	orr	r0, r0, ip, lsl #31
    52f0:	e2700000 	rsbs	r0, r0, #0
    52f4:	e1a0c0cc 	asr	ip, ip, #1
    52f8:	e2ecc000 	rsc	ip, ip, #0
    52fc:	e090000e 	adds	r0, r0, lr
    5300:	e0a1100c 	adc	r1, r1, ip
    5304:	eb002e85 	bl	10d20 <__aeabi_ldivmod>
    5308:	e1a03fc7 	asr	r3, r7, #31
    530c:	e1a03303 	lsl	r3, r3, #6
    5310:	e1833d27 	orr	r3, r3, r7, lsr #26
    5314:	e0030390 	mul	r3, r0, r3
    5318:	e1a07307 	lsl	r7, r7, #6
    531c:	e1a02fc0 	asr	r2, r0, #31
    5320:	e0233297 	mla	r3, r7, r2, r3
    5324:	e0812790 	umull	r2, r1, r0, r7
    5328:	e2922602 	adds	r2, r2, #2097152	; 0x200000
    532c:	e51bc054 	ldr	ip, [fp, #-84]	; 0xffffffac
    5330:	e0a33001 	adc	r3, r3, r1
    5334:	e1a02b22 	lsr	r2, r2, #22
    5338:	e1822503 	orr	r2, r2, r3, lsl #10
    533c:	e08c3002 	add	r3, ip, r2
    5340:	e50b3054 	str	r3, [fp, #-84]	; 0xffffffac
    5344:	e51b3054 	ldr	r3, [fp, #-84]	; 0xffffffac
    5348:	e0858008 	add	r8, r5, r8
    534c:	e5883004 	str	r3, [r8, #4]
    5350:	eafffedf 	b	4ed4 <tty_iup_interpolate_or_shift+0x16c>
    5354:	e5931004 	ldr	r1, [r3, #4]
    5358:	e51b3044 	ldr	r3, [fp, #-68]	; 0xffffffbc
    535c:	e5932004 	ldr	r2, [r3, #4]
    5360:	e0422001 	sub	r2, r2, r1
    5364:	e1923fc2 	orrs	r3, r2, r2, asr #31
    5368:	e51b3050 	ldr	r3, [fp, #-80]	; 0xffffffb0
    536c:	e5930004 	ldr	r0, [r3, #4]
    5370:	e51b3054 	ldr	r3, [fp, #-84]	; 0xffffffac
    5374:	e593c004 	ldr	ip, [r3, #4]
    5378:	e1a03fc2 	asr	r3, r2, #31
    537c:	e50bc04c 	str	ip, [fp, #-76]	; 0xffffffb4
    5380:	0a000020 	beq	5408 <tty_iup_interpolate_or_shift+0x6a0>
    5384:	e040000c 	sub	r0, r0, ip
    5388:	e0477001 	sub	r7, r7, r1
    538c:	e1a01fa3 	lsr	r1, r3, #31
    5390:	e1510fa0 	cmp	r1, r0, lsr #31
    5394:	e1a0e800 	lsl	lr, r0, #16
    5398:	e1a01840 	asr	r1, r0, #16
    539c:	e1a00fa3 	lsr	r0, r3, #31
    53a0:	0a0000d7 	beq	5704 <tty_iup_interpolate_or_shift+0x99c>
    53a4:	e0900002 	adds	r0, r0, r2
    53a8:	e2a3c000 	adc	ip, r3, #0
    53ac:	e1a000a0 	lsr	r0, r0, #1
    53b0:	e1800f8c 	orr	r0, r0, ip, lsl #31
    53b4:	e2700000 	rsbs	r0, r0, #0
    53b8:	e1a0c0cc 	asr	ip, ip, #1
    53bc:	e2ecc000 	rsc	ip, ip, #0
    53c0:	e090000e 	adds	r0, r0, lr
    53c4:	e0a1100c 	adc	r1, r1, ip
    53c8:	eb002e54 	bl	10d20 <__aeabi_ldivmod>
    53cc:	e1a03fc7 	asr	r3, r7, #31
    53d0:	e1a03303 	lsl	r3, r3, #6
    53d4:	e1833d27 	orr	r3, r3, r7, lsr #26
    53d8:	e0030390 	mul	r3, r0, r3
    53dc:	e1a07307 	lsl	r7, r7, #6
    53e0:	e1a02fc0 	asr	r2, r0, #31
    53e4:	e0233297 	mla	r3, r7, r2, r3
    53e8:	e0812790 	umull	r2, r1, r0, r7
    53ec:	e2922602 	adds	r2, r2, #2097152	; 0x200000
    53f0:	e51bc04c 	ldr	ip, [fp, #-76]	; 0xffffffb4
    53f4:	e0a33001 	adc	r3, r3, r1
    53f8:	e1a02b22 	lsr	r2, r2, #22
    53fc:	e1822503 	orr	r2, r2, r3, lsl #10
    5400:	e08c3002 	add	r3, ip, r2
    5404:	e50b304c 	str	r3, [fp, #-76]	; 0xffffffb4
    5408:	e51b304c 	ldr	r3, [fp, #-76]	; 0xffffffb4
    540c:	e0858008 	add	r8, r5, r8
    5410:	e5883004 	str	r3, [r8, #4]
    5414:	eaffff77 	b	51f8 <tty_iup_interpolate_or_shift+0x490>
    5418:	e5931004 	ldr	r1, [r3, #4]
    541c:	e51b3044 	ldr	r3, [fp, #-68]	; 0xffffffbc
    5420:	e5932004 	ldr	r2, [r3, #4]
    5424:	e0422001 	sub	r2, r2, r1
    5428:	e1923fc2 	orrs	r3, r2, r2, asr #31
    542c:	e51b3050 	ldr	r3, [fp, #-80]	; 0xffffffb0
    5430:	e5930004 	ldr	r0, [r3, #4]
    5434:	e51b3054 	ldr	r3, [fp, #-84]	; 0xffffffac
    5438:	e593c004 	ldr	ip, [r3, #4]
    543c:	e1a03fc2 	asr	r3, r2, #31
    5440:	e50bc04c 	str	ip, [fp, #-76]	; 0xffffffb4
    5444:	0a000020 	beq	54cc <tty_iup_interpolate_or_shift+0x764>
    5448:	e040000c 	sub	r0, r0, ip
    544c:	e0477001 	sub	r7, r7, r1
    5450:	e1a01fa3 	lsr	r1, r3, #31
    5454:	e1510fa0 	cmp	r1, r0, lsr #31
    5458:	e1a0e800 	lsl	lr, r0, #16
    545c:	e1a01840 	asr	r1, r0, #16
    5460:	e1a00fa3 	lsr	r0, r3, #31
    5464:	0a0000bd 	beq	5760 <tty_iup_interpolate_or_shift+0x9f8>
    5468:	e0900002 	adds	r0, r0, r2
    546c:	e2a3c000 	adc	ip, r3, #0
    5470:	e1a000a0 	lsr	r0, r0, #1
    5474:	e1800f8c 	orr	r0, r0, ip, lsl #31
    5478:	e2700000 	rsbs	r0, r0, #0
    547c:	e1a0c0cc 	asr	ip, ip, #1
    5480:	e2ecc000 	rsc	ip, ip, #0
    5484:	e090000e 	adds	r0, r0, lr
    5488:	e0a1100c 	adc	r1, r1, ip
    548c:	eb002e23 	bl	10d20 <__aeabi_ldivmod>
    5490:	e1a03fc7 	asr	r3, r7, #31
    5494:	e1a03303 	lsl	r3, r3, #6
    5498:	e1833d27 	orr	r3, r3, r7, lsr #26
    549c:	e0030390 	mul	r3, r0, r3
    54a0:	e1a07307 	lsl	r7, r7, #6
    54a4:	e1a02fc0 	asr	r2, r0, #31
    54a8:	e0233297 	mla	r3, r7, r2, r3
    54ac:	e0812790 	umull	r2, r1, r0, r7
    54b0:	e2922602 	adds	r2, r2, #2097152	; 0x200000
    54b4:	e51bc04c 	ldr	ip, [fp, #-76]	; 0xffffffb4
    54b8:	e0a33001 	adc	r3, r3, r1
    54bc:	e1a02b22 	lsr	r2, r2, #22
    54c0:	e1822503 	orr	r2, r2, r3, lsl #10
    54c4:	e08c3002 	add	r3, ip, r2
    54c8:	e50b304c 	str	r3, [fp, #-76]	; 0xffffffb4
    54cc:	e51b304c 	ldr	r3, [fp, #-76]	; 0xffffffb4
    54d0:	e0858008 	add	r8, r5, r8
    54d4:	e5883004 	str	r3, [r8, #4]
    54d8:	eafffee1 	b	5064 <tty_iup_interpolate_or_shift+0x2fc>
    54dc:	e51b3050 	ldr	r3, [fp, #-80]	; 0xffffffb0
    54e0:	e7942009 	ldr	r2, [r4, r9]
    54e4:	e7941003 	ldr	r1, [r4, r3]
    54e8:	e795c003 	ldr	ip, [r5, r3]
    54ec:	e0422001 	sub	r2, r2, r1
    54f0:	e1920fc2 	orrs	r0, r2, r2, asr #31
    54f4:	e50bc054 	str	ip, [fp, #-84]	; 0xffffffac
    54f8:	e7950009 	ldr	r0, [r5, r9]
    54fc:	e1a03fc2 	asr	r3, r2, #31
    5500:	0a000020 	beq	5588 <tty_iup_interpolate_or_shift+0x820>
    5504:	e040000c 	sub	r0, r0, ip
    5508:	e0488001 	sub	r8, r8, r1
    550c:	e1a01fa3 	lsr	r1, r3, #31
    5510:	e1510fa0 	cmp	r1, r0, lsr #31
    5514:	e1a0e800 	lsl	lr, r0, #16
    5518:	e1a01840 	asr	r1, r0, #16
    551c:	e1a00fa3 	lsr	r0, r3, #31
    5520:	0a0000bc 	beq	5818 <tty_iup_interpolate_or_shift+0xab0>
    5524:	e0900002 	adds	r0, r0, r2
    5528:	e2a3c000 	adc	ip, r3, #0
    552c:	e1a000a0 	lsr	r0, r0, #1
    5530:	e1800f8c 	orr	r0, r0, ip, lsl #31
    5534:	e2700000 	rsbs	r0, r0, #0
    5538:	e1a0c0cc 	asr	ip, ip, #1
    553c:	e2ecc000 	rsc	ip, ip, #0
    5540:	e090000e 	adds	r0, r0, lr
    5544:	e0a1100c 	adc	r1, r1, ip
    5548:	eb002df4 	bl	10d20 <__aeabi_ldivmod>
    554c:	e1a03fc8 	asr	r3, r8, #31
    5550:	e1a03303 	lsl	r3, r3, #6
    5554:	e1833d28 	orr	r3, r3, r8, lsr #26
    5558:	e0030390 	mul	r3, r0, r3
    555c:	e1a08308 	lsl	r8, r8, #6
    5560:	e1a02fc0 	asr	r2, r0, #31
    5564:	e0233298 	mla	r3, r8, r2, r3
    5568:	e0812890 	umull	r2, r1, r0, r8
    556c:	e2922602 	adds	r2, r2, #2097152	; 0x200000
    5570:	e51bc054 	ldr	ip, [fp, #-84]	; 0xffffffac
    5574:	e0a33001 	adc	r3, r3, r1
    5578:	e1a02b22 	lsr	r2, r2, #22
    557c:	e1822503 	orr	r2, r2, r3, lsl #10
    5580:	e08c3002 	add	r3, ip, r2
    5584:	e50b3054 	str	r3, [fp, #-84]	; 0xffffffac
    5588:	e51b3054 	ldr	r3, [fp, #-84]	; 0xffffffac
    558c:	e7853007 	str	r3, [r5, r7]
    5590:	eafffe4f 	b	4ed4 <tty_iup_interpolate_or_shift+0x16c>
    5594:	e51b3048 	ldr	r3, [fp, #-72]	; 0xffffffb8
    5598:	e7942009 	ldr	r2, [r4, r9]
    559c:	e7941003 	ldr	r1, [r4, r3]
    55a0:	e795c003 	ldr	ip, [r5, r3]
    55a4:	e0422001 	sub	r2, r2, r1
    55a8:	e1920fc2 	orrs	r0, r2, r2, asr #31
    55ac:	e50bc04c 	str	ip, [fp, #-76]	; 0xffffffb4
    55b0:	e7950009 	ldr	r0, [r5, r9]
    55b4:	e1a03fc2 	asr	r3, r2, #31
    55b8:	0a000020 	beq	5640 <tty_iup_interpolate_or_shift+0x8d8>
    55bc:	e040000c 	sub	r0, r0, ip
    55c0:	e0488001 	sub	r8, r8, r1
    55c4:	e1a01fa3 	lsr	r1, r3, #31
    55c8:	e1510fa0 	cmp	r1, r0, lsr #31
    55cc:	e1a0e800 	lsl	lr, r0, #16
    55d0:	e1a01840 	asr	r1, r0, #16
    55d4:	e1a00fa3 	lsr	r0, r3, #31
    55d8:	0a0000bc 	beq	58d0 <tty_iup_interpolate_or_shift+0xb68>
    55dc:	e0900002 	adds	r0, r0, r2
    55e0:	e2a3c000 	adc	ip, r3, #0
    55e4:	e1a000a0 	lsr	r0, r0, #1
    55e8:	e1800f8c 	orr	r0, r0, ip, lsl #31
    55ec:	e2700000 	rsbs	r0, r0, #0
    55f0:	e1a0c0cc 	asr	ip, ip, #1
    55f4:	e2ecc000 	rsc	ip, ip, #0
    55f8:	e090000e 	adds	r0, r0, lr
    55fc:	e0a1100c 	adc	r1, r1, ip
    5600:	eb002dc6 	bl	10d20 <__aeabi_ldivmod>
    5604:	e1a03fc8 	asr	r3, r8, #31
    5608:	e1a03303 	lsl	r3, r3, #6
    560c:	e1833d28 	orr	r3, r3, r8, lsr #26
    5610:	e0030390 	mul	r3, r0, r3
    5614:	e1a08308 	lsl	r8, r8, #6
    5618:	e1a02fc0 	asr	r2, r0, #31
    561c:	e0233298 	mla	r3, r8, r2, r3
    5620:	e0812890 	umull	r2, r1, r0, r8
    5624:	e2922602 	adds	r2, r2, #2097152	; 0x200000
    5628:	e51bc04c 	ldr	ip, [fp, #-76]	; 0xffffffb4
    562c:	e0a33001 	adc	r3, r3, r1
    5630:	e1a02b22 	lsr	r2, r2, #22
    5634:	e1822503 	orr	r2, r2, r3, lsl #10
    5638:	e08c3002 	add	r3, ip, r2
    563c:	e50b304c 	str	r3, [fp, #-76]	; 0xffffffb4
    5640:	e51b304c 	ldr	r3, [fp, #-76]	; 0xffffffb4
    5644:	e7853007 	str	r3, [r5, r7]
    5648:	eafffeea 	b	51f8 <tty_iup_interpolate_or_shift+0x490>
    564c:	e51b3048 	ldr	r3, [fp, #-72]	; 0xffffffb8
    5650:	e7942009 	ldr	r2, [r4, r9]
    5654:	e7941003 	ldr	r1, [r4, r3]
    5658:	e795c003 	ldr	ip, [r5, r3]
    565c:	e0422001 	sub	r2, r2, r1
    5660:	e1920fc2 	orrs	r0, r2, r2, asr #31
    5664:	e50bc04c 	str	ip, [fp, #-76]	; 0xffffffb4
    5668:	e7950009 	ldr	r0, [r5, r9]
    566c:	e1a03fc2 	asr	r3, r2, #31
    5670:	0a000020 	beq	56f8 <tty_iup_interpolate_or_shift+0x990>
    5674:	e040000c 	sub	r0, r0, ip
    5678:	e0488001 	sub	r8, r8, r1
    567c:	e1a01fa3 	lsr	r1, r3, #31
    5680:	e1510fa0 	cmp	r1, r0, lsr #31
    5684:	e1a0e800 	lsl	lr, r0, #16
    5688:	e1a01840 	asr	r1, r0, #16
    568c:	e1a00fa3 	lsr	r0, r3, #31
    5690:	0a000077 	beq	5874 <tty_iup_interpolate_or_shift+0xb0c>
    5694:	e0900002 	adds	r0, r0, r2
    5698:	e2a3c000 	adc	ip, r3, #0
    569c:	e1a000a0 	lsr	r0, r0, #1
    56a0:	e1800f8c 	orr	r0, r0, ip, lsl #31
    56a4:	e2700000 	rsbs	r0, r0, #0
    56a8:	e1a0c0cc 	asr	ip, ip, #1
    56ac:	e2ecc000 	rsc	ip, ip, #0
    56b0:	e090000e 	adds	r0, r0, lr
    56b4:	e0a1100c 	adc	r1, r1, ip
    56b8:	eb002d98 	bl	10d20 <__aeabi_ldivmod>
    56bc:	e1a03fc8 	asr	r3, r8, #31
    56c0:	e1a03303 	lsl	r3, r3, #6
    56c4:	e1833d28 	orr	r3, r3, r8, lsr #26
    56c8:	e0030390 	mul	r3, r0, r3
    56cc:	e1a08308 	lsl	r8, r8, #6
    56d0:	e1a02fc0 	asr	r2, r0, #31
    56d4:	e0233298 	mla	r3, r8, r2, r3
    56d8:	e0812890 	umull	r2, r1, r0, r8
    56dc:	e2922602 	adds	r2, r2, #2097152	; 0x200000
    56e0:	e51bc04c 	ldr	ip, [fp, #-76]	; 0xffffffb4
    56e4:	e0a33001 	adc	r3, r3, r1
    56e8:	e1a02b22 	lsr	r2, r2, #22
    56ec:	e1822503 	orr	r2, r2, r3, lsl #10
    56f0:	e08c3002 	add	r3, ip, r2
    56f4:	e50b304c 	str	r3, [fp, #-76]	; 0xffffffb4
    56f8:	e51b304c 	ldr	r3, [fp, #-76]	; 0xffffffb4
    56fc:	e7853007 	str	r3, [r5, r7]
    5700:	eafffe57 	b	5064 <tty_iup_interpolate_or_shift+0x2fc>
    5704:	e0900002 	adds	r0, r0, r2
    5708:	e2a3c000 	adc	ip, r3, #0
    570c:	e1a000a0 	lsr	r0, r0, #1
    5710:	e1800f8c 	orr	r0, r0, ip, lsl #31
    5714:	e090000e 	adds	r0, r0, lr
    5718:	e0a110cc 	adc	r1, r1, ip, asr #1
    571c:	eb002d7f 	bl	10d20 <__aeabi_ldivmod>
    5720:	e1a03fc7 	asr	r3, r7, #31
    5724:	e1a03303 	lsl	r3, r3, #6
    5728:	e1833d27 	orr	r3, r3, r7, lsr #26
    572c:	e0030390 	mul	r3, r0, r3
    5730:	e1a07307 	lsl	r7, r7, #6
    5734:	e1a02fc0 	asr	r2, r0, #31
    5738:	e0233297 	mla	r3, r7, r2, r3
    573c:	e0812790 	umull	r2, r1, r0, r7
    5740:	e2922602 	adds	r2, r2, #2097152	; 0x200000
    5744:	e0a33001 	adc	r3, r3, r1
    5748:	e1a02b22 	lsr	r2, r2, #22
    574c:	e1822503 	orr	r2, r2, r3, lsl #10
    5750:	e51b304c 	ldr	r3, [fp, #-76]	; 0xffffffb4
    5754:	e0833002 	add	r3, r3, r2
    5758:	e50b304c 	str	r3, [fp, #-76]	; 0xffffffb4
    575c:	eaffff29 	b	5408 <tty_iup_interpolate_or_shift+0x6a0>
    5760:	e0900002 	adds	r0, r0, r2
    5764:	e2a3c000 	adc	ip, r3, #0
    5768:	e1a000a0 	lsr	r0, r0, #1
    576c:	e1800f8c 	orr	r0, r0, ip, lsl #31
    5770:	e090000e 	adds	r0, r0, lr
    5774:	e0a110cc 	adc	r1, r1, ip, asr #1
    5778:	eb002d68 	bl	10d20 <__aeabi_ldivmod>
    577c:	e1a03fc7 	asr	r3, r7, #31
    5780:	e1a03303 	lsl	r3, r3, #6
    5784:	e1833d27 	orr	r3, r3, r7, lsr #26
    5788:	e0030390 	mul	r3, r0, r3
    578c:	e1a07307 	lsl	r7, r7, #6
    5790:	e1a02fc0 	asr	r2, r0, #31
    5794:	e0233297 	mla	r3, r7, r2, r3
    5798:	e0812790 	umull	r2, r1, r0, r7
    579c:	e2922602 	adds	r2, r2, #2097152	; 0x200000
    57a0:	e0a33001 	adc	r3, r3, r1
    57a4:	e1a02b22 	lsr	r2, r2, #22
    57a8:	e1822503 	orr	r2, r2, r3, lsl #10
    57ac:	e51b304c 	ldr	r3, [fp, #-76]	; 0xffffffb4
    57b0:	e0833002 	add	r3, r3, r2
    57b4:	e50b304c 	str	r3, [fp, #-76]	; 0xffffffb4
    57b8:	eaffff43 	b	54cc <tty_iup_interpolate_or_shift+0x764>
    57bc:	e0900002 	adds	r0, r0, r2
    57c0:	e2a3c000 	adc	ip, r3, #0
    57c4:	e1a000a0 	lsr	r0, r0, #1
    57c8:	e1800f8c 	orr	r0, r0, ip, lsl #31
    57cc:	e090000e 	adds	r0, r0, lr
    57d0:	e0a110cc 	adc	r1, r1, ip, asr #1
    57d4:	eb002d51 	bl	10d20 <__aeabi_ldivmod>
    57d8:	e1a03fc7 	asr	r3, r7, #31
    57dc:	e1a03303 	lsl	r3, r3, #6
    57e0:	e1833d27 	orr	r3, r3, r7, lsr #26
    57e4:	e0030390 	mul	r3, r0, r3
    57e8:	e1a07307 	lsl	r7, r7, #6
    57ec:	e1a02fc0 	asr	r2, r0, #31
    57f0:	e0233297 	mla	r3, r7, r2, r3
    57f4:	e0812790 	umull	r2, r1, r0, r7
    57f8:	e2922602 	adds	r2, r2, #2097152	; 0x200000
    57fc:	e0a33001 	adc	r3, r3, r1
    5800:	e1a02b22 	lsr	r2, r2, #22
    5804:	e1822503 	orr	r2, r2, r3, lsl #10
    5808:	e51b3054 	ldr	r3, [fp, #-84]	; 0xffffffac
    580c:	e0833002 	add	r3, r3, r2
    5810:	e50b3054 	str	r3, [fp, #-84]	; 0xffffffac
    5814:	eafffeca 	b	5344 <tty_iup_interpolate_or_shift+0x5dc>
    5818:	e0900002 	adds	r0, r0, r2
    581c:	e2a3c000 	adc	ip, r3, #0
    5820:	e1a000a0 	lsr	r0, r0, #1
    5824:	e1800f8c 	orr	r0, r0, ip, lsl #31
    5828:	e090000e 	adds	r0, r0, lr
    582c:	e0a110cc 	adc	r1, r1, ip, asr #1
    5830:	eb002d3a 	bl	10d20 <__aeabi_ldivmod>
    5834:	e1a03fc8 	asr	r3, r8, #31
    5838:	e1a03303 	lsl	r3, r3, #6
    583c:	e1833d28 	orr	r3, r3, r8, lsr #26
    5840:	e0030390 	mul	r3, r0, r3
    5844:	e1a08308 	lsl	r8, r8, #6
    5848:	e1a02fc0 	asr	r2, r0, #31
    584c:	e0233298 	mla	r3, r8, r2, r3
    5850:	e0812890 	umull	r2, r1, r0, r8
    5854:	e2922602 	adds	r2, r2, #2097152	; 0x200000
    5858:	e0a33001 	adc	r3, r3, r1
    585c:	e1a02b22 	lsr	r2, r2, #22
    5860:	e1822503 	orr	r2, r2, r3, lsl #10
    5864:	e51b3054 	ldr	r3, [fp, #-84]	; 0xffffffac
    5868:	e0833002 	add	r3, r3, r2
    586c:	e50b3054 	str	r3, [fp, #-84]	; 0xffffffac
    5870:	eaffff44 	b	5588 <tty_iup_interpolate_or_shift+0x820>
    5874:	e0900002 	adds	r0, r0, r2
    5878:	e2a3c000 	adc	ip, r3, #0
    587c:	e1a000a0 	lsr	r0, r0, #1
    5880:	e1800f8c 	orr	r0, r0, ip, lsl #31
    5884:	e090000e 	adds	r0, r0, lr
    5888:	e0a110cc 	adc	r1, r1, ip, asr #1
    588c:	eb002d23 	bl	10d20 <__aeabi_ldivmod>
    5890:	e1a03fc8 	asr	r3, r8, #31
    5894:	e1a03303 	lsl	r3, r3, #6
    5898:	e1833d28 	orr	r3, r3, r8, lsr #26
    589c:	e0030390 	mul	r3, r0, r3
    58a0:	e1a08308 	lsl	r8, r8, #6
    58a4:	e1a02fc0 	asr	r2, r0, #31
    58a8:	e0233298 	mla	r3, r8, r2, r3
    58ac:	e0812890 	umull	r2, r1, r0, r8
    58b0:	e2922602 	adds	r2, r2, #2097152	; 0x200000
    58b4:	e0a33001 	adc	r3, r3, r1
    58b8:	e1a02b22 	lsr	r2, r2, #22
    58bc:	e1822503 	orr	r2, r2, r3, lsl #10
    58c0:	e51b304c 	ldr	r3, [fp, #-76]	; 0xffffffb4
    58c4:	e0833002 	add	r3, r3, r2
    58c8:	e50b304c 	str	r3, [fp, #-76]	; 0xffffffb4
    58cc:	eaffff89 	b	56f8 <tty_iup_interpolate_or_shift+0x990>
    58d0:	e0900002 	adds	r0, r0, r2
    58d4:	e2a3c000 	adc	ip, r3, #0
    58d8:	e1a000a0 	lsr	r0, r0, #1
    58dc:	e1800f8c 	orr	r0, r0, ip, lsl #31
    58e0:	e090000e 	adds	r0, r0, lr
    58e4:	e0a110cc 	adc	r1, r1, ip, asr #1
    58e8:	eb002d0c 	bl	10d20 <__aeabi_ldivmod>
    58ec:	e1a03fc8 	asr	r3, r8, #31
    58f0:	e1a03303 	lsl	r3, r3, #6
    58f4:	e1833d28 	orr	r3, r3, r8, lsr #26
    58f8:	e0030390 	mul	r3, r0, r3
    58fc:	e1a08308 	lsl	r8, r8, #6
    5900:	e1a02fc0 	asr	r2, r0, #31
    5904:	e0233298 	mla	r3, r8, r2, r3
    5908:	e0812890 	umull	r2, r1, r0, r8
    590c:	e2922602 	adds	r2, r2, #2097152	; 0x200000
    5910:	e0a33001 	adc	r3, r3, r1
    5914:	e1a02b22 	lsr	r2, r2, #22
    5918:	e1822503 	orr	r2, r2, r3, lsl #10
    591c:	e51b304c 	ldr	r3, [fp, #-76]	; 0xffffffb4
    5920:	e0833002 	add	r3, r3, r2
    5924:	e50b304c 	str	r3, [fp, #-76]	; 0xffffffb4
    5928:	eaffff44 	b	5640 <tty_iup_interpolate_or_shift+0x8d8>

0000592c <tty_normalize_f26dot6_to_f2dot14>:
    592c:	e1a0c00d 	mov	ip, sp
    5930:	e92ddff8 	push	{r3, r4, r5, r6, r7, r8, r9, sl, fp, ip, lr, pc}
    5934:	e5905000 	ldr	r5, [r0]
    5938:	e59f2374 	ldr	r2, [pc, #884]	; 5cb4 <tty_normalize_f26dot6_to_f2dot14+0x388>
    593c:	e2853cff 	add	r3, r5, #65280	; 0xff00
    5940:	e28330ff 	add	r3, r3, #255	; 0xff
    5944:	e1530002 	cmp	r3, r2
    5948:	e1a04000 	mov	r4, r0
    594c:	e5908004 	ldr	r8, [r0, #4]
    5950:	e24cb004 	sub	fp, ip, #4
    5954:	8a000003 	bhi	5968 <tty_normalize_f26dot6_to_f2dot14+0x3c>
    5958:	e2883cff 	add	r3, r8, #65280	; 0xff00
    595c:	e28330ff 	add	r3, r3, #255	; 0xff
    5960:	e1530002 	cmp	r3, r2
    5964:	9a00006d 	bls	5b20 <tty_normalize_f26dot6_to_f2dot14+0x1f4>
    5968:	e1a01008 	mov	r1, r8
    596c:	e1a00005 	mov	r0, r5
    5970:	ebfff4c8 	bl	2c98 <tty_fix_v2_mag.isra.0>
    5974:	e1903fc0 	orrs	r3, r0, r0, asr #31
    5978:	e1a07000 	mov	r7, r0
    597c:	e1a09fc0 	asr	r9, r0, #31
    5980:	0a000056 	beq	5ae0 <tty_normalize_f26dot6_to_f2dot14+0x1b4>
    5984:	e1a03fa5 	lsr	r3, r5, #31
    5988:	e1a06fa9 	lsr	r6, r9, #31
    598c:	e1530fa9 	cmp	r3, r9, lsr #31
    5990:	e1a020c5 	asr	r2, r5, #1
    5994:	e1a0a006 	mov	sl, r6
    5998:	e1a05f85 	lsl	r5, r5, #31
    599c:	0a0000a3 	beq	5c30 <tty_normalize_f26dot6_to_f2dot14+0x304>
    59a0:	e0963000 	adds	r3, r6, r0
    59a4:	e2a91000 	adc	r1, r9, #0
    59a8:	e1a030a3 	lsr	r3, r3, #1
    59ac:	e1833f81 	orr	r3, r3, r1, lsl #31
    59b0:	e2733000 	rsbs	r3, r3, #0
    59b4:	e1a010c1 	asr	r1, r1, #1
    59b8:	e2e11000 	rsc	r1, r1, #0
    59bc:	e0930005 	adds	r0, r3, r5
    59c0:	e0a21001 	adc	r1, r2, r1
    59c4:	e1a03009 	mov	r3, r9
    59c8:	e1a02007 	mov	r2, r7
    59cc:	eb002cd3 	bl	10d20 <__aeabi_ldivmod>
    59d0:	e1a03001 	mov	r3, r1
    59d4:	e2905801 	adds	r5, r0, #65536	; 0x10000
    59d8:	e2a33000 	adc	r3, r3, #0
    59dc:	e1a058a5 	lsr	r5, r5, #17
    59e0:	e15a0fa8 	cmp	sl, r8, lsr #31
    59e4:	e1855783 	orr	r5, r5, r3, lsl #15
    59e8:	e1a010c8 	asr	r1, r8, #1
    59ec:	e5845000 	str	r5, [r4]
    59f0:	e1a08f88 	lsl	r8, r8, #31
    59f4:	0a000082 	beq	5c04 <tty_normalize_f26dot6_to_f2dot14+0x2d8>
    59f8:	e0966007 	adds	r6, r6, r7
    59fc:	e2a93000 	adc	r3, r9, #0
    5a00:	e1a060a6 	lsr	r6, r6, #1
    5a04:	e1866f83 	orr	r6, r6, r3, lsl #31
    5a08:	e2766000 	rsbs	r6, r6, #0
    5a0c:	e1a030c3 	asr	r3, r3, #1
    5a10:	e2e33000 	rsc	r3, r3, #0
    5a14:	e0960008 	adds	r0, r6, r8
    5a18:	e1a02007 	mov	r2, r7
    5a1c:	e0a11003 	adc	r1, r1, r3
    5a20:	e1a03009 	mov	r3, r9
    5a24:	eb002cbd 	bl	10d20 <__aeabi_ldivmod>
    5a28:	e1a02001 	mov	r2, r1
    5a2c:	e2903801 	adds	r3, r0, #65536	; 0x10000
    5a30:	e2a22000 	adc	r2, r2, #0
    5a34:	e1a038a3 	lsr	r3, r3, #17
    5a38:	e1833782 	orr	r3, r3, r2, lsl #15
    5a3c:	e0010393 	mul	r1, r3, r3
    5a40:	e3550000 	cmp	r5, #0
    5a44:	e0211595 	mla	r1, r5, r5, r1
    5a48:	b2655000 	rsblt	r5, r5, #0
    5a4c:	b3a0c001 	movlt	ip, #1
    5a50:	a3a0c000 	movge	ip, #0
    5a54:	b5845000 	strlt	r5, [r4]
    5a58:	e3530000 	cmp	r3, #0
    5a5c:	a3a0e000 	movge	lr, #0
    5a60:	e5843004 	str	r3, [r4, #4]
    5a64:	b3a0e001 	movlt	lr, #1
    5a68:	b2633000 	rsblt	r3, r3, #0
    5a6c:	b5843004 	strlt	r3, [r4, #4]
    5a70:	e371021f 	cmn	r1, #-268435455	; 0xf0000001
    5a74:	d894000c 	ldmle	r4, {r2, r3}
    5a78:	da00001e 	ble	5af8 <tty_normalize_f26dot6_to_f2dot14+0x1cc>
    5a7c:	e59f0234 	ldr	r0, [pc, #564]	; 5cb8 <tty_normalize_f26dot6_to_f2dot14+0x38c>
    5a80:	e1510000 	cmp	r1, r0
    5a84:	a894000c 	ldmge	r4, {r2, r3}
    5a88:	ba000008 	blt	5ab0 <tty_normalize_f26dot6_to_f2dot14+0x184>
    5a8c:	e1530002 	cmp	r3, r2
    5a90:	d2433001 	suble	r3, r3, #1
    5a94:	e0010393 	mul	r1, r3, r3
    5a98:	c2422001 	subgt	r2, r2, #1
    5a9c:	e0211292 	mla	r1, r2, r2, r1
    5aa0:	c5842000 	strgt	r2, [r4]
    5aa4:	d5843004 	strle	r3, [r4, #4]
    5aa8:	e1510000 	cmp	r1, r0
    5aac:	aafffff6 	bge	5a8c <tty_normalize_f26dot6_to_f2dot14+0x160>
    5ab0:	e35c0000 	cmp	ip, #0
    5ab4:	15943000 	ldrne	r3, [r4]
    5ab8:	12633000 	rsbne	r3, r3, #0
    5abc:	15843000 	strne	r3, [r4]
    5ac0:	e35e0000 	cmp	lr, #0
    5ac4:	0a000002 	beq	5ad4 <tty_normalize_f26dot6_to_f2dot14+0x1a8>
    5ac8:	e5943004 	ldr	r3, [r4, #4]
    5acc:	e2633000 	rsb	r3, r3, #0
    5ad0:	e5843004 	str	r3, [r4, #4]
    5ad4:	e24bd02c 	sub	sp, fp, #44	; 0x2c
    5ad8:	e89d6ff8 	ldm	sp, {r3, r4, r5, r6, r7, r8, r9, sl, fp, sp, lr}
    5adc:	e12fff1e 	bx	lr
    5ae0:	e3a02000 	mov	r2, #0
    5ae4:	e1a03002 	mov	r3, r2
    5ae8:	e1a0c002 	mov	ip, r2
    5aec:	e1a0e002 	mov	lr, r2
    5af0:	e5842000 	str	r2, [r4]
    5af4:	e5842004 	str	r2, [r4, #4]
    5af8:	e1530002 	cmp	r3, r2
    5afc:	d2833001 	addle	r3, r3, #1
    5b00:	e0010393 	mul	r1, r3, r3
    5b04:	c2822001 	addgt	r2, r2, #1
    5b08:	e0211292 	mla	r1, r2, r2, r1
    5b0c:	c5842000 	strgt	r2, [r4]
    5b10:	d5843004 	strle	r3, [r4, #4]
    5b14:	e371021f 	cmn	r1, #-268435455	; 0xf0000001
    5b18:	dafffff6 	ble	5af8 <tty_normalize_f26dot6_to_f2dot14+0x1cc>
    5b1c:	eaffffd6 	b	5a7c <tty_normalize_f26dot6_to_f2dot14+0x150>
    5b20:	e1a05405 	lsl	r5, r5, #8
    5b24:	e1a08408 	lsl	r8, r8, #8
    5b28:	e1a01008 	mov	r1, r8
    5b2c:	e1a00005 	mov	r0, r5
    5b30:	e8840120 	stm	r4, {r5, r8}
    5b34:	ebfff457 	bl	2c98 <tty_fix_v2_mag.isra.0>
    5b38:	e2506000 	subs	r6, r0, #0
    5b3c:	0affffe4 	beq	5ad4 <tty_normalize_f26dot6_to_f2dot14+0x1a8>
    5b40:	e1963fc6 	orrs	r3, r6, r6, asr #31
    5b44:	e1a07fc6 	asr	r7, r6, #31
    5b48:	0a000043 	beq	5c5c <tty_normalize_f26dot6_to_f2dot14+0x330>
    5b4c:	e1a020c5 	asr	r2, r5, #1
    5b50:	e1a05fa5 	lsr	r5, r5, #31
    5b54:	e1550fa7 	cmp	r5, r7, lsr #31
    5b58:	e1a05fa7 	lsr	r5, r7, #31
    5b5c:	e3a00000 	mov	r0, #0
    5b60:	e1a09005 	mov	r9, r5
    5b64:	0a000040 	beq	5c6c <tty_normalize_f26dot6_to_f2dot14+0x340>
    5b68:	e0953006 	adds	r3, r5, r6
    5b6c:	e2a71000 	adc	r1, r7, #0
    5b70:	e1a030a3 	lsr	r3, r3, #1
    5b74:	e1833f81 	orr	r3, r3, r1, lsl #31
    5b78:	e2733000 	rsbs	r3, r3, #0
    5b7c:	e1a010c1 	asr	r1, r1, #1
    5b80:	e2e11000 	rsc	r1, r1, #0
    5b84:	e0811002 	add	r1, r1, r2
    5b88:	e0930000 	adds	r0, r3, r0
    5b8c:	e1a02006 	mov	r2, r6
    5b90:	e1a03007 	mov	r3, r7
    5b94:	eb002c61 	bl	10d20 <__aeabi_ldivmod>
    5b98:	e1a03000 	mov	r3, r0
    5b9c:	e2933801 	adds	r3, r3, #65536	; 0x10000
    5ba0:	e2a11000 	adc	r1, r1, #0
    5ba4:	e1a028a3 	lsr	r2, r3, #17
    5ba8:	e1822781 	orr	r2, r2, r1, lsl #15
    5bac:	e1590fa8 	cmp	r9, r8, lsr #31
    5bb0:	e1a010c8 	asr	r1, r8, #1
    5bb4:	e5842000 	str	r2, [r4]
    5bb8:	e1a08f88 	lsl	r8, r8, #31
    5bbc:	0a000034 	beq	5c94 <tty_normalize_f26dot6_to_f2dot14+0x368>
    5bc0:	e1a02006 	mov	r2, r6
    5bc4:	e0953006 	adds	r3, r5, r6
    5bc8:	e2a70000 	adc	r0, r7, #0
    5bcc:	e1a030a3 	lsr	r3, r3, #1
    5bd0:	e1833f80 	orr	r3, r3, r0, lsl #31
    5bd4:	e2733000 	rsbs	r3, r3, #0
    5bd8:	e1a000c0 	asr	r0, r0, #1
    5bdc:	e2e0c000 	rsc	ip, r0, #0
    5be0:	e0930008 	adds	r0, r3, r8
    5be4:	e0a1100c 	adc	r1, r1, ip
    5be8:	e1a03007 	mov	r3, r7
    5bec:	eb002c4b 	bl	10d20 <__aeabi_ldivmod>
    5bf0:	e2900801 	adds	r0, r0, #65536	; 0x10000
    5bf4:	e2a13000 	adc	r3, r1, #0
    5bf8:	e1a008a0 	lsr	r0, r0, #17
    5bfc:	e1803783 	orr	r3, r0, r3, lsl #15
    5c00:	eaffffb2 	b	5ad0 <tty_normalize_f26dot6_to_f2dot14+0x1a4>
    5c04:	e0960007 	adds	r0, r6, r7
    5c08:	e2a93000 	adc	r3, r9, #0
    5c0c:	e1a000a0 	lsr	r0, r0, #1
    5c10:	e1800f83 	orr	r0, r0, r3, lsl #31
    5c14:	e0900008 	adds	r0, r0, r8
    5c18:	e1a02007 	mov	r2, r7
    5c1c:	e0a110c3 	adc	r1, r1, r3, asr #1
    5c20:	e1a03009 	mov	r3, r9
    5c24:	eb002c3d 	bl	10d20 <__aeabi_ldivmod>
    5c28:	e1a02001 	mov	r2, r1
    5c2c:	eaffff7e 	b	5a2c <tty_normalize_f26dot6_to_f2dot14+0x100>
    5c30:	e0960000 	adds	r0, r6, r0
    5c34:	e2a91000 	adc	r1, r9, #0
    5c38:	e1a000a0 	lsr	r0, r0, #1
    5c3c:	e1800f81 	orr	r0, r0, r1, lsl #31
    5c40:	e0900005 	adds	r0, r0, r5
    5c44:	e1a03009 	mov	r3, r9
    5c48:	e0a210c1 	adc	r1, r2, r1, asr #1
    5c4c:	e1a02007 	mov	r2, r7
    5c50:	eb002c32 	bl	10d20 <__aeabi_ldivmod>
    5c54:	e1a03001 	mov	r3, r1
    5c58:	eaffff5d 	b	59d4 <tty_normalize_f26dot6_to_f2dot14+0xa8>
    5c5c:	e3a02000 	mov	r2, #0
    5c60:	e1a03002 	mov	r3, r2
    5c64:	e5842000 	str	r2, [r4]
    5c68:	eaffff98 	b	5ad0 <tty_normalize_f26dot6_to_f2dot14+0x1a4>
    5c6c:	e0950006 	adds	r0, r5, r6
    5c70:	e2a71000 	adc	r1, r7, #0
    5c74:	e1a000a0 	lsr	r0, r0, #1
    5c78:	e1a03007 	mov	r3, r7
    5c7c:	e1800f81 	orr	r0, r0, r1, lsl #31
    5c80:	e08210c1 	add	r1, r2, r1, asr #1
    5c84:	e1a02006 	mov	r2, r6
    5c88:	eb002c24 	bl	10d20 <__aeabi_ldivmod>
    5c8c:	e1a03000 	mov	r3, r0
    5c90:	eaffffc1 	b	5b9c <tty_normalize_f26dot6_to_f2dot14+0x270>
    5c94:	e0953006 	adds	r3, r5, r6
    5c98:	e2a7c000 	adc	ip, r7, #0
    5c9c:	e1a030a3 	lsr	r3, r3, #1
    5ca0:	e1833f8c 	orr	r3, r3, ip, lsl #31
    5ca4:	e0930008 	adds	r0, r3, r8
    5ca8:	e1a02006 	mov	r2, r6
    5cac:	e0a110cc 	adc	r1, r1, ip, asr #1
    5cb0:	eaffffcc 	b	5be8 <tty_normalize_f26dot6_to_f2dot14+0x2bc>
    5cb4:	0001fffe 	strdeq	pc, [r1], -lr
    5cb8:	10004000 	andne	r4, r0, r0

00005cbc <tty_execute_next_glyph_program_ins>:
    5cbc:	e1a0c00d 	mov	ip, sp
    5cc0:	e92ddff0 	push	{r4, r5, r6, r7, r8, r9, sl, fp, ip, lr, pc}
    5cc4:	e24cb004 	sub	fp, ip, #4
    5cc8:	e24dd05c 	sub	sp, sp, #92	; 0x5c
    5ccc:	e2802010 	add	r2, r0, #16
    5cd0:	e892000c 	ldm	r2, {r2, r3}
    5cd4:	e2831001 	add	r1, r3, #1
    5cd8:	e5801014 	str	r1, [r0, #20]
    5cdc:	e7d24003 	ldrb	r4, [r2, r3]
    5ce0:	e1a01004 	mov	r1, r4
    5ce4:	e1a0a000 	mov	sl, r0
    5ce8:	ebfff64d 	bl	3624 <tty_try_execute_shared_ins>
    5cec:	e3500000 	cmp	r0, #0
    5cf0:	1a000069 	bne	5e9c <tty_execute_next_glyph_program_ins+0x1e0>
    5cf4:	e244300f 	sub	r3, r4, #15
    5cf8:	e3530063 	cmp	r3, #99	; 0x63
    5cfc:	908ff103 	addls	pc, pc, r3, lsl #2
    5d00:	ea000068 	b	5ea8 <tty_execute_next_glyph_program_ins+0x1ec>
    5d04:	ea00014c 	b	623c <tty_execute_next_glyph_program_ins+0x580>
    5d08:	ea000141 	b	6214 <tty_execute_next_glyph_program_ins+0x558>
    5d0c:	ea000136 	b	61ec <tty_execute_next_glyph_program_ins+0x530>
    5d10:	ea00012b 	b	61c4 <tty_execute_next_glyph_program_ins+0x508>
    5d14:	ea00011a 	b	6184 <tty_execute_next_glyph_program_ins+0x4c8>
    5d18:	ea000109 	b	6144 <tty_execute_next_glyph_program_ins+0x488>
    5d1c:	ea0000f8 	b	6104 <tty_execute_next_glyph_program_ins+0x448>
    5d20:	ea0000e3 	b	60b4 <tty_execute_next_glyph_program_ins+0x3f8>
    5d24:	ea00005f 	b	5ea8 <tty_execute_next_glyph_program_ins+0x1ec>
    5d28:	ea00005e 	b	5ea8 <tty_execute_next_glyph_program_ins+0x1ec>
    5d2c:	ea00005d 	b	5ea8 <tty_execute_next_glyph_program_ins+0x1ec>
    5d30:	ea000250 	b	6678 <tty_execute_next_glyph_program_ins+0x9bc>
    5d34:	ea00005b 	b	5ea8 <tty_execute_next_glyph_program_ins+0x1ec>
    5d38:	ea00005a 	b	5ea8 <tty_execute_next_glyph_program_ins+0x1ec>
    5d3c:	ea000059 	b	5ea8 <tty_execute_next_glyph_program_ins+0x1ec>
    5d40:	ea000058 	b	5ea8 <tty_execute_next_glyph_program_ins+0x1ec>
    5d44:	ea000057 	b	5ea8 <tty_execute_next_glyph_program_ins+0x1ec>
    5d48:	ea000056 	b	5ea8 <tty_execute_next_glyph_program_ins+0x1ec>
    5d4c:	ea000055 	b	5ea8 <tty_execute_next_glyph_program_ins+0x1ec>
    5d50:	ea000054 	b	5ea8 <tty_execute_next_glyph_program_ins+0x1ec>
    5d54:	ea000053 	b	5ea8 <tty_execute_next_glyph_program_ins+0x1ec>
    5d58:	ea000052 	b	5ea8 <tty_execute_next_glyph_program_ins+0x1ec>
    5d5c:	ea000051 	b	5ea8 <tty_execute_next_glyph_program_ins+0x1ec>
    5d60:	ea000050 	b	5ea8 <tty_execute_next_glyph_program_ins+0x1ec>
    5d64:	ea00004f 	b	5ea8 <tty_execute_next_glyph_program_ins+0x1ec>
    5d68:	ea00004e 	b	5ea8 <tty_execute_next_glyph_program_ins+0x1ec>
    5d6c:	ea00004d 	b	5ea8 <tty_execute_next_glyph_program_ins+0x1ec>
    5d70:	ea00004c 	b	5ea8 <tty_execute_next_glyph_program_ins+0x1ec>
    5d74:	ea00004b 	b	5ea8 <tty_execute_next_glyph_program_ins+0x1ec>
    5d78:	ea00004a 	b	5ea8 <tty_execute_next_glyph_program_ins+0x1ec>
    5d7c:	ea000049 	b	5ea8 <tty_execute_next_glyph_program_ins+0x1ec>
    5d80:	ea000048 	b	5ea8 <tty_execute_next_glyph_program_ins+0x1ec>
    5d84:	ea000047 	b	5ea8 <tty_execute_next_glyph_program_ins+0x1ec>
    5d88:	ea000046 	b	5ea8 <tty_execute_next_glyph_program_ins+0x1ec>
    5d8c:	ea000045 	b	5ea8 <tty_execute_next_glyph_program_ins+0x1ec>
    5d90:	ea000044 	b	5ea8 <tty_execute_next_glyph_program_ins+0x1ec>
    5d94:	ea000043 	b	5ea8 <tty_execute_next_glyph_program_ins+0x1ec>
    5d98:	ea000042 	b	5ea8 <tty_execute_next_glyph_program_ins+0x1ec>
    5d9c:	ea000041 	b	5ea8 <tty_execute_next_glyph_program_ins+0x1ec>
    5da0:	ea000040 	b	5ea8 <tty_execute_next_glyph_program_ins+0x1ec>
    5da4:	ea00003f 	b	5ea8 <tty_execute_next_glyph_program_ins+0x1ec>
    5da8:	ea0001fe 	b	65a8 <tty_execute_next_glyph_program_ins+0x8ec>
    5dac:	ea000244 	b	66c4 <tty_execute_next_glyph_program_ins+0xa08>
    5db0:	ea00003c 	b	5ea8 <tty_execute_next_glyph_program_ins+0x1ec>
    5db4:	ea00003b 	b	5ea8 <tty_execute_next_glyph_program_ins+0x1ec>
    5db8:	ea0001c4 	b	64d0 <tty_execute_next_glyph_program_ins+0x814>
    5dbc:	ea000039 	b	5ea8 <tty_execute_next_glyph_program_ins+0x1ec>
    5dc0:	ea000038 	b	5ea8 <tty_execute_next_glyph_program_ins+0x1ec>
    5dc4:	ea000037 	b	5ea8 <tty_execute_next_glyph_program_ins+0x1ec>
    5dc8:	ea000036 	b	5ea8 <tty_execute_next_glyph_program_ins+0x1ec>
    5dcc:	ea000035 	b	5ea8 <tty_execute_next_glyph_program_ins+0x1ec>
    5dd0:	ea000034 	b	5ea8 <tty_execute_next_glyph_program_ins+0x1ec>
    5dd4:	ea000033 	b	5ea8 <tty_execute_next_glyph_program_ins+0x1ec>
    5dd8:	ea000032 	b	5ea8 <tty_execute_next_glyph_program_ins+0x1ec>
    5ddc:	ea000031 	b	5ea8 <tty_execute_next_glyph_program_ins+0x1ec>
    5de0:	ea000030 	b	5ea8 <tty_execute_next_glyph_program_ins+0x1ec>
    5de4:	ea00002f 	b	5ea8 <tty_execute_next_glyph_program_ins+0x1ec>
    5de8:	ea00002e 	b	5ea8 <tty_execute_next_glyph_program_ins+0x1ec>
    5dec:	ea00002d 	b	5ea8 <tty_execute_next_glyph_program_ins+0x1ec>
    5df0:	ea00002c 	b	5ea8 <tty_execute_next_glyph_program_ins+0x1ec>
    5df4:	ea00002b 	b	5ea8 <tty_execute_next_glyph_program_ins+0x1ec>
    5df8:	ea00002a 	b	5ea8 <tty_execute_next_glyph_program_ins+0x1ec>
    5dfc:	ea000029 	b	5ea8 <tty_execute_next_glyph_program_ins+0x1ec>
    5e00:	ea000028 	b	5ea8 <tty_execute_next_glyph_program_ins+0x1ec>
    5e04:	ea000027 	b	5ea8 <tty_execute_next_glyph_program_ins+0x1ec>
    5e08:	ea000026 	b	5ea8 <tty_execute_next_glyph_program_ins+0x1ec>
    5e0c:	ea000025 	b	5ea8 <tty_execute_next_glyph_program_ins+0x1ec>
    5e10:	ea000024 	b	5ea8 <tty_execute_next_glyph_program_ins+0x1ec>
    5e14:	ea000023 	b	5ea8 <tty_execute_next_glyph_program_ins+0x1ec>
    5e18:	ea000022 	b	5ea8 <tty_execute_next_glyph_program_ins+0x1ec>
    5e1c:	ea000021 	b	5ea8 <tty_execute_next_glyph_program_ins+0x1ec>
    5e20:	ea000020 	b	5ea8 <tty_execute_next_glyph_program_ins+0x1ec>
    5e24:	ea00001f 	b	5ea8 <tty_execute_next_glyph_program_ins+0x1ec>
    5e28:	ea00001e 	b	5ea8 <tty_execute_next_glyph_program_ins+0x1ec>
    5e2c:	ea00001d 	b	5ea8 <tty_execute_next_glyph_program_ins+0x1ec>
    5e30:	ea00001c 	b	5ea8 <tty_execute_next_glyph_program_ins+0x1ec>
    5e34:	ea00001b 	b	5ea8 <tty_execute_next_glyph_program_ins+0x1ec>
    5e38:	ea00001a 	b	5ea8 <tty_execute_next_glyph_program_ins+0x1ec>
    5e3c:	ea00021c 	b	66b4 <tty_execute_next_glyph_program_ins+0x9f8>
    5e40:	ea000018 	b	5ea8 <tty_execute_next_glyph_program_ins+0x1ec>
    5e44:	ea000017 	b	5ea8 <tty_execute_next_glyph_program_ins+0x1ec>
    5e48:	ea000016 	b	5ea8 <tty_execute_next_glyph_program_ins+0x1ec>
    5e4c:	ea000015 	b	5ea8 <tty_execute_next_glyph_program_ins+0x1ec>
    5e50:	ea000014 	b	5ea8 <tty_execute_next_glyph_program_ins+0x1ec>
    5e54:	ea000013 	b	5ea8 <tty_execute_next_glyph_program_ins+0x1ec>
    5e58:	ea000012 	b	5ea8 <tty_execute_next_glyph_program_ins+0x1ec>
    5e5c:	ea000011 	b	5ea8 <tty_execute_next_glyph_program_ins+0x1ec>
    5e60:	ea000010 	b	5ea8 <tty_execute_next_glyph_program_ins+0x1ec>
    5e64:	ea00000f 	b	5ea8 <tty_execute_next_glyph_program_ins+0x1ec>
    5e68:	ea00000e 	b	5ea8 <tty_execute_next_glyph_program_ins+0x1ec>
    5e6c:	ea00000d 	b	5ea8 <tty_execute_next_glyph_program_ins+0x1ec>
    5e70:	ea00000c 	b	5ea8 <tty_execute_next_glyph_program_ins+0x1ec>
    5e74:	ea00000b 	b	5ea8 <tty_execute_next_glyph_program_ins+0x1ec>
    5e78:	ea00000a 	b	5ea8 <tty_execute_next_glyph_program_ins+0x1ec>
    5e7c:	ea000009 	b	5ea8 <tty_execute_next_glyph_program_ins+0x1ec>
    5e80:	ea000008 	b	5ea8 <tty_execute_next_glyph_program_ins+0x1ec>
    5e84:	ea000007 	b	5ea8 <tty_execute_next_glyph_program_ins+0x1ec>
    5e88:	ea000006 	b	5ea8 <tty_execute_next_glyph_program_ins+0x1ec>
    5e8c:	ea000203 	b	66a0 <tty_execute_next_glyph_program_ins+0x9e4>
    5e90:	ea000209 	b	66bc <tty_execute_next_glyph_program_ins+0xa00>
    5e94:	e3a03001 	mov	r3, #1
    5e98:	e584305c 	str	r3, [r4, #92]	; 0x5c
    5e9c:	e24bd028 	sub	sp, fp, #40	; 0x28
    5ea0:	e89d6ff0 	ldm	sp, {r4, r5, r6, r7, r8, r9, sl, fp, sp, lr}
    5ea4:	e12fff1e 	bx	lr
    5ea8:	e2443046 	sub	r3, r4, #70	; 0x46
    5eac:	e3530001 	cmp	r3, #1
    5eb0:	9a00030e 	bls	6af0 <tty_execute_next_glyph_program_ins+0xe34>
    5eb4:	e2443030 	sub	r3, r4, #48	; 0x30
    5eb8:	e3530001 	cmp	r3, #1
    5ebc:	9a000328 	bls	6b64 <tty_execute_next_glyph_program_ins+0xea8>
    5ec0:	e2443049 	sub	r3, r4, #73	; 0x49
    5ec4:	e3530001 	cmp	r3, #1
    5ec8:	9a00039c 	bls	6d40 <tty_execute_next_glyph_program_ins+0x1084>
    5ecc:	e244302e 	sub	r3, r4, #46	; 0x2e
    5ed0:	e3530001 	cmp	r3, #1
    5ed4:	9a0003cb 	bls	6e08 <tty_execute_next_glyph_program_ins+0x114c>
    5ed8:	e2843040 	add	r3, r4, #64	; 0x40
    5edc:	e20330ff 	and	r3, r3, #255	; 0xff
    5ee0:	e353001f 	cmp	r3, #31
    5ee4:	9a0003f1 	bls	6eb0 <tty_execute_next_glyph_program_ins+0x11f4>
    5ee8:	e244303e 	sub	r3, r4, #62	; 0x3e
    5eec:	e3530001 	cmp	r3, #1
    5ef0:	9a00048a 	bls	7120 <tty_execute_next_glyph_program_ins+0x1464>
    5ef4:	e35400df 	cmp	r4, #223	; 0xdf
    5ef8:	8a0004d0 	bhi	7240 <tty_execute_next_glyph_program_ins+0x1584>
    5efc:	e284307a 	add	r3, r4, #122	; 0x7a
    5f00:	e20330ff 	and	r3, r3, #255	; 0xff
    5f04:	e3530001 	cmp	r3, #1
    5f08:	9a0005b9 	bls	75f4 <tty_execute_next_glyph_program_ins+0x1938>
    5f0c:	e3540008 	cmp	r4, #8
    5f10:	0a000603 	beq	7724 <tty_execute_next_glyph_program_ins+0x1a68>
    5f14:	e2443032 	sub	r3, r4, #50	; 0x32
    5f18:	e3530001 	cmp	r3, #1
    5f1c:	83a03001 	movhi	r3, #1
    5f20:	85ca301d 	strbhi	r3, [sl, #29]
    5f24:	8affffdc 	bhi	5e9c <tty_execute_next_glyph_program_ins+0x1e0>
    5f28:	e3540032 	cmp	r4, #50	; 0x32
    5f2c:	e59a4000 	ldr	r4, [sl]
    5f30:	1594301c 	ldrne	r3, [r4, #28]
    5f34:	05943020 	ldreq	r3, [r4, #32]
    5f38:	15941064 	ldrne	r1, [r4, #100]	; 0x64
    5f3c:	05941068 	ldreq	r1, [r4, #104]	; 0x68
    5f40:	e5932008 	ldr	r2, [r3, #8]
    5f44:	e59a5000 	ldr	r5, [sl]
    5f48:	e0822181 	add	r2, r2, r1, lsl #3
    5f4c:	e5933004 	ldr	r3, [r3, #4]
    5f50:	e5927000 	ldr	r7, [r2]
    5f54:	e5926004 	ldr	r6, [r2, #4]
    5f58:	e5952028 	ldr	r2, [r5, #40]	; 0x28
    5f5c:	e0833181 	add	r3, r3, r1, lsl #3
    5f60:	e192cfc2 	orrs	ip, r2, r2, asr #31
    5f64:	e8930003 	ldm	r3, {r0, r1}
    5f68:	e595904c 	ldr	r9, [r5, #76]	; 0x4c
    5f6c:	e5958050 	ldr	r8, [r5, #80]	; 0x50
    5f70:	e1a03fc2 	asr	r3, r2, #31
    5f74:	0a000021 	beq	6000 <tty_execute_next_glyph_program_ins+0x344>
    5f78:	e3a0e000 	mov	lr, #0
    5f7c:	e0477000 	sub	r7, r7, r0
    5f80:	e5950048 	ldr	r0, [r5, #72]	; 0x48
    5f84:	e0466001 	sub	r6, r6, r1
    5f88:	e1a01800 	lsl	r1, r0, #16
    5f8c:	e50b1038 	str	r1, [fp, #-56]	; 0xffffffc8
    5f90:	e3a0ca02 	mov	ip, #8192	; 0x2000
    5f94:	e1a0100e 	mov	r1, lr
    5f98:	e0e1c997 	smlal	ip, r1, r7, r9
    5f9c:	e1a07001 	mov	r7, r1
    5fa0:	e3a01a02 	mov	r1, #8192	; 0x2000
    5fa4:	e0ee1896 	smlal	r1, lr, r6, r8
    5fa8:	e1a0c72c 	lsr	ip, ip, #14
    5fac:	e1a01721 	lsr	r1, r1, #14
    5fb0:	e18cc907 	orr	ip, ip, r7, lsl #18
    5fb4:	e181190e 	orr	r1, r1, lr, lsl #18
    5fb8:	e51b6038 	ldr	r6, [fp, #-56]	; 0xffffffc8
    5fbc:	e08ce001 	add	lr, ip, r1
    5fc0:	e0c1c69e 	smull	ip, r1, lr, r6
    5fc4:	e1a0efa1 	lsr	lr, r1, #31
    5fc8:	e15e0fa3 	cmp	lr, r3, lsr #31
    5fcc:	e1a00fa3 	lsr	r0, r3, #31
    5fd0:	0a00061b 	beq	7844 <tty_execute_next_glyph_program_ins+0x1b88>
    5fd4:	e0900002 	adds	r0, r0, r2
    5fd8:	e2a3e000 	adc	lr, r3, #0
    5fdc:	e1a000a0 	lsr	r0, r0, #1
    5fe0:	e1800f8e 	orr	r0, r0, lr, lsl #31
    5fe4:	e2700000 	rsbs	r0, r0, #0
    5fe8:	e1a0e0ce 	asr	lr, lr, #1
    5fec:	e2eee000 	rsc	lr, lr, #0
    5ff0:	e090000c 	adds	r0, r0, ip
    5ff4:	e0a1100e 	adc	r1, r1, lr
    5ff8:	eb002b48 	bl	10d20 <__aeabi_ldivmod>
    5ffc:	e1a02000 	mov	r2, r0
    6000:	e595305c 	ldr	r3, [r5, #92]	; 0x5c
    6004:	e3530000 	cmp	r3, #0
    6008:	0a000026 	beq	60a8 <tty_execute_next_glyph_program_ins+0x3ec>
    600c:	e3a01000 	mov	r1, #0
    6010:	e1d530ba 	ldrh	r3, [r5, #10]
    6014:	e2433001 	sub	r3, r3, #1
    6018:	e5950004 	ldr	r0, [r5, #4]
    601c:	e1a03803 	lsl	r3, r3, #16
    6020:	e1a03823 	lsr	r3, r3, #16
    6024:	e1c530ba 	strh	r3, [r5, #10]
    6028:	e7903103 	ldr	r3, [r0, r3, lsl #2]
    602c:	e5950044 	ldr	r0, [r5, #68]	; 0x44
    6030:	e3500000 	cmp	r0, #0
    6034:	0a000005 	beq	6050 <tty_execute_next_glyph_program_ins+0x394>
    6038:	e5950024 	ldr	r0, [r5, #36]	; 0x24
    603c:	e590c010 	ldr	ip, [r0, #16]
    6040:	e7dc0003 	ldrb	r0, [ip, r3]
    6044:	e3800001 	orr	r0, r0, #1
    6048:	e7cc0003 	strb	r0, [ip, r3]
    604c:	e59a4000 	ldr	r4, [sl]
    6050:	e5940048 	ldr	r0, [r4, #72]	; 0x48
    6054:	e3500000 	cmp	r0, #0
    6058:	e1a05004 	mov	r5, r4
    605c:	0a00000d 	beq	6098 <tty_execute_next_glyph_program_ins+0x3dc>
    6060:	e5da001c 	ldrb	r0, [sl, #28]
    6064:	e3500003 	cmp	r0, #3
    6068:	e5940024 	ldr	r0, [r4, #36]	; 0x24
    606c:	1590c008 	ldrne	ip, [r0, #8]
    6070:	108cc183 	addne	ip, ip, r3, lsl #3
    6074:	159ce004 	ldrne	lr, [ip, #4]
    6078:	108ee002 	addne	lr, lr, r2
    607c:	158ce004 	strne	lr, [ip, #4]
    6080:	e590c010 	ldr	ip, [r0, #16]
    6084:	e7dc0003 	ldrb	r0, [ip, r3]
    6088:	e3800002 	orr	r0, r0, #2
    608c:	e7cc0003 	strb	r0, [ip, r3]
    6090:	e59a4000 	ldr	r4, [sl]
    6094:	e1a05004 	mov	r5, r4
    6098:	e594305c 	ldr	r3, [r4, #92]	; 0x5c
    609c:	e2811001 	add	r1, r1, #1
    60a0:	e1510003 	cmp	r1, r3
    60a4:	3affffd9 	bcc	6010 <tty_execute_next_glyph_program_ins+0x354>
    60a8:	e3a03001 	mov	r3, #1
    60ac:	e585305c 	str	r3, [r5, #92]	; 0x5c
    60b0:	eaffff79 	b	5e9c <tty_execute_next_glyph_program_ins+0x1e0>
    60b4:	e59a3000 	ldr	r3, [sl]
    60b8:	e1d320ba 	ldrh	r2, [r3, #10]
    60bc:	e2422001 	sub	r2, r2, #1
    60c0:	e5931004 	ldr	r1, [r3, #4]
    60c4:	e1a02802 	lsl	r2, r2, #16
    60c8:	e1a02822 	lsr	r2, r2, #16
    60cc:	e7d11102 	ldrb	r1, [r1, r2, lsl #2]
    60d0:	e3510000 	cmp	r1, #0
    60d4:	e1c320ba 	strh	r2, [r3, #10]
    60d8:	0a00027b 	beq	6acc <tty_execute_next_glyph_program_ins+0xe10>
    60dc:	e3510001 	cmp	r1, #1
    60e0:	13a02000 	movne	r2, #0
    60e4:	02832074 	addeq	r2, r3, #116	; 0x74
    60e8:	e583201c 	str	r2, [r3, #28]
    60ec:	e5832020 	str	r2, [r3, #32]
    60f0:	e5832024 	str	r2, [r3, #36]	; 0x24
    60f4:	e5c3106c 	strb	r1, [r3, #108]	; 0x6c
    60f8:	e5c3106d 	strb	r1, [r3, #109]	; 0x6d
    60fc:	e5c3106e 	strb	r1, [r3, #110]	; 0x6e
    6100:	eaffff65 	b	5e9c <tty_execute_next_glyph_program_ins+0x1e0>
    6104:	e59a2000 	ldr	r2, [sl]
    6108:	e1d230ba 	ldrh	r3, [r2, #10]
    610c:	e2433001 	sub	r3, r3, #1
    6110:	e5921004 	ldr	r1, [r2, #4]
    6114:	e1a03803 	lsl	r3, r3, #16
    6118:	e1a03823 	lsr	r3, r3, #16
    611c:	e7d11103 	ldrb	r1, [r1, r3, lsl #2]
    6120:	e3510000 	cmp	r1, #0
    6124:	e1c230ba 	strh	r3, [r2, #10]
    6128:	0a000264 	beq	6ac0 <tty_execute_next_glyph_program_ins+0xe04>
    612c:	e3510001 	cmp	r1, #1
    6130:	13a03000 	movne	r3, #0
    6134:	02823074 	addeq	r3, r2, #116	; 0x74
    6138:	e5823024 	str	r3, [r2, #36]	; 0x24
    613c:	e5c2106e 	strb	r1, [r2, #110]	; 0x6e
    6140:	eaffff55 	b	5e9c <tty_execute_next_glyph_program_ins+0x1e0>
    6144:	e59a2000 	ldr	r2, [sl]
    6148:	e1d230ba 	ldrh	r3, [r2, #10]
    614c:	e2433001 	sub	r3, r3, #1
    6150:	e5921004 	ldr	r1, [r2, #4]
    6154:	e1a03803 	lsl	r3, r3, #16
    6158:	e1a03823 	lsr	r3, r3, #16
    615c:	e7d11103 	ldrb	r1, [r1, r3, lsl #2]
    6160:	e3510000 	cmp	r1, #0
    6164:	e1c230ba 	strh	r3, [r2, #10]
    6168:	0a00025d 	beq	6ae4 <tty_execute_next_glyph_program_ins+0xe28>
    616c:	e3510001 	cmp	r1, #1
    6170:	13a03000 	movne	r3, #0
    6174:	02823074 	addeq	r3, r2, #116	; 0x74
    6178:	e5823020 	str	r3, [r2, #32]
    617c:	e5c2106d 	strb	r1, [r2, #109]	; 0x6d
    6180:	eaffff45 	b	5e9c <tty_execute_next_glyph_program_ins+0x1e0>
    6184:	e59a2000 	ldr	r2, [sl]
    6188:	e1d230ba 	ldrh	r3, [r2, #10]
    618c:	e2433001 	sub	r3, r3, #1
    6190:	e5921004 	ldr	r1, [r2, #4]
    6194:	e1a03803 	lsl	r3, r3, #16
    6198:	e1a03823 	lsr	r3, r3, #16
    619c:	e7d11103 	ldrb	r1, [r1, r3, lsl #2]
    61a0:	e3510000 	cmp	r1, #0
    61a4:	e1c230ba 	strh	r3, [r2, #10]
    61a8:	0a00024a 	beq	6ad8 <tty_execute_next_glyph_program_ins+0xe1c>
    61ac:	e3510001 	cmp	r1, #1
    61b0:	13a03000 	movne	r3, #0
    61b4:	02823074 	addeq	r3, r2, #116	; 0x74
    61b8:	e582301c 	str	r3, [r2, #28]
    61bc:	e5c2106c 	strb	r1, [r2, #108]	; 0x6c
    61c0:	eaffff35 	b	5e9c <tty_execute_next_glyph_program_ins+0x1e0>
    61c4:	e59a2000 	ldr	r2, [sl]
    61c8:	e1d230ba 	ldrh	r3, [r2, #10]
    61cc:	e2433001 	sub	r3, r3, #1
    61d0:	e5921004 	ldr	r1, [r2, #4]
    61d4:	e1a03803 	lsl	r3, r3, #16
    61d8:	e1a03823 	lsr	r3, r3, #16
    61dc:	e7911103 	ldr	r1, [r1, r3, lsl #2]
    61e0:	e1c230ba 	strh	r3, [r2, #10]
    61e4:	e5821068 	str	r1, [r2, #104]	; 0x68
    61e8:	eaffff2b 	b	5e9c <tty_execute_next_glyph_program_ins+0x1e0>
    61ec:	e59a2000 	ldr	r2, [sl]
    61f0:	e1d230ba 	ldrh	r3, [r2, #10]
    61f4:	e2433001 	sub	r3, r3, #1
    61f8:	e5921004 	ldr	r1, [r2, #4]
    61fc:	e1a03803 	lsl	r3, r3, #16
    6200:	e1a03823 	lsr	r3, r3, #16
    6204:	e7911103 	ldr	r1, [r1, r3, lsl #2]
    6208:	e1c230ba 	strh	r3, [r2, #10]
    620c:	e5821064 	str	r1, [r2, #100]	; 0x64
    6210:	eaffff21 	b	5e9c <tty_execute_next_glyph_program_ins+0x1e0>
    6214:	e59a2000 	ldr	r2, [sl]
    6218:	e1d230ba 	ldrh	r3, [r2, #10]
    621c:	e2433001 	sub	r3, r3, #1
    6220:	e5921004 	ldr	r1, [r2, #4]
    6224:	e1a03803 	lsl	r3, r3, #16
    6228:	e1a03823 	lsr	r3, r3, #16
    622c:	e7911103 	ldr	r1, [r1, r3, lsl #2]
    6230:	e1c230ba 	strh	r3, [r2, #10]
    6234:	e5821060 	str	r1, [r2, #96]	; 0x60
    6238:	eaffff17 	b	5e9c <tty_execute_next_glyph_program_ins+0x1e0>
    623c:	e59ac000 	ldr	ip, [sl]
    6240:	e1dc30ba 	ldrh	r3, [ip, #10]
    6244:	e2430001 	sub	r0, r3, #1
    6248:	e2431002 	sub	r1, r3, #2
    624c:	e59c6004 	ldr	r6, [ip, #4]
    6250:	e1a00800 	lsl	r0, r0, #16
    6254:	e1a01801 	lsl	r1, r1, #16
    6258:	e1a00820 	lsr	r0, r0, #16
    625c:	e1a01821 	lsr	r1, r1, #16
    6260:	e7964100 	ldr	r4, [r6, r0, lsl #2]
    6264:	e7965101 	ldr	r5, [r6, r1, lsl #2]
    6268:	e3a00000 	mov	r0, #0
    626c:	e3a01020 	mov	r1, #32
    6270:	e2432003 	sub	r2, r3, #3
    6274:	e243e004 	sub	lr, r3, #4
    6278:	e2433005 	sub	r3, r3, #5
    627c:	e1a02802 	lsl	r2, r2, #16
    6280:	e1a0e80e 	lsl	lr, lr, #16
    6284:	e1a03803 	lsl	r3, r3, #16
    6288:	e1a03823 	lsr	r3, r3, #16
    628c:	e1a02822 	lsr	r2, r2, #16
    6290:	e1a0e82e 	lsr	lr, lr, #16
    6294:	e7962102 	ldr	r2, [r6, r2, lsl #2]
    6298:	e796e10e 	ldr	lr, [r6, lr, lsl #2]
    629c:	e7966103 	ldr	r6, [r6, r3, lsl #2]
    62a0:	e1cc30ba 	strh	r3, [ip, #10]
    62a4:	e59c3020 	ldr	r3, [ip, #32]
    62a8:	e50b6038 	str	r6, [fp, #-56]	; 0xffffffc8
    62ac:	e59c601c 	ldr	r6, [ip, #28]
    62b0:	e5933008 	ldr	r3, [r3, #8]
    62b4:	e59c8024 	ldr	r8, [ip, #36]	; 0x24
    62b8:	e596c008 	ldr	ip, [r6, #8]
    62bc:	e0836185 	add	r6, r3, r5, lsl #3
    62c0:	e793a185 	ldr	sl, [r3, r5, lsl #3]
    62c4:	e5967004 	ldr	r7, [r6, #4]
    62c8:	e0835184 	add	r5, r3, r4, lsl #3
    62cc:	e7936184 	ldr	r6, [r3, r4, lsl #3]
    62d0:	e08c418e 	add	r4, ip, lr, lsl #3
    62d4:	e5953004 	ldr	r3, [r5, #4]
    62d8:	e79c518e 	ldr	r5, [ip, lr, lsl #3]
    62dc:	e594e004 	ldr	lr, [r4, #4]
    62e0:	e08c4182 	add	r4, ip, r2, lsl #3
    62e4:	e5944004 	ldr	r4, [r4, #4]
    62e8:	e79cc182 	ldr	ip, [ip, r2, lsl #3]
    62ec:	e04a2006 	sub	r2, sl, r6
    62f0:	e50b2044 	str	r2, [fp, #-68]	; 0xffffffbc
    62f4:	e04e2004 	sub	r2, lr, r4
    62f8:	e50b203c 	str	r2, [fp, #-60]	; 0xffffffc4
    62fc:	e0472003 	sub	r2, r7, r3
    6300:	e50b2040 	str	r2, [fp, #-64]	; 0xffffffc0
    6304:	e1a09000 	mov	r9, r0
    6308:	e1a02001 	mov	r2, r1
    630c:	e0e9239a 	smlal	r2, r9, sl, r3
    6310:	e1a03001 	mov	r3, r1
    6314:	e1a0a000 	mov	sl, r0
    6318:	e0ea3697 	smlal	r3, sl, r7, r6
    631c:	e1a02322 	lsr	r2, r2, #6
    6320:	e1a03323 	lsr	r3, r3, #6
    6324:	e1833d0a 	orr	r3, r3, sl, lsl #26
    6328:	e1822d09 	orr	r2, r2, r9, lsl #26
    632c:	e0429003 	sub	r9, r2, r3
    6330:	e1a06000 	mov	r6, r0
    6334:	e1a03001 	mov	r3, r1
    6338:	e045200c 	sub	r2, r5, ip
    633c:	e0e63495 	smlal	r3, r6, r5, r4
    6340:	e1a04001 	mov	r4, r1
    6344:	e1a05000 	mov	r5, r0
    6348:	e0e54c9e 	smlal	r4, r5, lr, ip
    634c:	e1a03323 	lsr	r3, r3, #6
    6350:	e51be038 	ldr	lr, [fp, #-56]	; 0xffffffc8
    6354:	e598c010 	ldr	ip, [r8, #16]
    6358:	e1a0a324 	lsr	sl, r4, #6
    635c:	e1833d06 	orr	r3, r3, r6, lsl #26
    6360:	e18aad05 	orr	sl, sl, r5, lsl #26
    6364:	e043a00a 	sub	sl, r3, sl
    6368:	e7dc300e 	ldrb	r3, [ip, lr]
    636c:	e3833003 	orr	r3, r3, #3
    6370:	e5985008 	ldr	r5, [r8, #8]
    6374:	e1a04001 	mov	r4, r1
    6378:	e7cc300e 	strb	r3, [ip, lr]
    637c:	e1a03000 	mov	r3, r0
    6380:	e51b8044 	ldr	r8, [fp, #-68]	; 0xffffffbc
    6384:	e51bc03c 	ldr	ip, [fp, #-60]	; 0xffffffc4
    6388:	e0e34c98 	smlal	r4, r3, r8, ip
    638c:	e085618e 	add	r6, r5, lr, lsl #3
    6390:	e1a0c324 	lsr	ip, r4, #6
    6394:	e1a0e000 	mov	lr, r0
    6398:	e1a04001 	mov	r4, r1
    639c:	e18ccd03 	orr	ip, ip, r3, lsl #26
    63a0:	e51b3040 	ldr	r3, [fp, #-64]	; 0xffffffc0
    63a4:	e0ee4293 	smlal	r4, lr, r3, r2
    63a8:	e1a03324 	lsr	r3, r4, #6
    63ac:	e1833d0e 	orr	r3, r3, lr, lsl #26
    63b0:	e04c4003 	sub	r4, ip, r3
    63b4:	e1943fc4 	orrs	r3, r4, r4, asr #31
    63b8:	e1a07fc4 	asr	r7, r4, #31
    63bc:	0a0001b3 	beq	6a90 <tty_execute_next_glyph_program_ins+0xdd4>
    63c0:	e1a03001 	mov	r3, r1
    63c4:	e1a0c000 	mov	ip, r0
    63c8:	e0e01a98 	smlal	r1, r0, r8, sl
    63cc:	e0ec3992 	smlal	r3, ip, r2, r9
    63d0:	e1a01321 	lsr	r1, r1, #6
    63d4:	e1a03323 	lsr	r3, r3, #6
    63d8:	e1811d00 	orr	r1, r1, r0, lsl #26
    63dc:	e1833d0c 	orr	r3, r3, ip, lsl #26
    63e0:	e0433001 	sub	r3, r3, r1
    63e4:	e1a02fa7 	lsr	r2, r7, #31
    63e8:	e1520fa3 	cmp	r2, r3, lsr #31
    63ec:	e1a010c3 	asr	r1, r3, #1
    63f0:	e1a08002 	mov	r8, r2
    63f4:	e1a03f83 	lsl	r3, r3, #31
    63f8:	0a000241 	beq	6d04 <tty_execute_next_glyph_program_ins+0x1048>
    63fc:	e0922004 	adds	r2, r2, r4
    6400:	e2a70000 	adc	r0, r7, #0
    6404:	e1a020a2 	lsr	r2, r2, #1
    6408:	e1822f80 	orr	r2, r2, r0, lsl #31
    640c:	e2722000 	rsbs	r2, r2, #0
    6410:	e1a000c0 	asr	r0, r0, #1
    6414:	e2e0c000 	rsc	ip, r0, #0
    6418:	e0920003 	adds	r0, r2, r3
    641c:	e0a1100c 	adc	r1, r1, ip
    6420:	e1a02004 	mov	r2, r4
    6424:	e1a03007 	mov	r3, r7
    6428:	eb002a3c 	bl	10d20 <__aeabi_ldivmod>
    642c:	e25004ff 	subs	r0, r0, #-16777216	; 0xff000000
    6430:	e2a13000 	adc	r3, r1, #0
    6434:	e51b2038 	ldr	r2, [fp, #-56]	; 0xffffffc8
    6438:	e1a00ca0 	lsr	r0, r0, #25
    643c:	e1803383 	orr	r3, r0, r3, lsl #7
    6440:	e7853182 	str	r3, [r5, r2, lsl #3]
    6444:	e3a00000 	mov	r0, #0
    6448:	e3a03020 	mov	r3, #32
    644c:	e1a01000 	mov	r1, r0
    6450:	e1a02003 	mov	r2, r3
    6454:	e51bc03c 	ldr	ip, [fp, #-60]	; 0xffffffc4
    6458:	e0e1299c 	smlal	r2, r1, ip, r9
    645c:	e51bc040 	ldr	ip, [fp, #-64]	; 0xffffffc0
    6460:	e0e03a9c 	smlal	r3, r0, ip, sl
    6464:	e1a02322 	lsr	r2, r2, #6
    6468:	e1a03323 	lsr	r3, r3, #6
    646c:	e1822d01 	orr	r2, r2, r1, lsl #26
    6470:	e1833d00 	orr	r3, r3, r0, lsl #26
    6474:	e0423003 	sub	r3, r2, r3
    6478:	e1580fa3 	cmp	r8, r3, lsr #31
    647c:	e1a010c3 	asr	r1, r3, #1
    6480:	e1a03f83 	lsl	r3, r3, #31
    6484:	0a000225 	beq	6d20 <tty_execute_next_glyph_program_ins+0x1064>
    6488:	e1a02004 	mov	r2, r4
    648c:	e0980004 	adds	r0, r8, r4
    6490:	e2a7c000 	adc	ip, r7, #0
    6494:	e1a000a0 	lsr	r0, r0, #1
    6498:	e1800f8c 	orr	r0, r0, ip, lsl #31
    649c:	e2700000 	rsbs	r0, r0, #0
    64a0:	e1a0c0cc 	asr	ip, ip, #1
    64a4:	e2ecc000 	rsc	ip, ip, #0
    64a8:	e0900003 	adds	r0, r0, r3
    64ac:	e0a1100c 	adc	r1, r1, ip
    64b0:	e1a03007 	mov	r3, r7
    64b4:	eb002a19 	bl	10d20 <__aeabi_ldivmod>
    64b8:	e25004ff 	subs	r0, r0, #-16777216	; 0xff000000
    64bc:	e2a13000 	adc	r3, r1, #0
    64c0:	e1a00ca0 	lsr	r0, r0, #25
    64c4:	e1803383 	orr	r3, r0, r3, lsl #7
    64c8:	e5863004 	str	r3, [r6, #4]
    64cc:	eafffe72 	b	5e9c <tty_execute_next_glyph_program_ins+0x1e0>
    64d0:	e59a0000 	ldr	r0, [sl]
    64d4:	e590101c 	ldr	r1, [r0, #28]
    64d8:	e280205c 	add	r2, r0, #92	; 0x5c
    64dc:	e892000c 	ldm	r2, {r2, r3}
    64e0:	e5916008 	ldr	r6, [r1, #8]
    64e4:	e3520000 	cmp	r2, #0
    64e8:	e0866183 	add	r6, r6, r3, lsl #3
    64ec:	0a00002a 	beq	659c <tty_execute_next_glyph_program_ins+0x8e0>
    64f0:	e3a05000 	mov	r5, #0
    64f4:	e3a04a02 	mov	r4, #8192	; 0x2000
    64f8:	e1a07005 	mov	r7, r5
    64fc:	e1a0c000 	mov	ip, r0
    6500:	e1dc30ba 	ldrh	r3, [ip, #10]
    6504:	e2433001 	sub	r3, r3, #1
    6508:	e59c1020 	ldr	r1, [ip, #32]
    650c:	e59c2004 	ldr	r2, [ip, #4]
    6510:	e1a03803 	lsl	r3, r3, #16
    6514:	e1a03823 	lsr	r3, r3, #16
    6518:	e7922103 	ldr	r2, [r2, r3, lsl #2]
    651c:	e1cc30ba 	strh	r3, [ip, #10]
    6520:	e5913008 	ldr	r3, [r1, #8]
    6524:	e596e000 	ldr	lr, [r6]
    6528:	e0830182 	add	r0, r3, r2, lsl #3
    652c:	e7933182 	ldr	r3, [r3, r2, lsl #3]
    6530:	e5900004 	ldr	r0, [r0, #4]
    6534:	e04e3003 	sub	r3, lr, r3
    6538:	e596e004 	ldr	lr, [r6, #4]
    653c:	e1a09007 	mov	r9, r7
    6540:	e04ee000 	sub	lr, lr, r0
    6544:	e1a00004 	mov	r0, r4
    6548:	e59c804c 	ldr	r8, [ip, #76]	; 0x4c
    654c:	e0e90893 	smlal	r0, r9, r3, r8
    6550:	e1a00720 	lsr	r0, r0, #14
    6554:	e1800909 	orr	r0, r0, r9, lsl #18
    6558:	e59c8018 	ldr	r8, [ip, #24]
    655c:	e59c9050 	ldr	r9, [ip, #80]	; 0x50
    6560:	e1a03004 	mov	r3, r4
    6564:	e1a0c007 	mov	ip, r7
    6568:	e0ec399e 	smlal	r3, ip, lr, r9
    656c:	e1a03723 	lsr	r3, r3, #14
    6570:	e183390c 	orr	r3, r3, ip, lsl #18
    6574:	e0803003 	add	r3, r0, r3
    6578:	e1a0000a 	mov	r0, sl
    657c:	e1a0e00f 	mov	lr, pc
    6580:	e12fff18 	bx	r8
    6584:	e59ac000 	ldr	ip, [sl]
    6588:	e59c305c 	ldr	r3, [ip, #92]	; 0x5c
    658c:	e2855001 	add	r5, r5, #1
    6590:	e1550003 	cmp	r5, r3
    6594:	3affffd9 	bcc	6500 <tty_execute_next_glyph_program_ins+0x844>
    6598:	e1a0000c 	mov	r0, ip
    659c:	e3a03001 	mov	r3, #1
    65a0:	e580305c 	str	r3, [r0, #92]	; 0x5c
    65a4:	eafffe3c 	b	5e9c <tty_execute_next_glyph_program_ins+0x1e0>
    65a8:	e3a02000 	mov	r2, #0
    65ac:	e3a0ca02 	mov	ip, #8192	; 0x2000
    65b0:	e1a05002 	mov	r5, r2
    65b4:	e59a4000 	ldr	r4, [sl]
    65b8:	e1d430ba 	ldrh	r3, [r4, #10]
    65bc:	e2433001 	sub	r3, r3, #1
    65c0:	e5941004 	ldr	r1, [r4, #4]
    65c4:	e1a03803 	lsl	r3, r3, #16
    65c8:	e1a03823 	lsr	r3, r3, #16
    65cc:	e791e103 	ldr	lr, [r1, r3, lsl #2]
    65d0:	e5940048 	ldr	r0, [r4, #72]	; 0x48
    65d4:	e0e5c09e 	smlal	ip, r5, lr, r0
    65d8:	e594006c 	ldr	r0, [r4, #108]	; 0x6c
    65dc:	e1a0c72c 	lsr	ip, ip, #14
    65e0:	e18cc905 	orr	ip, ip, r5, lsl #18
    65e4:	e594505c 	ldr	r5, [r4, #92]	; 0x5c
    65e8:	e3d004ff 	bics	r0, r0, #-16777216	; 0xff000000
    65ec:	03a0e001 	moveq	lr, #1
    65f0:	11a0e002 	movne	lr, r2
    65f4:	e1550002 	cmp	r5, r2
    65f8:	e1c430ba 	strh	r3, [r4, #10]
    65fc:	1a000014 	bne	6654 <tty_execute_next_glyph_program_ins+0x998>
    6600:	eafffe23 	b	5e94 <tty_execute_next_glyph_program_ins+0x1d8>
    6604:	e5da301c 	ldrb	r3, [sl, #28]
    6608:	e3530003 	cmp	r3, #3
    660c:	0a000017 	beq	6670 <tty_execute_next_glyph_program_ins+0x9b4>
    6610:	e59a3008 	ldr	r3, [sl, #8]
    6614:	e1d332f0 	ldrsh	r3, [r3, #32]
    6618:	e3530000 	cmp	r3, #0
    661c:	ba0000fe 	blt	6a1c <tty_execute_next_glyph_program_ins+0xd60>
    6620:	e5943024 	ldr	r3, [r4, #36]	; 0x24
    6624:	e5933010 	ldr	r3, [r3, #16]
    6628:	e7d33001 	ldrb	r3, [r3, r1]
    662c:	e1a030a3 	lsr	r3, r3, #1
    6630:	e2033001 	and	r3, r3, #1
    6634:	e3530000 	cmp	r3, #0
    6638:	1a0000fa 	bne	6a28 <tty_execute_next_glyph_program_ins+0xd6c>
    663c:	e594305c 	ldr	r3, [r4, #92]	; 0x5c
    6640:	e2822001 	add	r2, r2, #1
    6644:	e1520003 	cmp	r2, r3
    6648:	2afffe11 	bcs	5e94 <tty_execute_next_glyph_program_ins+0x1d8>
    664c:	e5941004 	ldr	r1, [r4, #4]
    6650:	e1d430ba 	ldrh	r3, [r4, #10]
    6654:	e2433001 	sub	r3, r3, #1
    6658:	e1a03803 	lsl	r3, r3, #16
    665c:	e1a03823 	lsr	r3, r3, #16
    6660:	e3500000 	cmp	r0, #0
    6664:	e1c430ba 	strh	r3, [r4, #10]
    6668:	e7911103 	ldr	r1, [r1, r3, lsl #2]
    666c:	1affffe4 	bne	6604 <tty_execute_next_glyph_program_ins+0x948>
    6670:	e1a0300e 	mov	r3, lr
    6674:	eaffffee 	b	6634 <tty_execute_next_glyph_program_ins+0x978>
    6678:	e59a2000 	ldr	r2, [sl]
    667c:	e1d230ba 	ldrh	r3, [r2, #10]
    6680:	e2433001 	sub	r3, r3, #1
    6684:	e5921004 	ldr	r1, [r2, #4]
    6688:	e1a03803 	lsl	r3, r3, #16
    668c:	e1a03823 	lsr	r3, r3, #16
    6690:	e7911103 	ldr	r1, [r1, r3, lsl #2]
    6694:	e1c230ba 	strh	r3, [r2, #10]
    6698:	e582102c 	str	r1, [r2, #44]	; 0x2c
    669c:	eafffdfe 	b	5e9c <tty_execute_next_glyph_program_ins+0x1e0>
    66a0:	e3a01010 	mov	r1, #16
    66a4:	e1a0000a 	mov	r0, sl
    66a8:	e24bd028 	sub	sp, fp, #40	; 0x28
    66ac:	e89d6ff0 	ldm	sp, {r4, r5, r6, r7, r8, r9, sl, fp, sp, lr}
    66b0:	eafff0dd 	b	2a2c <tty_deltap_impl>
    66b4:	e3a01000 	mov	r1, #0
    66b8:	eafffff9 	b	66a4 <tty_execute_next_glyph_program_ins+0x9e8>
    66bc:	e3a01020 	mov	r1, #32
    66c0:	eafffff7 	b	66a4 <tty_execute_next_glyph_program_ins+0x9e8>
    66c4:	e59a4000 	ldr	r4, [sl]
    66c8:	e594601c 	ldr	r6, [r4, #28]
    66cc:	e5d4206c 	ldrb	r2, [r4, #108]	; 0x6c
    66d0:	e5940020 	ldr	r0, [r4, #32]
    66d4:	e5943064 	ldr	r3, [r4, #100]	; 0x64
    66d8:	e5961008 	ldr	r1, [r6, #8]
    66dc:	e590c008 	ldr	ip, [r0, #8]
    66e0:	e3520000 	cmp	r2, #0
    66e4:	e5942068 	ldr	r2, [r4, #104]	; 0x68
    66e8:	e081e183 	add	lr, r1, r3, lsl #3
    66ec:	e50be050 	str	lr, [fp, #-80]	; 0xffffffb0
    66f0:	e1a07183 	lsl	r7, r3, #3
    66f4:	e1a0e182 	lsl	lr, r2, #3
    66f8:	e08c5182 	add	r5, ip, r2, lsl #3
    66fc:	0a000005 	beq	6718 <tty_execute_next_glyph_program_ins+0xa5c>
    6700:	e5d4806d 	ldrb	r8, [r4, #109]	; 0x6d
    6704:	e3580000 	cmp	r8, #0
    6708:	0a000002 	beq	6718 <tty_execute_next_glyph_program_ins+0xa5c>
    670c:	e5d4806e 	ldrb	r8, [r4, #110]	; 0x6e
    6710:	e3580000 	cmp	r8, #0
    6714:	1a0000e1 	bne	6aa0 <tty_execute_next_glyph_program_ins+0xde4>
    6718:	e5900004 	ldr	r0, [r0, #4]
    671c:	e080e00e 	add	lr, r0, lr
    6720:	e3a00001 	mov	r0, #1
    6724:	e5966004 	ldr	r6, [r6, #4]
    6728:	e0866007 	add	r6, r6, r7
    672c:	e50b6054 	str	r6, [fp, #-84]	; 0xffffffac
    6730:	e50b0058 	str	r0, [fp, #-88]	; 0xffffffa8
    6734:	e3a08000 	mov	r8, #0
    6738:	e3a07a02 	mov	r7, #8192	; 0x2000
    673c:	e7910183 	ldr	r0, [r1, r3, lsl #3]
    6740:	e51b1054 	ldr	r1, [fp, #-84]	; 0xffffffac
    6744:	e79cc182 	ldr	ip, [ip, r2, lsl #3]
    6748:	e5956004 	ldr	r6, [r5, #4]
    674c:	e5912000 	ldr	r2, [r1]
    6750:	e89e0220 	ldm	lr, {r5, r9}
    6754:	e5911004 	ldr	r1, [r1, #4]
    6758:	e045e002 	sub	lr, r5, r2
    675c:	e50be038 	str	lr, [fp, #-56]	; 0xffffffc8
    6760:	e594e04c 	ldr	lr, [r4, #76]	; 0x4c
    6764:	e0499001 	sub	r9, r9, r1
    6768:	e50b903c 	str	r9, [fp, #-60]	; 0xffffffc4
    676c:	e1a0900e 	mov	r9, lr
    6770:	e594e03c 	ldr	lr, [r4, #60]	; 0x3c
    6774:	e50be040 	str	lr, [fp, #-64]	; 0xffffffc0
    6778:	e594e040 	ldr	lr, [r4, #64]	; 0x40
    677c:	e5945050 	ldr	r5, [r4, #80]	; 0x50
    6780:	e50be044 	str	lr, [fp, #-68]	; 0xffffffbc
    6784:	e594e05c 	ldr	lr, [r4, #92]	; 0x5c
    6788:	e50b505c 	str	r5, [fp, #-92]	; 0xffffffa4
    678c:	e15e0008 	cmp	lr, r8
    6790:	e1a05008 	mov	r5, r8
    6794:	e1a0e007 	mov	lr, r7
    6798:	e04cc000 	sub	ip, ip, r0
    679c:	e0e5e99c 	smlal	lr, r5, ip, r9
    67a0:	e1a0e72e 	lsr	lr, lr, #14
    67a4:	e18ee905 	orr	lr, lr, r5, lsl #18
    67a8:	e1a0c007 	mov	ip, r7
    67ac:	e1a05008 	mov	r5, r8
    67b0:	e51b3050 	ldr	r3, [fp, #-80]	; 0xffffffb0
    67b4:	e5933004 	ldr	r3, [r3, #4]
    67b8:	e50b9078 	str	r9, [fp, #-120]	; 0xffffff88
    67bc:	e51b905c 	ldr	r9, [fp, #-92]	; 0xffffffa4
    67c0:	e0466003 	sub	r6, r6, r3
    67c4:	e0e5c996 	smlal	ip, r5, r6, r9
    67c8:	e1a0c72c 	lsr	ip, ip, #14
    67cc:	e18cc905 	orr	ip, ip, r5, lsl #18
    67d0:	e08ec00c 	add	ip, lr, ip
    67d4:	e1a06008 	mov	r6, r8
    67d8:	e50bc060 	str	ip, [fp, #-96]	; 0xffffffa0
    67dc:	e1a0c007 	mov	ip, r7
    67e0:	e51b9038 	ldr	r9, [fp, #-56]	; 0xffffffc8
    67e4:	e51b5040 	ldr	r5, [fp, #-64]	; 0xffffffc0
    67e8:	e1a0e008 	mov	lr, r8
    67ec:	e0e6c599 	smlal	ip, r6, r9, r5
    67f0:	e1a05007 	mov	r5, r7
    67f4:	e1a0c72c 	lsr	ip, ip, #14
    67f8:	e18cc906 	orr	ip, ip, r6, lsl #18
    67fc:	e51b903c 	ldr	r9, [fp, #-60]	; 0xffffffc4
    6800:	e51b6044 	ldr	r6, [fp, #-68]	; 0xffffffbc
    6804:	e0ee5699 	smlal	r5, lr, r9, r6
    6808:	e1a05725 	lsr	r5, r5, #14
    680c:	e185590e 	orr	r5, r5, lr, lsl #18
    6810:	e08c5005 	add	r5, ip, r5
    6814:	e50b5048 	str	r5, [fp, #-72]	; 0xffffffb8
    6818:	0afffd9d 	beq	5e94 <tty_execute_next_glyph_program_ins+0x1d8>
    681c:	e1a0cfa5 	lsr	ip, r5, #31
    6820:	e50bc064 	str	ip, [fp, #-100]	; 0xffffff9c
    6824:	e09cc005 	adds	ip, ip, r5
    6828:	e1a060ac 	lsr	r6, ip, #1
    682c:	e1a0cfc5 	asr	ip, r5, #31
    6830:	e50bc04c 	str	ip, [fp, #-76]	; 0xffffffb4
    6834:	e2acc000 	adc	ip, ip, #0
    6838:	e1865f8c 	orr	r5, r6, ip, lsl #31
    683c:	e50b5070 	str	r5, [fp, #-112]	; 0xffffff90
    6840:	e1a0c0cc 	asr	ip, ip, #1
    6844:	e2755000 	rsbs	r5, r5, #0
    6848:	e50bc074 	str	ip, [fp, #-116]	; 0xffffff8c
    684c:	e2ecc000 	rsc	ip, ip, #0
    6850:	e51be05c 	ldr	lr, [fp, #-92]	; 0xffffffa4
    6854:	e1a09008 	mov	r9, r8
    6858:	e50ba05c 	str	sl, [fp, #-92]	; 0xffffffa4
    685c:	e50b7038 	str	r7, [fp, #-56]	; 0xffffffc8
    6860:	e50b5068 	str	r5, [fp, #-104]	; 0xffffff98
    6864:	e50bc06c 	str	ip, [fp, #-108]	; 0xffffff94
    6868:	e50b803c 	str	r8, [fp, #-60]	; 0xffffffc4
    686c:	e51ba078 	ldr	sl, [fp, #-120]	; 0xffffff88
    6870:	ea000024 	b	6908 <tty_execute_next_glyph_program_ins+0xc4c>
    6874:	e51bc068 	ldr	ip, [fp, #-104]	; 0xffffff98
    6878:	e090000c 	adds	r0, r0, ip
    687c:	e51bc06c 	ldr	ip, [fp, #-108]	; 0xffffff94
    6880:	e0a1100c 	adc	r1, r1, ip
    6884:	e51b304c 	ldr	r3, [fp, #-76]	; 0xffffffb4
    6888:	e51b2048 	ldr	r2, [fp, #-72]	; 0xffffffb8
    688c:	eb002923 	bl	10d20 <__aeabi_ldivmod>
    6890:	e25004ff 	subs	r0, r0, #-16777216	; 0xff000000
    6894:	e2a13000 	adc	r3, r1, #0
    6898:	e1a00ca0 	lsr	r0, r0, #25
    689c:	e1803383 	orr	r3, r0, r3, lsl #7
    68a0:	e51b003c 	ldr	r0, [fp, #-60]	; 0xffffffc4
    68a4:	e1a02006 	mov	r2, r6
    68a8:	e51b605c 	ldr	r6, [fp, #-92]	; 0xffffffa4
    68ac:	e0433005 	sub	r3, r3, r5
    68b0:	e5944018 	ldr	r4, [r4, #24]
    68b4:	e2805001 	add	r5, r0, #1
    68b8:	e1a01007 	mov	r1, r7
    68bc:	e1a00006 	mov	r0, r6
    68c0:	e50b503c 	str	r5, [fp, #-60]	; 0xffffffc4
    68c4:	e1a0e00f 	mov	lr, pc
    68c8:	e12fff14 	bx	r4
    68cc:	e5964000 	ldr	r4, [r6]
    68d0:	e594305c 	ldr	r3, [r4, #92]	; 0x5c
    68d4:	e1550003 	cmp	r5, r3
    68d8:	2afffd6d 	bcs	5e94 <tty_execute_next_glyph_program_ins+0x1d8>
    68dc:	e594303c 	ldr	r3, [r4, #60]	; 0x3c
    68e0:	e50b3040 	str	r3, [fp, #-64]	; 0xffffffc0
    68e4:	e5943040 	ldr	r3, [r4, #64]	; 0x40
    68e8:	e51b1054 	ldr	r1, [fp, #-84]	; 0xffffffac
    68ec:	e50b3044 	str	r3, [fp, #-68]	; 0xffffffbc
    68f0:	e51b3050 	ldr	r3, [fp, #-80]	; 0xffffffb0
    68f4:	e284a04c 	add	sl, r4, #76	; 0x4c
    68f8:	e5912000 	ldr	r2, [r1]
    68fc:	e89a4400 	ldm	sl, {sl, lr}
    6900:	e8930009 	ldm	r3, {r0, r3}
    6904:	e5911004 	ldr	r1, [r1, #4]
    6908:	e5947024 	ldr	r7, [r4, #36]	; 0x24
    690c:	e51b8058 	ldr	r8, [fp, #-88]	; 0xffffffa8
    6910:	e8971040 	ldm	r7, {r6, ip}
    6914:	e3580000 	cmp	r8, #0
    6918:	e1d450ba 	ldrh	r5, [r4, #10]
    691c:	01a0c006 	moveq	ip, r6
    6920:	e51b804c 	ldr	r8, [fp, #-76]	; 0xffffffb4
    6924:	e51b6048 	ldr	r6, [fp, #-72]	; 0xffffffb8
    6928:	e2455001 	sub	r5, r5, #1
    692c:	e1966008 	orrs	r6, r6, r8
    6930:	e1a05805 	lsl	r5, r5, #16
    6934:	e5946004 	ldr	r6, [r4, #4]
    6938:	e1a05825 	lsr	r5, r5, #16
    693c:	e7966105 	ldr	r6, [r6, r5, lsl #2]
    6940:	e1c450ba 	strh	r5, [r4, #10]
    6944:	e5975008 	ldr	r5, [r7, #8]
    6948:	e0858186 	add	r8, r5, r6, lsl #3
    694c:	e7955186 	ldr	r5, [r5, r6, lsl #3]
    6950:	e0450000 	sub	r0, r5, r0
    6954:	e5985004 	ldr	r5, [r8, #4]
    6958:	e1a08009 	mov	r8, r9
    695c:	e0453003 	sub	r3, r5, r3
    6960:	e51b5038 	ldr	r5, [fp, #-56]	; 0xffffffc8
    6964:	e0e85a90 	smlal	r5, r8, r0, sl
    6968:	e1a0a009 	mov	sl, r9
    696c:	e51b0038 	ldr	r0, [fp, #-56]	; 0xffffffc8
    6970:	e0ea0e93 	smlal	r0, sl, r3, lr
    6974:	e1a05725 	lsr	r5, r5, #14
    6978:	e1a00720 	lsr	r0, r0, #14
    697c:	e180090a 	orr	r0, r0, sl, lsl #18
    6980:	e1855908 	orr	r5, r5, r8, lsl #18
    6984:	e08c3186 	add	r3, ip, r6, lsl #3
    6988:	e5933004 	ldr	r3, [r3, #4]
    698c:	e0855000 	add	r5, r5, r0
    6990:	e79c0186 	ldr	r0, [ip, r6, lsl #3]
    6994:	e0431001 	sub	r1, r3, r1
    6998:	e0402002 	sub	r2, r0, r2
    699c:	03a03000 	moveq	r3, #0
    69a0:	0affffbe 	beq	68a0 <tty_execute_next_glyph_program_ins+0xbe4>
    69a4:	e51bc038 	ldr	ip, [fp, #-56]	; 0xffffffc8
    69a8:	e1a00009 	mov	r0, r9
    69ac:	e1a0300c 	mov	r3, ip
    69b0:	e51be040 	ldr	lr, [fp, #-64]	; 0xffffffc0
    69b4:	e0e03e92 	smlal	r3, r0, r2, lr
    69b8:	e1a0200c 	mov	r2, ip
    69bc:	e1a0c009 	mov	ip, r9
    69c0:	e51be044 	ldr	lr, [fp, #-68]	; 0xffffffbc
    69c4:	e0ec2e91 	smlal	r2, ip, r1, lr
    69c8:	e1a03723 	lsr	r3, r3, #14
    69cc:	e1a02722 	lsr	r2, r2, #14
    69d0:	e1833900 	orr	r3, r3, r0, lsl #18
    69d4:	e182290c 	orr	r2, r2, ip, lsl #18
    69d8:	e0833002 	add	r3, r3, r2
    69dc:	e3a00020 	mov	r0, #32
    69e0:	e1a02009 	mov	r2, r9
    69e4:	e51b1060 	ldr	r1, [fp, #-96]	; 0xffffffa0
    69e8:	e0e20193 	smlal	r0, r2, r3, r1
    69ec:	e51b1064 	ldr	r1, [fp, #-100]	; 0xffffff9c
    69f0:	e1a00320 	lsr	r0, r0, #6
    69f4:	e1800d02 	orr	r0, r0, r2, lsl #26
    69f8:	e1510fa0 	cmp	r1, r0, lsr #31
    69fc:	e1a010c0 	asr	r1, r0, #1
    6a00:	e1a00f80 	lsl	r0, r0, #31
    6a04:	1affff9a 	bne	6874 <tty_execute_next_glyph_program_ins+0xbb8>
    6a08:	e51b3070 	ldr	r3, [fp, #-112]	; 0xffffff90
    6a0c:	e0900003 	adds	r0, r0, r3
    6a10:	e51b3074 	ldr	r3, [fp, #-116]	; 0xffffff8c
    6a14:	e0a11003 	adc	r1, r1, r3
    6a18:	eaffff99 	b	6884 <tty_execute_next_glyph_program_ins+0xbc8>
    6a1c:	e5943048 	ldr	r3, [r4, #72]	; 0x48
    6a20:	e3530000 	cmp	r3, #0
    6a24:	0afffefd 	beq	6620 <tty_execute_next_glyph_program_ins+0x964>
    6a28:	e5943044 	ldr	r3, [r4, #68]	; 0x44
    6a2c:	e3530000 	cmp	r3, #0
    6a30:	0a000005 	beq	6a4c <tty_execute_next_glyph_program_ins+0xd90>
    6a34:	e5943024 	ldr	r3, [r4, #36]	; 0x24
    6a38:	e5934010 	ldr	r4, [r3, #16]
    6a3c:	e7d43001 	ldrb	r3, [r4, r1]
    6a40:	e3833001 	orr	r3, r3, #1
    6a44:	e7c43001 	strb	r3, [r4, r1]
    6a48:	e59a4000 	ldr	r4, [sl]
    6a4c:	e5943048 	ldr	r3, [r4, #72]	; 0x48
    6a50:	e3530000 	cmp	r3, #0
    6a54:	0afffef8 	beq	663c <tty_execute_next_glyph_program_ins+0x980>
    6a58:	e5da301c 	ldrb	r3, [sl, #28]
    6a5c:	e5944024 	ldr	r4, [r4, #36]	; 0x24
    6a60:	e3530003 	cmp	r3, #3
    6a64:	15943008 	ldrne	r3, [r4, #8]
    6a68:	10833181 	addne	r3, r3, r1, lsl #3
    6a6c:	15935004 	ldrne	r5, [r3, #4]
    6a70:	1085500c 	addne	r5, r5, ip
    6a74:	e5944010 	ldr	r4, [r4, #16]
    6a78:	15835004 	strne	r5, [r3, #4]
    6a7c:	e7d43001 	ldrb	r3, [r4, r1]
    6a80:	e3833002 	orr	r3, r3, #2
    6a84:	e7c43001 	strb	r3, [r4, r1]
    6a88:	e59a4000 	ldr	r4, [sl]
    6a8c:	eafffeea 	b	663c <tty_execute_next_glyph_program_ins+0x980>
    6a90:	e51b2038 	ldr	r2, [fp, #-56]	; 0xffffffc8
    6a94:	e1a03000 	mov	r3, r0
    6a98:	e7850182 	str	r0, [r5, r2, lsl #3]
    6a9c:	eafffe89 	b	64c8 <tty_execute_next_glyph_program_ins+0x80c>
    6aa0:	e5900000 	ldr	r0, [r0]
    6aa4:	e080e00e 	add	lr, r0, lr
    6aa8:	e3a00000 	mov	r0, #0
    6aac:	e5966000 	ldr	r6, [r6]
    6ab0:	e0866007 	add	r6, r6, r7
    6ab4:	e50b6054 	str	r6, [fp, #-84]	; 0xffffffac
    6ab8:	e50b0058 	str	r0, [fp, #-88]	; 0xffffffa8
    6abc:	eaffff1c 	b	6734 <tty_execute_next_glyph_program_ins+0xa78>
    6ac0:	e59a3004 	ldr	r3, [sl, #4]
    6ac4:	e2833018 	add	r3, r3, #24
    6ac8:	eafffd9a 	b	6138 <tty_execute_next_glyph_program_ins+0x47c>
    6acc:	e59a2004 	ldr	r2, [sl, #4]
    6ad0:	e2822018 	add	r2, r2, #24
    6ad4:	eafffd83 	b	60e8 <tty_execute_next_glyph_program_ins+0x42c>
    6ad8:	e59a3004 	ldr	r3, [sl, #4]
    6adc:	e2833018 	add	r3, r3, #24
    6ae0:	eafffdb4 	b	61b8 <tty_execute_next_glyph_program_ins+0x4fc>
    6ae4:	e59a3004 	ldr	r3, [sl, #4]
    6ae8:	e2833018 	add	r3, r3, #24
    6aec:	eafffda1 	b	6178 <tty_execute_next_glyph_program_ins+0x4bc>
    6af0:	e59a1000 	ldr	r1, [sl]
    6af4:	e1d130ba 	ldrh	r3, [r1, #10]
    6af8:	e2433001 	sub	r3, r3, #1
    6afc:	e5910004 	ldr	r0, [r1, #4]
    6b00:	e1a03803 	lsl	r3, r3, #16
    6b04:	e1a03823 	lsr	r3, r3, #16
    6b08:	e3540046 	cmp	r4, #70	; 0x46
    6b0c:	e7902103 	ldr	r2, [r0, r3, lsl #2]
    6b10:	e591c024 	ldr	ip, [r1, #36]	; 0x24
    6b14:	0a0000b4 	beq	6dec <tty_execute_next_glyph_program_ins+0x1130>
    6b18:	e59cc004 	ldr	ip, [ip, #4]
    6b1c:	e08ce182 	add	lr, ip, r2, lsl #3
    6b20:	e59e4004 	ldr	r4, [lr, #4]
    6b24:	e79c6182 	ldr	r6, [ip, r2, lsl #3]
    6b28:	e591503c 	ldr	r5, [r1, #60]	; 0x3c
    6b2c:	e591e040 	ldr	lr, [r1, #64]	; 0x40
    6b30:	e3a01a02 	mov	r1, #8192	; 0x2000
    6b34:	e3a0c000 	mov	ip, #0
    6b38:	e1a02001 	mov	r2, r1
    6b3c:	e1a0700c 	mov	r7, ip
    6b40:	e0ec1e94 	smlal	r1, ip, r4, lr
    6b44:	e0e72596 	smlal	r2, r7, r6, r5
    6b48:	e1a01721 	lsr	r1, r1, #14
    6b4c:	e1a02722 	lsr	r2, r2, #14
    6b50:	e1822907 	orr	r2, r2, r7, lsl #18
    6b54:	e181190c 	orr	r1, r1, ip, lsl #18
    6b58:	e0822001 	add	r2, r2, r1
    6b5c:	e7802103 	str	r2, [r0, r3, lsl #2]
    6b60:	eafffccd 	b	5e9c <tty_execute_next_glyph_program_ins+0x1e0>
    6b64:	e5da301c 	ldrb	r3, [sl, #28]
    6b68:	e3530003 	cmp	r3, #3
    6b6c:	0afffcca 	beq	5e9c <tty_execute_next_glyph_program_ins+0x1e0>
    6b70:	e2044001 	and	r4, r4, #1
    6b74:	e2644002 	rsb	r4, r4, #2
    6b78:	e20440ff 	and	r4, r4, #255	; 0xff
    6b7c:	e1833004 	orr	r3, r3, r4
    6b80:	e5ca301c 	strb	r3, [sl, #28]
    6b84:	e59a0000 	ldr	r0, [sl]
    6b88:	e1d039b8 	ldrh	r3, [r0, #152]	; 0x98
    6b8c:	e3530000 	cmp	r3, #0
    6b90:	0afffcc1 	beq	5e9c <tty_execute_next_glyph_program_ins+0x1e0>
    6b94:	e3a03000 	mov	r3, #0
    6b98:	e1a08003 	mov	r8, r3
    6b9c:	e50b3038 	str	r3, [fp, #-56]	; 0xffffffc8
    6ba0:	e50ba040 	str	sl, [fp, #-64]	; 0xffffffc0
    6ba4:	e51b3038 	ldr	r3, [fp, #-56]	; 0xffffffc8
    6ba8:	e5901088 	ldr	r1, [r0, #136]	; 0x88
    6bac:	e1a03083 	lsl	r3, r3, #1
    6bb0:	e19170b3 	ldrh	r7, [r1, r3]
    6bb4:	e1a02808 	lsl	r2, r8, #16
    6bb8:	e1580007 	cmp	r8, r7
    6bbc:	e1a02822 	lsr	r2, r2, #16
    6bc0:	8a000026 	bhi	6c60 <tty_execute_next_glyph_program_ins+0xfa4>
    6bc4:	e3a09000 	mov	r9, #0
    6bc8:	e1a05008 	mov	r5, r8
    6bcc:	e50b803c 	str	r8, [fp, #-60]	; 0xffffffc4
    6bd0:	e1a06009 	mov	r6, r9
    6bd4:	e1a08002 	mov	r8, r2
    6bd8:	ea000002 	b	6be8 <tty_execute_next_glyph_program_ins+0xf2c>
    6bdc:	e2855001 	add	r5, r5, #1
    6be0:	e1550007 	cmp	r5, r7
    6be4:	8a000017 	bhi	6c48 <tty_execute_next_glyph_program_ins+0xf8c>
    6be8:	e5903084 	ldr	r3, [r0, #132]	; 0x84
    6bec:	e7d33005 	ldrb	r3, [r3, r5]
    6bf0:	e1140003 	tst	r4, r3
    6bf4:	0afffff8 	beq	6bdc <tty_execute_next_glyph_program_ins+0xf20>
    6bf8:	e3590000 	cmp	r9, #0
    6bfc:	01a06805 	lsleq	r6, r5, #16
    6c00:	03a09001 	moveq	r9, #1
    6c04:	01a06826 	lsreq	r6, r6, #16
    6c08:	0afffff3 	beq	6bdc <tty_execute_next_glyph_program_ins+0xf20>
    6c0c:	e1a0a805 	lsl	sl, r5, #16
    6c10:	e1a0a82a 	lsr	sl, sl, #16
    6c14:	e1a03007 	mov	r3, r7
    6c18:	e1a02008 	mov	r2, r8
    6c1c:	e1a01004 	mov	r1, r4
    6c20:	e58d6000 	str	r6, [sp]
    6c24:	e58da004 	str	sl, [sp, #4]
    6c28:	e2800074 	add	r0, r0, #116	; 0x74
    6c2c:	ebfff84d 	bl	4d68 <tty_iup_interpolate_or_shift>
    6c30:	e1570005 	cmp	r7, r5
    6c34:	0a000010 	beq	6c7c <tty_execute_next_glyph_program_ins+0xfc0>
    6c38:	e51b3040 	ldr	r3, [fp, #-64]	; 0xffffffc0
    6c3c:	e1a0600a 	mov	r6, sl
    6c40:	e5930000 	ldr	r0, [r3]
    6c44:	eaffffe4 	b	6bdc <tty_execute_next_glyph_program_ins+0xf20>
    6c48:	e3590000 	cmp	r9, #0
    6c4c:	e1a02008 	mov	r2, r8
    6c50:	e2871001 	add	r1, r7, #1
    6c54:	e51b803c 	ldr	r8, [fp, #-60]	; 0xffffffc4
    6c58:	1a000011 	bne	6ca4 <tty_execute_next_glyph_program_ins+0xfe8>
    6c5c:	e1a08001 	mov	r8, r1
    6c60:	e51b2038 	ldr	r2, [fp, #-56]	; 0xffffffc8
    6c64:	e1d039b8 	ldrh	r3, [r0, #152]	; 0x98
    6c68:	e2822001 	add	r2, r2, #1
    6c6c:	e1520003 	cmp	r2, r3
    6c70:	e50b2038 	str	r2, [fp, #-56]	; 0xffffffc8
    6c74:	3affffca 	bcc	6ba4 <tty_execute_next_glyph_program_ins+0xee8>
    6c78:	eafffc87 	b	5e9c <tty_execute_next_glyph_program_ins+0x1e0>
    6c7c:	e51b3040 	ldr	r3, [fp, #-64]	; 0xffffffc0
    6c80:	e5930000 	ldr	r0, [r3]
    6c84:	e51b203c 	ldr	r2, [fp, #-60]	; 0xffffffc4
    6c88:	e5903084 	ldr	r3, [r0, #132]	; 0x84
    6c8c:	e7d33002 	ldrb	r3, [r3, r2]
    6c90:	e0033004 	and	r3, r3, r4
    6c94:	e3530000 	cmp	r3, #0
    6c98:	01a0600a 	moveq	r6, sl
    6c9c:	13a09000 	movne	r9, #0
    6ca0:	eaffffcd 	b	6bdc <tty_execute_next_glyph_program_ins+0xf20>
    6ca4:	e1580006 	cmp	r8, r6
    6ca8:	8affffeb 	bhi	6c5c <tty_execute_next_glyph_program_ins+0xfa0>
    6cac:	e5903084 	ldr	r3, [r0, #132]	; 0x84
    6cb0:	e248c001 	sub	ip, r8, #1
    6cb4:	e083300c 	add	r3, r3, ip
    6cb8:	ea000002 	b	6cc8 <tty_execute_next_glyph_program_ins+0x100c>
    6cbc:	e2888001 	add	r8, r8, #1
    6cc0:	e1580006 	cmp	r8, r6
    6cc4:	8affffe4 	bhi	6c5c <tty_execute_next_glyph_program_ins+0xfa0>
    6cc8:	e5f3c001 	ldrb	ip, [r3, #1]!
    6ccc:	e114000c 	tst	r4, ip
    6cd0:	0afffff9 	beq	6cbc <tty_execute_next_glyph_program_ins+0x1000>
    6cd4:	e1a08808 	lsl	r8, r8, #16
    6cd8:	e1a08828 	lsr	r8, r8, #16
    6cdc:	e1a03007 	mov	r3, r7
    6ce0:	e58d8004 	str	r8, [sp, #4]
    6ce4:	e2800074 	add	r0, r0, #116	; 0x74
    6ce8:	e1a08001 	mov	r8, r1
    6cec:	e58d6000 	str	r6, [sp]
    6cf0:	e1a01004 	mov	r1, r4
    6cf4:	ebfff81b 	bl	4d68 <tty_iup_interpolate_or_shift>
    6cf8:	e51b3040 	ldr	r3, [fp, #-64]	; 0xffffffc0
    6cfc:	e5930000 	ldr	r0, [r3]
    6d00:	eaffffd6 	b	6c60 <tty_execute_next_glyph_program_ins+0xfa4>
    6d04:	e0922004 	adds	r2, r2, r4
    6d08:	e2a7c000 	adc	ip, r7, #0
    6d0c:	e1a020a2 	lsr	r2, r2, #1
    6d10:	e1822f8c 	orr	r2, r2, ip, lsl #31
    6d14:	e0920003 	adds	r0, r2, r3
    6d18:	e0a110cc 	adc	r1, r1, ip, asr #1
    6d1c:	eafffdbf 	b	6420 <tty_execute_next_glyph_program_ins+0x764>
    6d20:	e0980004 	adds	r0, r8, r4
    6d24:	e2a7c000 	adc	ip, r7, #0
    6d28:	e1a000a0 	lsr	r0, r0, #1
    6d2c:	e1800f8c 	orr	r0, r0, ip, lsl #31
    6d30:	e0900003 	adds	r0, r0, r3
    6d34:	e1a02004 	mov	r2, r4
    6d38:	e0a110cc 	adc	r1, r1, ip, asr #1
    6d3c:	eafffddb 	b	64b0 <tty_execute_next_glyph_program_ins+0x7f4>
    6d40:	e59a1000 	ldr	r1, [sl]
    6d44:	e1d130ba 	ldrh	r3, [r1, #10]
    6d48:	e243c001 	sub	ip, r3, #1
    6d4c:	e2433002 	sub	r3, r3, #2
    6d50:	e5910004 	ldr	r0, [r1, #4]
    6d54:	e1a0c80c 	lsl	ip, ip, #16
    6d58:	e1a02803 	lsl	r2, r3, #16
    6d5c:	e1a02822 	lsr	r2, r2, #16
    6d60:	e3540049 	cmp	r4, #73	; 0x49
    6d64:	e1a0c82c 	lsr	ip, ip, #16
    6d68:	e790410c 	ldr	r4, [r0, ip, lsl #2]
    6d6c:	e7905102 	ldr	r5, [r0, r2, lsl #2]
    6d70:	e1c120ba 	strh	r2, [r1, #10]
    6d74:	1a0000c9 	bne	70a0 <tty_execute_next_glyph_program_ins+0x13e4>
    6d78:	e3a0ea02 	mov	lr, #8192	; 0x2000
    6d7c:	e3a06000 	mov	r6, #0
    6d80:	e591301c 	ldr	r3, [r1, #28]
    6d84:	e5937008 	ldr	r7, [r3, #8]
    6d88:	e5913020 	ldr	r3, [r1, #32]
    6d8c:	e5933008 	ldr	r3, [r3, #8]
    6d90:	e7978185 	ldr	r8, [r7, r5, lsl #3]
    6d94:	e0879185 	add	r9, r7, r5, lsl #3
    6d98:	e0837184 	add	r7, r3, r4, lsl #3
    6d9c:	e7933184 	ldr	r3, [r3, r4, lsl #3]
    6da0:	e5995004 	ldr	r5, [r9, #4]
    6da4:	e0484003 	sub	r4, r8, r3
    6da8:	e5973004 	ldr	r3, [r7, #4]
    6dac:	e1a08006 	mov	r8, r6
    6db0:	e0455003 	sub	r5, r5, r3
    6db4:	e1a0300e 	mov	r3, lr
    6db8:	e591704c 	ldr	r7, [r1, #76]	; 0x4c
    6dbc:	e0e83794 	smlal	r3, r8, r4, r7
    6dc0:	e1a04006 	mov	r4, r6
    6dc4:	e5917050 	ldr	r7, [r1, #80]	; 0x50
    6dc8:	e0e4e795 	smlal	lr, r4, r5, r7
    6dcc:	e1a03723 	lsr	r3, r3, #14
    6dd0:	e1a0e72e 	lsr	lr, lr, #14
    6dd4:	e1833908 	orr	r3, r3, r8, lsl #18
    6dd8:	e18ee904 	orr	lr, lr, r4, lsl #18
    6ddc:	e083300e 	add	r3, r3, lr
    6de0:	e1c1c0ba 	strh	ip, [r1, #10]
    6de4:	e7803102 	str	r3, [r0, r2, lsl #2]
    6de8:	eafffc2b 	b	5e9c <tty_execute_next_glyph_program_ins+0x1e0>
    6dec:	e59cc008 	ldr	ip, [ip, #8]
    6df0:	e08ce182 	add	lr, ip, r2, lsl #3
    6df4:	e59e4004 	ldr	r4, [lr, #4]
    6df8:	e79c6182 	ldr	r6, [ip, r2, lsl #3]
    6dfc:	e591504c 	ldr	r5, [r1, #76]	; 0x4c
    6e00:	e591e050 	ldr	lr, [r1, #80]	; 0x50
    6e04:	eaffff49 	b	6b30 <tty_execute_next_glyph_program_ins+0xe74>
    6e08:	e59a5000 	ldr	r5, [sl]
    6e0c:	e1d530ba 	ldrh	r3, [r5, #10]
    6e10:	e2433001 	sub	r3, r3, #1
    6e14:	e5952004 	ldr	r2, [r5, #4]
    6e18:	e1a03803 	lsl	r3, r3, #16
    6e1c:	e1a03823 	lsr	r3, r3, #16
    6e20:	e354002e 	cmp	r4, #46	; 0x2e
    6e24:	e1c530ba 	strh	r3, [r5, #10]
    6e28:	e7924103 	ldr	r4, [r2, r3, lsl #2]
    6e2c:	e595601c 	ldr	r6, [r5, #28]
    6e30:	0a0000f5 	beq	720c <tty_execute_next_glyph_program_ins+0x1550>
    6e34:	e5963008 	ldr	r3, [r6, #8]
    6e38:	e3a0c000 	mov	ip, #0
    6e3c:	e0832184 	add	r2, r3, r4, lsl #3
    6e40:	e7938184 	ldr	r8, [r3, r4, lsl #3]
    6e44:	e3a03a02 	mov	r3, #8192	; 0x2000
    6e48:	e1a0900c 	mov	r9, ip
    6e4c:	e1a01003 	mov	r1, r3
    6e50:	e595704c 	ldr	r7, [r5, #76]	; 0x4c
    6e54:	e592e004 	ldr	lr, [r2, #4]
    6e58:	e0e91798 	smlal	r1, r9, r8, r7
    6e5c:	e5957050 	ldr	r7, [r5, #80]	; 0x50
    6e60:	e0ec379e 	smlal	r3, ip, lr, r7
    6e64:	e1a01721 	lsr	r1, r1, #14
    6e68:	e1a03723 	lsr	r3, r3, #14
    6e6c:	e183390c 	orr	r3, r3, ip, lsl #18
    6e70:	e1811909 	orr	r1, r1, r9, lsl #18
    6e74:	e0817003 	add	r7, r1, r3
    6e78:	e1a00005 	mov	r0, r5
    6e7c:	e1a01007 	mov	r1, r7
    6e80:	ebffef2e 	bl	2b40 <tty_round_according_to_round_state.isra.0>
    6e84:	e1a02004 	mov	r2, r4
    6e88:	e0403007 	sub	r3, r0, r7
    6e8c:	e1a01006 	mov	r1, r6
    6e90:	e1a0000a 	mov	r0, sl
    6e94:	e5955018 	ldr	r5, [r5, #24]
    6e98:	e1a0e00f 	mov	lr, pc
    6e9c:	e12fff15 	bx	r5
    6ea0:	e59a3000 	ldr	r3, [sl]
    6ea4:	e5834060 	str	r4, [r3, #96]	; 0x60
    6ea8:	e5834064 	str	r4, [r3, #100]	; 0x64
    6eac:	eafffbfa 	b	5e9c <tty_execute_next_glyph_program_ins+0x1e0>
    6eb0:	e59a5000 	ldr	r5, [sl]
    6eb4:	e1d530ba 	ldrh	r3, [r5, #10]
    6eb8:	e2433001 	sub	r3, r3, #1
    6ebc:	e5951004 	ldr	r1, [r5, #4]
    6ec0:	e1a03803 	lsl	r3, r3, #16
    6ec4:	e1a03823 	lsr	r3, r3, #16
    6ec8:	e7916103 	ldr	r6, [r1, r3, lsl #2]
    6ecc:	e5950020 	ldr	r0, [r5, #32]
    6ed0:	e595201c 	ldr	r2, [r5, #28]
    6ed4:	e1c530ba 	strh	r3, [r5, #10]
    6ed8:	e5d5306c 	ldrb	r3, [r5, #108]	; 0x6c
    6edc:	e50b0038 	str	r0, [fp, #-56]	; 0xffffffc8
    6ee0:	e5921008 	ldr	r1, [r2, #8]
    6ee4:	e5900008 	ldr	r0, [r0, #8]
    6ee8:	e3530000 	cmp	r3, #0
    6eec:	e5953060 	ldr	r3, [r5, #96]	; 0x60
    6ef0:	e1a0c186 	lsl	ip, r6, #3
    6ef4:	e1a0e183 	lsl	lr, r3, #3
    6ef8:	e0817183 	add	r7, r1, r3, lsl #3
    6efc:	e0808186 	add	r8, r0, r6, lsl #3
    6f00:	0a000002 	beq	6f10 <tty_execute_next_glyph_program_ins+0x1254>
    6f04:	e5d5906d 	ldrb	r9, [r5, #109]	; 0x6d
    6f08:	e3590000 	cmp	r9, #0
    6f0c:	1a000176 	bne	74ec <tty_execute_next_glyph_program_ins+0x1830>
    6f10:	e5922004 	ldr	r2, [r2, #4]
    6f14:	e082e00e 	add	lr, r2, lr
    6f18:	e51b2038 	ldr	r2, [fp, #-56]	; 0xffffffc8
    6f1c:	e5922004 	ldr	r2, [r2, #4]
    6f20:	e082c00c 	add	ip, r2, ip
    6f24:	e3a02001 	mov	r2, #1
    6f28:	e1a09002 	mov	r9, r2
    6f2c:	e7913183 	ldr	r3, [r1, r3, lsl #3]
    6f30:	e7900186 	ldr	r0, [r0, r6, lsl #3]
    6f34:	e5982004 	ldr	r2, [r8, #4]
    6f38:	e0400003 	sub	r0, r0, r3
    6f3c:	e5973004 	ldr	r3, [r7, #4]
    6f40:	e0427003 	sub	r7, r2, r3
    6f44:	e3a03a02 	mov	r3, #8192	; 0x2000
    6f48:	e3a02000 	mov	r2, #0
    6f4c:	e89c1100 	ldm	ip, {r8, ip}
    6f50:	e59e1000 	ldr	r1, [lr]
    6f54:	e59ee004 	ldr	lr, [lr, #4]
    6f58:	e04cc00e 	sub	ip, ip, lr
    6f5c:	e0481001 	sub	r1, r8, r1
    6f60:	e50bc03c 	str	ip, [fp, #-60]	; 0xffffffc4
    6f64:	e1a08002 	mov	r8, r2
    6f68:	e1a0c003 	mov	ip, r3
    6f6c:	e595e04c 	ldr	lr, [r5, #76]	; 0x4c
    6f70:	e0e8ce90 	smlal	ip, r8, r0, lr
    6f74:	e1a00002 	mov	r0, r2
    6f78:	e50b8040 	str	r8, [fp, #-64]	; 0xffffffc0
    6f7c:	e1a08003 	mov	r8, r3
    6f80:	e595e050 	ldr	lr, [r5, #80]	; 0x50
    6f84:	e0e08e97 	smlal	r8, r0, r7, lr
    6f88:	e1a07002 	mov	r7, r2
    6f8c:	e50b0044 	str	r0, [fp, #-68]	; 0xffffffbc
    6f90:	e1a00003 	mov	r0, r3
    6f94:	e595e03c 	ldr	lr, [r5, #60]	; 0x3c
    6f98:	e0e70e91 	smlal	r0, r7, r1, lr
    6f9c:	e51b103c 	ldr	r1, [fp, #-60]	; 0xffffffc4
    6fa0:	e595e040 	ldr	lr, [r5, #64]	; 0x40
    6fa4:	e0e23e91 	smlal	r3, r2, r1, lr
    6fa8:	e51b1040 	ldr	r1, [fp, #-64]	; 0xffffffc0
    6fac:	e1a0c72c 	lsr	ip, ip, #14
    6fb0:	e18cc901 	orr	ip, ip, r1, lsl #18
    6fb4:	e51b1044 	ldr	r1, [fp, #-68]	; 0xffffffbc
    6fb8:	e1a08728 	lsr	r8, r8, #14
    6fbc:	e1a00720 	lsr	r0, r0, #14
    6fc0:	e1a03723 	lsr	r3, r3, #14
    6fc4:	e1888901 	orr	r8, r8, r1, lsl #18
    6fc8:	e1800907 	orr	r0, r0, r7, lsl #18
    6fcc:	e1833902 	orr	r3, r3, r2, lsl #18
    6fd0:	e3590000 	cmp	r9, #0
    6fd4:	e08c8008 	add	r8, ip, r8
    6fd8:	e0803003 	add	r3, r0, r3
    6fdc:	1a000007 	bne	7000 <tty_execute_next_glyph_program_ins+0x1344>
    6fe0:	e3a02602 	mov	r2, #2097152	; 0x200000
    6fe4:	e1a00009 	mov	r0, r9
    6fe8:	e59a1004 	ldr	r1, [sl, #4]
    6fec:	e5911058 	ldr	r1, [r1, #88]	; 0x58
    6ff0:	e1a03303 	lsl	r3, r3, #6
    6ff4:	e0e02193 	smlal	r2, r0, r3, r1
    6ff8:	e1a03b22 	lsr	r3, r2, #22
    6ffc:	e1833500 	orr	r3, r3, r0, lsl #10
    7000:	e2850034 	add	r0, r5, #52	; 0x34
    7004:	e8900003 	ldm	r0, {r0, r1}
    7008:	e0432001 	sub	r2, r3, r1
    700c:	e3520000 	cmp	r2, #0
    7010:	b2622000 	rsblt	r2, r2, #0
    7014:	e1520000 	cmp	r2, r0
    7018:	aa000002 	bge	7028 <tty_execute_next_glyph_program_ins+0x136c>
    701c:	e3530000 	cmp	r3, #0
    7020:	a1a03001 	movge	r3, r1
    7024:	b2613000 	rsblt	r3, r1, #0
    7028:	e3140004 	tst	r4, #4
    702c:	0a000003 	beq	7040 <tty_execute_next_glyph_program_ins+0x1384>
    7030:	e1a01003 	mov	r1, r3
    7034:	e1a00005 	mov	r0, r5
    7038:	ebffeec0 	bl	2b40 <tty_round_according_to_round_state.isra.0>
    703c:	e1a03000 	mov	r3, r0
    7040:	e3140008 	tst	r4, #8
    7044:	0a000007 	beq	7068 <tty_execute_next_glyph_program_ins+0x13ac>
    7048:	e595202c 	ldr	r2, [r5, #44]	; 0x2c
    704c:	e0231fc3 	eor	r1, r3, r3, asr #31
    7050:	e0411fc3 	sub	r1, r1, r3, asr #31
    7054:	e1510002 	cmp	r1, r2
    7058:	aa000002 	bge	7068 <tty_execute_next_glyph_program_ins+0x13ac>
    705c:	e3530000 	cmp	r3, #0
    7060:	a1a03002 	movge	r3, r2
    7064:	b2623000 	rsblt	r3, r2, #0
    7068:	e3140010 	tst	r4, #16
    706c:	e1a02006 	mov	r2, r6
    7070:	e0433008 	sub	r3, r3, r8
    7074:	e1a0000a 	mov	r0, sl
    7078:	15856060 	strne	r6, [r5, #96]	; 0x60
    707c:	e51b1038 	ldr	r1, [fp, #-56]	; 0xffffffc8
    7080:	e5954018 	ldr	r4, [r5, #24]
    7084:	e1a0e00f 	mov	lr, pc
    7088:	e12fff14 	bx	r4
    708c:	e59a3000 	ldr	r3, [sl]
    7090:	e5932060 	ldr	r2, [r3, #96]	; 0x60
    7094:	e5836068 	str	r6, [r3, #104]	; 0x68
    7098:	e5832064 	str	r2, [r3, #100]	; 0x64
    709c:	eafffb7e 	b	5e9c <tty_execute_next_glyph_program_ins+0x1e0>
    70a0:	e5d1306c 	ldrb	r3, [r1, #108]	; 0x6c
    70a4:	e3530000 	cmp	r3, #0
    70a8:	0a000002 	beq	70b8 <tty_execute_next_glyph_program_ins+0x13fc>
    70ac:	e5d1306d 	ldrb	r3, [r1, #109]	; 0x6d
    70b0:	e3530000 	cmp	r3, #0
    70b4:	1a000114 	bne	750c <tty_execute_next_glyph_program_ins+0x1850>
    70b8:	e3a0ea02 	mov	lr, #8192	; 0x2000
    70bc:	e3a06000 	mov	r6, #0
    70c0:	e591301c 	ldr	r3, [r1, #28]
    70c4:	e5937004 	ldr	r7, [r3, #4]
    70c8:	e5913020 	ldr	r3, [r1, #32]
    70cc:	e5933004 	ldr	r3, [r3, #4]
    70d0:	e0878185 	add	r8, r7, r5, lsl #3
    70d4:	e7975185 	ldr	r5, [r7, r5, lsl #3]
    70d8:	e5987004 	ldr	r7, [r8, #4]
    70dc:	e0838184 	add	r8, r3, r4, lsl #3
    70e0:	e7933184 	ldr	r3, [r3, r4, lsl #3]
    70e4:	e0455003 	sub	r5, r5, r3
    70e8:	e5983004 	ldr	r3, [r8, #4]
    70ec:	e1a08006 	mov	r8, r6
    70f0:	e0474003 	sub	r4, r7, r3
    70f4:	e1a0300e 	mov	r3, lr
    70f8:	e591703c 	ldr	r7, [r1, #60]	; 0x3c
    70fc:	e0e83795 	smlal	r3, r8, r5, r7
    7100:	e5915040 	ldr	r5, [r1, #64]	; 0x40
    7104:	e0e6e594 	smlal	lr, r6, r4, r5
    7108:	e1a03723 	lsr	r3, r3, #14
    710c:	e1a0e72e 	lsr	lr, lr, #14
    7110:	e1833908 	orr	r3, r3, r8, lsl #18
    7114:	e18ee906 	orr	lr, lr, r6, lsl #18
    7118:	e083300e 	add	r3, r3, lr
    711c:	eaffff2f 	b	6de0 <tty_execute_next_glyph_program_ins+0x1124>
    7120:	e59a5000 	ldr	r5, [sl]
    7124:	e1d530ba 	ldrh	r3, [r5, #10]
    7128:	e2432001 	sub	r2, r3, #1
    712c:	e2433002 	sub	r3, r3, #2
    7130:	e5951004 	ldr	r1, [r5, #4]
    7134:	e1a02802 	lsl	r2, r2, #16
    7138:	e1a03803 	lsl	r3, r3, #16
    713c:	e1a03823 	lsr	r3, r3, #16
    7140:	e1a02822 	lsr	r2, r2, #16
    7144:	e7912102 	ldr	r2, [r1, r2, lsl #2]
    7148:	e7916103 	ldr	r6, [r1, r3, lsl #2]
    714c:	e1c530ba 	strh	r3, [r5, #10]
    7150:	e59a3004 	ldr	r3, [sl, #4]
    7154:	e5d5006c 	ldrb	r0, [r5, #108]	; 0x6c
    7158:	e5933004 	ldr	r3, [r3, #4]
    715c:	e3500000 	cmp	r0, #0
    7160:	e7933102 	ldr	r3, [r3, r2, lsl #2]
    7164:	0a00010b 	beq	7598 <tty_execute_next_glyph_program_ins+0x18dc>
    7168:	e595701c 	ldr	r7, [r5, #28]
    716c:	e5972008 	ldr	r2, [r7, #8]
    7170:	e0822186 	add	r2, r2, r6, lsl #3
    7174:	e3a01a02 	mov	r1, #8192	; 0x2000
    7178:	e3a0c000 	mov	ip, #0
    717c:	e1a00001 	mov	r0, r1
    7180:	e1a0e00c 	mov	lr, ip
    7184:	e5928000 	ldr	r8, [r2]
    7188:	e595904c 	ldr	r9, [r5, #76]	; 0x4c
    718c:	e354003e 	cmp	r4, #62	; 0x3e
    7190:	e5924004 	ldr	r4, [r2, #4]
    7194:	e5952050 	ldr	r2, [r5, #80]	; 0x50
    7198:	e0ee0998 	smlal	r0, lr, r8, r9
    719c:	e0ec1294 	smlal	r1, ip, r4, r2
    71a0:	e1a00720 	lsr	r0, r0, #14
    71a4:	e1a02721 	lsr	r2, r1, #14
    71a8:	e180090e 	orr	r0, r0, lr, lsl #18
    71ac:	e182290c 	orr	r2, r2, ip, lsl #18
    71b0:	e0802002 	add	r2, r0, r2
    71b4:	0a000009 	beq	71e0 <tty_execute_next_glyph_program_ins+0x1524>
    71b8:	e0431002 	sub	r1, r3, r2
    71bc:	e3510000 	cmp	r1, #0
    71c0:	e5950030 	ldr	r0, [r5, #48]	; 0x30
    71c4:	b2611000 	rsblt	r1, r1, #0
    71c8:	e1510000 	cmp	r1, r0
    71cc:	d1a01003 	movle	r1, r3
    71d0:	c1a01002 	movgt	r1, r2
    71d4:	e1a00005 	mov	r0, r5
    71d8:	ebffee58 	bl	2b40 <tty_round_according_to_round_state.isra.0>
    71dc:	e1a03000 	mov	r3, r0
    71e0:	e0433002 	sub	r3, r3, r2
    71e4:	e1a01007 	mov	r1, r7
    71e8:	e1a02006 	mov	r2, r6
    71ec:	e1a0000a 	mov	r0, sl
    71f0:	e5954018 	ldr	r4, [r5, #24]
    71f4:	e1a0e00f 	mov	lr, pc
    71f8:	e12fff14 	bx	r4
    71fc:	e59a3000 	ldr	r3, [sl]
    7200:	e5836060 	str	r6, [r3, #96]	; 0x60
    7204:	e5836064 	str	r6, [r3, #100]	; 0x64
    7208:	eafffb23 	b	5e9c <tty_execute_next_glyph_program_ins+0x1e0>
    720c:	e5953044 	ldr	r3, [r5, #68]	; 0x44
    7210:	e3530000 	cmp	r3, #0
    7214:	0a00013d 	beq	7710 <tty_execute_next_glyph_program_ins+0x1a54>
    7218:	e5953048 	ldr	r3, [r5, #72]	; 0x48
    721c:	e3530000 	cmp	r3, #0
    7220:	13a02003 	movne	r2, #3
    7224:	05962010 	ldreq	r2, [r6, #16]
    7228:	07d23004 	ldrbeq	r3, [r2, r4]
    722c:	15963010 	ldrne	r3, [r6, #16]
    7230:	03833001 	orreq	r3, r3, #1
    7234:	17c32004 	strbne	r2, [r3, r4]
    7238:	07c23004 	strbeq	r3, [r2, r4]
    723c:	eaffff17 	b	6ea0 <tty_execute_next_glyph_program_ins+0x11e4>
    7240:	e59a5000 	ldr	r5, [sl]
    7244:	e1d530ba 	ldrh	r3, [r5, #10]
    7248:	e2432001 	sub	r2, r3, #1
    724c:	e2433002 	sub	r3, r3, #2
    7250:	e5951004 	ldr	r1, [r5, #4]
    7254:	e1a02802 	lsl	r2, r2, #16
    7258:	e1a03803 	lsl	r3, r3, #16
    725c:	e1a03823 	lsr	r3, r3, #16
    7260:	e1a02822 	lsr	r2, r2, #16
    7264:	e7912102 	ldr	r2, [r1, r2, lsl #2]
    7268:	e7916103 	ldr	r6, [r1, r3, lsl #2]
    726c:	e1c530ba 	strh	r3, [r5, #10]
    7270:	e59a3004 	ldr	r3, [sl, #4]
    7274:	e5933004 	ldr	r3, [r3, #4]
    7278:	e2850034 	add	r0, r5, #52	; 0x34
    727c:	e8900003 	ldm	r0, {r0, r1}
    7280:	e7933102 	ldr	r3, [r3, r2, lsl #2]
    7284:	e0432001 	sub	r2, r3, r1
    7288:	e3520000 	cmp	r2, #0
    728c:	b2622000 	rsblt	r2, r2, #0
    7290:	e1520000 	cmp	r2, r0
    7294:	aa000002 	bge	72a4 <tty_execute_next_glyph_program_ins+0x15e8>
    7298:	e3530000 	cmp	r3, #0
    729c:	a1a03001 	movge	r3, r1
    72a0:	b2613000 	rsblt	r3, r1, #0
    72a4:	e5d5206d 	ldrb	r2, [r5, #109]	; 0x6d
    72a8:	e595101c 	ldr	r1, [r5, #28]
    72ac:	e5950020 	ldr	r0, [r5, #32]
    72b0:	e591e004 	ldr	lr, [r1, #4]
    72b4:	e50b203c 	str	r2, [fp, #-60]	; 0xffffffc4
    72b8:	e5911008 	ldr	r1, [r1, #8]
    72bc:	e3520000 	cmp	r2, #0
    72c0:	e5952060 	ldr	r2, [r5, #96]	; 0x60
    72c4:	e590c004 	ldr	ip, [r0, #4]
    72c8:	e50b0048 	str	r0, [fp, #-72]	; 0xffffffb8
    72cc:	e5900008 	ldr	r0, [r0, #8]
    72d0:	e50b104c 	str	r1, [fp, #-76]	; 0xffffffb4
    72d4:	e0811182 	add	r1, r1, r2, lsl #3
    72d8:	e50b1044 	str	r1, [fp, #-68]	; 0xffffffbc
    72dc:	e08e7182 	add	r7, lr, r2, lsl #3
    72e0:	e0801186 	add	r1, r0, r6, lsl #3
    72e4:	e50b0050 	str	r0, [fp, #-80]	; 0xffffffb0
    72e8:	e50b7040 	str	r7, [fp, #-64]	; 0xffffffc0
    72ec:	e50b1038 	str	r1, [fp, #-56]	; 0xffffffc8
    72f0:	e08c9186 	add	r9, ip, r6, lsl #3
    72f4:	1a00001c 	bne	736c <tty_execute_next_glyph_program_ins+0x16b0>
    72f8:	e3a01a02 	mov	r1, #8192	; 0x2000
    72fc:	e5978004 	ldr	r8, [r7, #4]
    7300:	e50b8054 	str	r8, [fp, #-84]	; 0xffffffac
    7304:	e1a08001 	mov	r8, r1
    7308:	e5950044 	ldr	r0, [r5, #68]	; 0x44
    730c:	e51b703c 	ldr	r7, [fp, #-60]	; 0xffffffc4
    7310:	e0e78093 	smlal	r8, r7, r3, r0
    7314:	e50b7058 	str	r7, [fp, #-88]	; 0xffffffa8
    7318:	e1a07008 	mov	r7, r8
    731c:	e1a08001 	mov	r8, r1
    7320:	e51b003c 	ldr	r0, [fp, #-60]	; 0xffffffc4
    7324:	e5951048 	ldr	r1, [r5, #72]	; 0x48
    7328:	e0e08193 	smlal	r8, r0, r3, r1
    732c:	e1a01727 	lsr	r1, r7, #14
    7330:	e51b7058 	ldr	r7, [fp, #-88]	; 0xffffffa8
    7334:	e50b805c 	str	r8, [fp, #-92]	; 0xffffffa4
    7338:	e1811907 	orr	r1, r1, r7, lsl #18
    733c:	e79e7182 	ldr	r7, [lr, r2, lsl #3]
    7340:	e51b805c 	ldr	r8, [fp, #-92]	; 0xffffffa4
    7344:	e0871001 	add	r1, r7, r1
    7348:	e78c1186 	str	r1, [ip, r6, lsl #3]
    734c:	e1a01728 	lsr	r1, r8, #14
    7350:	e51b8054 	ldr	r8, [fp, #-84]	; 0xffffffac
    7354:	e1811900 	orr	r1, r1, r0, lsl #18
    7358:	e0881001 	add	r1, r8, r1
    735c:	e5891004 	str	r1, [r9, #4]
    7360:	e51b7038 	ldr	r7, [fp, #-56]	; 0xffffffc8
    7364:	e8990003 	ldm	r9, {r0, r1}
    7368:	e8870003 	stm	r7, {r0, r1}
    736c:	e51b1050 	ldr	r1, [fp, #-80]	; 0xffffffb0
    7370:	e7910186 	ldr	r0, [r1, r6, lsl #3]
    7374:	e51b104c 	ldr	r1, [fp, #-76]	; 0xffffffb4
    7378:	e7911182 	ldr	r1, [r1, r2, lsl #3]
    737c:	e79e2182 	ldr	r2, [lr, r2, lsl #3]
    7380:	e040e001 	sub	lr, r0, r1
    7384:	e51b1038 	ldr	r1, [fp, #-56]	; 0xffffffc8
    7388:	e5910004 	ldr	r0, [r1, #4]
    738c:	e51b1044 	ldr	r1, [fp, #-68]	; 0xffffffbc
    7390:	e5911004 	ldr	r1, [r1, #4]
    7394:	e79cc186 	ldr	ip, [ip, r6, lsl #3]
    7398:	e0407001 	sub	r7, r0, r1
    739c:	e51b1040 	ldr	r1, [fp, #-64]	; 0xffffffc0
    73a0:	e04cc002 	sub	ip, ip, r2
    73a4:	e5992004 	ldr	r2, [r9, #4]
    73a8:	e5919004 	ldr	r9, [r1, #4]
    73ac:	e3a00000 	mov	r0, #0
    73b0:	e0429009 	sub	r9, r2, r9
    73b4:	e3a02a02 	mov	r2, #8192	; 0x2000
    73b8:	e50b7038 	str	r7, [fp, #-56]	; 0xffffffc8
    73bc:	e5d57071 	ldrb	r7, [r5, #113]	; 0x71
    73c0:	e1a01000 	mov	r1, r0
    73c4:	e1570000 	cmp	r7, r0
    73c8:	e1a07002 	mov	r7, r2
    73cc:	e595804c 	ldr	r8, [r5, #76]	; 0x4c
    73d0:	e0e1789e 	smlal	r7, r1, lr, r8
    73d4:	e1a0e002 	mov	lr, r2
    73d8:	e1a08000 	mov	r8, r0
    73dc:	e50b1044 	str	r1, [fp, #-68]	; 0xffffffbc
    73e0:	e50b7040 	str	r7, [fp, #-64]	; 0xffffffc0
    73e4:	e5951050 	ldr	r1, [r5, #80]	; 0x50
    73e8:	e51b7038 	ldr	r7, [fp, #-56]	; 0xffffffc8
    73ec:	e0e8e197 	smlal	lr, r8, r7, r1
    73f0:	e1a01002 	mov	r1, r2
    73f4:	e50be038 	str	lr, [fp, #-56]	; 0xffffffc8
    73f8:	e1a0e000 	mov	lr, r0
    73fc:	e595703c 	ldr	r7, [r5, #60]	; 0x3c
    7400:	e0ee179c 	smlal	r1, lr, ip, r7
    7404:	e5957040 	ldr	r7, [r5, #64]	; 0x40
    7408:	e0e02799 	smlal	r2, r0, r9, r7
    740c:	e51bc040 	ldr	ip, [fp, #-64]	; 0xffffffc0
    7410:	e1a0772c 	lsr	r7, ip, #14
    7414:	e51bc044 	ldr	ip, [fp, #-68]	; 0xffffffbc
    7418:	e187790c 	orr	r7, r7, ip, lsl #18
    741c:	e51bc038 	ldr	ip, [fp, #-56]	; 0xffffffc8
    7420:	e1a01721 	lsr	r1, r1, #14
    7424:	e1a0c72c 	lsr	ip, ip, #14
    7428:	e1a02722 	lsr	r2, r2, #14
    742c:	e18cc908 	orr	ip, ip, r8, lsl #18
    7430:	e181190e 	orr	r1, r1, lr, lsl #18
    7434:	e1822900 	orr	r2, r2, r0, lsl #18
    7438:	e087700c 	add	r7, r7, ip
    743c:	e0811002 	add	r1, r1, r2
    7440:	0a000001 	beq	744c <tty_execute_next_glyph_program_ins+0x1790>
    7444:	e1330001 	teq	r3, r1
    7448:	42633000 	rsbmi	r3, r3, #0
    744c:	e3140004 	tst	r4, #4
    7450:	0a00000d 	beq	748c <tty_execute_next_glyph_program_ins+0x17d0>
    7454:	e5d5206c 	ldrb	r2, [r5, #108]	; 0x6c
    7458:	e51b003c 	ldr	r0, [fp, #-60]	; 0xffffffc4
    745c:	e1520000 	cmp	r2, r0
    7460:	1a000005 	bne	747c <tty_execute_next_glyph_program_ins+0x17c0>
    7464:	e0432001 	sub	r2, r3, r1
    7468:	e3520000 	cmp	r2, #0
    746c:	e5950030 	ldr	r0, [r5, #48]	; 0x30
    7470:	b2622000 	rsblt	r2, r2, #0
    7474:	e1520000 	cmp	r2, r0
    7478:	c1a03001 	movgt	r3, r1
    747c:	e1a01003 	mov	r1, r3
    7480:	e1a00005 	mov	r0, r5
    7484:	ebffedad 	bl	2b40 <tty_round_according_to_round_state.isra.0>
    7488:	e1a03000 	mov	r3, r0
    748c:	e3140008 	tst	r4, #8
    7490:	0a000007 	beq	74b4 <tty_execute_next_glyph_program_ins+0x17f8>
    7494:	e595202c 	ldr	r2, [r5, #44]	; 0x2c
    7498:	e0231fc3 	eor	r1, r3, r3, asr #31
    749c:	e0411fc3 	sub	r1, r1, r3, asr #31
    74a0:	e1510002 	cmp	r1, r2
    74a4:	aa000002 	bge	74b4 <tty_execute_next_glyph_program_ins+0x17f8>
    74a8:	e3530000 	cmp	r3, #0
    74ac:	a1a03002 	movge	r3, r2
    74b0:	b2623000 	rsblt	r3, r2, #0
    74b4:	e1a02006 	mov	r2, r6
    74b8:	e0433007 	sub	r3, r3, r7
    74bc:	e1a0000a 	mov	r0, sl
    74c0:	e51b1048 	ldr	r1, [fp, #-72]	; 0xffffffb8
    74c4:	e5955018 	ldr	r5, [r5, #24]
    74c8:	e1a0e00f 	mov	lr, pc
    74cc:	e12fff15 	bx	r5
    74d0:	e59a3000 	ldr	r3, [sl]
    74d4:	e5932060 	ldr	r2, [r3, #96]	; 0x60
    74d8:	e3140010 	tst	r4, #16
    74dc:	e5836068 	str	r6, [r3, #104]	; 0x68
    74e0:	e5832064 	str	r2, [r3, #100]	; 0x64
    74e4:	15836060 	strne	r6, [r3, #96]	; 0x60
    74e8:	eafffa6b 	b	5e9c <tty_execute_next_glyph_program_ins+0x1e0>
    74ec:	e5922000 	ldr	r2, [r2]
    74f0:	e082e00e 	add	lr, r2, lr
    74f4:	e51b2038 	ldr	r2, [fp, #-56]	; 0xffffffc8
    74f8:	e5922000 	ldr	r2, [r2]
    74fc:	e082c00c 	add	ip, r2, ip
    7500:	e3a02000 	mov	r2, #0
    7504:	e1a09002 	mov	r9, r2
    7508:	eafffe87 	b	6f2c <tty_execute_next_glyph_program_ins+0x1270>
    750c:	e3a07000 	mov	r7, #0
    7510:	e3a08a02 	mov	r8, #8192	; 0x2000
    7514:	e591e01c 	ldr	lr, [r1, #28]
    7518:	e59a3004 	ldr	r3, [sl, #4]
    751c:	e59ea000 	ldr	sl, [lr]
    7520:	e591e020 	ldr	lr, [r1, #32]
    7524:	e59ee000 	ldr	lr, [lr]
    7528:	e08a9185 	add	r9, sl, r5, lsl #3
    752c:	e79aa185 	ldr	sl, [sl, r5, lsl #3]
    7530:	e5995004 	ldr	r5, [r9, #4]
    7534:	e08e9184 	add	r9, lr, r4, lsl #3
    7538:	e79e4184 	ldr	r4, [lr, r4, lsl #3]
    753c:	e599e004 	ldr	lr, [r9, #4]
    7540:	e04a4004 	sub	r4, sl, r4
    7544:	e045500e 	sub	r5, r5, lr
    7548:	e1a0a007 	mov	sl, r7
    754c:	e1a0e008 	mov	lr, r8
    7550:	e591903c 	ldr	r9, [r1, #60]	; 0x3c
    7554:	e0eae994 	smlal	lr, sl, r4, r9
    7558:	e1a04008 	mov	r4, r8
    755c:	e1a08007 	mov	r8, r7
    7560:	e5936058 	ldr	r6, [r3, #88]	; 0x58
    7564:	e3a03602 	mov	r3, #2097152	; 0x200000
    7568:	e5919040 	ldr	r9, [r1, #64]	; 0x40
    756c:	e0e84995 	smlal	r4, r8, r5, r9
    7570:	e1a0e72e 	lsr	lr, lr, #14
    7574:	e1a04724 	lsr	r4, r4, #14
    7578:	e18ee90a 	orr	lr, lr, sl, lsl #18
    757c:	e1844908 	orr	r4, r4, r8, lsl #18
    7580:	e08ee004 	add	lr, lr, r4
    7584:	e1a0e30e 	lsl	lr, lr, #6
    7588:	e0e7369e 	smlal	r3, r7, lr, r6
    758c:	e1a03b23 	lsr	r3, r3, #22
    7590:	e1833507 	orr	r3, r3, r7, lsl #10
    7594:	eafffe11 	b	6de0 <tty_execute_next_glyph_program_ins+0x1124>
    7598:	e3a01a02 	mov	r1, #8192	; 0x2000
    759c:	e595701c 	ldr	r7, [r5, #28]
    75a0:	e597c004 	ldr	ip, [r7, #4]
    75a4:	e1a09000 	mov	r9, r0
    75a8:	e08ce186 	add	lr, ip, r6, lsl #3
    75ac:	e50bc038 	str	ip, [fp, #-56]	; 0xffffffc8
    75b0:	e1a0c001 	mov	ip, r1
    75b4:	e5958044 	ldr	r8, [r5, #68]	; 0x44
    75b8:	e0e9c893 	smlal	ip, r9, r3, r8
    75bc:	e5958048 	ldr	r8, [r5, #72]	; 0x48
    75c0:	e0e01893 	smlal	r1, r0, r3, r8
    75c4:	e1a0c72c 	lsr	ip, ip, #14
    75c8:	e51b8038 	ldr	r8, [fp, #-56]	; 0xffffffc8
    75cc:	e1a01721 	lsr	r1, r1, #14
    75d0:	e1811900 	orr	r1, r1, r0, lsl #18
    75d4:	e18cc909 	orr	ip, ip, r9, lsl #18
    75d8:	e5972008 	ldr	r2, [r7, #8]
    75dc:	e788c186 	str	ip, [r8, r6, lsl #3]
    75e0:	e58e1004 	str	r1, [lr, #4]
    75e4:	e89e0003 	ldm	lr, {r0, r1}
    75e8:	e0822186 	add	r2, r2, r6, lsl #3
    75ec:	e8820003 	stm	r2, {r0, r1}
    75f0:	eafffedf 	b	7174 <tty_execute_next_glyph_program_ins+0x14b8>
    75f4:	e59a0000 	ldr	r0, [sl]
    75f8:	e1d030ba 	ldrh	r3, [r0, #10]
    75fc:	e2432001 	sub	r2, r3, #1
    7600:	e2433002 	sub	r3, r3, #2
    7604:	e5901004 	ldr	r1, [r0, #4]
    7608:	e1a02802 	lsl	r2, r2, #16
    760c:	e1a03803 	lsl	r3, r3, #16
    7610:	e1a03823 	lsr	r3, r3, #16
    7614:	e1a02822 	lsr	r2, r2, #16
    7618:	e7917103 	ldr	r7, [r1, r3, lsl #2]
    761c:	e7918102 	ldr	r8, [r1, r2, lsl #2]
    7620:	e1c030ba 	strh	r3, [r0, #10]
    7624:	e5903024 	ldr	r3, [r0, #36]	; 0x24
    7628:	e5932004 	ldr	r2, [r3, #4]
    762c:	e5903020 	ldr	r3, [r0, #32]
    7630:	e5933004 	ldr	r3, [r3, #4]
    7634:	e0821188 	add	r1, r2, r8, lsl #3
    7638:	e792c188 	ldr	ip, [r2, r8, lsl #3]
    763c:	e5912004 	ldr	r2, [r1, #4]
    7640:	e0831187 	add	r1, r3, r7, lsl #3
    7644:	e5911004 	ldr	r1, [r1, #4]
    7648:	e7933187 	ldr	r3, [r3, r7, lsl #3]
    764c:	e043300c 	sub	r3, r3, ip
    7650:	e041c002 	sub	ip, r1, r2
    7654:	e193e00c 	orrs	lr, r3, ip
    7658:	e580303c 	str	r3, [r0, #60]	; 0x3c
    765c:	03a03901 	moveq	r3, #16384	; 0x4000
    7660:	e580c040 	str	ip, [r0, #64]	; 0x40
    7664:	0580303c 	streq	r3, [r0, #60]	; 0x3c
    7668:	e1a06188 	lsl	r6, r8, #3
    766c:	e1a05187 	lsl	r5, r7, #3
    7670:	0a00005b 	beq	77e4 <tty_execute_next_glyph_program_ins+0x1b28>
    7674:	e3540086 	cmp	r4, #134	; 0x86
    7678:	0a000059 	beq	77e4 <tty_execute_next_glyph_program_ins+0x1b28>
    767c:	e0422001 	sub	r2, r2, r1
    7680:	e5803040 	str	r3, [r0, #64]	; 0x40
    7684:	e5a0203c 	str	r2, [r0, #60]!	; 0x3c
    7688:	ebfff8a7 	bl	592c <tty_normalize_f26dot6_to_f2dot14>
    768c:	e59a0000 	ldr	r0, [sl]
    7690:	e5903024 	ldr	r3, [r0, #36]	; 0x24
    7694:	e5902020 	ldr	r2, [r0, #32]
    7698:	e5933008 	ldr	r3, [r3, #8]
    769c:	e5922008 	ldr	r2, [r2, #8]
    76a0:	e0836006 	add	r6, r3, r6
    76a4:	e0825005 	add	r5, r2, r5
    76a8:	e793c188 	ldr	ip, [r3, r8, lsl #3]
    76ac:	e7922187 	ldr	r2, [r2, r7, lsl #3]
    76b0:	e5963004 	ldr	r3, [r6, #4]
    76b4:	e5951004 	ldr	r1, [r5, #4]
    76b8:	e042200c 	sub	r2, r2, ip
    76bc:	e0433001 	sub	r3, r3, r1
    76c0:	e5802050 	str	r2, [r0, #80]	; 0x50
    76c4:	e580304c 	str	r3, [r0, #76]	; 0x4c
    76c8:	e280004c 	add	r0, r0, #76	; 0x4c
    76cc:	ebfff896 	bl	592c <tty_normalize_f26dot6_to_f2dot14>
    76d0:	e59a0000 	ldr	r0, [sl]
    76d4:	ebffed55 	bl	2c30 <tty_update_proj_dot_free.isra.0>
    76d8:	e59a3000 	ldr	r3, [sl]
    76dc:	e59f219c 	ldr	r2, [pc, #412]	; 7880 <tty_execute_next_glyph_program_ins+0x1bc4>
    76e0:	e5931028 	ldr	r1, [r3, #40]	; 0x28
    76e4:	e08f2002 	add	r2, pc, r2
    76e8:	e3510301 	cmp	r1, #67108864	; 0x4000000
    76ec:	e5832018 	str	r2, [r3, #24]
    76f0:	1afff9e9 	bne	5e9c <tty_execute_next_glyph_program_ins+0x1e0>
    76f4:	e5932044 	ldr	r2, [r3, #68]	; 0x44
    76f8:	e3520000 	cmp	r2, #0
    76fc:	1a00004a 	bne	782c <tty_execute_next_glyph_program_ins+0x1b70>
    7700:	e59f217c 	ldr	r2, [pc, #380]	; 7884 <tty_execute_next_glyph_program_ins+0x1bc8>
    7704:	e08f2002 	add	r2, pc, r2
    7708:	e5832018 	str	r2, [r3, #24]
    770c:	eafff9e2 	b	5e9c <tty_execute_next_glyph_program_ins+0x1e0>
    7710:	e5962010 	ldr	r2, [r6, #16]
    7714:	e7d23004 	ldrb	r3, [r2, r4]
    7718:	e3833002 	orr	r3, r3, #2
    771c:	e7c23004 	strb	r3, [r2, r4]
    7720:	eafffdde 	b	6ea0 <tty_execute_next_glyph_program_ins+0x11e4>
    7724:	e59a2000 	ldr	r2, [sl]
    7728:	e1d230ba 	ldrh	r3, [r2, #10]
    772c:	e2431001 	sub	r1, r3, #1
    7730:	e2433002 	sub	r3, r3, #2
    7734:	e592c004 	ldr	ip, [r2, #4]
    7738:	e1a01801 	lsl	r1, r1, #16
    773c:	e1a03803 	lsl	r3, r3, #16
    7740:	e1a03823 	lsr	r3, r3, #16
    7744:	e1a01821 	lsr	r1, r1, #16
    7748:	e79c0101 	ldr	r0, [ip, r1, lsl #2]
    774c:	e79c1103 	ldr	r1, [ip, r3, lsl #2]
    7750:	e1c230ba 	strh	r3, [r2, #10]
    7754:	e2823020 	add	r3, r2, #32
    7758:	e8931008 	ldm	r3, {r3, ip}
    775c:	e59c2008 	ldr	r2, [ip, #8]
    7760:	e5933008 	ldr	r3, [r3, #8]
    7764:	e082c180 	add	ip, r2, r0, lsl #3
    7768:	e0834181 	add	r4, r3, r1, lsl #3
    776c:	e792e180 	ldr	lr, [r2, r0, lsl #3]
    7770:	e59cc004 	ldr	ip, [ip, #4]
    7774:	e7932181 	ldr	r2, [r3, r1, lsl #3]
    7778:	e5943004 	ldr	r3, [r4, #4]
    777c:	e042200e 	sub	r2, r2, lr
    7780:	e043300c 	sub	r3, r3, ip
    7784:	e24b0034 	sub	r0, fp, #52	; 0x34
    7788:	e50b2034 	str	r2, [fp, #-52]	; 0xffffffcc
    778c:	e50b3030 	str	r3, [fp, #-48]	; 0xffffffd0
    7790:	ebfff865 	bl	592c <tty_normalize_f26dot6_to_f2dot14>
    7794:	e24b2034 	sub	r2, fp, #52	; 0x34
    7798:	e892000c 	ldm	r2, {r2, r3}
    779c:	e59a0000 	ldr	r0, [sl]
    77a0:	e5802044 	str	r2, [r0, #68]	; 0x44
    77a4:	e5803048 	str	r3, [r0, #72]	; 0x48
    77a8:	ebffed20 	bl	2c30 <tty_update_proj_dot_free.isra.0>
    77ac:	e59a3000 	ldr	r3, [sl]
    77b0:	e59f20d0 	ldr	r2, [pc, #208]	; 7888 <tty_execute_next_glyph_program_ins+0x1bcc>
    77b4:	e5931028 	ldr	r1, [r3, #40]	; 0x28
    77b8:	e08f2002 	add	r2, pc, r2
    77bc:	e3510301 	cmp	r1, #67108864	; 0x4000000
    77c0:	e5832018 	str	r2, [r3, #24]
    77c4:	1afff9b4 	bne	5e9c <tty_execute_next_glyph_program_ins+0x1e0>
    77c8:	e5932044 	ldr	r2, [r3, #68]	; 0x44
    77cc:	e3520000 	cmp	r2, #0
    77d0:	1a000024 	bne	7868 <tty_execute_next_glyph_program_ins+0x1bac>
    77d4:	e59f20b0 	ldr	r2, [pc, #176]	; 788c <tty_execute_next_glyph_program_ins+0x1bd0>
    77d8:	e08f2002 	add	r2, pc, r2
    77dc:	e5832018 	str	r2, [r3, #24]
    77e0:	eafff9ad 	b	5e9c <tty_execute_next_glyph_program_ins+0x1e0>
    77e4:	e280003c 	add	r0, r0, #60	; 0x3c
    77e8:	ebfff84f 	bl	592c <tty_normalize_f26dot6_to_f2dot14>
    77ec:	e59a0000 	ldr	r0, [sl]
    77f0:	e5903024 	ldr	r3, [r0, #36]	; 0x24
    77f4:	e5933008 	ldr	r3, [r3, #8]
    77f8:	e793c188 	ldr	ip, [r3, r8, lsl #3]
    77fc:	e0836006 	add	r6, r3, r6
    7800:	e5903020 	ldr	r3, [r0, #32]
    7804:	e5933008 	ldr	r3, [r3, #8]
    7808:	e0835005 	add	r5, r3, r5
    780c:	e7932187 	ldr	r2, [r3, r7, lsl #3]
    7810:	e5961004 	ldr	r1, [r6, #4]
    7814:	e5953004 	ldr	r3, [r5, #4]
    7818:	e042200c 	sub	r2, r2, ip
    781c:	e0433001 	sub	r3, r3, r1
    7820:	e580204c 	str	r2, [r0, #76]	; 0x4c
    7824:	e5803050 	str	r3, [r0, #80]	; 0x50
    7828:	eaffffa6 	b	76c8 <tty_execute_next_glyph_program_ins+0x1a0c>
    782c:	e5932048 	ldr	r2, [r3, #72]	; 0x48
    7830:	e3520000 	cmp	r2, #0
    7834:	059f2054 	ldreq	r2, [pc, #84]	; 7890 <tty_execute_next_glyph_program_ins+0x1bd4>
    7838:	008f2002 	addeq	r2, pc, r2
    783c:	05832018 	streq	r2, [r3, #24]
    7840:	eafff995 	b	5e9c <tty_execute_next_glyph_program_ins+0x1e0>
    7844:	e0900002 	adds	r0, r0, r2
    7848:	e2a3e000 	adc	lr, r3, #0
    784c:	e1a000a0 	lsr	r0, r0, #1
    7850:	e1800f8e 	orr	r0, r0, lr, lsl #31
    7854:	e090000c 	adds	r0, r0, ip
    7858:	e0a110ce 	adc	r1, r1, lr, asr #1
    785c:	eb00252f 	bl	10d20 <__aeabi_ldivmod>
    7860:	e1a02000 	mov	r2, r0
    7864:	eafff9e5 	b	6000 <tty_execute_next_glyph_program_ins+0x344>
    7868:	e5932048 	ldr	r2, [r3, #72]	; 0x48
    786c:	e3520000 	cmp	r2, #0
    7870:	059f201c 	ldreq	r2, [pc, #28]	; 7894 <tty_execute_next_glyph_program_ins+0x1bd8>
    7874:	008f2002 	addeq	r2, pc, r2
    7878:	05832018 	streq	r2, [r3, #24]
    787c:	eafff986 	b	5e9c <tty_execute_next_glyph_program_ins+0x1e0>
    7880:	ffffd1d4 			; <UNDEFINED> instruction: 0xffffd1d4
    7884:	ffffb16c 			; <UNDEFINED> instruction: 0xffffb16c
    7888:	ffffd100 			; <UNDEFINED> instruction: 0xffffd100
    788c:	ffffb098 			; <UNDEFINED> instruction: 0xffffb098
    7890:	ffffb024 			; <UNDEFINED> instruction: 0xffffb024
    7894:	ffffafe8 			; <UNDEFINED> instruction: 0xffffafe8

00007898 <tty_add_padding_to_align_u8>:
    7898:	e12fff1e 	bx	lr

0000789c <tty_add_padding_to_align_u8_ptr>:
    789c:	e2103003 	ands	r3, r0, #3
    78a0:	12800004 	addne	r0, r0, #4
    78a4:	10400003 	subne	r0, r0, r3
    78a8:	e12fff1e 	bx	lr

000078ac <tty_add_padding_to_align_u16>:
    78ac:	e3100001 	tst	r0, #1
    78b0:	12800001 	addne	r0, r0, #1
    78b4:	e12fff1e 	bx	lr

000078b8 <tty_add_padding_to_align_u32>:
    78b8:	e2103003 	ands	r3, r0, #3
    78bc:	12800004 	addne	r0, r0, #4
    78c0:	10400003 	subne	r0, r0, r3
    78c4:	e12fff1e 	bx	lr

000078c8 <tty_add_padding_to_align_s32>:
    78c8:	e2103003 	ands	r3, r0, #3
    78cc:	12800004 	addne	r0, r0, #4
    78d0:	10400003 	subne	r0, r0, r3
    78d4:	e12fff1e 	bx	lr

000078d8 <tty_add_padding_to_align_v2>:
    78d8:	e2103003 	ands	r3, r0, #3
    78dc:	12800004 	addne	r0, r0, #4
    78e0:	10400003 	subne	r0, r0, r3
    78e4:	e12fff1e 	bx	lr

000078e8 <tty_add_padding_to_align_edge>:
    78e8:	e2103003 	ands	r3, r0, #3
    78ec:	12800004 	addne	r0, r0, #4
    78f0:	10400003 	subne	r0, r0, r3
    78f4:	e12fff1e 	bx	lr

000078f8 <tty_add_padding_to_align_active_edge>:
    78f8:	e2103003 	ands	r3, r0, #3
    78fc:	12800004 	addne	r0, r0, #4
    7900:	10400003 	subne	r0, r0, r3
    7904:	e12fff1e 	bx	lr

00007908 <tty_add_padding_to_align_f26dot6>:
    7908:	e2103003 	ands	r3, r0, #3
    790c:	12800004 	addne	r0, r0, #4
    7910:	10400003 	subne	r0, r0, r3
    7914:	e12fff1e 	bx	lr

00007918 <tty_font_free>:
    7918:	e1a0c00d 	mov	ip, sp
    791c:	e92dd830 	push	{r4, r5, fp, ip, lr, pc}
    7920:	e2504000 	subs	r4, r0, #0
    7924:	e24cb004 	sub	fp, ip, #4
    7928:	0a000003 	beq	793c <tty_font_free+0x24>
    792c:	e594009c 	ldr	r0, [r4, #156]	; 0x9c
    7930:	eb002803 	bl	11944 <free>
    7934:	e5940000 	ldr	r0, [r4]
    7938:	eb002801 	bl	11944 <free>
    793c:	e24bd014 	sub	sp, fp, #20
    7940:	e89d6830 	ldm	sp, {r4, r5, fp, sp, lr}
    7944:	e12fff1e 	bx	lr

00007948 <tty_font_init>:
    7948:	e1a0c00d 	mov	ip, sp
    794c:	e92ddff0 	push	{r4, r5, r6, r7, r8, r9, sl, fp, ip, lr, pc}
    7950:	e1a05001 	mov	r5, r1
    7954:	e24cb004 	sub	fp, ip, #4
    7958:	e24dd034 	sub	sp, sp, #52	; 0x34
    795c:	e3a02f55 	mov	r2, #340	; 0x154
    7960:	e3a01000 	mov	r1, #0
    7964:	e1a04000 	mov	r4, r0
    7968:	eb0038d4 	bl	15cc0 <memset>
    796c:	e59f1a50 	ldr	r1, [pc, #2640]	; 83c4 <tty_font_init+0xa7c>
    7970:	e1a00005 	mov	r0, r5
    7974:	e08f1001 	add	r1, pc, r1
    7978:	eb0029c0 	bl	12080 <fopen>
    797c:	e2506000 	subs	r6, r0, #0
    7980:	0a000018 	beq	79e8 <tty_font_init+0xa0>
    7984:	e3a02002 	mov	r2, #2
    7988:	e3a01000 	mov	r1, #0
    798c:	eb002a20 	bl	12214 <fseek>
    7990:	e2505000 	subs	r5, r0, #0
    7994:	1a00000a 	bne	79c4 <tty_font_init+0x7c>
    7998:	e1a00006 	mov	r0, r6
    799c:	eb002a14 	bl	121f4 <ftell>
    79a0:	e3500000 	cmp	r0, #0
    79a4:	e58400a0 	str	r0, [r4, #160]	; 0xa0
    79a8:	ba000005 	blt	79c4 <tty_font_init+0x7c>
    79ac:	e1a02005 	mov	r2, r5
    79b0:	e1a01005 	mov	r1, r5
    79b4:	e1a00006 	mov	r0, r6
    79b8:	eb002a15 	bl	12214 <fseek>
    79bc:	e3500000 	cmp	r0, #0
    79c0:	0a00000a 	beq	79f0 <tty_font_init+0xa8>
    79c4:	e1a00006 	mov	r0, r6
    79c8:	eb0029e8 	bl	12170 <fclose>
    79cc:	e3a05001 	mov	r5, #1
    79d0:	e1a00004 	mov	r0, r4
    79d4:	ebffffcf 	bl	7918 <tty_font_free>
    79d8:	e1a00005 	mov	r0, r5
    79dc:	e24bd028 	sub	sp, fp, #40	; 0x28
    79e0:	e89d6ff0 	ldm	sp, {r4, r5, r6, r7, r8, r9, sl, fp, sp, lr}
    79e4:	e12fff1e 	bx	lr
    79e8:	e3a05001 	mov	r5, #1
    79ec:	eafffff7 	b	79d0 <tty_font_init+0x88>
    79f0:	e59450a0 	ldr	r5, [r4, #160]	; 0xa0
    79f4:	e1a00005 	mov	r0, r5
    79f8:	eb0027da 	bl	11968 <malloc>
    79fc:	e3500000 	cmp	r0, #0
    7a00:	e584009c 	str	r0, [r4, #156]	; 0x9c
    7a04:	0a00026a 	beq	83b4 <tty_font_init+0xa6c>
    7a08:	e1a03006 	mov	r3, r6
    7a0c:	e1a02005 	mov	r2, r5
    7a10:	e3a01001 	mov	r1, #1
    7a14:	eb0029e4 	bl	121ac <fread>
    7a18:	e59430a0 	ldr	r3, [r4, #160]	; 0xa0
    7a1c:	e1500003 	cmp	r0, r3
    7a20:	e1a00006 	mov	r0, r6
    7a24:	0a000004 	beq	7a3c <tty_font_init+0xf4>
    7a28:	eb0029d0 	bl	12170 <fclose>
    7a2c:	e594009c 	ldr	r0, [r4, #156]	; 0x9c
    7a30:	eb0027c3 	bl	11944 <free>
    7a34:	e3a05001 	mov	r5, #1
    7a38:	eaffffe4 	b	79d0 <tty_font_init+0x88>
    7a3c:	eb0029cb 	bl	12170 <fclose>
    7a40:	e3500000 	cmp	r0, #0
    7a44:	1a000252 	bne	8394 <tty_font_init+0xa4c>
    7a48:	e594c09c 	ldr	ip, [r4, #156]	; 0x9c
    7a4c:	e5dc3000 	ldrb	r3, [ip]
    7a50:	e5dc0001 	ldrb	r0, [ip, #1]
    7a54:	e5dc1002 	ldrb	r1, [ip, #2]
    7a58:	e5dc2003 	ldrb	r2, [ip, #3]
    7a5c:	e1833400 	orr	r3, r3, r0, lsl #8
    7a60:	e1833801 	orr	r3, r3, r1, lsl #16
    7a64:	e1832c02 	orr	r2, r3, r2, lsl #24
    7a68:	e0223862 	eor	r3, r2, r2, ror #16
    7a6c:	e1a03423 	lsr	r3, r3, #8
    7a70:	e3c33cff 	bic	r3, r3, #65280	; 0xff00
    7a74:	e0233462 	eor	r3, r3, r2, ror #8
    7a78:	e3530801 	cmp	r3, #65536	; 0x10000
    7a7c:	e50b304c 	str	r3, [fp, #-76]	; 0xffffffb4
    7a80:	0a000008 	beq	7aa8 <tty_font_init+0x160>
    7a84:	e59f293c 	ldr	r2, [pc, #2364]	; 83c8 <tty_font_init+0xa80>
    7a88:	e1530002 	cmp	r3, r2
    7a8c:	0a000005 	beq	7aa8 <tty_font_init+0x160>
    7a90:	e28224cb 	add	r2, r2, #-889192448	; 0xcb000000
    7a94:	e28228fb 	add	r2, r2, #16449536	; 0xfb0000
    7a98:	e2822c07 	add	r2, r2, #1792	; 0x700
    7a9c:	e1530002 	cmp	r3, r2
    7aa0:	13a05002 	movne	r5, #2
    7aa4:	1affffc9 	bne	79d0 <tty_font_init+0x88>
    7aa8:	e5dc1004 	ldrb	r1, [ip, #4]
    7aac:	e5dc3005 	ldrb	r3, [ip, #5]
    7ab0:	e1813403 	orr	r3, r1, r3, lsl #8
    7ab4:	e1a01423 	lsr	r1, r3, #8
    7ab8:	e1811403 	orr	r1, r1, r3, lsl #8
    7abc:	e1a01801 	lsl	r1, r1, #16
    7ac0:	e1a01821 	lsr	r1, r1, #16
    7ac4:	e3510000 	cmp	r1, #0
    7ac8:	0a000132 	beq	7f98 <tty_font_init+0x650>
    7acc:	e3a0e001 	mov	lr, #1
    7ad0:	e28420f8 	add	r2, r4, #248	; 0xf8
    7ad4:	e50b2050 	str	r2, [fp, #-80]	; 0xffffffb0
    7ad8:	e28420ec 	add	r2, r4, #236	; 0xec
    7adc:	e50b2054 	str	r2, [fp, #-84]	; 0xffffffac
    7ae0:	e28420e0 	add	r2, r4, #224	; 0xe0
    7ae4:	e28c3014 	add	r3, ip, #20
    7ae8:	e5d400ac 	ldrb	r0, [r4, #172]	; 0xac
    7aec:	e50b2058 	str	r2, [fp, #-88]	; 0xffffffa8
    7af0:	e0831201 	add	r1, r3, r1, lsl #4
    7af4:	e2849f4a 	add	r9, r4, #296	; 0x128
    7af8:	e2848f47 	add	r8, r4, #284	; 0x11c
    7afc:	e2847e11 	add	r7, r4, #272	; 0x110
    7b00:	e2846f41 	add	r6, r4, #260	; 0x104
    7b04:	e3500000 	cmp	r0, #0
    7b08:	e2432008 	sub	r2, r3, #8
    7b0c:	1a000002 	bne	7b1c <tty_font_init+0x1d4>
    7b10:	e5535008 	ldrb	r5, [r3, #-8]
    7b14:	e3550063 	cmp	r5, #99	; 0x63
    7b18:	0a0000a5 	beq	7db4 <tty_font_init+0x46c>
    7b1c:	e5d450b8 	ldrb	r5, [r4, #184]	; 0xb8
    7b20:	e3550000 	cmp	r5, #0
    7b24:	1a000002 	bne	7b34 <tty_font_init+0x1ec>
    7b28:	e5d25000 	ldrb	r5, [r2]
    7b2c:	e3550063 	cmp	r5, #99	; 0x63
    7b30:	0a0000c4 	beq	7e48 <tty_font_init+0x500>
    7b34:	e5d450c4 	ldrb	r5, [r4, #196]	; 0xc4
    7b38:	e3550000 	cmp	r5, #0
    7b3c:	1a000002 	bne	7b4c <tty_font_init+0x204>
    7b40:	e5d25000 	ldrb	r5, [r2]
    7b44:	e3550066 	cmp	r5, #102	; 0x66
    7b48:	0a0000ca 	beq	7e78 <tty_font_init+0x530>
    7b4c:	e5d450d0 	ldrb	r5, [r4, #208]	; 0xd0
    7b50:	e3550000 	cmp	r5, #0
    7b54:	1a000002 	bne	7b64 <tty_font_init+0x21c>
    7b58:	e5d25000 	ldrb	r5, [r2]
    7b5c:	e3550067 	cmp	r5, #103	; 0x67
    7b60:	0a0000d0 	beq	7ea8 <tty_font_init+0x560>
    7b64:	e5d450dc 	ldrb	r5, [r4, #220]	; 0xdc
    7b68:	e3550000 	cmp	r5, #0
    7b6c:	1a000002 	bne	7b7c <tty_font_init+0x234>
    7b70:	e5d25000 	ldrb	r5, [r2]
    7b74:	e3550068 	cmp	r5, #104	; 0x68
    7b78:	0a0000d6 	beq	7ed8 <tty_font_init+0x590>
    7b7c:	e5d450e8 	ldrb	r5, [r4, #232]	; 0xe8
    7b80:	e3550000 	cmp	r5, #0
    7b84:	1a000002 	bne	7b94 <tty_font_init+0x24c>
    7b88:	e5d25000 	ldrb	r5, [r2]
    7b8c:	e3550068 	cmp	r5, #104	; 0x68
    7b90:	0a0000dc 	beq	7f08 <tty_font_init+0x5c0>
    7b94:	e5d450f4 	ldrb	r5, [r4, #244]	; 0xf4
    7b98:	e3550000 	cmp	r5, #0
    7b9c:	1a000002 	bne	7bac <tty_font_init+0x264>
    7ba0:	e5d25000 	ldrb	r5, [r2]
    7ba4:	e3550068 	cmp	r5, #104	; 0x68
    7ba8:	0a0000e2 	beq	7f38 <tty_font_init+0x5f0>
    7bac:	e5d45100 	ldrb	r5, [r4, #256]	; 0x100
    7bb0:	e3550000 	cmp	r5, #0
    7bb4:	1a000002 	bne	7bc4 <tty_font_init+0x27c>
    7bb8:	e5d25000 	ldrb	r5, [r2]
    7bbc:	e355006c 	cmp	r5, #108	; 0x6c
    7bc0:	0a0000e8 	beq	7f68 <tty_font_init+0x620>
    7bc4:	e5d4510c 	ldrb	r5, [r4, #268]	; 0x10c
    7bc8:	e3550000 	cmp	r5, #0
    7bcc:	1a000002 	bne	7bdc <tty_font_init+0x294>
    7bd0:	e5d25000 	ldrb	r5, [r2]
    7bd4:	e355006d 	cmp	r5, #109	; 0x6d
    7bd8:	0a0001d1 	beq	8324 <tty_font_init+0x9dc>
    7bdc:	e5d45118 	ldrb	r5, [r4, #280]	; 0x118
    7be0:	e3550000 	cmp	r5, #0
    7be4:	1a000002 	bne	7bf4 <tty_font_init+0x2ac>
    7be8:	e5d25000 	ldrb	r5, [r2]
    7bec:	e355004f 	cmp	r5, #79	; 0x4f
    7bf0:	0a0001db 	beq	8364 <tty_font_init+0xa1c>
    7bf4:	e5d45124 	ldrb	r5, [r4, #292]	; 0x124
    7bf8:	e3550000 	cmp	r5, #0
    7bfc:	1a000002 	bne	7c0c <tty_font_init+0x2c4>
    7c00:	e5d25000 	ldrb	r5, [r2]
    7c04:	e3550070 	cmp	r5, #112	; 0x70
    7c08:	0a0000e4 	beq	7fa0 <tty_font_init+0x658>
    7c0c:	e5d45130 	ldrb	r5, [r4, #304]	; 0x130
    7c10:	e3550000 	cmp	r5, #0
    7c14:	1a000002 	bne	7c24 <tty_font_init+0x2dc>
    7c18:	e5d25000 	ldrb	r5, [r2]
    7c1c:	e3550076 	cmp	r5, #118	; 0x76
    7c20:	0a0000ea 	beq	7fd0 <tty_font_init+0x688>
    7c24:	e2833010 	add	r3, r3, #16
    7c28:	e1530001 	cmp	r3, r1
    7c2c:	1affffb4 	bne	7b04 <tty_font_init+0x1bc>
    7c30:	e3500000 	cmp	r0, #0
    7c34:	0a00005c 	beq	7dac <tty_font_init+0x464>
    7c38:	e5d430d0 	ldrb	r3, [r4, #208]	; 0xd0
    7c3c:	e3530000 	cmp	r3, #0
    7c40:	0a000059 	beq	7dac <tty_font_init+0x464>
    7c44:	e5d430dc 	ldrb	r3, [r4, #220]	; 0xdc
    7c48:	e3530000 	cmp	r3, #0
    7c4c:	0a000056 	beq	7dac <tty_font_init+0x464>
    7c50:	e5d430e8 	ldrb	r3, [r4, #232]	; 0xe8
    7c54:	e3530000 	cmp	r3, #0
    7c58:	0a000053 	beq	7dac <tty_font_init+0x464>
    7c5c:	e5d430f4 	ldrb	r3, [r4, #244]	; 0xf4
    7c60:	e3530000 	cmp	r3, #0
    7c64:	0a000050 	beq	7dac <tty_font_init+0x464>
    7c68:	e5d43100 	ldrb	r3, [r4, #256]	; 0x100
    7c6c:	e3530000 	cmp	r3, #0
    7c70:	0a00004d 	beq	7dac <tty_font_init+0x464>
    7c74:	e5d4310c 	ldrb	r3, [r4, #268]	; 0x10c
    7c78:	e3530000 	cmp	r3, #0
    7c7c:	0a00004a 	beq	7dac <tty_font_init+0x464>
    7c80:	e59410a4 	ldr	r1, [r4, #164]	; 0xa4
    7c84:	e08c5001 	add	r5, ip, r1
    7c88:	e5d53002 	ldrb	r3, [r5, #2]
    7c8c:	e5d52003 	ldrb	r2, [r5, #3]
    7c90:	e1832402 	orr	r2, r3, r2, lsl #8
    7c94:	e1a03422 	lsr	r3, r2, #8
    7c98:	e1833402 	orr	r3, r3, r2, lsl #8
    7c9c:	e1a03803 	lsl	r3, r3, #16
    7ca0:	e1a03823 	lsr	r3, r3, #16
    7ca4:	e3530000 	cmp	r3, #0
    7ca8:	0a00019b 	beq	831c <tty_font_init+0x9d4>
    7cac:	e2433001 	sub	r3, r3, #1
    7cb0:	e1a02803 	lsl	r2, r3, #16
    7cb4:	e281e00c 	add	lr, r1, #12
    7cb8:	e2813004 	add	r3, r1, #4
    7cbc:	e08ce00e 	add	lr, ip, lr
    7cc0:	e1a02822 	lsr	r2, r2, #16
    7cc4:	e08ee182 	add	lr, lr, r2, lsl #3
    7cc8:	e08c3003 	add	r3, ip, r3
    7ccc:	e2846f4e 	add	r6, r4, #312	; 0x138
    7cd0:	ea00001f 	b	7d54 <tty_font_init+0x40c>
    7cd4:	e3500003 	cmp	r0, #3
    7cd8:	1a00001a 	bne	7d48 <tty_font_init+0x400>
    7cdc:	e351000a 	cmp	r1, #10
    7ce0:	13510001 	cmpne	r1, #1
    7ce4:	1a000017 	bne	7d48 <tty_font_init+0x400>
    7ce8:	e1c620b0 	strh	r2, [r6]
    7cec:	e1c610b2 	strh	r1, [r6, #2]
    7cf0:	e5d31005 	ldrb	r1, [r3, #5]
    7cf4:	e5d32004 	ldrb	r2, [r3, #4]
    7cf8:	e1822401 	orr	r2, r2, r1, lsl #8
    7cfc:	e5d31006 	ldrb	r1, [r3, #6]
    7d00:	e1822801 	orr	r2, r2, r1, lsl #16
    7d04:	e5d31007 	ldrb	r1, [r3, #7]
    7d08:	e1821c01 	orr	r1, r2, r1, lsl #24
    7d0c:	e0212861 	eor	r2, r1, r1, ror #16
    7d10:	e1a02422 	lsr	r2, r2, #8
    7d14:	e3c22cff 	bic	r2, r2, #65280	; 0xff00
    7d18:	e0222461 	eor	r2, r2, r1, ror #8
    7d1c:	e5842134 	str	r2, [r4, #308]	; 0x134
    7d20:	e0851002 	add	r1, r5, r2
    7d24:	e5d11001 	ldrb	r1, [r1, #1]
    7d28:	e7d52002 	ldrb	r2, [r5, r2]
    7d2c:	e1821401 	orr	r1, r2, r1, lsl #8
    7d30:	e1a02421 	lsr	r2, r1, #8
    7d34:	e1822401 	orr	r2, r2, r1, lsl #8
    7d38:	e1a02802 	lsl	r2, r2, #16
    7d3c:	e1a02822 	lsr	r2, r2, #16
    7d40:	e3520004 	cmp	r2, #4
    7d44:	0a0000ad 	beq	8000 <tty_font_init+0x6b8>
    7d48:	e2833008 	add	r3, r3, #8
    7d4c:	e153000e 	cmp	r3, lr
    7d50:	0a000171 	beq	831c <tty_font_init+0x9d4>
    7d54:	e5d32000 	ldrb	r2, [r3]
    7d58:	e5d30001 	ldrb	r0, [r3, #1]
    7d5c:	e5d31002 	ldrb	r1, [r3, #2]
    7d60:	e1820400 	orr	r0, r2, r0, lsl #8
    7d64:	e5d37003 	ldrb	r7, [r3, #3]
    7d68:	e1a02420 	lsr	r2, r0, #8
    7d6c:	e1817407 	orr	r7, r1, r7, lsl #8
    7d70:	e1822400 	orr	r2, r2, r0, lsl #8
    7d74:	e1a00802 	lsl	r0, r2, #16
    7d78:	e1a01427 	lsr	r1, r7, #8
    7d7c:	e1a00840 	asr	r0, r0, #16
    7d80:	e1811407 	orr	r1, r1, r7, lsl #8
    7d84:	e1a02802 	lsl	r2, r2, #16
    7d88:	e1a01801 	lsl	r1, r1, #16
    7d8c:	e3500000 	cmp	r0, #0
    7d90:	e1a02822 	lsr	r2, r2, #16
    7d94:	e1a01821 	lsr	r1, r1, #16
    7d98:	1affffcd 	bne	7cd4 <tty_font_init+0x38c>
    7d9c:	e2410003 	sub	r0, r1, #3
    7da0:	e3500003 	cmp	r0, #3
    7da4:	9affffcf 	bls	7ce8 <tty_font_init+0x3a0>
    7da8:	eaffffe6 	b	7d48 <tty_font_init+0x400>
    7dac:	e3a05003 	mov	r5, #3
    7db0:	eaffff06 	b	79d0 <tty_font_init+0x88>
    7db4:	e5535007 	ldrb	r5, [r3, #-7]
    7db8:	e355006d 	cmp	r5, #109	; 0x6d
    7dbc:	1affff56 	bne	7b1c <tty_font_init+0x1d4>
    7dc0:	e5535006 	ldrb	r5, [r3, #-6]
    7dc4:	e3550061 	cmp	r5, #97	; 0x61
    7dc8:	1affff53 	bne	7b1c <tty_font_init+0x1d4>
    7dcc:	e5535005 	ldrb	r5, [r3, #-5]
    7dd0:	e3550070 	cmp	r5, #112	; 0x70
    7dd4:	028400a4 	addeq	r0, r4, #164	; 0xa4
    7dd8:	1affff4f 	bne	7b1c <tty_font_init+0x1d4>
    7ddc:	e5d35001 	ldrb	r5, [r3, #1]
    7de0:	e5d32000 	ldrb	r2, [r3]
    7de4:	e1822405 	orr	r2, r2, r5, lsl #8
    7de8:	e5d35002 	ldrb	r5, [r3, #2]
    7dec:	e1822805 	orr	r2, r2, r5, lsl #16
    7df0:	e5d35003 	ldrb	r5, [r3, #3]
    7df4:	e1822c05 	orr	r2, r2, r5, lsl #24
    7df8:	e0225862 	eor	r5, r2, r2, ror #16
    7dfc:	e1a05425 	lsr	r5, r5, #8
    7e00:	e3c55cff 	bic	r5, r5, #65280	; 0xff00
    7e04:	e0252462 	eor	r2, r5, r2, ror #8
    7e08:	e5802000 	str	r2, [r0]
    7e0c:	e5d35005 	ldrb	r5, [r3, #5]
    7e10:	e5d32004 	ldrb	r2, [r3, #4]
    7e14:	e1822405 	orr	r2, r2, r5, lsl #8
    7e18:	e5d35006 	ldrb	r5, [r3, #6]
    7e1c:	e1822805 	orr	r2, r2, r5, lsl #16
    7e20:	e5d35007 	ldrb	r5, [r3, #7]
    7e24:	e1822c05 	orr	r2, r2, r5, lsl #24
    7e28:	e0225862 	eor	r5, r2, r2, ror #16
    7e2c:	e1a05425 	lsr	r5, r5, #8
    7e30:	e3c55cff 	bic	r5, r5, #65280	; 0xff00
    7e34:	e0252462 	eor	r2, r5, r2, ror #8
    7e38:	e5c0e008 	strb	lr, [r0, #8]
    7e3c:	e5802004 	str	r2, [r0, #4]
    7e40:	e5d400ac 	ldrb	r0, [r4, #172]	; 0xac
    7e44:	eaffff76 	b	7c24 <tty_font_init+0x2dc>
    7e48:	e5d25001 	ldrb	r5, [r2, #1]
    7e4c:	e3550076 	cmp	r5, #118	; 0x76
    7e50:	e2825001 	add	r5, r2, #1
    7e54:	1affff36 	bne	7b34 <tty_font_init+0x1ec>
    7e58:	e5f5a001 	ldrb	sl, [r5, #1]!
    7e5c:	e35a0074 	cmp	sl, #116	; 0x74
    7e60:	1affff33 	bne	7b34 <tty_font_init+0x1ec>
    7e64:	e5d55001 	ldrb	r5, [r5, #1]
    7e68:	e3550020 	cmp	r5, #32
    7e6c:	028400b0 	addeq	r0, r4, #176	; 0xb0
    7e70:	1affff2f 	bne	7b34 <tty_font_init+0x1ec>
    7e74:	eaffffd8 	b	7ddc <tty_font_init+0x494>
    7e78:	e5d25001 	ldrb	r5, [r2, #1]
    7e7c:	e3550070 	cmp	r5, #112	; 0x70
    7e80:	e2825001 	add	r5, r2, #1
    7e84:	1affff30 	bne	7b4c <tty_font_init+0x204>
    7e88:	e5f5a001 	ldrb	sl, [r5, #1]!
    7e8c:	e35a0067 	cmp	sl, #103	; 0x67
    7e90:	1affff2d 	bne	7b4c <tty_font_init+0x204>
    7e94:	e5d55001 	ldrb	r5, [r5, #1]
    7e98:	e355006d 	cmp	r5, #109	; 0x6d
    7e9c:	028400bc 	addeq	r0, r4, #188	; 0xbc
    7ea0:	1affff29 	bne	7b4c <tty_font_init+0x204>
    7ea4:	eaffffcc 	b	7ddc <tty_font_init+0x494>
    7ea8:	e5d25001 	ldrb	r5, [r2, #1]
    7eac:	e355006c 	cmp	r5, #108	; 0x6c
    7eb0:	e2825001 	add	r5, r2, #1
    7eb4:	1affff2a 	bne	7b64 <tty_font_init+0x21c>
    7eb8:	e5f5a001 	ldrb	sl, [r5, #1]!
    7ebc:	e35a0079 	cmp	sl, #121	; 0x79
    7ec0:	1affff27 	bne	7b64 <tty_font_init+0x21c>
    7ec4:	e5d55001 	ldrb	r5, [r5, #1]
    7ec8:	e3550066 	cmp	r5, #102	; 0x66
    7ecc:	028400c8 	addeq	r0, r4, #200	; 0xc8
    7ed0:	1affff23 	bne	7b64 <tty_font_init+0x21c>
    7ed4:	eaffffc0 	b	7ddc <tty_font_init+0x494>
    7ed8:	e5d25001 	ldrb	r5, [r2, #1]
    7edc:	e3550065 	cmp	r5, #101	; 0x65
    7ee0:	e2825001 	add	r5, r2, #1
    7ee4:	1affff24 	bne	7b7c <tty_font_init+0x234>
    7ee8:	e5f5a001 	ldrb	sl, [r5, #1]!
    7eec:	e35a0061 	cmp	sl, #97	; 0x61
    7ef0:	1affff21 	bne	7b7c <tty_font_init+0x234>
    7ef4:	e5d55001 	ldrb	r5, [r5, #1]
    7ef8:	e3550064 	cmp	r5, #100	; 0x64
    7efc:	028400d4 	addeq	r0, r4, #212	; 0xd4
    7f00:	1affff1d 	bne	7b7c <tty_font_init+0x234>
    7f04:	eaffffb4 	b	7ddc <tty_font_init+0x494>
    7f08:	e5d25001 	ldrb	r5, [r2, #1]
    7f0c:	e3550068 	cmp	r5, #104	; 0x68
    7f10:	e2825001 	add	r5, r2, #1
    7f14:	1affff1e 	bne	7b94 <tty_font_init+0x24c>
    7f18:	e5f5a001 	ldrb	sl, [r5, #1]!
    7f1c:	e35a0065 	cmp	sl, #101	; 0x65
    7f20:	1affff1b 	bne	7b94 <tty_font_init+0x24c>
    7f24:	e5d55001 	ldrb	r5, [r5, #1]
    7f28:	e3550061 	cmp	r5, #97	; 0x61
    7f2c:	051b0058 	ldreq	r0, [fp, #-88]	; 0xffffffa8
    7f30:	1affff17 	bne	7b94 <tty_font_init+0x24c>
    7f34:	eaffffa8 	b	7ddc <tty_font_init+0x494>
    7f38:	e5d25001 	ldrb	r5, [r2, #1]
    7f3c:	e355006d 	cmp	r5, #109	; 0x6d
    7f40:	e2825001 	add	r5, r2, #1
    7f44:	1affff18 	bne	7bac <tty_font_init+0x264>
    7f48:	e5f5a001 	ldrb	sl, [r5, #1]!
    7f4c:	e35a0074 	cmp	sl, #116	; 0x74
    7f50:	1affff15 	bne	7bac <tty_font_init+0x264>
    7f54:	e5d55001 	ldrb	r5, [r5, #1]
    7f58:	e3550078 	cmp	r5, #120	; 0x78
    7f5c:	051b0054 	ldreq	r0, [fp, #-84]	; 0xffffffac
    7f60:	1affff11 	bne	7bac <tty_font_init+0x264>
    7f64:	eaffff9c 	b	7ddc <tty_font_init+0x494>
    7f68:	e5d25001 	ldrb	r5, [r2, #1]
    7f6c:	e355006f 	cmp	r5, #111	; 0x6f
    7f70:	e2825001 	add	r5, r2, #1
    7f74:	1affff12 	bne	7bc4 <tty_font_init+0x27c>
    7f78:	e5f5a001 	ldrb	sl, [r5, #1]!
    7f7c:	e35a0063 	cmp	sl, #99	; 0x63
    7f80:	1affff0f 	bne	7bc4 <tty_font_init+0x27c>
    7f84:	e5d55001 	ldrb	r5, [r5, #1]
    7f88:	e3550061 	cmp	r5, #97	; 0x61
    7f8c:	051b0050 	ldreq	r0, [fp, #-80]	; 0xffffffb0
    7f90:	1affff0b 	bne	7bc4 <tty_font_init+0x27c>
    7f94:	eaffff90 	b	7ddc <tty_font_init+0x494>
    7f98:	e5d400ac 	ldrb	r0, [r4, #172]	; 0xac
    7f9c:	eaffff23 	b	7c30 <tty_font_init+0x2e8>
    7fa0:	e5d25001 	ldrb	r5, [r2, #1]
    7fa4:	e3550072 	cmp	r5, #114	; 0x72
    7fa8:	e2825001 	add	r5, r2, #1
    7fac:	1affff16 	bne	7c0c <tty_font_init+0x2c4>
    7fb0:	e5f5a001 	ldrb	sl, [r5, #1]!
    7fb4:	e35a0065 	cmp	sl, #101	; 0x65
    7fb8:	1affff13 	bne	7c0c <tty_font_init+0x2c4>
    7fbc:	e5d55001 	ldrb	r5, [r5, #1]
    7fc0:	e3550070 	cmp	r5, #112	; 0x70
    7fc4:	01a00008 	moveq	r0, r8
    7fc8:	1affff0f 	bne	7c0c <tty_font_init+0x2c4>
    7fcc:	eaffff82 	b	7ddc <tty_font_init+0x494>
    7fd0:	e5d25001 	ldrb	r5, [r2, #1]
    7fd4:	e355006d 	cmp	r5, #109	; 0x6d
    7fd8:	e2822001 	add	r2, r2, #1
    7fdc:	1affff10 	bne	7c24 <tty_font_init+0x2dc>
    7fe0:	e5f25001 	ldrb	r5, [r2, #1]!
    7fe4:	e3550074 	cmp	r5, #116	; 0x74
    7fe8:	1affff0d 	bne	7c24 <tty_font_init+0x2dc>
    7fec:	e5d22001 	ldrb	r2, [r2, #1]
    7ff0:	e3520078 	cmp	r2, #120	; 0x78
    7ff4:	1affff0a 	bne	7c24 <tty_font_init+0x2dc>
    7ff8:	e1a00009 	mov	r0, r9
    7ffc:	eaffff76 	b	7ddc <tty_font_init+0x494>
    8000:	e5943104 	ldr	r3, [r4, #260]	; 0x104
    8004:	e08cc003 	add	ip, ip, r3
    8008:	e5dc0018 	ldrb	r0, [ip, #24]
    800c:	e5dc3019 	ldrb	r3, [ip, #25]
    8010:	e1803403 	orr	r3, r0, r3, lsl #8
    8014:	e1a00423 	lsr	r0, r3, #8
    8018:	e1800403 	orr	r0, r0, r3, lsl #8
    801c:	e1a00800 	lsl	r0, r0, #16
    8020:	e1a00820 	lsr	r0, r0, #16
    8024:	e1c400b8 	strh	r0, [r4, #8]
    8028:	e5dc2015 	ldrb	r2, [ip, #21]
    802c:	e5dc3014 	ldrb	r3, [ip, #20]
    8030:	e1833402 	orr	r3, r3, r2, lsl #8
    8034:	e1a02423 	lsr	r2, r3, #8
    8038:	e1823403 	orr	r3, r2, r3, lsl #8
    803c:	e1c431b4 	strh	r3, [r4, #20]
    8040:	e5dc3008 	ldrb	r3, [ip, #8]
    8044:	e5dc1009 	ldrb	r1, [ip, #9]
    8048:	e1831401 	orr	r1, r3, r1, lsl #8
    804c:	e1a03421 	lsr	r3, r1, #8
    8050:	e5dc200c 	ldrb	r2, [ip, #12]
    8054:	e1833401 	orr	r3, r3, r1, lsl #8
    8058:	e5dc100d 	ldrb	r1, [ip, #13]
    805c:	e1821401 	orr	r1, r2, r1, lsl #8
    8060:	e1a02421 	lsr	r2, r1, #8
    8064:	e1822401 	orr	r2, r2, r1, lsl #8
    8068:	e1a03803 	lsl	r3, r3, #16
    806c:	e1a02802 	lsl	r2, r2, #16
    8070:	e1a03823 	lsr	r3, r3, #16
    8074:	e1a02822 	lsr	r2, r2, #16
    8078:	e1530002 	cmp	r3, r2
    807c:	31a03002 	movcc	r3, r2
    8080:	e1c439ba 	strh	r3, [r4, #154]	; 0x9a
    8084:	e5dce00b 	ldrb	lr, [ip, #11]
    8088:	e5dc2006 	ldrb	r2, [ip, #6]
    808c:	e5dc300a 	ldrb	r3, [ip, #10]
    8090:	e5dc1007 	ldrb	r1, [ip, #7]
    8094:	e183c40e 	orr	ip, r3, lr, lsl #8
    8098:	e1821401 	orr	r1, r2, r1, lsl #8
    809c:	e1a0342c 	lsr	r3, ip, #8
    80a0:	e1a02421 	lsr	r2, r1, #8
    80a4:	e183340c 	orr	r3, r3, ip, lsl #8
    80a8:	e1822401 	orr	r2, r2, r1, lsl #8
    80ac:	e1a03803 	lsl	r3, r3, #16
    80b0:	e1a02802 	lsl	r2, r2, #16
    80b4:	e1a02822 	lsr	r2, r2, #16
    80b8:	e1a03823 	lsr	r3, r3, #16
    80bc:	e1530002 	cmp	r3, r2
    80c0:	31a03002 	movcc	r3, r2
    80c4:	e2833004 	add	r3, r3, #4
    80c8:	e5843094 	str	r3, [r4, #148]	; 0x94
    80cc:	e1a00100 	lsl	r0, r0, #2
    80d0:	ebfffdf1 	bl	789c <tty_add_padding_to_align_u8_ptr>
    80d4:	e1a09000 	mov	r9, r0
    80d8:	e1d401b4 	ldrh	r0, [r4, #20]
    80dc:	e1a00100 	lsl	r0, r0, #2
    80e0:	ebfffdf4 	bl	78b8 <tty_add_padding_to_align_u32>
    80e4:	e1a08000 	mov	r8, r0
    80e8:	e1d401b4 	ldrh	r0, [r4, #20]
    80ec:	e1a00100 	lsl	r0, r0, #2
    80f0:	ebfffdf8 	bl	78d8 <tty_add_padding_to_align_v2>
    80f4:	e5945094 	ldr	r5, [r4, #148]	; 0x94
    80f8:	e1a05185 	lsl	r5, r5, #3
    80fc:	e1a06000 	mov	r6, r0
    8100:	e1a00005 	mov	r0, r5
    8104:	ebfffde3 	bl	7898 <tty_add_padding_to_align_u8>
    8108:	e1a07000 	mov	r7, r0
    810c:	e5940094 	ldr	r0, [r4, #148]	; 0x94
    8110:	ebfffde0 	bl	7898 <tty_add_padding_to_align_u8>
    8114:	e0898008 	add	r8, r9, r8
    8118:	e0866008 	add	r6, r6, r8
    811c:	e0861085 	add	r1, r6, r5, lsl #1
    8120:	e1a0a000 	mov	sl, r0
    8124:	e5940094 	ldr	r0, [r4, #148]	; 0x94
    8128:	e0877001 	add	r7, r7, r1
    812c:	e50b1054 	str	r1, [fp, #-84]	; 0xffffffac
    8130:	ebfffddd 	bl	78ac <tty_add_padding_to_align_u16>
    8134:	e08aa007 	add	sl, sl, r7
    8138:	e1d439ba 	ldrh	r3, [r4, #154]	; 0x9a
    813c:	e080200a 	add	r2, r0, sl
    8140:	e0820083 	add	r0, r2, r3, lsl #1
    8144:	e50b2050 	str	r2, [fp, #-80]	; 0xffffffb0
    8148:	eb002606 	bl	11968 <malloc>
    814c:	e24b1054 	sub	r1, fp, #84	; 0x54
    8150:	e3500000 	cmp	r0, #0
    8154:	e1a03000 	mov	r3, r0
    8158:	e5840000 	str	r0, [r4]
    815c:	e8910006 	ldm	r1, {r1, r2}
    8160:	e0855006 	add	r5, r5, r6
    8164:	0a000090 	beq	83ac <tty_font_init+0xa64>
    8168:	e0831001 	add	r1, r3, r1
    816c:	e584107c 	str	r1, [r4, #124]	; 0x7c
    8170:	e3a01064 	mov	r1, #100	; 0x64
    8174:	e594c09c 	ldr	ip, [r4, #156]	; 0x9c
    8178:	e59400d4 	ldr	r0, [r4, #212]	; 0xd4
    817c:	e0835005 	add	r5, r3, r5
    8180:	e0832002 	add	r2, r3, r2
    8184:	e0839009 	add	r9, r3, r9
    8188:	e0838008 	add	r8, r3, r8
    818c:	e0836006 	add	r6, r3, r6
    8190:	e0837007 	add	r7, r3, r7
    8194:	e083a00a 	add	sl, r3, sl
    8198:	e5845078 	str	r5, [r4, #120]	; 0x78
    819c:	e5843004 	str	r3, [r4, #4]
    81a0:	e5841144 	str	r1, [r4, #324]	; 0x144
    81a4:	e584900c 	str	r9, [r4, #12]
    81a8:	e5848010 	str	r8, [r4, #16]
    81ac:	e5846074 	str	r6, [r4, #116]	; 0x74
    81b0:	e5847084 	str	r7, [r4, #132]	; 0x84
    81b4:	e584a080 	str	sl, [r4, #128]	; 0x80
    81b8:	e5842088 	str	r2, [r4, #136]	; 0x88
    81bc:	e08c0000 	add	r0, ip, r0
    81c0:	e5d02012 	ldrb	r2, [r0, #18]
    81c4:	e5d00013 	ldrb	r0, [r0, #19]
    81c8:	e1822400 	orr	r2, r2, r0, lsl #8
    81cc:	e1a00422 	lsr	r0, r2, #8
    81d0:	e594e104 	ldr	lr, [r4, #260]	; 0x104
    81d4:	e1802402 	orr	r2, r0, r2, lsl #8
    81d8:	e2845f52 	add	r5, r4, #328	; 0x148
    81dc:	e59430e0 	ldr	r3, [r4, #224]	; 0xe0
    81e0:	e1c520b0 	strh	r2, [r5]
    81e4:	e08ce00e 	add	lr, ip, lr
    81e8:	e5de2004 	ldrb	r2, [lr, #4]
    81ec:	e5dee005 	ldrb	lr, [lr, #5]
    81f0:	e182e40e 	orr	lr, r2, lr, lsl #8
    81f4:	e1a0242e 	lsr	r2, lr, #8
    81f8:	e182240e 	orr	r2, r2, lr, lsl #8
    81fc:	e1a02802 	lsl	r2, r2, #16
    8200:	e1a02822 	lsr	r2, r2, #16
    8204:	e5842140 	str	r2, [r4, #320]	; 0x140
    8208:	e08c3003 	add	r3, ip, r3
    820c:	e5d3e005 	ldrb	lr, [r3, #5]
    8210:	e5d32004 	ldrb	r2, [r3, #4]
    8214:	e182240e 	orr	r2, r2, lr, lsl #8
    8218:	e1a0e422 	lsr	lr, r2, #8
    821c:	e18e2402 	orr	r2, lr, r2, lsl #8
    8220:	e1c520b2 	strh	r2, [r5, #2]
    8224:	e5d3e007 	ldrb	lr, [r3, #7]
    8228:	e5d32006 	ldrb	r2, [r3, #6]
    822c:	e182240e 	orr	r2, r2, lr, lsl #8
    8230:	e2841f53 	add	r1, r4, #332	; 0x14c
    8234:	e1a0e422 	lsr	lr, r2, #8
    8238:	e18ee402 	orr	lr, lr, r2, lsl #8
    823c:	e1a02001 	mov	r2, r1
    8240:	e1c1e0b0 	strh	lr, [r1]
    8244:	e5d3e009 	ldrb	lr, [r3, #9]
    8248:	e5d31008 	ldrb	r1, [r3, #8]
    824c:	e181140e 	orr	r1, r1, lr, lsl #8
    8250:	e1a0e421 	lsr	lr, r1, #8
    8254:	e18e1401 	orr	r1, lr, r1, lsl #8
    8258:	e1c210b2 	strh	r1, [r2, #2]
    825c:	e5d32010 	ldrb	r2, [r3, #16]
    8260:	e5d33011 	ldrb	r3, [r3, #17]
    8264:	e1823403 	orr	r3, r2, r3, lsl #8
    8268:	e1a02423 	lsr	r2, r3, #8
    826c:	e1823403 	orr	r3, r2, r3, lsl #8
    8270:	e2840e15 	add	r0, r4, #336	; 0x150
    8274:	e1c030b0 	strh	r3, [r0]
    8278:	e5d430b8 	ldrb	r3, [r4, #184]	; 0xb8
    827c:	e3530000 	cmp	r3, #0
    8280:	0a000033 	beq	8354 <tty_font_init+0xa0c>
    8284:	e5d430c4 	ldrb	r3, [r4, #196]	; 0xc4
    8288:	e3530000 	cmp	r3, #0
    828c:	0a000030 	beq	8354 <tty_font_init+0xa0c>
    8290:	e5d43124 	ldrb	r3, [r4, #292]	; 0x124
    8294:	e3530000 	cmp	r3, #0
    8298:	0a00002d 	beq	8354 <tty_font_init+0xa0c>
    829c:	e3a01000 	mov	r1, #0
    82a0:	e3a00001 	mov	r0, #1
    82a4:	e59430bc 	ldr	r3, [r4, #188]	; 0xbc
    82a8:	e59f211c 	ldr	r2, [pc, #284]	; 83cc <tty_font_init+0xa84>
    82ac:	e08cc003 	add	ip, ip, r3
    82b0:	e59430c0 	ldr	r3, [r4, #192]	; 0xc0
    82b4:	e08f2002 	add	r2, pc, r2
    82b8:	e50b2040 	str	r2, [fp, #-64]	; 0xffffffc0
    82bc:	e50b404c 	str	r4, [fp, #-76]	; 0xffffffb4
    82c0:	e1a02001 	mov	r2, r1
    82c4:	e50bc03c 	str	ip, [fp, #-60]	; 0xffffffc4
    82c8:	e50b3034 	str	r3, [fp, #-52]	; 0xffffffcc
    82cc:	e5c40152 	strb	r0, [r4, #338]	; 0x152
    82d0:	e50b1048 	str	r1, [fp, #-72]	; 0xffffffb8
    82d4:	e50b1044 	str	r1, [fp, #-68]	; 0xffffffbc
    82d8:	e50b1038 	str	r1, [fp, #-56]	; 0xffffffc8
    82dc:	e14b13b0 	strh	r1, [fp, #-48]	; 0xffffffd0
    82e0:	e24b504c 	sub	r5, fp, #76	; 0x4c
    82e4:	ea000008 	b	830c <tty_font_init+0x9c4>
    82e8:	e51b3040 	ldr	r3, [fp, #-64]	; 0xffffffc0
    82ec:	e1a00005 	mov	r0, r5
    82f0:	e1a0e00f 	mov	lr, pc
    82f4:	e12fff13 	bx	r3
    82f8:	e55b302f 	ldrb	r3, [fp, #-47]	; 0xffffffd1
    82fc:	e3530000 	cmp	r3, #0
    8300:	1a000027 	bne	83a4 <tty_font_init+0xa5c>
    8304:	e24b2038 	sub	r2, fp, #56	; 0x38
    8308:	e892000c 	ldm	r2, {r2, r3}
    830c:	e1520003 	cmp	r2, r3
    8310:	3afffff4 	bcc	82e8 <tty_font_init+0x9a0>
    8314:	e3a05000 	mov	r5, #0
    8318:	eafffdae 	b	79d8 <tty_font_init+0x90>
    831c:	e3a05004 	mov	r5, #4
    8320:	eafffdaa 	b	79d0 <tty_font_init+0x88>
    8324:	e5d25001 	ldrb	r5, [r2, #1]
    8328:	e3550061 	cmp	r5, #97	; 0x61
    832c:	e2825001 	add	r5, r2, #1
    8330:	1afffe29 	bne	7bdc <tty_font_init+0x294>
    8334:	e5f5a001 	ldrb	sl, [r5, #1]!
    8338:	e35a0078 	cmp	sl, #120	; 0x78
    833c:	1afffe26 	bne	7bdc <tty_font_init+0x294>
    8340:	e5d55001 	ldrb	r5, [r5, #1]
    8344:	e3550070 	cmp	r5, #112	; 0x70
    8348:	01a00006 	moveq	r0, r6
    834c:	1afffe22 	bne	7bdc <tty_font_init+0x294>
    8350:	eafffea1 	b	7ddc <tty_font_init+0x494>
    8354:	e3a03000 	mov	r3, #0
    8358:	e1a05003 	mov	r5, r3
    835c:	e5c43152 	strb	r3, [r4, #338]	; 0x152
    8360:	eafffd9c 	b	79d8 <tty_font_init+0x90>
    8364:	e5d25001 	ldrb	r5, [r2, #1]
    8368:	e3550053 	cmp	r5, #83	; 0x53
    836c:	e2825001 	add	r5, r2, #1
    8370:	1afffe1f 	bne	7bf4 <tty_font_init+0x2ac>
    8374:	e5f5a001 	ldrb	sl, [r5, #1]!
    8378:	e35a002f 	cmp	sl, #47	; 0x2f
    837c:	1afffe1c 	bne	7bf4 <tty_font_init+0x2ac>
    8380:	e5d55001 	ldrb	r5, [r5, #1]
    8384:	e3550032 	cmp	r5, #50	; 0x32
    8388:	01a00007 	moveq	r0, r7
    838c:	1afffe18 	bne	7bf4 <tty_font_init+0x2ac>
    8390:	eafffe91 	b	7ddc <tty_font_init+0x494>
    8394:	e594009c 	ldr	r0, [r4, #156]	; 0x9c
    8398:	eb002569 	bl	11944 <free>
    839c:	e3a05001 	mov	r5, #1
    83a0:	eafffd8a 	b	79d0 <tty_font_init+0x88>
    83a4:	e3a05006 	mov	r5, #6
    83a8:	eafffd88 	b	79d0 <tty_font_init+0x88>
    83ac:	e3a05005 	mov	r5, #5
    83b0:	eafffd86 	b	79d0 <tty_font_init+0x88>
    83b4:	e1a00006 	mov	r0, r6
    83b8:	eb00276c 	bl	12170 <fclose>
    83bc:	e3a05005 	mov	r5, #5
    83c0:	eafffd82 	b	79d0 <tty_font_init+0x88>
    83c4:	000100b8 	strheq	r0, [r1], -r8
    83c8:	65757274 	ldrbvs	r7, [r5, #-628]!	; 0xfffffd8c
    83cc:	ffffab64 			; <UNDEFINED> instruction: 0xffffab64

000083d0 <tty_instance_resize>:
    83d0:	e1a0c00d 	mov	ip, sp
    83d4:	e92dd9f0 	push	{r4, r5, r6, r7, r8, fp, ip, lr, pc}
    83d8:	e24cb004 	sub	fp, ip, #4
    83dc:	e24dd024 	sub	sp, sp, #36	; 0x24
    83e0:	e3a07000 	mov	r7, #0
    83e4:	e2808f52 	add	r8, r0, #328	; 0x148
    83e8:	e1a06002 	mov	r6, r2
    83ec:	e1d820b0 	ldrh	r2, [r8]
    83f0:	e1923007 	orrs	r3, r2, r7
    83f4:	e1a04000 	mov	r4, r0
    83f8:	e1a05001 	mov	r5, r1
    83fc:	0a000041 	beq	8508 <tty_instance_resize+0x138>
    8400:	e1a030a2 	lsr	r3, r2, #1
    8404:	e1a00b06 	lsl	r0, r6, #22
    8408:	e0900003 	adds	r0, r0, r3
    840c:	e1a01526 	lsr	r1, r6, #10
    8410:	e1a03007 	mov	r3, r7
    8414:	e2a11000 	adc	r1, r1, #0
    8418:	eb002240 	bl	10d20 <__aeabi_ldivmod>
    841c:	e3a02602 	mov	r2, #2097152	; 0x200000
    8420:	e1d830f2 	ldrsh	r3, [r8, #2]
    8424:	e1a03303 	lsl	r3, r3, #6
    8428:	e0e72093 	smlal	r2, r7, r3, r0
    842c:	e3a0e000 	mov	lr, #0
    8430:	e1a03b22 	lsr	r3, r2, #22
    8434:	e3a02602 	mov	r2, #2097152	; 0x200000
    8438:	e2841f53 	add	r1, r4, #332	; 0x14c
    843c:	e1d1c0f0 	ldrsh	ip, [r1]
    8440:	e1a0c30c 	lsl	ip, ip, #6
    8444:	e0ee2c90 	smlal	r2, lr, r0, ip
    8448:	e313003f 	tst	r3, #63	; 0x3f
    844c:	e1a02b22 	lsr	r2, r2, #22
    8450:	e1833507 	orr	r3, r3, r7, lsl #10
    8454:	e182250e 	orr	r2, r2, lr, lsl #10
    8458:	13c3303f 	bicne	r3, r3, #63	; 0x3f
    845c:	12833040 	addne	r3, r3, #64	; 0x40
    8460:	e312003f 	tst	r2, #63	; 0x3f
    8464:	13c2203f 	bicne	r2, r2, #63	; 0x3f
    8468:	e1d1c0f2 	ldrsh	ip, [r1, #2]
    846c:	12822040 	addne	r2, r2, #64	; 0x40
    8470:	e1a03343 	asr	r3, r3, #6
    8474:	e5853044 	str	r3, [r5, #68]	; 0x44
    8478:	e0433342 	sub	r3, r3, r2, asr #6
    847c:	e1a02342 	asr	r2, r2, #6
    8480:	e3a01602 	mov	r1, #2097152	; 0x200000
    8484:	e5852048 	str	r2, [r5, #72]	; 0x48
    8488:	e1a0230c 	lsl	r2, ip, #6
    848c:	e3a0c000 	mov	ip, #0
    8490:	e0ec1290 	smlal	r1, ip, r0, r2
    8494:	e1a01b21 	lsr	r1, r1, #22
    8498:	e311003f 	tst	r1, #63	; 0x3f
    849c:	e181150c 	orr	r1, r1, ip, lsl #10
    84a0:	13c1103f 	bicne	r1, r1, #63	; 0x3f
    84a4:	12811040 	addne	r1, r1, #64	; 0x40
    84a8:	e1a01341 	asr	r1, r1, #6
    84ac:	e284ce15 	add	ip, r4, #336	; 0x150
    84b0:	e1dcc0f0 	ldrsh	ip, [ip]
    84b4:	e3a02602 	mov	r2, #2097152	; 0x200000
    84b8:	e585104c 	str	r1, [r5, #76]	; 0x4c
    84bc:	e3a01000 	mov	r1, #0
    84c0:	e1a0c30c 	lsl	ip, ip, #6
    84c4:	e0e12c90 	smlal	r2, r1, r0, ip
    84c8:	e1a02b22 	lsr	r2, r2, #22
    84cc:	e312003f 	tst	r2, #63	; 0x3f
    84d0:	e1822501 	orr	r2, r2, r1, lsl #10
    84d4:	13c2203f 	bicne	r2, r2, #63	; 0x3f
    84d8:	e5856040 	str	r6, [r5, #64]	; 0x40
    84dc:	e5850058 	str	r0, [r5, #88]	; 0x58
    84e0:	12822040 	addne	r2, r2, #64	; 0x40
    84e4:	e5d5005c 	ldrb	r0, [r5, #92]	; 0x5c
    84e8:	e1a02342 	asr	r2, r2, #6
    84ec:	e3500000 	cmp	r0, #0
    84f0:	e5852050 	str	r2, [r5, #80]	; 0x50
    84f4:	e5853054 	str	r3, [r5, #84]	; 0x54
    84f8:	1a000009 	bne	8524 <tty_instance_resize+0x154>
    84fc:	e24bd020 	sub	sp, fp, #32
    8500:	e89d69f0 	ldm	sp, {r4, r5, r6, r7, r8, fp, sp, lr}
    8504:	e12fff1e 	bx	lr
    8508:	e1a03002 	mov	r3, r2
    850c:	e5812058 	str	r2, [r1, #88]	; 0x58
    8510:	e5816040 	str	r6, [r1, #64]	; 0x40
    8514:	e5812044 	str	r2, [r1, #68]	; 0x44
    8518:	e5812048 	str	r2, [r1, #72]	; 0x48
    851c:	e581204c 	str	r2, [r1, #76]	; 0x4c
    8520:	eaffffef 	b	84e4 <tty_instance_resize+0x114>
    8524:	e59430b4 	ldr	r3, [r4, #180]	; 0xb4
    8528:	e3530000 	cmp	r3, #0
    852c:	0a00001b 	beq	85a0 <tty_instance_resize+0x1d0>
    8530:	e3a01000 	mov	r1, #0
    8534:	e3a0c602 	mov	ip, #2097152	; 0x200000
    8538:	e1a0e001 	mov	lr, r1
    853c:	e5950004 	ldr	r0, [r5, #4]
    8540:	e594609c 	ldr	r6, [r4, #156]	; 0x9c
    8544:	e2400004 	sub	r0, r0, #4
    8548:	e59430b0 	ldr	r3, [r4, #176]	; 0xb0
    854c:	e0862001 	add	r2, r6, r1
    8550:	e0827003 	add	r7, r2, r3
    8554:	e7d23003 	ldrb	r3, [r2, r3]
    8558:	e5d72001 	ldrb	r2, [r7, #1]
    855c:	e1832402 	orr	r2, r3, r2, lsl #8
    8560:	e1a03422 	lsr	r3, r2, #8
    8564:	e1833402 	orr	r3, r3, r2, lsl #8
    8568:	e1a0700e 	mov	r7, lr
    856c:	e1a0200c 	mov	r2, ip
    8570:	e1a03803 	lsl	r3, r3, #16
    8574:	e5958058 	ldr	r8, [r5, #88]	; 0x58
    8578:	e1a03843 	asr	r3, r3, #16
    857c:	e1a03303 	lsl	r3, r3, #6
    8580:	e0e72893 	smlal	r2, r7, r3, r8
    8584:	e1a03b22 	lsr	r3, r2, #22
    8588:	e1833507 	orr	r3, r3, r7, lsl #10
    858c:	e5a03004 	str	r3, [r0, #4]!
    8590:	e59430b4 	ldr	r3, [r4, #180]	; 0xb4
    8594:	e2811002 	add	r1, r1, #2
    8598:	e1510003 	cmp	r1, r3
    859c:	3affffe9 	bcc	8548 <tty_instance_resize+0x178>
    85a0:	e5952038 	ldr	r2, [r5, #56]	; 0x38
    85a4:	e3a01000 	mov	r1, #0
    85a8:	e595001c 	ldr	r0, [r5, #28]
    85ac:	e1a02182 	lsl	r2, r2, #3
    85b0:	eb0035c2 	bl	15cc0 <memset>
    85b4:	e5952038 	ldr	r2, [r5, #56]	; 0x38
    85b8:	e3a01000 	mov	r1, #0
    85bc:	e5950020 	ldr	r0, [r5, #32]
    85c0:	e1a02182 	lsl	r2, r2, #3
    85c4:	eb0035bd 	bl	15cc0 <memset>
    85c8:	e5952038 	ldr	r2, [r5, #56]	; 0x38
    85cc:	e3a01000 	mov	r1, #0
    85d0:	e5950028 	ldr	r0, [r5, #40]	; 0x28
    85d4:	eb0035b9 	bl	15cc0 <memset>
    85d8:	e3a00101 	mov	r0, #1073741824	; 0x40000000
    85dc:	e3a0c044 	mov	ip, #68	; 0x44
    85e0:	e5840028 	str	r0, [r4, #40]	; 0x28
    85e4:	e3a00009 	mov	r0, #9
    85e8:	e59f2110 	ldr	r2, [pc, #272]	; 8700 <tty_instance_resize+0x330>
    85ec:	e3a0e040 	mov	lr, #64	; 0x40
    85f0:	e08f2002 	add	r2, pc, r2
    85f4:	e5842018 	str	r2, [r4, #24]
    85f8:	e2842074 	add	r2, r4, #116	; 0x74
    85fc:	e3a03901 	mov	r3, #16384	; 0x4000
    8600:	e584201c 	str	r2, [r4, #28]
    8604:	e5842020 	str	r2, [r4, #32]
    8608:	e5842024 	str	r2, [r4, #36]	; 0x24
    860c:	e3a02003 	mov	r2, #3
    8610:	e3a01000 	mov	r1, #0
    8614:	e584c030 	str	ip, [r4, #48]	; 0x30
    8618:	e5840054 	str	r0, [r4, #84]	; 0x54
    861c:	e3a0c001 	mov	ip, #1
    8620:	e3a00c01 	mov	r0, #256	; 0x100
    8624:	e584e02c 	str	lr, [r4, #44]	; 0x2c
    8628:	e59fe0d4 	ldr	lr, [pc, #212]	; 8704 <tty_instance_resize+0x334>
    862c:	e584303c 	str	r3, [r4, #60]	; 0x3c
    8630:	e5843044 	str	r3, [r4, #68]	; 0x44
    8634:	e584304c 	str	r3, [r4, #76]	; 0x4c
    8638:	e584e06c 	str	lr, [r4, #108]	; 0x6c
    863c:	e594309c 	ldr	r3, [r4, #156]	; 0x9c
    8640:	e5842058 	str	r2, [r4, #88]	; 0x58
    8644:	e594e11c 	ldr	lr, [r4, #284]	; 0x11c
    8648:	e59f20b8 	ldr	r2, [pc, #184]	; 8708 <tty_instance_resize+0x338>
    864c:	e083300e 	add	r3, r3, lr
    8650:	e08f2002 	add	r2, pc, r2
    8654:	e50b5040 	str	r5, [fp, #-64]	; 0xffffffc0
    8658:	e50b2038 	str	r2, [fp, #-56]	; 0xffffffc8
    865c:	e50b3034 	str	r3, [fp, #-52]	; 0xffffffcc
    8660:	e50b4044 	str	r4, [fp, #-68]	; 0xffffffbc
    8664:	e5841034 	str	r1, [r4, #52]	; 0x34
    8668:	e5841038 	str	r1, [r4, #56]	; 0x38
    866c:	e5841040 	str	r1, [r4, #64]	; 0x40
    8670:	e5841048 	str	r1, [r4, #72]	; 0x48
    8674:	e5841050 	str	r1, [r4, #80]	; 0x50
    8678:	e5841060 	str	r1, [r4, #96]	; 0x60
    867c:	e5841064 	str	r1, [r4, #100]	; 0x64
    8680:	e5841068 	str	r1, [r4, #104]	; 0x68
    8684:	e5c41072 	strb	r1, [r4, #114]	; 0x72
    8688:	e1c410ba 	strh	r1, [r4, #10]
    868c:	e50b103c 	str	r1, [fp, #-60]	; 0xffffffc4
    8690:	e584c05c 	str	ip, [r4, #92]	; 0x5c
    8694:	e1c407b0 	strh	r0, [r4, #112]	; 0x70
    8698:	e50b1030 	str	r1, [fp, #-48]	; 0xffffffd0
    869c:	e5943120 	ldr	r3, [r4, #288]	; 0x120
    86a0:	e1a02001 	mov	r2, r1
    86a4:	e14b12b8 	strh	r1, [fp, #-40]	; 0xffffffd8
    86a8:	e50b302c 	str	r3, [fp, #-44]	; 0xffffffd4
    86ac:	e24b5044 	sub	r5, fp, #68	; 0x44
    86b0:	ea000008 	b	86d8 <tty_instance_resize+0x308>
    86b4:	e51b3038 	ldr	r3, [fp, #-56]	; 0xffffffc8
    86b8:	e1a00005 	mov	r0, r5
    86bc:	e1a0e00f 	mov	lr, pc
    86c0:	e12fff13 	bx	r3
    86c4:	e55b3027 	ldrb	r3, [fp, #-39]	; 0xffffffd9
    86c8:	e3530000 	cmp	r3, #0
    86cc:	1a000007 	bne	86f0 <tty_instance_resize+0x320>
    86d0:	e24b2030 	sub	r2, fp, #48	; 0x30
    86d4:	e892000c 	ldm	r2, {r2, r3}
    86d8:	e1520003 	cmp	r2, r3
    86dc:	3afffff4 	bcc	86b4 <tty_instance_resize+0x2e4>
    86e0:	e3a00000 	mov	r0, #0
    86e4:	e24bd020 	sub	sp, fp, #32
    86e8:	e89d69f0 	ldm	sp, {r4, r5, r6, r7, r8, fp, sp, lr}
    86ec:	e12fff1e 	bx	lr
    86f0:	e3a00006 	mov	r0, #6
    86f4:	e24bd020 	sub	sp, fp, #32
    86f8:	e89d69f0 	ldm	sp, {r4, r5, r6, r7, r8, fp, sp, lr}
    86fc:	e12fff1e 	bx	lr
    8700:	ffffa26c 			; <UNDEFINED> instruction: 0xffffa26c
    8704:	01010101 	tsteq	r1, r1, lsl #2
    8708:	ffffc208 			; <UNDEFINED> instruction: 0xffffc208

0000870c <tty_instance_init>:
    870c:	e1a0c00d 	mov	ip, sp
    8710:	e92ddff8 	push	{r3, r4, r5, r6, r7, r8, r9, sl, fp, ip, lr, pc}
    8714:	e1a04001 	mov	r4, r1
    8718:	e1a06000 	mov	r6, r0
    871c:	e1a05003 	mov	r5, r3
    8720:	e1a07002 	mov	r7, r2
    8724:	e3a01000 	mov	r1, #0
    8728:	e3a02060 	mov	r2, #96	; 0x60
    872c:	e1a00004 	mov	r0, r4
    8730:	e24cb004 	sub	fp, ip, #4
    8734:	eb003561 	bl	15cc0 <memset>
    8738:	e5d63152 	ldrb	r3, [r6, #338]	; 0x152
    873c:	e3530000 	cmp	r3, #0
    8740:	13550001 	cmpne	r5, #1
    8744:	13a03001 	movne	r3, #1
    8748:	03a03000 	moveq	r3, #0
    874c:	1a000009 	bne	8778 <tty_instance_init+0x6c>
    8750:	e2055002 	and	r5, r5, #2
    8754:	e5c4305c 	strb	r3, [r4, #92]	; 0x5c
    8758:	e5c4505d 	strb	r5, [r4, #93]	; 0x5d
    875c:	e1c435be 	strh	r3, [r4, #94]	; 0x5e
    8760:	e1a02007 	mov	r2, r7
    8764:	e1a01004 	mov	r1, r4
    8768:	e1a00006 	mov	r0, r6
    876c:	e24bd02c 	sub	sp, fp, #44	; 0x2c
    8770:	e89d6ff8 	ldm	sp, {r3, r4, r5, r6, r7, r8, r9, sl, fp, sp, lr}
    8774:	eaffff15 	b	83d0 <tty_instance_resize>
    8778:	e3a02001 	mov	r2, #1
    877c:	e3a03000 	mov	r3, #0
    8780:	e2055002 	and	r5, r5, #2
    8784:	e5c4505d 	strb	r5, [r4, #93]	; 0x5d
    8788:	e5c4205c 	strb	r2, [r4, #92]	; 0x5c
    878c:	e1c435be 	strh	r3, [r4, #94]	; 0x5e
    8790:	e59600b4 	ldr	r0, [r6, #180]	; 0xb4
    8794:	e1a000a0 	lsr	r0, r0, #1
    8798:	e1a00800 	lsl	r0, r0, #16
    879c:	e5963104 	ldr	r3, [r6, #260]	; 0x104
    87a0:	e596209c 	ldr	r2, [r6, #156]	; 0x9c
    87a4:	e1a00840 	asr	r0, r0, #16
    87a8:	e1c400b8 	strh	r0, [r4, #8]
    87ac:	e0822003 	add	r2, r2, r3
    87b0:	e5d23012 	ldrb	r3, [r2, #18]
    87b4:	e5d21013 	ldrb	r1, [r2, #19]
    87b8:	e1831401 	orr	r1, r3, r1, lsl #8
    87bc:	e1a03421 	lsr	r3, r1, #8
    87c0:	e1833401 	orr	r3, r3, r1, lsl #8
    87c4:	e1a03803 	lsl	r3, r3, #16
    87c8:	e1a03823 	lsr	r3, r3, #16
    87cc:	e5843010 	str	r3, [r4, #16]
    87d0:	e5d23010 	ldrb	r3, [r2, #16]
    87d4:	e5d22011 	ldrb	r2, [r2, #17]
    87d8:	e1832402 	orr	r2, r3, r2, lsl #8
    87dc:	e1a03422 	lsr	r3, r2, #8
    87e0:	e1833402 	orr	r3, r3, r2, lsl #8
    87e4:	e1a03803 	lsl	r3, r3, #16
    87e8:	e1a03823 	lsr	r3, r3, #16
    87ec:	e5843038 	str	r3, [r4, #56]	; 0x38
    87f0:	e1a00100 	lsl	r0, r0, #2
    87f4:	ebfffc33 	bl	78c8 <tty_add_padding_to_align_s32>
    87f8:	e1a08000 	mov	r8, r0
    87fc:	e5940010 	ldr	r0, [r4, #16]
    8800:	e1a00100 	lsl	r0, r0, #2
    8804:	ebfffc33 	bl	78d8 <tty_add_padding_to_align_v2>
    8808:	e5949038 	ldr	r9, [r4, #56]	; 0x38
    880c:	e1a0a000 	mov	sl, r0
    8810:	e1a09189 	lsl	r9, r9, #3
    8814:	e1a00009 	mov	r0, r9
    8818:	ebfffc1e 	bl	7898 <tty_add_padding_to_align_u8>
    881c:	e088a00a 	add	sl, r8, sl
    8820:	e5943038 	ldr	r3, [r4, #56]	; 0x38
    8824:	e089900a 	add	r9, r9, sl
    8828:	e0805009 	add	r5, r0, r9
    882c:	e0850003 	add	r0, r5, r3
    8830:	eb00244c 	bl	11968 <malloc>
    8834:	e3500000 	cmp	r0, #0
    8838:	e5840000 	str	r0, [r4]
    883c:	0a000009 	beq	8868 <tty_instance_init+0x15c>
    8840:	e0808008 	add	r8, r0, r8
    8844:	e080a00a 	add	sl, r0, sl
    8848:	e0809009 	add	r9, r0, r9
    884c:	e0805005 	add	r5, r0, r5
    8850:	e584800c 	str	r8, [r4, #12]
    8854:	e584a01c 	str	sl, [r4, #28]
    8858:	e5840004 	str	r0, [r4, #4]
    885c:	e5849020 	str	r9, [r4, #32]
    8860:	e5845028 	str	r5, [r4, #40]	; 0x28
    8864:	eaffffbd 	b	8760 <tty_instance_init+0x54>
    8868:	e3a00005 	mov	r0, #5
    886c:	e24bd02c 	sub	sp, fp, #44	; 0x2c
    8870:	e89d6ff8 	ldm	sp, {r3, r4, r5, r6, r7, r8, r9, sl, fp, sp, lr}
    8874:	e12fff1e 	bx	lr

00008878 <tty_instance_free>:
    8878:	e1a0c00d 	mov	ip, sp
    887c:	e92dd830 	push	{r4, r5, fp, ip, lr, pc}
    8880:	e2504000 	subs	r4, r0, #0
    8884:	e24cb004 	sub	fp, ip, #4
    8888:	0a000003 	beq	889c <tty_instance_free+0x24>
    888c:	e5940000 	ldr	r0, [r4]
    8890:	eb00242b 	bl	11944 <free>
    8894:	e3a03000 	mov	r3, #0
    8898:	e5843000 	str	r3, [r4]
    889c:	e24bd014 	sub	sp, fp, #20
    88a0:	e89d6830 	ldm	sp, {r4, r5, fp, sp, lr}
    88a4:	e12fff1e 	bx	lr

000088a8 <tty_get_glyph_index>:
    88a8:	e92d41f0 	push	{r4, r5, r6, r7, r8, lr}
    88ac:	e59030a4 	ldr	r3, [r0, #164]	; 0xa4
    88b0:	e590c134 	ldr	ip, [r0, #308]	; 0x134
    88b4:	e590009c 	ldr	r0, [r0, #156]	; 0x9c
    88b8:	e083300c 	add	r3, r3, ip
    88bc:	e0806003 	add	r6, r0, r3
    88c0:	e7d03003 	ldrb	r3, [r0, r3]
    88c4:	e5d60001 	ldrb	r0, [r6, #1]
    88c8:	e1830400 	orr	r0, r3, r0, lsl #8
    88cc:	e1a03420 	lsr	r3, r0, #8
    88d0:	e1833400 	orr	r3, r3, r0, lsl #8
    88d4:	e1a03803 	lsl	r3, r3, #16
    88d8:	e1a03823 	lsr	r3, r3, #16
    88dc:	e3530004 	cmp	r3, #4
    88e0:	13a00004 	movne	r0, #4
    88e4:	0a000001 	beq	88f0 <tty_get_glyph_index+0x48>
    88e8:	e8bd41f0 	pop	{r4, r5, r6, r7, r8, lr}
    88ec:	e12fff1e 	bx	lr
    88f0:	e5d67006 	ldrb	r7, [r6, #6]
    88f4:	e5d63007 	ldrb	r3, [r6, #7]
    88f8:	e1873403 	orr	r3, r7, r3, lsl #8
    88fc:	e1a07423 	lsr	r7, r3, #8
    8900:	e1877403 	orr	r7, r7, r3, lsl #8
    8904:	e1a07807 	lsl	r7, r7, #16
    8908:	e1a078a7 	lsr	r7, r7, #17
    890c:	e2475001 	sub	r5, r7, #1
    8910:	e1a05805 	lsl	r5, r5, #16
    8914:	e3a08000 	mov	r8, #0
    8918:	e1a05825 	lsr	r5, r5, #16
    891c:	ea00000e 	b	895c <tty_get_glyph_index+0xb4>
    8920:	e3500000 	cmp	r0, #0
    8924:	e1a05803 	lsl	r5, r3, #16
    8928:	0a000024 	beq	89c0 <tty_get_glyph_index+0x118>
    892c:	e5d4300c 	ldrb	r3, [r4, #12]
    8930:	e5d4c00d 	ldrb	ip, [r4, #13]
    8934:	e183c40c 	orr	ip, r3, ip, lsl #8
    8938:	e1a0342c 	lsr	r3, ip, #8
    893c:	e183340c 	orr	r3, r3, ip, lsl #8
    8940:	e1a03803 	lsl	r3, r3, #16
    8944:	e1a03823 	lsr	r3, r3, #16
    8948:	e1510003 	cmp	r1, r3
    894c:	e1a05825 	lsr	r5, r5, #16
    8950:	8a00003b 	bhi	8a44 <tty_get_glyph_index+0x19c>
    8954:	e1550008 	cmp	r5, r8
    8958:	3a000013 	bcc	89ac <tty_get_glyph_index+0x104>
    895c:	e0880005 	add	r0, r8, r5
    8960:	e1a000c0 	asr	r0, r0, #1
    8964:	e0864080 	add	r4, r6, r0, lsl #1
    8968:	e5d4300e 	ldrb	r3, [r4, #14]
    896c:	e5d4e00f 	ldrb	lr, [r4, #15]
    8970:	e183e40e 	orr	lr, r3, lr, lsl #8
    8974:	e1a0342e 	lsr	r3, lr, #8
    8978:	e183340e 	orr	r3, r3, lr, lsl #8
    897c:	e1a03803 	lsl	r3, r3, #16
    8980:	e1a03823 	lsr	r3, r3, #16
    8984:	e1a0c800 	lsl	ip, r0, #16
    8988:	e1510003 	cmp	r1, r3
    898c:	e1a0c82c 	lsr	ip, ip, #16
    8990:	e24c3001 	sub	r3, ip, #1
    8994:	9affffe1 	bls	8920 <tty_get_glyph_index+0x78>
    8998:	e28cc001 	add	ip, ip, #1
    899c:	e1a0880c 	lsl	r8, ip, #16
    89a0:	e1a08828 	lsr	r8, r8, #16
    89a4:	e1550008 	cmp	r5, r8
    89a8:	2affffeb 	bcs	895c <tty_get_glyph_index+0xb4>
    89ac:	e3a03000 	mov	r3, #0
    89b0:	e3a00000 	mov	r0, #0
    89b4:	e5823000 	str	r3, [r2]
    89b8:	e8bd41f0 	pop	{r4, r5, r6, r7, r8, lr}
    89bc:	e12fff1e 	bx	lr
    89c0:	e3a00010 	mov	r0, #16
    89c4:	e1a0e006 	mov	lr, r6
    89c8:	e0800087 	add	r0, r0, r7, lsl #1
    89cc:	e7fe3000 	ldrb	r3, [lr, r0]!
    89d0:	e5dee001 	ldrb	lr, [lr, #1]
    89d4:	e183340e 	orr	r3, r3, lr, lsl #8
    89d8:	e1a0e423 	lsr	lr, r3, #8
    89dc:	e18e3403 	orr	r3, lr, r3, lsl #8
    89e0:	e1a03803 	lsl	r3, r3, #16
    89e4:	e1a03823 	lsr	r3, r3, #16
    89e8:	e1510003 	cmp	r1, r3
    89ec:	e1a0c087 	lsl	ip, r7, #1
    89f0:	3affffed 	bcc	89ac <tty_get_glyph_index+0x104>
    89f4:	e0807107 	add	r7, r0, r7, lsl #2
    89f8:	e0864007 	add	r4, r6, r7
    89fc:	e7d60007 	ldrb	r0, [r6, r7]
    8a00:	e5d4e001 	ldrb	lr, [r4, #1]
    8a04:	e180e40e 	orr	lr, r0, lr, lsl #8
    8a08:	e1a0042e 	lsr	r0, lr, #8
    8a0c:	e180040e 	orr	r0, r0, lr, lsl #8
    8a10:	e1a00800 	lsl	r0, r0, #16
    8a14:	e1b0e820 	lsrs	lr, r0, #16
    8a18:	1a00000c 	bne	8a50 <tty_get_glyph_index+0x1a8>
    8a1c:	e047700c 	sub	r7, r7, ip
    8a20:	e7f63007 	ldrb	r3, [r6, r7]!
    8a24:	e5d60001 	ldrb	r0, [r6, #1]
    8a28:	e1830400 	orr	r0, r3, r0, lsl #8
    8a2c:	e1a03420 	lsr	r3, r0, #8
    8a30:	e1833400 	orr	r3, r3, r0, lsl #8
    8a34:	e0833001 	add	r3, r3, r1
    8a38:	e1a03803 	lsl	r3, r3, #16
    8a3c:	e1a03823 	lsr	r3, r3, #16
    8a40:	eaffffda 	b	89b0 <tty_get_glyph_index+0x108>
    8a44:	e2800008 	add	r0, r0, #8
    8a48:	e1a00080 	lsl	r0, r0, #1
    8a4c:	eaffffdc 	b	89c4 <tty_get_glyph_index+0x11c>
    8a50:	e0411003 	sub	r1, r1, r3
    8a54:	e0841081 	add	r1, r4, r1, lsl #1
    8a58:	e081e00e 	add	lr, r1, lr
    8a5c:	e7d13820 	ldrb	r3, [r1, r0, lsr #16]
    8a60:	e5de1001 	ldrb	r1, [lr, #1]
    8a64:	e1831401 	orr	r1, r3, r1, lsl #8
    8a68:	e1a03421 	lsr	r3, r1, #8
    8a6c:	e1833401 	orr	r3, r3, r1, lsl #8
    8a70:	e1a03803 	lsl	r3, r3, #16
    8a74:	e1a03823 	lsr	r3, r3, #16
    8a78:	eaffffcc 	b	89b0 <tty_get_glyph_index+0x108>

00008a7c <tty_glyph_init>:
    8a7c:	e92d4010 	push	{r4, lr}
    8a80:	e590309c 	ldr	r3, [r0, #156]	; 0x9c
    8a84:	e590e0d4 	ldr	lr, [r0, #212]	; 0xd4
    8a88:	e5812004 	str	r2, [r1, #4]
    8a8c:	e083e00e 	add	lr, r3, lr
    8a90:	e5dec032 	ldrb	ip, [lr, #50]	; 0x32
    8a94:	e5dee033 	ldrb	lr, [lr, #51]	; 0x33
    8a98:	e18ce40e 	orr	lr, ip, lr, lsl #8
    8a9c:	e1a0c42e 	lsr	ip, lr, #8
    8aa0:	e18cc40e 	orr	ip, ip, lr, lsl #8
    8aa4:	e590e140 	ldr	lr, [r0, #320]	; 0x140
    8aa8:	e24ee001 	sub	lr, lr, #1
    8aac:	e1a0c80c 	lsl	ip, ip, #16
    8ab0:	e152000e 	cmp	r2, lr
    8ab4:	e1a0c84c 	asr	ip, ip, #16
    8ab8:	0a000049 	beq	8be4 <tty_glyph_init+0x168>
    8abc:	e35c0000 	cmp	ip, #0
    8ac0:	e590c0f8 	ldr	ip, [r0, #248]	; 0xf8
    8ac4:	e083c00c 	add	ip, r3, ip
    8ac8:	0a000033 	beq	8b9c <tty_glyph_init+0x120>
    8acc:	e08ce102 	add	lr, ip, r2, lsl #2
    8ad0:	e7dc2102 	ldrb	r2, [ip, r2, lsl #2]
    8ad4:	e5dec001 	ldrb	ip, [lr, #1]
    8ad8:	e182240c 	orr	r2, r2, ip, lsl #8
    8adc:	e5dec002 	ldrb	ip, [lr, #2]
    8ae0:	e182280c 	orr	r2, r2, ip, lsl #16
    8ae4:	e5dec003 	ldrb	ip, [lr, #3]
    8ae8:	e1822c0c 	orr	r2, r2, ip, lsl #24
    8aec:	e022c862 	eor	ip, r2, r2, ror #16
    8af0:	e1a0c42c 	lsr	ip, ip, #8
    8af4:	e3ccccff 	bic	ip, ip, #65280	; 0xff00
    8af8:	e02c4462 	eor	r4, ip, r2, ror #8
    8afc:	e5dec005 	ldrb	ip, [lr, #5]
    8b00:	e5de2004 	ldrb	r2, [lr, #4]
    8b04:	e182240c 	orr	r2, r2, ip, lsl #8
    8b08:	e5dec006 	ldrb	ip, [lr, #6]
    8b0c:	e182280c 	orr	r2, r2, ip, lsl #16
    8b10:	e5dec007 	ldrb	ip, [lr, #7]
    8b14:	e182cc0c 	orr	ip, r2, ip, lsl #24
    8b18:	e02c286c 	eor	r2, ip, ip, ror #16
    8b1c:	e1a02422 	lsr	r2, r2, #8
    8b20:	e3c22cff 	bic	r2, r2, #65280	; 0xff00
    8b24:	e022246c 	eor	r2, r2, ip, ror #8
    8b28:	e1540002 	cmp	r4, r2
    8b2c:	03a02000 	moveq	r2, #0
    8b30:	01a03002 	moveq	r3, r2
    8b34:	05812000 	streq	r2, [r1]
    8b38:	0a00000c 	beq	8b70 <tty_glyph_init+0xf4>
    8b3c:	e59020c8 	ldr	r2, [r0, #200]	; 0xc8
    8b40:	e0842002 	add	r2, r4, r2
    8b44:	e0833002 	add	r3, r3, r2
    8b48:	e3530000 	cmp	r3, #0
    8b4c:	e5813000 	str	r3, [r1]
    8b50:	0a000006 	beq	8b70 <tty_glyph_init+0xf4>
    8b54:	e5d32000 	ldrb	r2, [r3]
    8b58:	e5d33001 	ldrb	r3, [r3, #1]
    8b5c:	e1822403 	orr	r2, r2, r3, lsl #8
    8b60:	e1a03422 	lsr	r3, r2, #8
    8b64:	e1833402 	orr	r3, r3, r2, lsl #8
    8b68:	e1a03803 	lsl	r3, r3, #16
    8b6c:	e1a03843 	asr	r3, r3, #16
    8b70:	e3a00000 	mov	r0, #0
    8b74:	e1c132b0 	strh	r3, [r1, #32]
    8b78:	e5810008 	str	r0, [r1, #8]
    8b7c:	e581000c 	str	r0, [r1, #12]
    8b80:	e5810010 	str	r0, [r1, #16]
    8b84:	e5810014 	str	r0, [r1, #20]
    8b88:	e5810018 	str	r0, [r1, #24]
    8b8c:	e581001c 	str	r0, [r1, #28]
    8b90:	e5810024 	str	r0, [r1, #36]	; 0x24
    8b94:	e8bd4010 	pop	{r4, lr}
    8b98:	e12fff1e 	bx	lr
    8b9c:	e08ce082 	add	lr, ip, r2, lsl #1
    8ba0:	e7dcc082 	ldrb	ip, [ip, r2, lsl #1]
    8ba4:	e5de2001 	ldrb	r2, [lr, #1]
    8ba8:	e18c2402 	orr	r2, ip, r2, lsl #8
    8bac:	e1a0c422 	lsr	ip, r2, #8
    8bb0:	e18cc402 	orr	ip, ip, r2, lsl #8
    8bb4:	e5de2002 	ldrb	r2, [lr, #2]
    8bb8:	e5dee003 	ldrb	lr, [lr, #3]
    8bbc:	e182e40e 	orr	lr, r2, lr, lsl #8
    8bc0:	e1a0242e 	lsr	r2, lr, #8
    8bc4:	e182240e 	orr	r2, r2, lr, lsl #8
    8bc8:	e1a0c80c 	lsl	ip, ip, #16
    8bcc:	e1a02802 	lsl	r2, r2, #16
    8bd0:	e1a0c82c 	lsr	ip, ip, #16
    8bd4:	e1a02822 	lsr	r2, r2, #16
    8bd8:	e1a0408c 	lsl	r4, ip, #1
    8bdc:	e1a02082 	lsl	r2, r2, #1
    8be0:	eaffffd0 	b	8b28 <tty_glyph_init+0xac>
    8be4:	e35c0000 	cmp	ip, #0
    8be8:	e590c0f8 	ldr	ip, [r0, #248]	; 0xf8
    8bec:	0a000010 	beq	8c34 <tty_glyph_init+0x1b8>
    8bf0:	e0832102 	add	r2, r3, r2, lsl #2
    8bf4:	e082e00c 	add	lr, r2, ip
    8bf8:	e7d2200c 	ldrb	r2, [r2, ip]
    8bfc:	e5dec001 	ldrb	ip, [lr, #1]
    8c00:	e5de4002 	ldrb	r4, [lr, #2]
    8c04:	e182240c 	orr	r2, r2, ip, lsl #8
    8c08:	e5dec003 	ldrb	ip, [lr, #3]
    8c0c:	e1822804 	orr	r2, r2, r4, lsl #16
    8c10:	e182cc0c 	orr	ip, r2, ip, lsl #24
    8c14:	e02c286c 	eor	r2, ip, ip, ror #16
    8c18:	e1a02422 	lsr	r2, r2, #8
    8c1c:	e3c22cff 	bic	r2, r2, #65280	; 0xff00
    8c20:	e022246c 	eor	r2, r2, ip, ror #8
    8c24:	e59000c8 	ldr	r0, [r0, #200]	; 0xc8
    8c28:	e0822000 	add	r2, r2, r0
    8c2c:	e0833002 	add	r3, r3, r2
    8c30:	eaffffc4 	b	8b48 <tty_glyph_init+0xcc>
    8c34:	e0832082 	add	r2, r3, r2, lsl #1
    8c38:	e082e00c 	add	lr, r2, ip
    8c3c:	e7d2200c 	ldrb	r2, [r2, ip]
    8c40:	e5dec001 	ldrb	ip, [lr, #1]
    8c44:	e182c40c 	orr	ip, r2, ip, lsl #8
    8c48:	e1a0242c 	lsr	r2, ip, #8
    8c4c:	e182240c 	orr	r2, r2, ip, lsl #8
    8c50:	e1a02802 	lsl	r2, r2, #16
    8c54:	e1a02822 	lsr	r2, r2, #16
    8c58:	e1a02082 	lsl	r2, r2, #1
    8c5c:	eafffff0 	b	8c24 <tty_glyph_init+0x1a8>

00008c60 <tty_add_composite_glyph_points_to_zone1>:
    8c60:	e1a0c00d 	mov	ip, sp
    8c64:	e92ddff0 	push	{r4, r5, r6, r7, r8, r9, sl, fp, ip, lr, pc}
    8c68:	e24cb004 	sub	fp, ip, #4
    8c6c:	e24dd054 	sub	sp, sp, #84	; 0x54
    8c70:	e3a03000 	mov	r3, #0
    8c74:	e3a0600a 	mov	r6, #10
    8c78:	e1a04000 	mov	r4, r0
    8c7c:	e24bc054 	sub	ip, fp, #84	; 0x54
    8c80:	e50b306c 	str	r3, [fp, #-108]	; 0xffffff94
    8c84:	e50bc064 	str	ip, [fp, #-100]	; 0xffffff9c
    8c88:	e50b2070 	str	r2, [fp, #-112]	; 0xffffff90
    8c8c:	e50b3058 	str	r3, [fp, #-88]	; 0xffffffa8
    8c90:	e50b1068 	str	r1, [fp, #-104]	; 0xffffff98
    8c94:	e50b3060 	str	r3, [fp, #-96]	; 0xffffffa0
    8c98:	e592a000 	ldr	sl, [r2]
    8c9c:	e7fa3006 	ldrb	r3, [sl, r6]!
    8ca0:	e5dac003 	ldrb	ip, [sl, #3]
    8ca4:	e5da2002 	ldrb	r2, [sl, #2]
    8ca8:	e5da5001 	ldrb	r5, [sl, #1]
    8cac:	e182240c 	orr	r2, r2, ip, lsl #8
    8cb0:	e1a0c422 	lsr	ip, r2, #8
    8cb4:	e1833405 	orr	r3, r3, r5, lsl #8
    8cb8:	e18c2402 	orr	r2, ip, r2, lsl #8
    8cbc:	e1a05423 	lsr	r5, r3, #8
    8cc0:	e1a02802 	lsl	r2, r2, #16
    8cc4:	e1853403 	orr	r3, r5, r3, lsl #8
    8cc8:	e1a00004 	mov	r0, r4
    8ccc:	e51b1064 	ldr	r1, [fp, #-100]	; 0xffffff9c
    8cd0:	e1a02822 	lsr	r2, r2, #16
    8cd4:	e1a05803 	lsl	r5, r3, #16
    8cd8:	ebffff67 	bl	8a7c <tty_glyph_init>
    8cdc:	e51b3054 	ldr	r3, [fp, #-84]	; 0xffffffac
    8ce0:	e3530000 	cmp	r3, #0
    8ce4:	e2867004 	add	r7, r6, #4
    8ce8:	e1a05825 	lsr	r5, r5, #16
    8cec:	0a000114 	beq	9144 <tty_add_composite_glyph_points_to_zone1+0x4e4>
    8cf0:	e15b33f4 	ldrsh	r3, [fp, #-52]	; 0xffffffcc
    8cf4:	e24b1068 	sub	r1, fp, #104	; 0x68
    8cf8:	e3530000 	cmp	r3, #0
    8cfc:	e1a00004 	mov	r0, r4
    8d00:	e8910006 	ldm	r1, {r1, r2}
    8d04:	ba000107 	blt	9128 <tty_add_composite_glyph_points_to_zone1+0x4c8>
    8d08:	ebffe949 	bl	3234 <tty_add_simple_glyph_points_to_zone1>
    8d0c:	e1d419b8 	ldrh	r1, [r4, #152]	; 0x98
    8d10:	e3510000 	cmp	r1, #0
    8d14:	0a000107 	beq	9138 <tty_add_composite_glyph_points_to_zone1+0x4d8>
    8d18:	e3a02000 	mov	r2, #0
    8d1c:	e5943088 	ldr	r3, [r4, #136]	; 0x88
    8d20:	e51b006c 	ldr	r0, [fp, #-108]	; 0xffffff94
    8d24:	e50b305c 	str	r3, [fp, #-92]	; 0xffffffa4
    8d28:	e2433002 	sub	r3, r3, #2
    8d2c:	e1f310b2 	ldrh	r1, [r3, #2]!
    8d30:	e0801001 	add	r1, r0, r1
    8d34:	e1c310b0 	strh	r1, [r3]
    8d38:	e1d419b8 	ldrh	r1, [r4, #152]	; 0x98
    8d3c:	e2822001 	add	r2, r2, #1
    8d40:	e1510002 	cmp	r1, r2
    8d44:	8afffff8 	bhi	8d2c <tty_add_composite_glyph_points_to_zone1+0xcc>
    8d48:	e51b3058 	ldr	r3, [fp, #-88]	; 0xffffffa8
    8d4c:	e0833001 	add	r3, r3, r1
    8d50:	e50b3058 	str	r3, [fp, #-88]	; 0xffffffa8
    8d54:	e51b3060 	ldr	r3, [fp, #-96]	; 0xffffffa0
    8d58:	e5949090 	ldr	r9, [r4, #144]	; 0x90
    8d5c:	e0833009 	add	r3, r3, r9
    8d60:	e50b3060 	str	r3, [fp, #-96]	; 0xffffffa0
    8d64:	e51b2058 	ldr	r2, [fp, #-88]	; 0xffffffa8
    8d68:	e51b305c 	ldr	r3, [fp, #-92]	; 0xffffffa4
    8d6c:	e0833082 	add	r3, r3, r2, lsl #1
    8d70:	e15330b2 	ldrh	r3, [r3, #-2]
    8d74:	e3150002 	tst	r5, #2
    8d78:	e50b306c 	str	r3, [fp, #-108]	; 0xffffff94
    8d7c:	0a000140 	beq	9284 <tty_add_composite_glyph_points_to_zone1+0x624>
    8d80:	e51b3070 	ldr	r3, [fp, #-112]	; 0xffffff90
    8d84:	e3150001 	tst	r5, #1
    8d88:	e593a000 	ldr	sl, [r3]
    8d8c:	0a0000c1 	beq	9098 <tty_add_composite_glyph_points_to_zone1+0x438>
    8d90:	e1a0200a 	mov	r2, sl
    8d94:	e08a3006 	add	r3, sl, r6
    8d98:	e5d30006 	ldrb	r0, [r3, #6]
    8d9c:	e5d33007 	ldrb	r3, [r3, #7]
    8da0:	e1803403 	orr	r3, r0, r3, lsl #8
    8da4:	e1a00423 	lsr	r0, r3, #8
    8da8:	e1803403 	orr	r3, r0, r3, lsl #8
    8dac:	e7f20007 	ldrb	r0, [r2, r7]!
    8db0:	e5d22001 	ldrb	r2, [r2, #1]
    8db4:	e1802402 	orr	r2, r0, r2, lsl #8
    8db8:	e1a00422 	lsr	r0, r2, #8
    8dbc:	e1802402 	orr	r2, r0, r2, lsl #8
    8dc0:	e2050b06 	and	r0, r5, #6144	; 0x1800
    8dc4:	e1a03803 	lsl	r3, r3, #16
    8dc8:	e1a02802 	lsl	r2, r2, #16
    8dcc:	e3500b02 	cmp	r0, #2048	; 0x800
    8dd0:	e2866008 	add	r6, r6, #8
    8dd4:	e1a03843 	asr	r3, r3, #16
    8dd8:	e1a02842 	asr	r2, r2, #16
    8ddc:	0a0000b4 	beq	90b4 <tty_add_composite_glyph_points_to_zone1+0x454>
    8de0:	e3150008 	tst	r5, #8
    8de4:	12866002 	addne	r6, r6, #2
    8de8:	1a000004 	bne	8e00 <tty_add_composite_glyph_points_to_zone1+0x1a0>
    8dec:	e3150040 	tst	r5, #64	; 0x40
    8df0:	12866004 	addne	r6, r6, #4
    8df4:	1a000001 	bne	8e00 <tty_add_composite_glyph_points_to_zone1+0x1a0>
    8df8:	e3150080 	tst	r5, #128	; 0x80
    8dfc:	12866008 	addne	r6, r6, #8
    8e00:	e1a00703 	lsl	r0, r3, #14
    8e04:	e3a03000 	mov	r3, #0
    8e08:	e1a0c702 	lsl	ip, r2, #14
    8e0c:	e51b2068 	ldr	r2, [fp, #-104]	; 0xffffff98
    8e10:	e1a08003 	mov	r8, r3
    8e14:	e5927058 	ldr	r7, [r2, #88]	; 0x58
    8e18:	e3a02602 	mov	r2, #2097152	; 0x200000
    8e1c:	e0e8279c 	smlal	r2, r8, ip, r7
    8e20:	e3a0c602 	mov	ip, #2097152	; 0x200000
    8e24:	e0e3c097 	smlal	ip, r3, r7, r0
    8e28:	e1a0e003 	mov	lr, r3
    8e2c:	e1a02b22 	lsr	r2, r2, #22
    8e30:	e1a03b2c 	lsr	r3, ip, #22
    8e34:	e1828508 	orr	r8, r2, r8, lsl #10
    8e38:	e183350e 	orr	r3, r3, lr, lsl #10
    8e3c:	e3150004 	tst	r5, #4
    8e40:	0a00008b 	beq	9074 <tty_add_composite_glyph_points_to_zone1+0x414>
    8e44:	e3580000 	cmp	r8, #0
    8e48:	ba0000d5 	blt	91a4 <tty_add_composite_glyph_points_to_zone1+0x544>
    8e4c:	e1a00088 	lsl	r0, r8, #1
    8e50:	e3c88dff 	bic	r8, r8, #16320	; 0x3fc0
    8e54:	e2000901 	and	r0, r0, #16384	; 0x4000
    8e58:	e3c8803f 	bic	r8, r8, #63	; 0x3f
    8e5c:	e0808008 	add	r8, r0, r8
    8e60:	e3530000 	cmp	r3, #0
    8e64:	e1a0c448 	asr	ip, r8, #8
    8e68:	ba0000d7 	blt	91cc <tty_add_composite_glyph_points_to_zone1+0x56c>
    8e6c:	e1a02083 	lsl	r2, r3, #1
    8e70:	e3c3edff 	bic	lr, r3, #16320	; 0x3fc0
    8e74:	e2022901 	and	r2, r2, #16384	; 0x4000
    8e78:	e3cee03f 	bic	lr, lr, #63	; 0x3f
    8e7c:	e082e00e 	add	lr, r2, lr
    8e80:	e594808c 	ldr	r8, [r4, #140]	; 0x8c
    8e84:	e3580000 	cmp	r8, #0
    8e88:	e1a0e44e 	asr	lr, lr, #8
    8e8c:	0a00007f 	beq	9090 <tty_add_composite_glyph_points_to_zone1+0x430>
    8e90:	e3a03000 	mov	r3, #0
    8e94:	e594007c 	ldr	r0, [r4, #124]	; 0x7c
    8e98:	e2807004 	add	r7, r0, #4
    8e9c:	e7902183 	ldr	r2, [r0, r3, lsl #3]
    8ea0:	e082200c 	add	r2, r2, ip
    8ea4:	e7802183 	str	r2, [r0, r3, lsl #3]
    8ea8:	e7972183 	ldr	r2, [r7, r3, lsl #3]
    8eac:	e082200e 	add	r2, r2, lr
    8eb0:	e7872183 	str	r2, [r7, r3, lsl #3]
    8eb4:	e2833001 	add	r3, r3, #1
    8eb8:	e1530008 	cmp	r3, r8
    8ebc:	1afffff6 	bne	8e9c <tty_add_composite_glyph_points_to_zone1+0x23c>
    8ec0:	e51b305c 	ldr	r3, [fp, #-92]	; 0xffffffa4
    8ec4:	e5942078 	ldr	r2, [r4, #120]	; 0x78
    8ec8:	e0831081 	add	r1, r3, r1, lsl #1
    8ecc:	e0822189 	add	r2, r2, r9, lsl #3
    8ed0:	e5943074 	ldr	r3, [r4, #116]	; 0x74
    8ed4:	e5841088 	str	r1, [r4, #136]	; 0x88
    8ed8:	e5842078 	str	r2, [r4, #120]	; 0x78
    8edc:	e5941084 	ldr	r1, [r4, #132]	; 0x84
    8ee0:	e5942080 	ldr	r2, [r4, #128]	; 0x80
    8ee4:	e0800189 	add	r0, r0, r9, lsl #3
    8ee8:	e0833189 	add	r3, r3, r9, lsl #3
    8eec:	e0822009 	add	r2, r2, r9
    8ef0:	e2157020 	ands	r7, r5, #32
    8ef4:	e0819009 	add	r9, r1, r9
    8ef8:	e584007c 	str	r0, [r4, #124]	; 0x7c
    8efc:	e5843074 	str	r3, [r4, #116]	; 0x74
    8f00:	e5842080 	str	r2, [r4, #128]	; 0x80
    8f04:	e5849084 	str	r9, [r4, #132]	; 0x84
    8f08:	1affff63 	bne	8c9c <tty_add_composite_glyph_points_to_zone1+0x3c>
    8f0c:	e58d2000 	str	r2, [sp]
    8f10:	e51b1070 	ldr	r1, [fp, #-112]	; 0xffffff90
    8f14:	e2052c01 	and	r2, r5, #256	; 0x100
    8f18:	e50b205c 	str	r2, [fp, #-92]	; 0xffffffa4
    8f1c:	e1a00004 	mov	r0, r4
    8f20:	e5912004 	ldr	r2, [r1, #4]
    8f24:	e5911000 	ldr	r1, [r1]
    8f28:	ebffe84d 	bl	3064 <tty_get_phantom_points_and_types.isra.0>
    8f2c:	e1a03007 	mov	r3, r7
    8f30:	e3a0e602 	mov	lr, #2097152	; 0x200000
    8f34:	e1a05003 	mov	r5, r3
    8f38:	e51b2068 	ldr	r2, [fp, #-104]	; 0xffffff98
    8f3c:	e5947074 	ldr	r7, [r4, #116]	; 0x74
    8f40:	e5941078 	ldr	r1, [r4, #120]	; 0x78
    8f44:	e592c058 	ldr	ip, [r2, #88]	; 0x58
    8f48:	e2819004 	add	r9, r1, #4
    8f4c:	e2878004 	add	r8, r7, #4
    8f50:	e1a0200e 	mov	r2, lr
    8f54:	e1a00005 	mov	r0, r5
    8f58:	e797a183 	ldr	sl, [r7, r3, lsl #3]
    8f5c:	e1a0a30a 	lsl	sl, sl, #6
    8f60:	e0e02c9a 	smlal	r2, r0, sl, ip
    8f64:	e1a02b22 	lsr	r2, r2, #22
    8f68:	e1822500 	orr	r2, r2, r0, lsl #10
    8f6c:	e7812183 	str	r2, [r1, r3, lsl #3]
    8f70:	e1a00005 	mov	r0, r5
    8f74:	e1a0200e 	mov	r2, lr
    8f78:	e798a183 	ldr	sl, [r8, r3, lsl #3]
    8f7c:	e1a0a30a 	lsl	sl, sl, #6
    8f80:	e0e02c9a 	smlal	r2, r0, sl, ip
    8f84:	e1a02b22 	lsr	r2, r2, #22
    8f88:	e1822500 	orr	r2, r2, r0, lsl #10
    8f8c:	e7892183 	str	r2, [r9, r3, lsl #3]
    8f90:	e2833001 	add	r3, r3, #1
    8f94:	e3530004 	cmp	r3, #4
    8f98:	1affffec 	bne	8f50 <tty_add_composite_glyph_points_to_zone1+0x2f0>
    8f9c:	e3a02020 	mov	r2, #32
    8fa0:	e594007c 	ldr	r0, [r4, #124]	; 0x7c
    8fa4:	eb0032a7 	bl	15a48 <memcpy>
    8fa8:	e594007c 	ldr	r0, [r4, #124]	; 0x7c
    8fac:	ebffe67d 	bl	29a8 <tty_round_phantom_points>
    8fb0:	e51be060 	ldr	lr, [fp, #-96]	; 0xffffffa0
    8fb4:	e5941080 	ldr	r1, [r4, #128]	; 0x80
    8fb8:	e51b3058 	ldr	r3, [fp, #-88]	; 0xffffffa8
    8fbc:	e041100e 	sub	r1, r1, lr
    8fc0:	e2840074 	add	r0, r4, #116	; 0x74
    8fc4:	e1c439b8 	strh	r3, [r4, #152]	; 0x98
    8fc8:	e063cf83 	rsb	ip, r3, r3, lsl #31
    8fcc:	e890000d 	ldm	r0, {r0, r2, r3}
    8fd0:	e5841080 	str	r1, [r4, #128]	; 0x80
    8fd4:	e5941084 	ldr	r1, [r4, #132]	; 0x84
    8fd8:	e041100e 	sub	r1, r1, lr
    8fdc:	e5841084 	str	r1, [r4, #132]	; 0x84
    8fe0:	e5941088 	ldr	r1, [r4, #136]	; 0x88
    8fe4:	e081108c 	add	r1, r1, ip, lsl #1
    8fe8:	e5841088 	str	r1, [r4, #136]	; 0x88
    8fec:	e06e1e8e 	rsb	r1, lr, lr, lsl #29
    8ff0:	e0833181 	add	r3, r3, r1, lsl #3
    8ff4:	e0800181 	add	r0, r0, r1, lsl #3
    8ff8:	e584307c 	str	r3, [r4, #124]	; 0x7c
    8ffc:	e0822181 	add	r2, r2, r1, lsl #3
    9000:	e28e3004 	add	r3, lr, #4
    9004:	e5840074 	str	r0, [r4, #116]	; 0x74
    9008:	e5842078 	str	r2, [r4, #120]	; 0x78
    900c:	e584308c 	str	r3, [r4, #140]	; 0x8c
    9010:	e584e090 	str	lr, [r4, #144]	; 0x90
    9014:	e51b3068 	ldr	r3, [fp, #-104]	; 0xffffff98
    9018:	e51b205c 	ldr	r2, [fp, #-92]	; 0xffffffa4
    901c:	e5d3305c 	ldrb	r3, [r3, #92]	; 0x5c
    9020:	e3530000 	cmp	r3, #0
    9024:	13520000 	cmpne	r2, #0
    9028:	13a00001 	movne	r0, #1
    902c:	03a00000 	moveq	r0, #0
    9030:	0a000094 	beq	9288 <tty_add_composite_glyph_points_to_zone1+0x628>
    9034:	e51b2070 	ldr	r2, [fp, #-112]	; 0xffffff90
    9038:	e592c000 	ldr	ip, [r2]
    903c:	e2863002 	add	r3, r6, #2
    9040:	e08c3003 	add	r3, ip, r3
    9044:	e7fce006 	ldrb	lr, [ip, r6]!
    9048:	e5dcc001 	ldrb	ip, [ip, #1]
    904c:	e18ee40c 	orr	lr, lr, ip, lsl #8
    9050:	e1a0c42e 	lsr	ip, lr, #8
    9054:	e18cc40e 	orr	ip, ip, lr, lsl #8
    9058:	e1a0c80c 	lsl	ip, ip, #16
    905c:	e1a0c82c 	lsr	ip, ip, #16
    9060:	e1a00004 	mov	r0, r4
    9064:	e51b1068 	ldr	r1, [fp, #-104]	; 0xffffff98
    9068:	e58dc000 	str	ip, [sp]
    906c:	ebffe7ad 	bl	2f28 <tty_execute_glyph_program>
    9070:	ea000084 	b	9288 <tty_add_composite_glyph_points_to_zone1+0x628>
    9074:	e2888080 	add	r8, r8, #128	; 0x80
    9078:	e1a0c448 	asr	ip, r8, #8
    907c:	e594808c 	ldr	r8, [r4, #140]	; 0x8c
    9080:	e283e080 	add	lr, r3, #128	; 0x80
    9084:	e3580000 	cmp	r8, #0
    9088:	e1a0e44e 	asr	lr, lr, #8
    908c:	1affff7f 	bne	8e90 <tty_add_composite_glyph_points_to_zone1+0x230>
    9090:	e594007c 	ldr	r0, [r4, #124]	; 0x7c
    9094:	eaffff89 	b	8ec0 <tty_add_composite_glyph_points_to_zone1+0x260>
    9098:	e2050b06 	and	r0, r5, #6144	; 0x1800
    909c:	e08a3006 	add	r3, sl, r6
    90a0:	e3500b02 	cmp	r0, #2048	; 0x800
    90a4:	e19a20d7 	ldrsb	r2, [sl, r7]
    90a8:	e1d330d5 	ldrsb	r3, [r3, #5]
    90ac:	e2866006 	add	r6, r6, #6
    90b0:	1affff4a 	bne	8de0 <tty_add_composite_glyph_points_to_zone1+0x180>
    90b4:	e215c008 	ands	ip, r5, #8
    90b8:	0a000025 	beq	9154 <tty_add_composite_glyph_points_to_zone1+0x4f4>
    90bc:	e1a0700a 	mov	r7, sl
    90c0:	e3a0c000 	mov	ip, #0
    90c4:	e3a0e901 	mov	lr, #16384	; 0x4000
    90c8:	e7f70006 	ldrb	r0, [r7, r6]!
    90cc:	e5d77001 	ldrb	r7, [r7, #1]
    90d0:	e1807407 	orr	r7, r0, r7, lsl #8
    90d4:	e1a00427 	lsr	r0, r7, #8
    90d8:	e1800407 	orr	r0, r0, r7, lsl #8
    90dc:	e1a00800 	lsl	r0, r0, #16
    90e0:	e1a00840 	asr	r0, r0, #16
    90e4:	e0000092 	mul	r0, r2, r0
    90e8:	e2866002 	add	r6, r6, #2
    90ec:	e02cc39e 	mla	ip, lr, r3, ip
    90f0:	e3a03000 	mov	r3, #0
    90f4:	e51b2068 	ldr	r2, [fp, #-104]	; 0xffffff98
    90f8:	e1a08003 	mov	r8, r3
    90fc:	e5927058 	ldr	r7, [r2, #88]	; 0x58
    9100:	e3a02602 	mov	r2, #2097152	; 0x200000
    9104:	e0e82790 	smlal	r2, r8, r0, r7
    9108:	e3a00602 	mov	r0, #2097152	; 0x200000
    910c:	e0e30c97 	smlal	r0, r3, r7, ip
    9110:	e1a0e003 	mov	lr, r3
    9114:	e1a02b22 	lsr	r2, r2, #22
    9118:	e1a03b20 	lsr	r3, r0, #22
    911c:	e1828508 	orr	r8, r2, r8, lsl #10
    9120:	e183350e 	orr	r3, r3, lr, lsl #10
    9124:	eaffff44 	b	8e3c <tty_add_composite_glyph_points_to_zone1+0x1dc>
    9128:	ebfffecc 	bl	8c60 <tty_add_composite_glyph_points_to_zone1>
    912c:	e1d419b8 	ldrh	r1, [r4, #152]	; 0x98
    9130:	e3510000 	cmp	r1, #0
    9134:	1afffef7 	bne	8d18 <tty_add_composite_glyph_points_to_zone1+0xb8>
    9138:	e5943088 	ldr	r3, [r4, #136]	; 0x88
    913c:	e50b305c 	str	r3, [fp, #-92]	; 0xffffffa4
    9140:	eaffff03 	b	8d54 <tty_add_composite_glyph_points_to_zone1+0xf4>
    9144:	e51b3070 	ldr	r3, [fp, #-112]	; 0xffffff90
    9148:	e1a06007 	mov	r6, r7
    914c:	e593a000 	ldr	sl, [r3]
    9150:	eafffed1 	b	8c9c <tty_add_composite_glyph_points_to_zone1+0x3c>
    9154:	e3150040 	tst	r5, #64	; 0x40
    9158:	0a000023 	beq	91ec <tty_add_composite_glyph_points_to_zone1+0x58c>
    915c:	e1a0000a 	mov	r0, sl
    9160:	e7f07006 	ldrb	r7, [r0, r6]!
    9164:	e5d0e001 	ldrb	lr, [r0, #1]
    9168:	e187740e 	orr	r7, r7, lr, lsl #8
    916c:	e5d0e002 	ldrb	lr, [r0, #2]
    9170:	e5d00003 	ldrb	r0, [r0, #3]
    9174:	e18ee400 	orr	lr, lr, r0, lsl #8
    9178:	e1a00427 	lsr	r0, r7, #8
    917c:	e1800407 	orr	r0, r0, r7, lsl #8
    9180:	e1a00800 	lsl	r0, r0, #16
    9184:	e1a00840 	asr	r0, r0, #16
    9188:	e0000092 	mul	r0, r2, r0
    918c:	e1a0242e 	lsr	r2, lr, #8
    9190:	e182e40e 	orr	lr, r2, lr, lsl #8
    9194:	e1a0e80e 	lsl	lr, lr, #16
    9198:	e2866004 	add	r6, r6, #4
    919c:	e1a0e84e 	asr	lr, lr, #16
    91a0:	eaffffd1 	b	90ec <tty_add_composite_glyph_points_to_zone1+0x48c>
    91a4:	e2688000 	rsb	r8, r8, #0
    91a8:	e1a02088 	lsl	r2, r8, #1
    91ac:	e3c88dff 	bic	r8, r8, #16320	; 0x3fc0
    91b0:	e2022901 	and	r2, r2, #16384	; 0x4000
    91b4:	e3c8803f 	bic	r8, r8, #63	; 0x3f
    91b8:	e0828008 	add	r8, r2, r8
    91bc:	e2688000 	rsb	r8, r8, #0
    91c0:	e3530000 	cmp	r3, #0
    91c4:	e1a0c448 	asr	ip, r8, #8
    91c8:	aaffff27 	bge	8e6c <tty_add_composite_glyph_points_to_zone1+0x20c>
    91cc:	e263e000 	rsb	lr, r3, #0
    91d0:	e1a0208e 	lsl	r2, lr, #1
    91d4:	e3ce3dff 	bic	r3, lr, #16320	; 0x3fc0
    91d8:	e2022901 	and	r2, r2, #16384	; 0x4000
    91dc:	e3c3303f 	bic	r3, r3, #63	; 0x3f
    91e0:	e082e003 	add	lr, r2, r3
    91e4:	e26ee000 	rsb	lr, lr, #0
    91e8:	eaffff24 	b	8e80 <tty_add_composite_glyph_points_to_zone1+0x220>
    91ec:	e215c080 	ands	ip, r5, #128	; 0x80
    91f0:	03a0e901 	moveq	lr, #16384	; 0x4000
    91f4:	01a00702 	lsleq	r0, r2, #14
    91f8:	0affffbb 	beq	90ec <tty_add_composite_glyph_points_to_zone1+0x48c>
    91fc:	e1a0e00a 	mov	lr, sl
    9200:	e7fec006 	ldrb	ip, [lr, r6]!
    9204:	e5de0001 	ldrb	r0, [lr, #1]
    9208:	e18cc400 	orr	ip, ip, r0, lsl #8
    920c:	e1a0042c 	lsr	r0, ip, #8
    9210:	e180040c 	orr	r0, r0, ip, lsl #8
    9214:	e1a00800 	lsl	r0, r0, #16
    9218:	e1a00840 	asr	r0, r0, #16
    921c:	e0020290 	mul	r2, r0, r2
    9220:	e5dec002 	ldrb	ip, [lr, #2]
    9224:	e5de0003 	ldrb	r0, [lr, #3]
    9228:	e18cc400 	orr	ip, ip, r0, lsl #8
    922c:	e1a0042c 	lsr	r0, ip, #8
    9230:	e180040c 	orr	r0, r0, ip, lsl #8
    9234:	e1a00800 	lsl	r0, r0, #16
    9238:	e1a00840 	asr	r0, r0, #16
    923c:	e0202093 	mla	r0, r3, r0, r2
    9240:	e5dec004 	ldrb	ip, [lr, #4]
    9244:	e5de2005 	ldrb	r2, [lr, #5]
    9248:	e18cc402 	orr	ip, ip, r2, lsl #8
    924c:	e1a0242c 	lsr	r2, ip, #8
    9250:	e182c40c 	orr	ip, r2, ip, lsl #8
    9254:	e5de2006 	ldrb	r2, [lr, #6]
    9258:	e5dee007 	ldrb	lr, [lr, #7]
    925c:	e182240e 	orr	r2, r2, lr, lsl #8
    9260:	e1a0e422 	lsr	lr, r2, #8
    9264:	e1a0c80c 	lsl	ip, ip, #16
    9268:	e18ee402 	orr	lr, lr, r2, lsl #8
    926c:	e1a0c84c 	asr	ip, ip, #16
    9270:	e1a0e80e 	lsl	lr, lr, #16
    9274:	e00c0c90 	mul	ip, r0, ip
    9278:	e2866008 	add	r6, r6, #8
    927c:	e1a0e84e 	asr	lr, lr, #16
    9280:	eaffff99 	b	90ec <tty_add_composite_glyph_points_to_zone1+0x48c>
    9284:	e3a00004 	mov	r0, #4
    9288:	e24bd028 	sub	sp, fp, #40	; 0x28
    928c:	e89d6ff0 	ldm	sp, {r4, r5, r6, r7, r8, r9, sl, fp, sp, lr}
    9290:	e12fff1e 	bx	lr

00009294 <tty_render_glyph_cache>:
    9294:	e1a0c00d 	mov	ip, sp
    9298:	e92ddff0 	push	{r4, r5, r6, r7, r8, r9, sl, fp, ip, lr, pc}
    929c:	e24cb004 	sub	fp, ip, #4
    92a0:	e24dd04c 	sub	sp, sp, #76	; 0x4c
    92a4:	e5923000 	ldr	r3, [r2]
    92a8:	e3530000 	cmp	r3, #0
    92ac:	e1a09000 	mov	r9, r0
    92b0:	e50b204c 	str	r2, [fp, #-76]	; 0xffffffb4
    92b4:	e50b1058 	str	r1, [fp, #-88]	; 0xffffffa8
    92b8:	0a000115 	beq	9714 <tty_render_glyph_cache+0x480>
    92bc:	e3a03000 	mov	r3, #0
    92c0:	e51bc04c 	ldr	ip, [fp, #-76]	; 0xffffffb4
    92c4:	e1dcc2f0 	ldrsh	ip, [ip, #32]
    92c8:	e15c0003 	cmp	ip, r3
    92cc:	e24bc03c 	sub	ip, fp, #60	; 0x3c
    92d0:	e50bc064 	str	ip, [fp, #-100]	; 0xffffff9c
    92d4:	e50b303c 	str	r3, [fp, #-60]	; 0xffffffc4
    92d8:	e50b3038 	str	r3, [fp, #-56]	; 0xffffffc8
    92dc:	e50b3034 	str	r3, [fp, #-52]	; 0xffffffcc
    92e0:	e50b3030 	str	r3, [fp, #-48]	; 0xffffffd0
    92e4:	ba00014e 	blt	9824 <tty_render_glyph_cache+0x590>
    92e8:	ebffe7d1 	bl	3234 <tty_add_simple_glyph_points_to_zone1>
    92ec:	e50b0054 	str	r0, [fp, #-84]	; 0xffffffac
    92f0:	e51b3054 	ldr	r3, [fp, #-84]	; 0xffffffac
    92f4:	e3530000 	cmp	r3, #0
    92f8:	13a03000 	movne	r3, #0
    92fc:	150b3050 	strne	r3, [fp, #-80]	; 0xffffffb0
    9300:	0a00000b 	beq	9334 <tty_render_glyph_cache+0xa0>
    9304:	e51b3058 	ldr	r3, [fp, #-88]	; 0xffffffa8
    9308:	e5d3305c 	ldrb	r3, [r3, #92]	; 0x5c
    930c:	e3530000 	cmp	r3, #0
    9310:	1a0003cd 	bne	a24c <tty_render_glyph_cache+0xfb8>
    9314:	e51b0050 	ldr	r0, [fp, #-80]	; 0xffffffb0
    9318:	eb002189 	bl	11944 <free>
    931c:	e3a03001 	mov	r3, #1
    9320:	e50b3054 	str	r3, [fp, #-84]	; 0xffffffac
    9324:	e51b0054 	ldr	r0, [fp, #-84]	; 0xffffffac
    9328:	e24bd028 	sub	sp, fp, #40	; 0x28
    932c:	e89d6ff0 	ldm	sp, {r4, r5, r6, r7, r8, r9, sl, fp, sp, lr}
    9330:	e12fff1e 	bx	lr
    9334:	e5990090 	ldr	r0, [r9, #144]	; 0x90
    9338:	e0800080 	add	r0, r0, r0, lsl #1
    933c:	e1a00180 	lsl	r0, r0, #3
    9340:	eb002188 	bl	11968 <malloc>
    9344:	e2503000 	subs	r3, r0, #0
    9348:	e50b3050 	str	r3, [fp, #-80]	; 0xffffffb0
    934c:	0affffec 	beq	9304 <tty_render_glyph_cache+0x70>
    9350:	e1d939b8 	ldrh	r3, [r9, #152]	; 0x98
    9354:	e3530000 	cmp	r3, #0
    9358:	0a0003c5 	beq	a274 <tty_render_glyph_cache+0xfe0>
    935c:	e51b2054 	ldr	r2, [fp, #-84]	; 0xffffffac
    9360:	e1a0a002 	mov	sl, r2
    9364:	e5991088 	ldr	r1, [r9, #136]	; 0x88
    9368:	e2411002 	sub	r1, r1, #2
    936c:	e0813083 	add	r3, r1, r3, lsl #1
    9370:	e50b1048 	str	r1, [fp, #-72]	; 0xffffffb8
    9374:	e50b305c 	str	r3, [fp, #-92]	; 0xffffffa4
    9378:	e599807c 	ldr	r8, [r9, #124]	; 0x7c
    937c:	e50b9060 	str	r9, [fp, #-96]	; 0xffffffa0
    9380:	e51b3048 	ldr	r3, [fp, #-72]	; 0xffffffb8
    9384:	e1f360b2 	ldrh	r6, [r3, #2]!
    9388:	e282c001 	add	ip, r2, #1
    938c:	e156000c 	cmp	r6, ip
    9390:	e50b3048 	str	r3, [fp, #-72]	; 0xffffffb8
    9394:	e0889182 	add	r9, r8, r2, lsl #3
    9398:	3a0000ce 	bcc	96d8 <tty_render_glyph_cache+0x444>
    939c:	e3a03001 	mov	r3, #1
    93a0:	e51b1050 	ldr	r1, [fp, #-80]	; 0xffffffb0
    93a4:	e50b3044 	str	r3, [fp, #-68]	; 0xffffffbc
    93a8:	e08a331a 	add	r3, sl, sl, lsl r3
    93ac:	e0813183 	add	r3, r1, r3, lsl #3
    93b0:	e51b1060 	ldr	r1, [fp, #-96]	; 0xffffffa0
    93b4:	e5917080 	ldr	r7, [r1, #128]	; 0x80
    93b8:	e2861001 	add	r1, r6, #1
    93bc:	e1a02009 	mov	r2, r9
    93c0:	e50b1040 	str	r1, [fp, #-64]	; 0xffffffc0
    93c4:	ea000005 	b	93e0 <tty_render_glyph_cache+0x14c>
    93c8:	e8820003 	stm	r2, {r0, r1}
    93cc:	e28cc001 	add	ip, ip, #1
    93d0:	e156000c 	cmp	r6, ip
    93d4:	e28aa001 	add	sl, sl, #1
    93d8:	e2833018 	add	r3, r3, #24
    93dc:	3a00001b 	bcc	9450 <tty_render_glyph_cache+0x1bc>
    93e0:	e8920003 	ldm	r2, {r0, r1}
    93e4:	e8830003 	stm	r3, {r0, r1}
    93e8:	e7d7100c 	ldrb	r1, [r7, ip]
    93ec:	e088e18c 	add	lr, r8, ip, lsl #3
    93f0:	e3510000 	cmp	r1, #0
    93f4:	e89e0003 	ldm	lr, {r0, r1}
    93f8:	e2834008 	add	r4, r3, #8
    93fc:	e8840003 	stm	r4, {r0, r1}
    9400:	e2832010 	add	r2, r3, #16
    9404:	e1a0518c 	lsl	r5, ip, #3
    9408:	0affffee 	beq	93c8 <tty_render_glyph_cache+0x134>
    940c:	e156000c 	cmp	r6, ip
    9410:	e28c1001 	add	r1, ip, #1
    9414:	0a00008b 	beq	9648 <tty_render_glyph_cache+0x3b4>
    9418:	e7d70001 	ldrb	r0, [r7, r1]
    941c:	e2855008 	add	r5, r5, #8
    9420:	e3500000 	cmp	r0, #0
    9424:	e28ee008 	add	lr, lr, #8
    9428:	e2832010 	add	r2, r3, #16
    942c:	e28cc002 	add	ip, ip, #2
    9430:	e0884005 	add	r4, r8, r5
    9434:	1a00008a 	bne	9664 <tty_render_glyph_cache+0x3d0>
    9438:	e89e0003 	ldm	lr, {r0, r1}
    943c:	e156000c 	cmp	r6, ip
    9440:	e8820003 	stm	r2, {r0, r1}
    9444:	e28aa001 	add	sl, sl, #1
    9448:	e2833018 	add	r3, r3, #24
    944c:	2affffe3 	bcs	93e0 <tty_render_glyph_cache+0x14c>
    9450:	e51b3044 	ldr	r3, [fp, #-68]	; 0xffffffbc
    9454:	e3530000 	cmp	r3, #0
    9458:	1a0000a1 	bne	96e4 <tty_render_glyph_cache+0x450>
    945c:	e51b205c 	ldr	r2, [fp, #-92]	; 0xffffffa4
    9460:	e51b3048 	ldr	r3, [fp, #-72]	; 0xffffffb8
    9464:	e1530002 	cmp	r3, r2
    9468:	e51b2040 	ldr	r2, [fp, #-64]	; 0xffffffc0
    946c:	1affffc3 	bne	9380 <tty_render_glyph_cache+0xec>
    9470:	e3a04000 	mov	r4, #0
    9474:	e51b9060 	ldr	r9, [fp, #-96]	; 0xffffffa0
    9478:	e5990144 	ldr	r0, [r9, #324]	; 0x144
    947c:	e50b0038 	str	r0, [fp, #-56]	; 0xffffffc8
    9480:	e0800180 	add	r0, r0, r0, lsl #3
    9484:	e1a00100 	lsl	r0, r0, #2
    9488:	e50b4034 	str	r4, [fp, #-52]	; 0xffffffcc
    948c:	eb002135 	bl	11968 <malloc>
    9490:	e1500004 	cmp	r0, r4
    9494:	e50b003c 	str	r0, [fp, #-60]	; 0xffffffc4
    9498:	0affff99 	beq	9304 <tty_render_glyph_cache+0x70>
    949c:	e15a0004 	cmp	sl, r4
    94a0:	0a0000f5 	beq	987c <tty_render_glyph_cache+0x5e8>
    94a4:	e28d3004 	add	r3, sp, #4
    94a8:	e50b4040 	str	r4, [fp, #-64]	; 0xffffffc0
    94ac:	e50b3044 	str	r3, [fp, #-68]	; 0xffffffbc
    94b0:	e51b4050 	ldr	r4, [fp, #-80]	; 0xffffffb0
    94b4:	e50b9048 	str	r9, [fp, #-72]	; 0xffffffb8
    94b8:	ea000010 	b	9500 <tty_render_glyph_cache+0x26c>
    94bc:	e2843010 	add	r3, r4, #16
    94c0:	e8930003 	ldm	r3, {r0, r1}
    94c4:	e51b3044 	ldr	r3, [fp, #-68]	; 0xffffffbc
    94c8:	e8830003 	stm	r3, {r0, r1}
    94cc:	e594300c 	ldr	r3, [r4, #12]
    94d0:	e58d3000 	str	r3, [sp]
    94d4:	e51b0064 	ldr	r0, [fp, #-100]	; 0xffffff9c
    94d8:	e894000e 	ldm	r4, {r1, r2, r3}
    94dc:	ebffed34 	bl	49b4 <tty_subdivide_curve_into_edges>
    94e0:	e3500000 	cmp	r0, #0
    94e4:	1a00036d 	bne	a2a0 <tty_render_glyph_cache+0x100c>
    94e8:	e51b3040 	ldr	r3, [fp, #-64]	; 0xffffffc0
    94ec:	e2833001 	add	r3, r3, #1
    94f0:	e153000a 	cmp	r3, sl
    94f4:	e50b3040 	str	r3, [fp, #-64]	; 0xffffffc0
    94f8:	e2844018 	add	r4, r4, #24
    94fc:	0a0000dd 	beq	9878 <tty_render_glyph_cache+0x5e4>
    9500:	e5945010 	ldr	r5, [r4, #16]
    9504:	e5943008 	ldr	r3, [r4, #8]
    9508:	e1530005 	cmp	r3, r5
    950c:	1affffea 	bne	94bc <tty_render_glyph_cache+0x228>
    9510:	e5947014 	ldr	r7, [r4, #20]
    9514:	e594300c 	ldr	r3, [r4, #12]
    9518:	e1530007 	cmp	r3, r7
    951c:	1affffe6 	bne	94bc <tty_render_glyph_cache+0x228>
    9520:	e5949004 	ldr	r9, [r4, #4]
    9524:	e1570009 	cmp	r7, r9
    9528:	0affffee 	beq	94e8 <tty_render_glyph_cache+0x254>
    952c:	e51b3034 	ldr	r3, [fp, #-52]	; 0xffffffcc
    9530:	e51b603c 	ldr	r6, [fp, #-60]	; 0xffffffc4
    9534:	e5948000 	ldr	r8, [r4]
    9538:	e50b305c 	str	r3, [fp, #-92]	; 0xffffffa4
    953c:	e0833183 	add	r3, r3, r3, lsl #3
    9540:	e7868103 	str	r8, [r6, r3, lsl #2]
    9544:	e1550008 	cmp	r5, r8
    9548:	e0866103 	add	r6, r6, r3, lsl #2
    954c:	e5869004 	str	r9, [r6, #4]
    9550:	e5865008 	str	r5, [r6, #8]
    9554:	e586700c 	str	r7, [r6, #12]
    9558:	0a000340 	beq	a260 <tty_render_glyph_cache+0xfcc>
    955c:	e0452008 	sub	r2, r5, r8
    9560:	e0470009 	sub	r0, r7, r9
    9564:	e1a03fa2 	lsr	r3, r2, #31
    9568:	e1530fa0 	cmp	r3, r0, lsr #31
    956c:	e1a010c0 	asr	r1, r0, #1
    9570:	e1a0ef80 	lsl	lr, r0, #31
    9574:	e1a03fc2 	asr	r3, r2, #31
    9578:	e1a00fa2 	lsr	r0, r2, #31
    957c:	0a000375 	beq	a358 <tty_render_glyph_cache+0x10c4>
    9580:	e0900002 	adds	r0, r0, r2
    9584:	e2a3c000 	adc	ip, r3, #0
    9588:	e1a000a0 	lsr	r0, r0, #1
    958c:	e1800f8c 	orr	r0, r0, ip, lsl #31
    9590:	e2700000 	rsbs	r0, r0, #0
    9594:	e1a0c0cc 	asr	ip, ip, #1
    9598:	e2ecc000 	rsc	ip, ip, #0
    959c:	e090000e 	adds	r0, r0, lr
    95a0:	e0a1100c 	adc	r1, r1, ip
    95a4:	eb001ddd 	bl	10d20 <__aeabi_ldivmod>
    95a8:	e1a03000 	mov	r3, r0
    95ac:	e1a02001 	mov	r2, r1
    95b0:	e2933901 	adds	r3, r3, #16384	; 0x4000
    95b4:	e2a21000 	adc	r1, r2, #0
    95b8:	e1a027a3 	lsr	r2, r3, #15
    95bc:	e1822881 	orr	r2, r2, r1, lsl #17
    95c0:	e1923fc2 	orrs	r3, r2, r2, asr #31
    95c4:	e1a03fc2 	asr	r3, r2, #31
    95c8:	0a000324 	beq	a260 <tty_render_glyph_cache+0xfcc>
    95cc:	e3530000 	cmp	r3, #0
    95d0:	aa00035c 	bge	a348 <tty_render_glyph_cache+0x10b4>
    95d4:	e1a01fa3 	lsr	r1, r3, #31
    95d8:	e0911002 	adds	r1, r1, r2
    95dc:	e2a3c000 	adc	ip, r3, #0
    95e0:	e1a010a1 	lsr	r1, r1, #1
    95e4:	e1811f8c 	orr	r1, r1, ip, lsl #31
    95e8:	e2710000 	rsbs	r0, r1, #0
    95ec:	e1a010cc 	asr	r1, ip, #1
    95f0:	e2e11902 	rsc	r1, r1, #32768	; 0x8000
    95f4:	eb001dc9 	bl	10d20 <__aeabi_ldivmod>
    95f8:	e2900901 	adds	r0, r0, #16384	; 0x4000
    95fc:	e2a13000 	adc	r3, r1, #0
    9600:	e1a007a0 	lsr	r0, r0, #15
    9604:	e1803883 	orr	r3, r0, r3, lsl #17
    9608:	e1550008 	cmp	r5, r8
    960c:	a1a05008 	movge	r5, r8
    9610:	e1570009 	cmp	r7, r9
    9614:	e586301c 	str	r3, [r6, #28]
    9618:	ca00033a 	bgt	a308 <tty_render_glyph_cache+0x1074>
    961c:	e3e03000 	mvn	r3, #0
    9620:	e1570009 	cmp	r7, r9
    9624:	e5865018 	str	r5, [r6, #24]
    9628:	e5c63020 	strb	r3, [r6, #32]
    962c:	aa000338 	bge	a314 <tty_render_glyph_cache+0x1080>
    9630:	e5869014 	str	r9, [r6, #20]
    9634:	e5867010 	str	r7, [r6, #16]
    9638:	e51b305c 	ldr	r3, [fp, #-92]	; 0xffffffa4
    963c:	e2833001 	add	r3, r3, #1
    9640:	e50b3034 	str	r3, [fp, #-52]	; 0xffffffcc
    9644:	eaffffa7 	b	94e8 <tty_render_glyph_cache+0x254>
    9648:	e8990003 	ldm	r9, {r0, r1}
    964c:	e2832010 	add	r2, r3, #16
    9650:	e8820003 	stm	r2, {r0, r1}
    9654:	e3a01000 	mov	r1, #0
    9658:	e51bc040 	ldr	ip, [fp, #-64]	; 0xffffffc0
    965c:	e50b1044 	str	r1, [fp, #-68]	; 0xffffffbc
    9660:	eaffff5a 	b	93d0 <tty_render_glyph_cache+0x13c>
    9664:	e5944004 	ldr	r4, [r4, #4]
    9668:	e1a0c001 	mov	ip, r1
    966c:	e593100c 	ldr	r1, [r3, #12]
    9670:	e0411004 	sub	r1, r1, r4
    9674:	e291e001 	adds	lr, r1, #1
    9678:	e1a01fc1 	asr	r1, r1, #31
    967c:	e2a11000 	adc	r1, r1, #0
    9680:	e7980005 	ldr	r0, [r8, r5]
    9684:	e5932008 	ldr	r2, [r3, #8]
    9688:	e1a01281 	lsl	r1, r1, #5
    968c:	e1811dae 	orr	r1, r1, lr, lsr #27
    9690:	e1a0e28e 	lsl	lr, lr, #5
    9694:	e0422000 	sub	r2, r2, r0
    9698:	e1a0e32e 	lsr	lr, lr, #6
    969c:	e18eed01 	orr	lr, lr, r1, lsl #26
    96a0:	e2921001 	adds	r1, r2, #1
    96a4:	e1a02fc2 	asr	r2, r2, #31
    96a8:	e2a22000 	adc	r2, r2, #0
    96ac:	e1a02282 	lsl	r2, r2, #5
    96b0:	e1822da1 	orr	r2, r2, r1, lsr #27
    96b4:	e1a01281 	lsl	r1, r1, #5
    96b8:	e1a01321 	lsr	r1, r1, #6
    96bc:	e1811d02 	orr	r1, r1, r2, lsl #26
    96c0:	e084e00e 	add	lr, r4, lr
    96c4:	e0801001 	add	r1, r0, r1
    96c8:	e583e014 	str	lr, [r3, #20]
    96cc:	e5831010 	str	r1, [r3, #16]
    96d0:	e2832010 	add	r2, r3, #16
    96d4:	eaffff3d 	b	93d0 <tty_render_glyph_cache+0x13c>
    96d8:	e1a02009 	mov	r2, r9
    96dc:	e2863001 	add	r3, r6, #1
    96e0:	e50b3040 	str	r3, [fp, #-64]	; 0xffffffc0
    96e4:	e8920003 	ldm	r2, {r0, r1}
    96e8:	e51b2050 	ldr	r2, [fp, #-80]	; 0xffffffb0
    96ec:	e08a308a 	add	r3, sl, sl, lsl #1
    96f0:	e0823183 	add	r3, r2, r3, lsl #3
    96f4:	e8830003 	stm	r3, {r0, r1}
    96f8:	e8990003 	ldm	r9, {r0, r1}
    96fc:	e2832008 	add	r2, r3, #8
    9700:	e2833010 	add	r3, r3, #16
    9704:	e8820003 	stm	r2, {r0, r1}
    9708:	e28aa001 	add	sl, sl, #1
    970c:	e8830003 	stm	r3, {r0, r1}
    9710:	eaffff51 	b	945c <tty_render_glyph_cache+0x1c8>
    9714:	e590c09c 	ldr	ip, [r0, #156]	; 0x9c
    9718:	e59000e0 	ldr	r0, [r0, #224]	; 0xe0
    971c:	e08c0000 	add	r0, ip, r0
    9720:	e592e004 	ldr	lr, [r2, #4]
    9724:	e5912058 	ldr	r2, [r1, #88]	; 0x58
    9728:	e5d01022 	ldrb	r1, [r0, #34]	; 0x22
    972c:	e5d00023 	ldrb	r0, [r0, #35]	; 0x23
    9730:	e1810400 	orr	r0, r1, r0, lsl #8
    9734:	e1a01420 	lsr	r1, r0, #8
    9738:	e1811400 	orr	r1, r1, r0, lsl #8
    973c:	e1a01801 	lsl	r1, r1, #16
    9740:	e1a01821 	lsr	r1, r1, #16
    9744:	e15e0001 	cmp	lr, r1
    9748:	21a01fc2 	asrcs	r1, r2, #31
    974c:	2a000014 	bcs	97a4 <tty_render_glyph_cache+0x510>
    9750:	e3a00602 	mov	r0, #2097152	; 0x200000
    9754:	e59940ec 	ldr	r4, [r9, #236]	; 0xec
    9758:	e08ce10e 	add	lr, ip, lr, lsl #2
    975c:	e08e5004 	add	r5, lr, r4
    9760:	e7dee004 	ldrb	lr, [lr, r4]
    9764:	e5d54001 	ldrb	r4, [r5, #1]
    9768:	e18e4404 	orr	r4, lr, r4, lsl #8
    976c:	e1a0e424 	lsr	lr, r4, #8
    9770:	e18ee404 	orr	lr, lr, r4, lsl #8
    9774:	e1a0e80e 	lsl	lr, lr, #16
    9778:	e1a0e82e 	lsr	lr, lr, #16
    977c:	e1a0e30e 	lsl	lr, lr, #6
    9780:	e0e3029e 	smlal	r0, r3, lr, r2
    9784:	e1a00b20 	lsr	r0, r0, #22
    9788:	e1800503 	orr	r0, r0, r3, lsl #10
    978c:	e1a03080 	lsl	r3, r0, #1
    9790:	e2033040 	and	r3, r3, #64	; 0x40
    9794:	e3c0003f 	bic	r0, r0, #63	; 0x3f
    9798:	e0833000 	add	r3, r3, r0
    979c:	e1a01fc2 	asr	r1, r2, #31
    97a0:	e1a03343 	asr	r3, r3, #6
    97a4:	e51b004c 	ldr	r0, [fp, #-76]	; 0xffffffb4
    97a8:	e5803008 	str	r3, [r0, #8]
    97ac:	e5d93118 	ldrb	r3, [r9, #280]	; 0x118
    97b0:	e3530000 	cmp	r3, #0
    97b4:	1a00001d 	bne	9830 <tty_render_glyph_cache+0x59c>
    97b8:	e2893f52 	add	r3, r9, #328	; 0x148
    97bc:	e2890f53 	add	r0, r9, #332	; 0x14c
    97c0:	e1d330f2 	ldrsh	r3, [r3, #2]
    97c4:	e1d000f0 	ldrsh	r0, [r0]
    97c8:	e0433000 	sub	r3, r3, r0
    97cc:	e1a00303 	lsl	r0, r3, #6
    97d0:	e0010190 	mul	r1, r0, r1
    97d4:	e1a03fc3 	asr	r3, r3, #31
    97d8:	e0211392 	mla	r1, r2, r3, r1
    97dc:	e08c3290 	umull	r3, ip, r0, r2
    97e0:	e3a02000 	mov	r2, #0
    97e4:	e2933602 	adds	r3, r3, #2097152	; 0x200000
    97e8:	e50b2054 	str	r2, [fp, #-84]	; 0xffffffac
    97ec:	e1a03b23 	lsr	r3, r3, #22
    97f0:	e0a1200c 	adc	r2, r1, ip
    97f4:	e1833502 	orr	r3, r3, r2, lsl #10
    97f8:	e1a02083 	lsl	r2, r3, #1
    97fc:	e2022040 	and	r2, r2, #64	; 0x40
    9800:	e3c3303f 	bic	r3, r3, #63	; 0x3f
    9804:	e51b0054 	ldr	r0, [fp, #-84]	; 0xffffffac
    9808:	e0823003 	add	r3, r2, r3
    980c:	e51b204c 	ldr	r2, [fp, #-76]	; 0xffffffb4
    9810:	e1a03343 	asr	r3, r3, #6
    9814:	e582300c 	str	r3, [r2, #12]
    9818:	e24bd028 	sub	sp, fp, #40	; 0x28
    981c:	e89d6ff0 	ldm	sp, {r4, r5, r6, r7, r8, r9, sl, fp, sp, lr}
    9820:	e12fff1e 	bx	lr
    9824:	ebfffd0d 	bl	8c60 <tty_add_composite_glyph_points_to_zone1>
    9828:	e50b0054 	str	r0, [fp, #-84]	; 0xffffffac
    982c:	eafffeaf 	b	92f0 <tty_render_glyph_cache+0x5c>
    9830:	e5993110 	ldr	r3, [r9, #272]	; 0x110
    9834:	e08cc003 	add	ip, ip, r3
    9838:	e5dc3044 	ldrb	r3, [ip, #68]	; 0x44
    983c:	e5dc0045 	ldrb	r0, [ip, #69]	; 0x45
    9840:	e1830400 	orr	r0, r3, r0, lsl #8
    9844:	e1a03420 	lsr	r3, r0, #8
    9848:	e1833400 	orr	r3, r3, r0, lsl #8
    984c:	e5dc0046 	ldrb	r0, [ip, #70]	; 0x46
    9850:	e5dcc047 	ldrb	ip, [ip, #71]	; 0x47
    9854:	e180c40c 	orr	ip, r0, ip, lsl #8
    9858:	e1a0042c 	lsr	r0, ip, #8
    985c:	e180040c 	orr	r0, r0, ip, lsl #8
    9860:	e1a03803 	lsl	r3, r3, #16
    9864:	e1a00800 	lsl	r0, r0, #16
    9868:	e1a03843 	asr	r3, r3, #16
    986c:	e1a00840 	asr	r0, r0, #16
    9870:	e0433000 	sub	r3, r3, r0
    9874:	eaffffd4 	b	97cc <tty_render_glyph_cache+0x538>
    9878:	e51b9048 	ldr	r9, [fp, #-72]	; 0xffffffb8
    987c:	e51b3058 	ldr	r3, [fp, #-88]	; 0xffffffa8
    9880:	e5d3305c 	ldrb	r3, [r3, #92]	; 0x5c
    9884:	e3530000 	cmp	r3, #0
    9888:	1a0002a4 	bne	a320 <tty_render_glyph_cache+0x108c>
    988c:	e51b0050 	ldr	r0, [fp, #-80]	; 0xffffffb0
    9890:	eb00202b 	bl	11944 <free>
    9894:	e59f3ae4 	ldr	r3, [pc, #2788]	; a380 <tty_render_glyph_cache+0x10ec>
    9898:	e3a02024 	mov	r2, #36	; 0x24
    989c:	e08f3003 	add	r3, pc, r3
    98a0:	e51b1034 	ldr	r1, [fp, #-52]	; 0xffffffcc
    98a4:	e51b003c 	ldr	r0, [fp, #-60]	; 0xffffffc4
    98a8:	eb00314b 	bl	15ddc <qsort>
    98ac:	e51b3034 	ldr	r3, [fp, #-52]	; 0xffffffcc
    98b0:	e5992144 	ldr	r2, [r9, #324]	; 0x144
    98b4:	e599e090 	ldr	lr, [r9, #144]	; 0x90
    98b8:	e1530002 	cmp	r3, r2
    98bc:	e599c07c 	ldr	ip, [r9, #124]	; 0x7c
    98c0:	85893144 	strhi	r3, [r9, #324]	; 0x144
    98c4:	e35e0001 	cmp	lr, #1
    98c8:	e89c0028 	ldm	ip, {r3, r5}
    98cc:	9a000265 	bls	a268 <tty_render_glyph_cache+0xfd4>
    98d0:	e1a0000c 	mov	r0, ip
    98d4:	e1a01005 	mov	r1, r5
    98d8:	e1a02003 	mov	r2, r3
    98dc:	e08c618e 	add	r6, ip, lr, lsl #3
    98e0:	e2466008 	sub	r6, r6, #8
    98e4:	e5904008 	ldr	r4, [r0, #8]
    98e8:	e1520004 	cmp	r2, r4
    98ec:	c1a02004 	movgt	r2, r4
    98f0:	ca000001 	bgt	98fc <tty_render_glyph_cache+0x668>
    98f4:	e1530004 	cmp	r3, r4
    98f8:	b1a03004 	movlt	r3, r4
    98fc:	e590400c 	ldr	r4, [r0, #12]
    9900:	e1540001 	cmp	r4, r1
    9904:	b1a01004 	movlt	r1, r4
    9908:	ba000001 	blt	9914 <tty_render_glyph_cache+0x680>
    990c:	e1550004 	cmp	r5, r4
    9910:	b1a05004 	movlt	r5, r4
    9914:	e2800008 	add	r0, r0, #8
    9918:	e1500006 	cmp	r0, r6
    991c:	1afffff0 	bne	98e4 <tty_render_glyph_cache+0x650>
    9920:	e51b4058 	ldr	r4, [fp, #-88]	; 0xffffffa8
    9924:	e5d4005c 	ldrb	r0, [r4, #92]	; 0x5c
    9928:	e3500000 	cmp	r0, #0
    992c:	e5948058 	ldr	r8, [r4, #88]	; 0x58
    9930:	0a0001ba 	beq	a020 <tty_render_glyph_cache+0xd8c>
    9934:	e5d90130 	ldrb	r0, [r9, #304]	; 0x130
    9938:	e3500000 	cmp	r0, #0
    993c:	e08c418e 	add	r4, ip, lr, lsl #3
    9940:	0a000132 	beq	9e10 <tty_render_glyph_cache+0xb7c>
    9944:	e594001c 	ldr	r0, [r4, #28]
    9948:	e5946014 	ldr	r6, [r4, #20]
    994c:	e1560000 	cmp	r6, r0
    9950:	d3a00000 	movle	r0, #0
    9954:	c0466000 	subgt	r6, r6, r0
    9958:	ca00013a 	bgt	9e48 <tty_render_glyph_cache+0xbb4>
    995c:	e79ce18e 	ldr	lr, [ip, lr, lsl #3]
    9960:	e594c008 	ldr	ip, [r4, #8]
    9964:	e51b404c 	ldr	r4, [fp, #-76]	; 0xffffffb4
    9968:	e04cc00e 	sub	ip, ip, lr
    996c:	e584000c 	str	r0, [r4, #12]
    9970:	e1a0008c 	lsl	r0, ip, #1
    9974:	e2000040 	and	r0, r0, #64	; 0x40
    9978:	e3ccc03f 	bic	ip, ip, #63	; 0x3f
    997c:	e080000c 	add	r0, r0, ip
    9980:	e1a00340 	asr	r0, r0, #6
    9984:	e213a03f 	ands	sl, r3, #63	; 0x3f
    9988:	e5840008 	str	r0, [r4, #8]
    998c:	01a00003 	moveq	r0, r3
    9990:	13c3003f 	bicne	r0, r3, #63	; 0x3f
    9994:	12800040 	addne	r0, r0, #64	; 0x40
    9998:	e3c2c03f 	bic	ip, r2, #63	; 0x3f
    999c:	e51be04c 	ldr	lr, [fp, #-76]	; 0xffffffb4
    99a0:	e040000c 	sub	r0, r0, ip
    99a4:	e1a00340 	asr	r0, r0, #6
    99a8:	e58e0018 	str	r0, [lr, #24]
    99ac:	e215003f 	ands	r0, r5, #63	; 0x3f
    99b0:	e50b0044 	str	r0, [fp, #-68]	; 0xffffffbc
    99b4:	01a00005 	moveq	r0, r5
    99b8:	13c5003f 	bicne	r0, r5, #63	; 0x3f
    99bc:	12800040 	addne	r0, r0, #64	; 0x40
    99c0:	e3c1103f 	bic	r1, r1, #63	; 0x3f
    99c4:	e51be04c 	ldr	lr, [fp, #-76]	; 0xffffffb4
    99c8:	e50b105c 	str	r1, [fp, #-92]	; 0xffffffa4
    99cc:	e0401001 	sub	r1, r0, r1
    99d0:	e1a0c34c 	asr	ip, ip, #6
    99d4:	e1a01341 	asr	r1, r1, #6
    99d8:	e1a00340 	asr	r0, r0, #6
    99dc:	e58ec010 	str	ip, [lr, #16]
    99e0:	e58e101c 	str	r1, [lr, #28]
    99e4:	e58e0014 	str	r0, [lr, #20]
    99e8:	e3520000 	cmp	r2, #0
    99ec:	a3a02000 	movge	r2, #0
    99f0:	a50b2040 	strge	r2, [fp, #-64]	; 0xffffffc0
    99f4:	aa000007 	bge	9a18 <tty_render_glyph_cache+0x784>
    99f8:	e2622000 	rsb	r2, r2, #0
    99fc:	e50b2040 	str	r2, [fp, #-64]	; 0xffffffc0
    9a00:	e312003f 	tst	r2, #63	; 0x3f
    9a04:	151b2040 	ldrne	r2, [fp, #-64]	; 0xffffffc0
    9a08:	13c2203f 	bicne	r2, r2, #63	; 0x3f
    9a0c:	12822040 	addne	r2, r2, #64	; 0x40
    9a10:	150b2040 	strne	r2, [fp, #-64]	; 0xffffffc0
    9a14:	e1a02342 	asr	r2, r2, #6
    9a18:	e35a0000 	cmp	sl, #0
    9a1c:	13c3403f 	bicne	r4, r3, #63	; 0x3f
    9a20:	12843040 	addne	r3, r4, #64	; 0x40
    9a24:	e0824343 	add	r4, r2, r3, asr #6
    9a28:	e3a01004 	mov	r1, #4
    9a2c:	e1a00004 	mov	r0, r4
    9a30:	eb001fa5 	bl	118cc <calloc>
    9a34:	e250a000 	subs	sl, r0, #0
    9a38:	0a00021a 	beq	a2a8 <tty_render_glyph_cache+0x1014>
    9a3c:	e3a01080 	mov	r1, #128	; 0x80
    9a40:	e3a00001 	mov	r0, #1
    9a44:	eb001fa0 	bl	118cc <calloc>
    9a48:	e2503000 	subs	r3, r0, #0
    9a4c:	e50b3048 	str	r3, [fp, #-72]	; 0xffffffb8
    9a50:	0a0001b5 	beq	a12c <tty_render_glyph_cache+0xe98>
    9a54:	e51b0058 	ldr	r0, [fp, #-88]	; 0xffffffa8
    9a58:	e51b3044 	ldr	r3, [fp, #-68]	; 0xffffffbc
    9a5c:	e3530000 	cmp	r3, #0
    9a60:	e5903054 	ldr	r3, [r0, #84]	; 0x54
    9a64:	13c5503f 	bicne	r5, r5, #63	; 0x3f
    9a68:	12855040 	addne	r5, r5, #64	; 0x40
    9a6c:	e3530000 	cmp	r3, #0
    9a70:	e2832003 	add	r2, r3, #3
    9a74:	a1a02003 	movge	r2, r3
    9a78:	e51b604c 	ldr	r6, [fp, #-76]	; 0xffffffb4
    9a7c:	e5961014 	ldr	r1, [r6, #20]
    9a80:	e0431001 	sub	r1, r3, r1
    9a84:	e0412142 	sub	r2, r1, r2, asr #2
    9a88:	e5901050 	ldr	r1, [r0, #80]	; 0x50
    9a8c:	e3a00001 	mov	r0, #1
    9a90:	e0010193 	mul	r1, r3, r1
    9a94:	e50b2060 	str	r2, [fp, #-96]	; 0xffffffa0
    9a98:	eb001f8b 	bl	118cc <calloc>
    9a9c:	e51b305c 	ldr	r3, [fp, #-92]	; 0xffffffa4
    9aa0:	e1530005 	cmp	r3, r5
    9aa4:	e5860024 	str	r0, [r6, #36]	; 0x24
    9aa8:	ca000107 	bgt	9ecc <tty_render_glyph_cache+0xc38>
    9aac:	e3a06000 	mov	r6, #0
    9ab0:	e1a03104 	lsl	r3, r4, #2
    9ab4:	e1a04006 	mov	r4, r6
    9ab8:	e50b3064 	str	r3, [fp, #-100]	; 0xffffff9c
    9abc:	e3540000 	cmp	r4, #0
    9ac0:	0a000150 	beq	a008 <tty_render_glyph_cache+0xd74>
    9ac4:	e3a0e000 	mov	lr, #0
    9ac8:	e50ba050 	str	sl, [fp, #-80]	; 0xffffffb0
    9acc:	e3a08902 	mov	r8, #32768	; 0x8000
    9ad0:	e1a0c00e 	mov	ip, lr
    9ad4:	e50b4044 	str	r4, [fp, #-68]	; 0xffffffbc
    9ad8:	e51ba040 	ldr	sl, [fp, #-64]	; 0xffffffc0
    9adc:	ea00000a 	b	9b0c <tty_render_glyph_cache+0x878>
    9ae0:	e35e0000 	cmp	lr, #0
    9ae4:	051b2044 	ldreq	r2, [fp, #-68]	; 0xffffffbc
    9ae8:	05922008 	ldreq	r2, [r2, #8]
    9aec:	158e4008 	strne	r4, [lr, #8]
    9af0:	050b2044 	streq	r2, [fp, #-68]	; 0xffffffbc
    9af4:	e3540000 	cmp	r4, #0
    9af8:	e5836008 	str	r6, [r3, #8]
    9afc:	e583c000 	str	ip, [r3]
    9b00:	e1a06003 	mov	r6, r3
    9b04:	e583c004 	str	ip, [r3, #4]
    9b08:	0a000014 	beq	9b60 <tty_render_glyph_cache+0x8cc>
    9b0c:	e1a03004 	mov	r3, r4
    9b10:	e5932000 	ldr	r2, [r3]
    9b14:	e5921010 	ldr	r1, [r2, #16]
    9b18:	e1550001 	cmp	r5, r1
    9b1c:	e5944008 	ldr	r4, [r4, #8]
    9b20:	daffffee 	ble	9ae0 <tty_render_glyph_cache+0x84c>
    9b24:	e1a01008 	mov	r1, r8
    9b28:	e1a0900c 	mov	r9, ip
    9b2c:	e5920004 	ldr	r0, [r2, #4]
    9b30:	e592701c 	ldr	r7, [r2, #28]
    9b34:	e0450000 	sub	r0, r5, r0
    9b38:	e0e91790 	smlal	r1, r9, r0, r7
    9b3c:	e5922000 	ldr	r2, [r2]
    9b40:	e1a01821 	lsr	r1, r1, #16
    9b44:	e1811809 	orr	r1, r1, r9, lsl #16
    9b48:	e0822001 	add	r2, r2, r1
    9b4c:	e082200a 	add	r2, r2, sl
    9b50:	e3540000 	cmp	r4, #0
    9b54:	e1a0e003 	mov	lr, r3
    9b58:	e5832004 	str	r2, [r3, #4]
    9b5c:	1affffea 	bne	9b0c <tty_render_glyph_cache+0x878>
    9b60:	e51b7044 	ldr	r7, [fp, #-68]	; 0xffffffbc
    9b64:	e3570000 	cmp	r7, #0
    9b68:	11a02007 	movne	r2, r7
    9b6c:	e51ba050 	ldr	sl, [fp, #-80]	; 0xffffffb0
    9b70:	0a0001ef 	beq	a334 <tty_render_glyph_cache+0x10a0>
    9b74:	e5923008 	ldr	r3, [r2, #8]
    9b78:	e3530000 	cmp	r3, #0
    9b7c:	0a000013 	beq	9bd0 <tty_render_glyph_cache+0x93c>
    9b80:	e5920004 	ldr	r0, [r2, #4]
    9b84:	e5931004 	ldr	r1, [r3, #4]
    9b88:	e1500001 	cmp	r0, r1
    9b8c:	ca000006 	bgt	9bac <tty_render_glyph_cache+0x918>
    9b90:	1a0000b2 	bne	9e60 <tty_render_glyph_cache+0xbcc>
    9b94:	e5931000 	ldr	r1, [r3]
    9b98:	e592c000 	ldr	ip, [r2]
    9b9c:	e5911018 	ldr	r1, [r1, #24]
    9ba0:	e59cc018 	ldr	ip, [ip, #24]
    9ba4:	e15c0001 	cmp	ip, r1
    9ba8:	da0000ac 	ble	9e60 <tty_render_glyph_cache+0xbcc>
    9bac:	e3540000 	cmp	r4, #0
    9bb0:	15843008 	strne	r3, [r4, #8]
    9bb4:	e5921008 	ldr	r1, [r2, #8]
    9bb8:	01a07003 	moveq	r7, r3
    9bbc:	e5913008 	ldr	r3, [r1, #8]
    9bc0:	e3530000 	cmp	r3, #0
    9bc4:	e5812008 	str	r2, [r1, #8]
    9bc8:	e5823008 	str	r3, [r2, #8]
    9bcc:	1affffec 	bne	9b84 <tty_render_glyph_cache+0x8f0>
    9bd0:	e51b1030 	ldr	r1, [fp, #-48]	; 0xffffffd0
    9bd4:	e51bc034 	ldr	ip, [fp, #-52]	; 0xffffffcc
    9bd8:	e151000c 	cmp	r1, ip
    9bdc:	2a00016f 	bcs	a1a0 <tty_render_glyph_cache+0xf0c>
    9be0:	e50ba044 	str	sl, [fp, #-68]	; 0xffffffbc
    9be4:	e3a02902 	mov	r2, #32768	; 0x8000
    9be8:	e3a03000 	mov	r3, #0
    9bec:	e51ba048 	ldr	sl, [fp, #-72]	; 0xffffffb8
    9bf0:	ea000003 	b	9c04 <tty_render_glyph_cache+0x970>
    9bf4:	e2811001 	add	r1, r1, #1
    9bf8:	e15c0001 	cmp	ip, r1
    9bfc:	e50b1030 	str	r1, [fp, #-48]	; 0xffffffd0
    9c00:	9a00003a 	bls	9cf0 <tty_render_glyph_cache+0xa5c>
    9c04:	e51b003c 	ldr	r0, [fp, #-60]	; 0xffffffc4
    9c08:	e081e181 	add	lr, r1, r1, lsl #3
    9c0c:	e080910e 	add	r9, r0, lr, lsl #2
    9c10:	e5994014 	ldr	r4, [r9, #20]
    9c14:	e1550004 	cmp	r5, r4
    9c18:	ca000034 	bgt	9cf0 <tty_render_glyph_cache+0xa5c>
    9c1c:	e5994010 	ldr	r4, [r9, #16]
    9c20:	e1550004 	cmp	r5, r4
    9c24:	dafffff2 	ble	9bf4 <tty_render_glyph_cache+0x960>
    9c28:	e790810e 	ldr	r8, [r0, lr, lsl #2]
    9c2c:	e1a01002 	mov	r1, r2
    9c30:	e1a0e003 	mov	lr, r3
    9c34:	e5990004 	ldr	r0, [r9, #4]
    9c38:	e599401c 	ldr	r4, [r9, #28]
    9c3c:	e0450000 	sub	r0, r5, r0
    9c40:	e0ee1490 	smlal	r1, lr, r0, r4
    9c44:	e1a01821 	lsr	r1, r1, #16
    9c48:	e181180e 	orr	r1, r1, lr, lsl #16
    9c4c:	e0888001 	add	r8, r8, r1
    9c50:	e51b1040 	ldr	r1, [fp, #-64]	; 0xffffffc0
    9c54:	e3570000 	cmp	r7, #0
    9c58:	11a04007 	movne	r4, r7
    9c5c:	13a00000 	movne	r0, #0
    9c60:	e0888001 	add	r8, r8, r1
    9c64:	1a000005 	bne	9c80 <tty_render_glyph_cache+0x9ec>
    9c68:	ea000087 	b	9e8c <tty_render_glyph_cache+0xbf8>
    9c6c:	e5941008 	ldr	r1, [r4, #8]
    9c70:	e3510000 	cmp	r1, #0
    9c74:	e1a00004 	mov	r0, r4
    9c78:	0a00000c 	beq	9cb0 <tty_render_glyph_cache+0xa1c>
    9c7c:	e1a04001 	mov	r4, r1
    9c80:	e5941004 	ldr	r1, [r4, #4]
    9c84:	e1580001 	cmp	r8, r1
    9c88:	ba000005 	blt	9ca4 <tty_render_glyph_cache+0xa10>
    9c8c:	1afffff6 	bne	9c6c <tty_render_glyph_cache+0x9d8>
    9c90:	e5941000 	ldr	r1, [r4]
    9c94:	e599e018 	ldr	lr, [r9, #24]
    9c98:	e5911018 	ldr	r1, [r1, #24]
    9c9c:	e15e0001 	cmp	lr, r1
    9ca0:	aafffff1 	bge	9c6c <tty_render_glyph_cache+0x9d8>
    9ca4:	e3500000 	cmp	r0, #0
    9ca8:	11a04000 	movne	r4, r0
    9cac:	0a000076 	beq	9e8c <tty_render_glyph_cache+0xbf8>
    9cb0:	e3560000 	cmp	r6, #0
    9cb4:	0a00006c 	beq	9e6c <tty_render_glyph_cache+0xbd8>
    9cb8:	e5960008 	ldr	r0, [r6, #8]
    9cbc:	e1a01006 	mov	r1, r6
    9cc0:	e5863008 	str	r3, [r6, #8]
    9cc4:	e1a06000 	mov	r6, r0
    9cc8:	e5940008 	ldr	r0, [r4, #8]
    9ccc:	e5810008 	str	r0, [r1, #8]
    9cd0:	e5841008 	str	r1, [r4, #8]
    9cd4:	e5819000 	str	r9, [r1]
    9cd8:	e5818004 	str	r8, [r1, #4]
    9cdc:	e51b1030 	ldr	r1, [fp, #-48]	; 0xffffffd0
    9ce0:	e2811001 	add	r1, r1, #1
    9ce4:	e15c0001 	cmp	ip, r1
    9ce8:	e50b1030 	str	r1, [fp, #-48]	; 0xffffffd0
    9cec:	8affffc4 	bhi	9c04 <tty_render_glyph_cache+0x970>
    9cf0:	e2574000 	subs	r4, r7, #0
    9cf4:	e50ba048 	str	sl, [fp, #-72]	; 0xffffffb8
    9cf8:	e51ba044 	ldr	sl, [fp, #-68]	; 0xffffffbc
    9cfc:	0a00006c 	beq	9eb4 <tty_render_glyph_cache+0xc20>
    9d00:	e5972008 	ldr	r2, [r7, #8]
    9d04:	e3520000 	cmp	r2, #0
    9d08:	0a000069 	beq	9eb4 <tty_render_glyph_cache+0xc20>
    9d0c:	e3a00000 	mov	r0, #0
    9d10:	e3a09020 	mov	r9, #32
    9d14:	e1a08000 	mov	r8, r0
    9d18:	e50b4044 	str	r4, [fp, #-68]	; 0xffffffbc
    9d1c:	ea000012 	b	9d6c <tty_render_glyph_cache+0xad8>
    9d20:	e1a03009 	mov	r3, r9
    9d24:	e1a0c008 	mov	ip, r8
    9d28:	e3a04eff 	mov	r4, #4080	; 0xff0
    9d2c:	e0ec3491 	smlal	r3, ip, r1, r4
    9d30:	e31e003f 	tst	lr, #63	; 0x3f
    9d34:	13cee03f 	bicne	lr, lr, #63	; 0x3f
    9d38:	128ee040 	addne	lr, lr, #64	; 0x40
    9d3c:	e1a0e34e 	asr	lr, lr, #6
    9d40:	e24ee001 	sub	lr, lr, #1
    9d44:	e79a110e 	ldr	r1, [sl, lr, lsl #2]
    9d48:	e1a03323 	lsr	r3, r3, #6
    9d4c:	e1833d0c 	orr	r3, r3, ip, lsl #26
    9d50:	e0813003 	add	r3, r1, r3
    9d54:	e78a310e 	str	r3, [sl, lr, lsl #2]
    9d58:	e5923008 	ldr	r3, [r2, #8]
    9d5c:	e3530000 	cmp	r3, #0
    9d60:	e1a07002 	mov	r7, r2
    9d64:	0a000051 	beq	9eb0 <tty_render_glyph_cache+0xc1c>
    9d68:	e1a02003 	mov	r2, r3
    9d6c:	e5973000 	ldr	r3, [r7]
    9d70:	e1d332d0 	ldrsb	r3, [r3, #32]
    9d74:	e0900003 	adds	r0, r0, r3
    9d78:	0afffff6 	beq	9d58 <tty_render_glyph_cache+0xac4>
    9d7c:	e5971004 	ldr	r1, [r7, #4]
    9d80:	e592e004 	ldr	lr, [r2, #4]
    9d84:	e151000e 	cmp	r1, lr
    9d88:	0afffff2 	beq	9d58 <tty_render_glyph_cache+0xac4>
    9d8c:	e3c1303f 	bic	r3, r1, #63	; 0x3f
    9d90:	e283c040 	add	ip, r3, #64	; 0x40
    9d94:	e15e000c 	cmp	lr, ip
    9d98:	d04e1001 	suble	r1, lr, r1
    9d9c:	daffffdf 	ble	9d20 <tty_render_glyph_cache+0xa8c>
    9da0:	e3a07eff 	mov	r7, #4080	; 0xff0
    9da4:	e1a0e009 	mov	lr, r9
    9da8:	e1a04008 	mov	r4, r8
    9dac:	e04c1001 	sub	r1, ip, r1
    9db0:	e0e4e791 	smlal	lr, r4, r1, r7
    9db4:	e1a0134c 	asr	r1, ip, #6
    9db8:	e2417001 	sub	r7, r1, #1
    9dbc:	e1a0e32e 	lsr	lr, lr, #6
    9dc0:	e18eed04 	orr	lr, lr, r4, lsl #26
    9dc4:	e79a4107 	ldr	r4, [sl, r7, lsl #2]
    9dc8:	e084e00e 	add	lr, r4, lr
    9dcc:	e78ae107 	str	lr, [sl, r7, lsl #2]
    9dd0:	e592e004 	ldr	lr, [r2, #4]
    9dd4:	e2833080 	add	r3, r3, #128	; 0x80
    9dd8:	e153000e 	cmp	r3, lr
    9ddc:	aa000009 	bge	9e08 <tty_render_glyph_cache+0xb74>
    9de0:	e2411107 	sub	r1, r1, #-1073741823	; 0xc0000001
    9de4:	e08a4101 	add	r4, sl, r1, lsl #2
    9de8:	e5b41004 	ldr	r1, [r4, #4]!
    9dec:	e2811eff 	add	r1, r1, #4080	; 0xff0
    9df0:	e5841000 	str	r1, [r4]
    9df4:	e592e004 	ldr	lr, [r2, #4]
    9df8:	e1a0c003 	mov	ip, r3
    9dfc:	e2833040 	add	r3, r3, #64	; 0x40
    9e00:	e153000e 	cmp	r3, lr
    9e04:	bafffff7 	blt	9de8 <tty_render_glyph_cache+0xb54>
    9e08:	e04e100c 	sub	r1, lr, ip
    9e0c:	eaffffc3 	b	9d20 <tty_render_glyph_cache+0xa8c>
    9e10:	e5d90118 	ldrb	r0, [r9, #280]	; 0x118
    9e14:	e3500000 	cmp	r0, #0
    9e18:	1a000127 	bne	a2bc <tty_render_glyph_cache+0x1028>
    9e1c:	e2890f52 	add	r0, r9, #328	; 0x148
    9e20:	e2896f53 	add	r6, r9, #332	; 0x14c
    9e24:	e1d000f2 	ldrsh	r0, [r0, #2]
    9e28:	e1d660f0 	ldrsh	r6, [r6]
    9e2c:	e0400006 	sub	r0, r0, r6
    9e30:	e3a06602 	mov	r6, #2097152	; 0x200000
    9e34:	e3a07000 	mov	r7, #0
    9e38:	e1a00300 	lsl	r0, r0, #6
    9e3c:	e0e76890 	smlal	r6, r7, r0, r8
    9e40:	e1a06b26 	lsr	r6, r6, #22
    9e44:	e1866507 	orr	r6, r6, r7, lsl #10
    9e48:	e1a00086 	lsl	r0, r6, #1
    9e4c:	e2000040 	and	r0, r0, #64	; 0x40
    9e50:	e3c6603f 	bic	r6, r6, #63	; 0x3f
    9e54:	e0800006 	add	r0, r0, r6
    9e58:	e1a00340 	asr	r0, r0, #6
    9e5c:	eafffebe 	b	995c <tty_render_glyph_cache+0x6c8>
    9e60:	e1a04002 	mov	r4, r2
    9e64:	e1a02003 	mov	r2, r3
    9e68:	eaffff41 	b	9b74 <tty_render_glyph_cache+0x8e0>
    9e6c:	e59a1078 	ldr	r1, [sl, #120]	; 0x78
    9e70:	e351000a 	cmp	r1, #10
    9e74:	0a00002b 	beq	9f28 <tty_render_glyph_cache+0xc94>
    9e78:	e2810001 	add	r0, r1, #1
    9e7c:	e0811081 	add	r1, r1, r1, lsl #1
    9e80:	e58a0078 	str	r0, [sl, #120]	; 0x78
    9e84:	e08a1101 	add	r1, sl, r1, lsl #2
    9e88:	eaffff8e 	b	9cc8 <tty_render_glyph_cache+0xa34>
    9e8c:	e3560000 	cmp	r6, #0
    9e90:	0a00001b 	beq	9f04 <tty_render_glyph_cache+0xc70>
    9e94:	e5960008 	ldr	r0, [r6, #8]
    9e98:	e1a01006 	mov	r1, r6
    9e9c:	e5863008 	str	r3, [r6, #8]
    9ea0:	e1a06000 	mov	r6, r0
    9ea4:	e5817008 	str	r7, [r1, #8]
    9ea8:	e1a07001 	mov	r7, r1
    9eac:	eaffff88 	b	9cd4 <tty_render_glyph_cache+0xa40>
    9eb0:	e51b4044 	ldr	r4, [fp, #-68]	; 0xffffffbc
    9eb4:	e2455010 	sub	r5, r5, #16
    9eb8:	e215203f 	ands	r2, r5, #63	; 0x3f
    9ebc:	0a000025 	beq	9f58 <tty_render_glyph_cache+0xcc4>
    9ec0:	e51b305c 	ldr	r3, [fp, #-92]	; 0xffffffa4
    9ec4:	e1550003 	cmp	r5, r3
    9ec8:	aafffefb 	bge	9abc <tty_render_glyph_cache+0x828>
    9ecc:	e51b003c 	ldr	r0, [fp, #-60]	; 0xffffffc4
    9ed0:	eb001e9b 	bl	11944 <free>
    9ed4:	e1a0000a 	mov	r0, sl
    9ed8:	eb001e99 	bl	11944 <free>
    9edc:	e51b4048 	ldr	r4, [fp, #-72]	; 0xffffffb8
    9ee0:	e1a00004 	mov	r0, r4
    9ee4:	e594407c 	ldr	r4, [r4, #124]	; 0x7c
    9ee8:	eb001e95 	bl	11944 <free>
    9eec:	e3540000 	cmp	r4, #0
    9ef0:	1afffffa 	bne	9ee0 <tty_render_glyph_cache+0xc4c>
    9ef4:	e51b0054 	ldr	r0, [fp, #-84]	; 0xffffffac
    9ef8:	e24bd028 	sub	sp, fp, #40	; 0x28
    9efc:	e89d6ff0 	ldm	sp, {r4, r5, r6, r7, r8, r9, sl, fp, sp, lr}
    9f00:	e12fff1e 	bx	lr
    9f04:	e59a1078 	ldr	r1, [sl, #120]	; 0x78
    9f08:	e351000a 	cmp	r1, #10
    9f0c:	0a000032 	beq	9fdc <tty_render_glyph_cache+0xd48>
    9f10:	e59a1078 	ldr	r1, [sl, #120]	; 0x78
    9f14:	e2810001 	add	r0, r1, #1
    9f18:	e0811081 	add	r1, r1, r1, lsl #1
    9f1c:	e58a0078 	str	r0, [sl, #120]	; 0x78
    9f20:	e08a1101 	add	r1, sl, r1, lsl #2
    9f24:	eaffffde 	b	9ea4 <tty_render_glyph_cache+0xc10>
    9f28:	e3a01080 	mov	r1, #128	; 0x80
    9f2c:	e3a00001 	mov	r0, #1
    9f30:	eb001e65 	bl	118cc <calloc>
    9f34:	e2501000 	subs	r1, r0, #0
    9f38:	0a000082 	beq	a148 <tty_render_glyph_cache+0xeb4>
    9f3c:	e581a07c 	str	sl, [r1, #124]	; 0x7c
    9f40:	e3a03000 	mov	r3, #0
    9f44:	e1a0a001 	mov	sl, r1
    9f48:	e3a02902 	mov	r2, #32768	; 0x8000
    9f4c:	e5911078 	ldr	r1, [r1, #120]	; 0x78
    9f50:	e51bc034 	ldr	ip, [fp, #-52]	; 0xffffffcc
    9f54:	eaffffc7 	b	9e78 <tty_render_glyph_cache+0xbe4>
    9f58:	e51b304c 	ldr	r3, [fp, #-76]	; 0xffffffb4
    9f5c:	e5930018 	ldr	r0, [r3, #24]
    9f60:	e593e010 	ldr	lr, [r3, #16]
    9f64:	e3500000 	cmp	r0, #0
    9f68:	e1ceefce 	bic	lr, lr, lr, asr #31
    9f6c:	da000012 	ble	9fbc <tty_render_glyph_cache+0xd28>
    9f70:	e24e1107 	sub	r1, lr, #-1073741823	; 0xc0000001
    9f74:	e51b8060 	ldr	r8, [fp, #-96]	; 0xffffffa0
    9f78:	e50b4044 	str	r4, [fp, #-68]	; 0xffffffbc
    9f7c:	e51b9058 	ldr	r9, [fp, #-88]	; 0xffffffa8
    9f80:	e51b704c 	ldr	r7, [fp, #-76]	; 0xffffffb4
    9f84:	e08a1101 	add	r1, sl, r1, lsl #2
    9f88:	e5b13004 	ldr	r3, [r1, #4]!
    9f8c:	e1b03343 	asrs	r3, r3, #6
    9f90:	e082c00e 	add	ip, r2, lr
    9f94:	e2822001 	add	r2, r2, #1
    9f98:	0a000004 	beq	9fb0 <tty_render_glyph_cache+0xd1c>
    9f9c:	e5970024 	ldr	r0, [r7, #36]	; 0x24
    9fa0:	e5994050 	ldr	r4, [r9, #80]	; 0x50
    9fa4:	e0240498 	mla	r4, r8, r4, r0
    9fa8:	e7c4300c 	strb	r3, [r4, ip]
    9fac:	e5970018 	ldr	r0, [r7, #24]
    9fb0:	e1500002 	cmp	r0, r2
    9fb4:	cafffff3 	bgt	9f88 <tty_render_glyph_cache+0xcf4>
    9fb8:	e51b4044 	ldr	r4, [fp, #-68]	; 0xffffffbc
    9fbc:	e51b3060 	ldr	r3, [fp, #-96]	; 0xffffffa0
    9fc0:	e3a01000 	mov	r1, #0
    9fc4:	e2833001 	add	r3, r3, #1
    9fc8:	e1a0000a 	mov	r0, sl
    9fcc:	e51b2064 	ldr	r2, [fp, #-100]	; 0xffffff9c
    9fd0:	e50b3060 	str	r3, [fp, #-96]	; 0xffffffa0
    9fd4:	eb002f39 	bl	15cc0 <memset>
    9fd8:	eaffffb8 	b	9ec0 <tty_render_glyph_cache+0xc2c>
    9fdc:	e3a01080 	mov	r1, #128	; 0x80
    9fe0:	e3a00001 	mov	r0, #1
    9fe4:	eb001e38 	bl	118cc <calloc>
    9fe8:	e2501000 	subs	r1, r0, #0
    9fec:	0a000055 	beq	a148 <tty_render_glyph_cache+0xeb4>
    9ff0:	e581a07c 	str	sl, [r1, #124]	; 0x7c
    9ff4:	e3a03000 	mov	r3, #0
    9ff8:	e1a0a001 	mov	sl, r1
    9ffc:	e3a02902 	mov	r2, #32768	; 0x8000
    a000:	e51bc034 	ldr	ip, [fp, #-52]	; 0xffffffcc
    a004:	eaffffc1 	b	9f10 <tty_render_glyph_cache+0xc7c>
    a008:	e51b1030 	ldr	r1, [fp, #-48]	; 0xffffffd0
    a00c:	e51bc034 	ldr	ip, [fp, #-52]	; 0xffffffcc
    a010:	e15c0001 	cmp	ip, r1
    a014:	81a07004 	movhi	r7, r4
    a018:	8afffef0 	bhi	9be0 <tty_render_glyph_cache+0x94c>
    a01c:	eaffffa4 	b	9eb4 <tty_render_glyph_cache+0xc20>
    a020:	e213a03f 	ands	sl, r3, #63	; 0x3f
    a024:	01a00003 	moveq	r0, r3
    a028:	13c3003f 	bicne	r0, r3, #63	; 0x3f
    a02c:	12800040 	addne	r0, r0, #64	; 0x40
    a030:	e3c2603f 	bic	r6, r2, #63	; 0x3f
    a034:	e51bc04c 	ldr	ip, [fp, #-76]	; 0xffffffb4
    a038:	e0400006 	sub	r0, r0, r6
    a03c:	e1a00340 	asr	r0, r0, #6
    a040:	e58c0018 	str	r0, [ip, #24]
    a044:	e215003f 	ands	r0, r5, #63	; 0x3f
    a048:	01a04005 	moveq	r4, r5
    a04c:	13c5403f 	bicne	r4, r5, #63	; 0x3f
    a050:	12844040 	addne	r4, r4, #64	; 0x40
    a054:	e3c1103f 	bic	r1, r1, #63	; 0x3f
    a058:	e51be04c 	ldr	lr, [fp, #-76]	; 0xffffffb4
    a05c:	e50b105c 	str	r1, [fp, #-92]	; 0xffffffa4
    a060:	e0441001 	sub	r1, r4, r1
    a064:	e1a01341 	asr	r1, r1, #6
    a068:	e50b0044 	str	r0, [fp, #-68]	; 0xffffffbc
    a06c:	e599c0e0 	ldr	ip, [r9, #224]	; 0xe0
    a070:	e599009c 	ldr	r0, [r9, #156]	; 0x9c
    a074:	e58e101c 	str	r1, [lr, #28]
    a078:	e080c00c 	add	ip, r0, ip
    a07c:	e5dc1022 	ldrb	r1, [ip, #34]	; 0x22
    a080:	e5dcc023 	ldrb	ip, [ip, #35]	; 0x23
    a084:	e181c40c 	orr	ip, r1, ip, lsl #8
    a088:	e1a0142c 	lsr	r1, ip, #8
    a08c:	e181c40c 	orr	ip, r1, ip, lsl #8
    a090:	e1a0c80c 	lsl	ip, ip, #16
    a094:	e59e1004 	ldr	r1, [lr, #4]
    a098:	e1a0c82c 	lsr	ip, ip, #16
    a09c:	e151000c 	cmp	r1, ip
    a0a0:	3a000052 	bcc	a1f0 <tty_render_glyph_cache+0xf5c>
    a0a4:	e3a01000 	mov	r1, #0
    a0a8:	e1a07fc8 	asr	r7, r8, #31
    a0ac:	e51bc04c 	ldr	ip, [fp, #-76]	; 0xffffffb4
    a0b0:	e58c1008 	str	r1, [ip, #8]
    a0b4:	e5d91118 	ldrb	r1, [r9, #280]	; 0x118
    a0b8:	e3510000 	cmp	r1, #0
    a0bc:	1a000039 	bne	a1a8 <tty_render_glyph_cache+0xf14>
    a0c0:	e2891f52 	add	r1, r9, #328	; 0x148
    a0c4:	e2890f53 	add	r0, r9, #332	; 0x14c
    a0c8:	e1d110f2 	ldrsh	r1, [r1, #2]
    a0cc:	e1d000f0 	ldrsh	r0, [r0]
    a0d0:	e0411000 	sub	r1, r1, r0
    a0d4:	e1a0c301 	lsl	ip, r1, #6
    a0d8:	e007079c 	mul	r7, ip, r7
    a0dc:	e51b004c 	ldr	r0, [fp, #-76]	; 0xffffffb4
    a0e0:	e1a06346 	asr	r6, r6, #6
    a0e4:	e5806010 	str	r6, [r0, #16]
    a0e8:	e1a06000 	mov	r6, r0
    a0ec:	e1a01fc1 	asr	r1, r1, #31
    a0f0:	e1a04344 	asr	r4, r4, #6
    a0f4:	e5804014 	str	r4, [r0, #20]
    a0f8:	e0207198 	mla	r0, r8, r1, r7
    a0fc:	e08e189c 	umull	r1, lr, ip, r8
    a100:	e2911602 	adds	r1, r1, #2097152	; 0x200000
    a104:	e0a0000e 	adc	r0, r0, lr
    a108:	e1a01b21 	lsr	r1, r1, #22
    a10c:	e1811500 	orr	r1, r1, r0, lsl #10
    a110:	e1a00081 	lsl	r0, r1, #1
    a114:	e2000040 	and	r0, r0, #64	; 0x40
    a118:	e3c1103f 	bic	r1, r1, #63	; 0x3f
    a11c:	e0801001 	add	r1, r0, r1
    a120:	e1a01341 	asr	r1, r1, #6
    a124:	e586100c 	str	r1, [r6, #12]
    a128:	eafffe2e 	b	99e8 <tty_render_glyph_cache+0x754>
    a12c:	e51b003c 	ldr	r0, [fp, #-60]	; 0xffffffc4
    a130:	eb001e03 	bl	11944 <free>
    a134:	e1a0000a 	mov	r0, sl
    a138:	eb001e01 	bl	11944 <free>
    a13c:	e3a03005 	mov	r3, #5
    a140:	e50b3054 	str	r3, [fp, #-84]	; 0xffffffac
    a144:	eafffc76 	b	9324 <tty_render_glyph_cache+0x90>
    a148:	e1a0400a 	mov	r4, sl
    a14c:	e51ba044 	ldr	sl, [fp, #-68]	; 0xffffffbc
    a150:	e51b003c 	ldr	r0, [fp, #-60]	; 0xffffffc4
    a154:	eb001dfa 	bl	11944 <free>
    a158:	e1a0000a 	mov	r0, sl
    a15c:	eb001df8 	bl	11944 <free>
    a160:	e51b504c 	ldr	r5, [fp, #-76]	; 0xffffffb4
    a164:	e5950024 	ldr	r0, [r5, #36]	; 0x24
    a168:	eb001df5 	bl	11944 <free>
    a16c:	e3a03000 	mov	r3, #0
    a170:	e5853024 	str	r3, [r5, #36]	; 0x24
    a174:	e1a00004 	mov	r0, r4
    a178:	e594407c 	ldr	r4, [r4, #124]	; 0x7c
    a17c:	eb001df0 	bl	11944 <free>
    a180:	e3540000 	cmp	r4, #0
    a184:	1afffffa 	bne	a174 <tty_render_glyph_cache+0xee0>
    a188:	e3a03005 	mov	r3, #5
    a18c:	e50b3054 	str	r3, [fp, #-84]	; 0xffffffac
    a190:	e51b0054 	ldr	r0, [fp, #-84]	; 0xffffffac
    a194:	e24bd028 	sub	sp, fp, #40	; 0x28
    a198:	e89d6ff0 	ldm	sp, {r4, r5, r6, r7, r8, r9, sl, fp, sp, lr}
    a19c:	e12fff1e 	bx	lr
    a1a0:	e1a04007 	mov	r4, r7
    a1a4:	eafffed5 	b	9d00 <tty_render_glyph_cache+0xa6c>
    a1a8:	e5991110 	ldr	r1, [r9, #272]	; 0x110
    a1ac:	e0801001 	add	r1, r0, r1
    a1b0:	e5d1c045 	ldrb	ip, [r1, #69]	; 0x45
    a1b4:	e5d10044 	ldrb	r0, [r1, #68]	; 0x44
    a1b8:	e180040c 	orr	r0, r0, ip, lsl #8
    a1bc:	e5d1c046 	ldrb	ip, [r1, #70]	; 0x46
    a1c0:	e5d11047 	ldrb	r1, [r1, #71]	; 0x47
    a1c4:	e18cc401 	orr	ip, ip, r1, lsl #8
    a1c8:	e1a01420 	lsr	r1, r0, #8
    a1cc:	e1810400 	orr	r0, r1, r0, lsl #8
    a1d0:	e1a0142c 	lsr	r1, ip, #8
    a1d4:	e181140c 	orr	r1, r1, ip, lsl #8
    a1d8:	e1a00800 	lsl	r0, r0, #16
    a1dc:	e1a01801 	lsl	r1, r1, #16
    a1e0:	e1a00840 	asr	r0, r0, #16
    a1e4:	e1a01841 	asr	r1, r1, #16
    a1e8:	e0401001 	sub	r1, r0, r1
    a1ec:	eaffffb8 	b	a0d4 <tty_render_glyph_cache+0xe40>
    a1f0:	e599c0ec 	ldr	ip, [r9, #236]	; 0xec
    a1f4:	e0801101 	add	r1, r0, r1, lsl #2
    a1f8:	e081e00c 	add	lr, r1, ip
    a1fc:	e7d1100c 	ldrb	r1, [r1, ip]
    a200:	e5dec001 	ldrb	ip, [lr, #1]
    a204:	e181c40c 	orr	ip, r1, ip, lsl #8
    a208:	e1a0142c 	lsr	r1, ip, #8
    a20c:	e181140c 	orr	r1, r1, ip, lsl #8
    a210:	e1a01801 	lsl	r1, r1, #16
    a214:	e1a01821 	lsr	r1, r1, #16
    a218:	e1a0e301 	lsl	lr, r1, #6
    a21c:	e3a0c000 	mov	ip, #0
    a220:	e3a01602 	mov	r1, #2097152	; 0x200000
    a224:	e0ec189e 	smlal	r1, ip, lr, r8
    a228:	e1a01b21 	lsr	r1, r1, #22
    a22c:	e181150c 	orr	r1, r1, ip, lsl #10
    a230:	e1a0c081 	lsl	ip, r1, #1
    a234:	e20cc040 	and	ip, ip, #64	; 0x40
    a238:	e3c1103f 	bic	r1, r1, #63	; 0x3f
    a23c:	e08c1001 	add	r1, ip, r1
    a240:	e1a07fc8 	asr	r7, r8, #31
    a244:	e1a01341 	asr	r1, r1, #6
    a248:	eaffff97 	b	a0ac <tty_render_glyph_cache+0xe18>
    a24c:	e3a01000 	mov	r1, #0
    a250:	e5992090 	ldr	r2, [r9, #144]	; 0x90
    a254:	e5990084 	ldr	r0, [r9, #132]	; 0x84
    a258:	eb002e98 	bl	15cc0 <memset>
    a25c:	eafffc2c 	b	9314 <tty_render_glyph_cache+0x80>
    a260:	e3a03000 	mov	r3, #0
    a264:	eafffce7 	b	9608 <tty_render_glyph_cache+0x374>
    a268:	e1a01005 	mov	r1, r5
    a26c:	e1a02003 	mov	r2, r3
    a270:	eafffdaa 	b	9920 <tty_render_glyph_cache+0x68c>
    a274:	e5990144 	ldr	r0, [r9, #324]	; 0x144
    a278:	e51b3054 	ldr	r3, [fp, #-84]	; 0xffffffac
    a27c:	e50b0038 	str	r0, [fp, #-56]	; 0xffffffc8
    a280:	e0800180 	add	r0, r0, r0, lsl #3
    a284:	e1a00100 	lsl	r0, r0, #2
    a288:	e50b3034 	str	r3, [fp, #-52]	; 0xffffffcc
    a28c:	eb001db5 	bl	11968 <malloc>
    a290:	e3500000 	cmp	r0, #0
    a294:	e50b003c 	str	r0, [fp, #-60]	; 0xffffffc4
    a298:	0afffc19 	beq	9304 <tty_render_glyph_cache+0x70>
    a29c:	eafffd76 	b	987c <tty_render_glyph_cache+0x5e8>
    a2a0:	e51b9048 	ldr	r9, [fp, #-72]	; 0xffffffb8
    a2a4:	eafffc16 	b	9304 <tty_render_glyph_cache+0x70>
    a2a8:	e51b003c 	ldr	r0, [fp, #-60]	; 0xffffffc4
    a2ac:	eb001da4 	bl	11944 <free>
    a2b0:	e3a03005 	mov	r3, #5
    a2b4:	e50b3054 	str	r3, [fp, #-84]	; 0xffffffac
    a2b8:	eafffc19 	b	9324 <tty_render_glyph_cache+0x90>
    a2bc:	e5996110 	ldr	r6, [r9, #272]	; 0x110
    a2c0:	e599009c 	ldr	r0, [r9, #156]	; 0x9c
    a2c4:	e0800006 	add	r0, r0, r6
    a2c8:	e5d06045 	ldrb	r6, [r0, #69]	; 0x45
    a2cc:	e5d07044 	ldrb	r7, [r0, #68]	; 0x44
    a2d0:	e1877406 	orr	r7, r7, r6, lsl #8
    a2d4:	e5d06046 	ldrb	r6, [r0, #70]	; 0x46
    a2d8:	e5d00047 	ldrb	r0, [r0, #71]	; 0x47
    a2dc:	e1866400 	orr	r6, r6, r0, lsl #8
    a2e0:	e1a00427 	lsr	r0, r7, #8
    a2e4:	e1800407 	orr	r0, r0, r7, lsl #8
    a2e8:	e1a07426 	lsr	r7, r6, #8
    a2ec:	e1876406 	orr	r6, r7, r6, lsl #8
    a2f0:	e1a00800 	lsl	r0, r0, #16
    a2f4:	e1a06806 	lsl	r6, r6, #16
    a2f8:	e1a00840 	asr	r0, r0, #16
    a2fc:	e1a06846 	asr	r6, r6, #16
    a300:	e0400006 	sub	r0, r0, r6
    a304:	eafffec9 	b	9e30 <tty_render_glyph_cache+0xb9c>
    a308:	e3a03001 	mov	r3, #1
    a30c:	e5865018 	str	r5, [r6, #24]
    a310:	e5c63020 	strb	r3, [r6, #32]
    a314:	e5867014 	str	r7, [r6, #20]
    a318:	e5869010 	str	r9, [r6, #16]
    a31c:	eafffcc5 	b	9638 <tty_render_glyph_cache+0x3a4>
    a320:	e3a01000 	mov	r1, #0
    a324:	e5992090 	ldr	r2, [r9, #144]	; 0x90
    a328:	e5990084 	ldr	r0, [r9, #132]	; 0x84
    a32c:	eb002e63 	bl	15cc0 <memset>
    a330:	eafffd55 	b	988c <tty_render_glyph_cache+0x5f8>
    a334:	e51b1030 	ldr	r1, [fp, #-48]	; 0xffffffd0
    a338:	e51bc034 	ldr	ip, [fp, #-52]	; 0xffffffcc
    a33c:	e151000c 	cmp	r1, ip
    a340:	3afffe26 	bcc	9be0 <tty_render_glyph_cache+0x94c>
    a344:	eafffeda 	b	9eb4 <tty_render_glyph_cache+0xc20>
    a348:	e1a000a2 	lsr	r0, r2, #1
    a34c:	e1800f83 	orr	r0, r0, r3, lsl #31
    a350:	e2831902 	add	r1, r3, #32768	; 0x8000
    a354:	eafffca6 	b	95f4 <tty_render_glyph_cache+0x360>
    a358:	e0900002 	adds	r0, r0, r2
    a35c:	e2a3c000 	adc	ip, r3, #0
    a360:	e1a000a0 	lsr	r0, r0, #1
    a364:	e1800f8c 	orr	r0, r0, ip, lsl #31
    a368:	e090000e 	adds	r0, r0, lr
    a36c:	e0a110cc 	adc	r1, r1, ip, asr #1
    a370:	eb001a6a 	bl	10d20 <__aeabi_ldivmod>
    a374:	e1a03000 	mov	r3, r0
    a378:	e1a02001 	mov	r2, r1
    a37c:	eafffc8b 	b	95b0 <tty_render_glyph_cache+0x31c>
    a380:	ffff9170 			; <UNDEFINED> instruction: 0xffff9170

0000a384 <_ZN4Ewok1X4openEPNS_4XWinEiimmPKcm>:
    a384:	e1a0c00d 	mov	ip, sp
    a388:	e92dd830 	push	{r4, r5, fp, ip, lr, pc}
    a38c:	e24cb004 	sub	fp, ip, #4
    a390:	e1a0c002 	mov	ip, r2
    a394:	e24dd010 	sub	sp, sp, #16
    a398:	e1a04001 	mov	r4, r1
    a39c:	e59b100c 	ldr	r1, [fp, #12]
    a3a0:	e1a02003 	mov	r2, r3
    a3a4:	e58d1004 	str	r1, [sp, #4]
    a3a8:	e59b3008 	ldr	r3, [fp, #8]
    a3ac:	e59b1010 	ldr	r1, [fp, #16]
    a3b0:	e58d3000 	str	r3, [sp]
    a3b4:	e58d1008 	str	r1, [sp, #8]
    a3b8:	e59b3004 	ldr	r3, [fp, #4]
    a3bc:	e1a0100c 	mov	r1, ip
    a3c0:	e1a05000 	mov	r5, r0
    a3c4:	eb0002cb 	bl	aef8 <xwin_open>
    a3c8:	e2501000 	subs	r1, r0, #0
    a3cc:	01a00001 	moveq	r0, r1
    a3d0:	0a000004 	beq	a3e8 <_ZN4Ewok1X4openEPNS_4XWinEiimmPKcm+0x64>
    a3d4:	e1a00004 	mov	r0, r4
    a3d8:	e5814008 	str	r4, [r1, #8]
    a3dc:	e5845004 	str	r5, [r4, #4]
    a3e0:	eb000136 	bl	a8c0 <_ZN4Ewok4XWin7setCWinEP7st_xwin>
    a3e4:	e3a00001 	mov	r0, #1
    a3e8:	e24bd014 	sub	sp, fp, #20
    a3ec:	e89d6830 	ldm	sp, {r4, r5, fp, sp, lr}
    a3f0:	e12fff1e 	bx	lr

0000a3f4 <_ZN4Ewok1XC1Ev>:
    a3f4:	e1a0c00d 	mov	ip, sp
    a3f8:	e92dd830 	push	{r4, r5, fp, ip, lr, pc}
    a3fc:	e1a04000 	mov	r4, r0
    a400:	e24cb004 	sub	fp, ip, #4
    a404:	e1a01000 	mov	r1, r0
    a408:	eb0001cd 	bl	ab44 <x_init>
    a40c:	e1a00004 	mov	r0, r4
    a410:	e24bd014 	sub	sp, fp, #20
    a414:	e89d6830 	ldm	sp, {r4, r5, fp, sp, lr}
    a418:	e12fff1e 	bx	lr

0000a41c <_ZN4Ewok1X3runEPFvPvES1_>:
    a41c:	e1a0c00d 	mov	ip, sp
    a420:	e92dd800 	push	{fp, ip, lr, pc}
    a424:	e24cb004 	sub	fp, ip, #4
    a428:	e5801014 	str	r1, [r0, #20]
    a42c:	e1a01002 	mov	r1, r2
    a430:	eb0001d5 	bl	ab8c <x_run>
    a434:	e24bd00c 	sub	sp, fp, #12
    a438:	e89d6800 	ldm	sp, {fp, sp, lr}
    a43c:	e12fff1e 	bx	lr

0000a440 <_ZN4Ewok1X9terminateEv>:
    a440:	e3a03001 	mov	r3, #1
    a444:	e5c03008 	strb	r3, [r0, #8]
    a448:	e12fff1e 	bx	lr

0000a44c <_ZN4Ewok1X10screenInfoER9xscreen_ti>:
    a44c:	e1a0c00d 	mov	ip, sp
    a450:	e92dd800 	push	{fp, ip, lr, pc}
    a454:	e24cb004 	sub	fp, ip, #4
    a458:	eb000164 	bl	a9f0 <x_screen_info>
    a45c:	e2700001 	rsbs	r0, r0, #1
    a460:	33a00000 	movcc	r0, #0
    a464:	e24bd00c 	sub	sp, fp, #12
    a468:	e89d6800 	ldm	sp, {fp, sp, lr}
    a46c:	e12fff1e 	bx	lr

0000a470 <_ZN4Ewok1X10getResNameEPKc>:
    a470:	e1a0c00d 	mov	ip, sp
    a474:	e92dd810 	push	{r4, fp, ip, lr, pc}
    a478:	e24cb004 	sub	fp, ip, #4
    a47c:	e24dd00c 	sub	sp, sp, #12
    a480:	e1a04000 	mov	r4, r0
    a484:	eb000203 	bl	ac98 <x_get_work_dir>
    a488:	e5d02001 	ldrb	r2, [r0, #1]
    a48c:	e3520000 	cmp	r2, #0
    a490:	e1a03000 	mov	r3, r0
    a494:	1a000002 	bne	a4a4 <_ZN4Ewok1X10getResNameEPKc+0x34>
    a498:	e5d02000 	ldrb	r2, [r0]
    a49c:	e352002f 	cmp	r2, #47	; 0x2f
    a4a0:	0a00000b 	beq	a4d4 <_ZN4Ewok1X10getResNameEPKc+0x64>
    a4a4:	e59f2048 	ldr	r2, [pc, #72]	; a4f4 <_ZN4Ewok1X10getResNameEPKc+0x84>
    a4a8:	e59f0048 	ldr	r0, [pc, #72]	; a4f8 <_ZN4Ewok1X10getResNameEPKc+0x88>
    a4ac:	e58d4000 	str	r4, [sp]
    a4b0:	e59f1044 	ldr	r1, [pc, #68]	; a4fc <_ZN4Ewok1X10getResNameEPKc+0x8c>
    a4b4:	e08f2002 	add	r2, pc, r2
    a4b8:	e08f0000 	add	r0, pc, r0
    a4bc:	eb001eb0 	bl	11f84 <snprintf>
    a4c0:	e59f0038 	ldr	r0, [pc, #56]	; a500 <_ZN4Ewok1X10getResNameEPKc+0x90>
    a4c4:	e08f0000 	add	r0, pc, r0
    a4c8:	e24bd010 	sub	sp, fp, #16
    a4cc:	e89d6810 	ldm	sp, {r4, fp, sp, lr}
    a4d0:	e12fff1e 	bx	lr
    a4d4:	e59f2028 	ldr	r2, [pc, #40]	; a504 <_ZN4Ewok1X10getResNameEPKc+0x94>
    a4d8:	e59f0028 	ldr	r0, [pc, #40]	; a508 <_ZN4Ewok1X10getResNameEPKc+0x98>
    a4dc:	e1a03004 	mov	r3, r4
    a4e0:	e59f1014 	ldr	r1, [pc, #20]	; a4fc <_ZN4Ewok1X10getResNameEPKc+0x8c>
    a4e4:	e08f2002 	add	r2, pc, r2
    a4e8:	e08f0000 	add	r0, pc, r0
    a4ec:	eb001ea4 	bl	11f84 <snprintf>
    a4f0:	eafffff2 	b	a4c0 <_ZN4Ewok1X10getResNameEPKc+0x50>
    a4f4:	0000d5e4 	andeq	sp, r0, r4, ror #11
    a4f8:	0001d770 	andeq	sp, r1, r0, ror r7
    a4fc:	000001ff 	strdeq	r0, [r0], -pc	; <UNPREDICTABLE>
    a500:	0001d764 	andeq	sp, r1, r4, ror #14
    a504:	0000d5ac 	andeq	sp, r0, ip, lsr #11
    a508:	0001d740 	andeq	sp, r1, r0, asr #14

0000a50c <_ZL11_on_repaintP7st_xwinP7graph_t>:
    a50c:	e3510000 	cmp	r1, #0
    a510:	13500000 	cmpne	r0, #0
    a514:	012fff1e 	bxeq	lr
    a518:	e5900008 	ldr	r0, [r0, #8]
    a51c:	e3500000 	cmp	r0, #0
    a520:	012fff1e 	bxeq	lr
    a524:	e5903000 	ldr	r3, [r0]
    a528:	e5933000 	ldr	r3, [r3]
    a52c:	e12fff13 	bx	r3

0000a530 <_ZL9_on_eventP7st_xwinP8xevent_t>:
    a530:	e59f2044 	ldr	r2, [pc, #68]	; a57c <_ZL9_on_eventP7st_xwinP8xevent_t+0x4c>
    a534:	e3500000 	cmp	r0, #0
    a538:	e08f2002 	add	r2, pc, r2
    a53c:	e52de004 	push	{lr}		; (str lr, [sp, #-4]!)
    a540:	0a000008 	beq	a568 <_ZL9_on_eventP7st_xwinP8xevent_t+0x38>
    a544:	e5900008 	ldr	r0, [r0, #8]
    a548:	e3500000 	cmp	r0, #0
    a54c:	0a000005 	beq	a568 <_ZL9_on_eventP7st_xwinP8xevent_t+0x38>
    a550:	e590c000 	ldr	ip, [r0]
    a554:	e59f3024 	ldr	r3, [pc, #36]	; a580 <_ZL9_on_eventP7st_xwinP8xevent_t+0x50>
    a558:	e59ce018 	ldr	lr, [ip, #24]
    a55c:	e7923003 	ldr	r3, [r2, r3]
    a560:	e15e0003 	cmp	lr, r3
    a564:	1a000001 	bne	a570 <_ZL9_on_eventP7st_xwinP8xevent_t+0x40>
    a568:	e49de004 	pop	{lr}		; (ldr lr, [sp], #4)
    a56c:	e12fff1e 	bx	lr
    a570:	e1a0300e 	mov	r3, lr
    a574:	e49de004 	pop	{lr}		; (ldr lr, [sp], #4)
    a578:	e12fff13 	bx	r3
    a57c:	0001d6ac 	andeq	sp, r1, ip, lsr #13
    a580:	00000018 	andeq	r0, r0, r8, lsl r0

0000a584 <_ZL7_on_minP7st_xwin>:
    a584:	e59f2030 	ldr	r2, [pc, #48]	; a5bc <_ZL7_on_minP7st_xwin+0x38>
    a588:	e3500000 	cmp	r0, #0
    a58c:	e08f2002 	add	r2, pc, r2
    a590:	012fff1e 	bxeq	lr
    a594:	e5900008 	ldr	r0, [r0, #8]
    a598:	e3500000 	cmp	r0, #0
    a59c:	012fff1e 	bxeq	lr
    a5a0:	e5901000 	ldr	r1, [r0]
    a5a4:	e59f3014 	ldr	r3, [pc, #20]	; a5c0 <_ZL7_on_minP7st_xwin+0x3c>
    a5a8:	e5911008 	ldr	r1, [r1, #8]
    a5ac:	e7923003 	ldr	r3, [r2, r3]
    a5b0:	e1510003 	cmp	r1, r3
    a5b4:	012fff1e 	bxeq	lr
    a5b8:	e12fff11 	bx	r1
    a5bc:	0001d658 	andeq	sp, r1, r8, asr r6
    a5c0:	0000002c 	andeq	r0, r0, ip, lsr #32

0000a5c4 <_ZL10_on_resizeP7st_xwin>:
    a5c4:	e59f2030 	ldr	r2, [pc, #48]	; a5fc <_ZL10_on_resizeP7st_xwin+0x38>
    a5c8:	e3500000 	cmp	r0, #0
    a5cc:	e08f2002 	add	r2, pc, r2
    a5d0:	012fff1e 	bxeq	lr
    a5d4:	e5900008 	ldr	r0, [r0, #8]
    a5d8:	e3500000 	cmp	r0, #0
    a5dc:	012fff1e 	bxeq	lr
    a5e0:	e5901000 	ldr	r1, [r0]
    a5e4:	e59f3014 	ldr	r3, [pc, #20]	; a600 <_ZL10_on_resizeP7st_xwin+0x3c>
    a5e8:	e591100c 	ldr	r1, [r1, #12]
    a5ec:	e7923003 	ldr	r3, [r2, r3]
    a5f0:	e1510003 	cmp	r1, r3
    a5f4:	012fff1e 	bxeq	lr
    a5f8:	e12fff11 	bx	r1
    a5fc:	0001d618 	andeq	sp, r1, r8, lsl r6
    a600:	00000030 	andeq	r0, r0, r0, lsr r0

0000a604 <_ZL9_on_closeP7st_xwin>:
    a604:	e59f2030 	ldr	r2, [pc, #48]	; a63c <_ZL9_on_closeP7st_xwin+0x38>
    a608:	e3500000 	cmp	r0, #0
    a60c:	e08f2002 	add	r2, pc, r2
    a610:	012fff1e 	bxeq	lr
    a614:	e5900008 	ldr	r0, [r0, #8]
    a618:	e3500000 	cmp	r0, #0
    a61c:	012fff1e 	bxeq	lr
    a620:	e5901000 	ldr	r1, [r0]
    a624:	e59f3014 	ldr	r3, [pc, #20]	; a640 <_ZL9_on_closeP7st_xwin+0x3c>
    a628:	e5911004 	ldr	r1, [r1, #4]
    a62c:	e7923003 	ldr	r3, [r2, r3]
    a630:	e1510003 	cmp	r1, r3
    a634:	012fff1e 	bxeq	lr
    a638:	e12fff11 	bx	r1
    a63c:	0001d5d8 	ldrdeq	sp, [r1], -r8
    a640:	0000000c 	andeq	r0, r0, ip

0000a644 <_ZL9_on_focusP7st_xwin>:
    a644:	e59f2030 	ldr	r2, [pc, #48]	; a67c <_ZL9_on_focusP7st_xwin+0x38>
    a648:	e3500000 	cmp	r0, #0
    a64c:	e08f2002 	add	r2, pc, r2
    a650:	012fff1e 	bxeq	lr
    a654:	e5900008 	ldr	r0, [r0, #8]
    a658:	e3500000 	cmp	r0, #0
    a65c:	012fff1e 	bxeq	lr
    a660:	e5901000 	ldr	r1, [r0]
    a664:	e59f3014 	ldr	r3, [pc, #20]	; a680 <_ZL9_on_focusP7st_xwin+0x3c>
    a668:	e5911010 	ldr	r1, [r1, #16]
    a66c:	e7923003 	ldr	r3, [r2, r3]
    a670:	e1510003 	cmp	r1, r3
    a674:	012fff1e 	bxeq	lr
    a678:	e12fff11 	bx	r1
    a67c:	0001d598 	muleq	r1, r8, r5
    a680:	00000024 	andeq	r0, r0, r4, lsr #32

0000a684 <_ZL11_on_unfocusP7st_xwin>:
    a684:	e59f2030 	ldr	r2, [pc, #48]	; a6bc <_ZL11_on_unfocusP7st_xwin+0x38>
    a688:	e3500000 	cmp	r0, #0
    a68c:	e08f2002 	add	r2, pc, r2
    a690:	012fff1e 	bxeq	lr
    a694:	e5900008 	ldr	r0, [r0, #8]
    a698:	e3500000 	cmp	r0, #0
    a69c:	012fff1e 	bxeq	lr
    a6a0:	e5901000 	ldr	r1, [r0]
    a6a4:	e59f3014 	ldr	r3, [pc, #20]	; a6c0 <_ZL11_on_unfocusP7st_xwin+0x3c>
    a6a8:	e5911014 	ldr	r1, [r1, #20]
    a6ac:	e7923003 	ldr	r3, [r2, r3]
    a6b0:	e1510003 	cmp	r1, r3
    a6b4:	012fff1e 	bxeq	lr
    a6b8:	e12fff11 	bx	r1
    a6bc:	0001d558 	andeq	sp, r1, r8, asr r5
    a6c0:	0000003c 	andeq	r0, r0, ip, lsr r0

0000a6c4 <_ZN4Ewok4XWinC1Ev>:
    a6c4:	e3a01000 	mov	r1, #0
    a6c8:	e59f3018 	ldr	r3, [pc, #24]	; a6e8 <_ZN4Ewok4XWinC1Ev+0x24>
    a6cc:	e59f2018 	ldr	r2, [pc, #24]	; a6ec <_ZN4Ewok4XWinC1Ev+0x28>
    a6d0:	e08f3003 	add	r3, pc, r3
    a6d4:	e7932002 	ldr	r2, [r3, r2]
    a6d8:	e2822008 	add	r2, r2, #8
    a6dc:	e5802000 	str	r2, [r0]
    a6e0:	e5801008 	str	r1, [r0, #8]
    a6e4:	e12fff1e 	bx	lr
    a6e8:	0001d514 	andeq	sp, r1, r4, lsl r5
    a6ec:	0000001c 	andeq	r0, r0, ip, lsl r0

0000a6f0 <_ZN4Ewok4XWin5closeEv>:
    a6f0:	e1a0c00d 	mov	ip, sp
    a6f4:	e92dd830 	push	{r4, r5, fp, ip, lr, pc}
    a6f8:	e1a04000 	mov	r4, r0
    a6fc:	e5900008 	ldr	r0, [r0, #8]
    a700:	e3500000 	cmp	r0, #0
    a704:	e24cb004 	sub	fp, ip, #4
    a708:	0a000002 	beq	a718 <_ZN4Ewok4XWin5closeEv+0x28>
    a70c:	eb00023e 	bl	b00c <xwin_close>
    a710:	e3a03000 	mov	r3, #0
    a714:	e5843008 	str	r3, [r4, #8]
    a718:	e24bd014 	sub	sp, fp, #20
    a71c:	e89d6830 	ldm	sp, {r4, r5, fp, sp, lr}
    a720:	e12fff1e 	bx	lr

0000a724 <_ZN4Ewok4XWin10setVisibleEb>:
    a724:	e1a0c00d 	mov	ip, sp
    a728:	e5900008 	ldr	r0, [r0, #8]
    a72c:	e3500000 	cmp	r0, #0
    a730:	e92dd800 	push	{fp, ip, lr, pc}
    a734:	e24cb004 	sub	fp, ip, #4
    a738:	0a000001 	beq	a744 <_ZN4Ewok4XWin10setVisibleEb+0x20>
    a73c:	eb0002f1 	bl	b308 <xwin_set_visible>
    a740:	e3a00001 	mov	r0, #1
    a744:	e24bd00c 	sub	sp, fp, #12
    a748:	e89d6800 	ldm	sp, {fp, sp, lr}
    a74c:	e12fff1e 	bx	lr

0000a750 <_ZN4Ewok4XWin7callXIMEv>:
    a750:	e1a0c00d 	mov	ip, sp
    a754:	e5900008 	ldr	r0, [r0, #8]
    a758:	e3500000 	cmp	r0, #0
    a75c:	e92dd800 	push	{fp, ip, lr, pc}
    a760:	e24cb004 	sub	fp, ip, #4
    a764:	0a000001 	beq	a770 <_ZN4Ewok4XWin7callXIMEv+0x20>
    a768:	eb0001d7 	bl	aecc <xwin_call_xim>
    a76c:	e3a00001 	mov	r0, #1
    a770:	e24bd00c 	sub	sp, fp, #12
    a774:	e89d6800 	ldm	sp, {fp, sp, lr}
    a778:	e12fff1e 	bx	lr

0000a77c <_ZN4Ewok4XWin10updateInfoER7xinfo_t>:
    a77c:	e1a0c00d 	mov	ip, sp
    a780:	e5900008 	ldr	r0, [r0, #8]
    a784:	e3500000 	cmp	r0, #0
    a788:	e92dd800 	push	{fp, ip, lr, pc}
    a78c:	e24cb004 	sub	fp, ip, #4
    a790:	0a000002 	beq	a7a0 <_ZN4Ewok4XWin10updateInfoER7xinfo_t+0x24>
    a794:	eb000185 	bl	adb0 <xwin_update_info>
    a798:	e2700001 	rsbs	r0, r0, #1
    a79c:	33a00000 	movcc	r0, #0
    a7a0:	e24bd00c 	sub	sp, fp, #12
    a7a4:	e89d6800 	ldm	sp, {fp, sp, lr}
    a7a8:	e12fff1e 	bx	lr

0000a7ac <_ZN4Ewok4XWin7getInfoER7xinfo_t>:
    a7ac:	e1a0c00d 	mov	ip, sp
    a7b0:	e5903008 	ldr	r3, [r0, #8]
    a7b4:	e3530000 	cmp	r3, #0
    a7b8:	e1a00001 	mov	r0, r1
    a7bc:	e92dd800 	push	{fp, ip, lr, pc}
    a7c0:	01a00003 	moveq	r0, r3
    a7c4:	e24cb004 	sub	fp, ip, #4
    a7c8:	0a000003 	beq	a7dc <_ZN4Ewok4XWin7getInfoER7xinfo_t+0x30>
    a7cc:	e3a02048 	mov	r2, #72	; 0x48
    a7d0:	e2831014 	add	r1, r3, #20
    a7d4:	eb002c9b 	bl	15a48 <memcpy>
    a7d8:	e3a00001 	mov	r0, #1
    a7dc:	e24bd00c 	sub	sp, fp, #12
    a7e0:	e89d6800 	ldm	sp, {fp, sp, lr}
    a7e4:	e12fff1e 	bx	lr

0000a7e8 <_ZN4Ewok4XWin7repaintEb>:
    a7e8:	e1a0c00d 	mov	ip, sp
    a7ec:	e5900008 	ldr	r0, [r0, #8]
    a7f0:	e3500000 	cmp	r0, #0
    a7f4:	e92dd800 	push	{fp, ip, lr, pc}
    a7f8:	e24cb004 	sub	fp, ip, #4
    a7fc:	1b00021b 	blne	b070 <xwin_repaint>
    a800:	e24bd00c 	sub	sp, fp, #12
    a804:	e89d6800 	ldm	sp, {fp, sp, lr}
    a808:	e12fff1e 	bx	lr

0000a80c <_ZN4Ewok4XWin6resizeEii>:
    a80c:	e1a0c00d 	mov	ip, sp
    a810:	e5900008 	ldr	r0, [r0, #8]
    a814:	e3500000 	cmp	r0, #0
    a818:	e92dd800 	push	{fp, ip, lr, pc}
    a81c:	e24cb004 	sub	fp, ip, #4
    a820:	1b0002a3 	blne	b2b4 <xwin_resize>
    a824:	e24bd00c 	sub	sp, fp, #12
    a828:	e89d6800 	ldm	sp, {fp, sp, lr}
    a82c:	e12fff1e 	bx	lr

0000a830 <_ZN4Ewok4XWin8resizeToEii>:
    a830:	e1a0c00d 	mov	ip, sp
    a834:	e5900008 	ldr	r0, [r0, #8]
    a838:	e3500000 	cmp	r0, #0
    a83c:	e92dd800 	push	{fp, ip, lr, pc}
    a840:	e24cb004 	sub	fp, ip, #4
    a844:	1b000286 	blne	b264 <xwin_resize_to>
    a848:	e24bd00c 	sub	sp, fp, #12
    a84c:	e89d6800 	ldm	sp, {fp, sp, lr}
    a850:	e12fff1e 	bx	lr

0000a854 <_ZN4Ewok4XWin4moveEii>:
    a854:	e1a0c00d 	mov	ip, sp
    a858:	e5900008 	ldr	r0, [r0, #8]
    a85c:	e3500000 	cmp	r0, #0
    a860:	e92dd800 	push	{fp, ip, lr, pc}
    a864:	e24cb004 	sub	fp, ip, #4
    a868:	1b0002a1 	blne	b2f4 <xwin_move>
    a86c:	e24bd00c 	sub	sp, fp, #12
    a870:	e89d6800 	ldm	sp, {fp, sp, lr}
    a874:	e12fff1e 	bx	lr

0000a878 <_ZN4Ewok4XWin6moveToEii>:
    a878:	e1a0c00d 	mov	ip, sp
    a87c:	e5900008 	ldr	r0, [r0, #8]
    a880:	e3500000 	cmp	r0, #0
    a884:	e92dd800 	push	{fp, ip, lr, pc}
    a888:	e24cb004 	sub	fp, ip, #4
    a88c:	1b00028d 	blne	b2c8 <xwin_move_to>
    a890:	e24bd00c 	sub	sp, fp, #12
    a894:	e89d6800 	ldm	sp, {fp, sp, lr}
    a898:	e12fff1e 	bx	lr

0000a89c <_ZN4Ewok4XWin10setDisplayEi>:
    a89c:	e1a0c00d 	mov	ip, sp
    a8a0:	e5900008 	ldr	r0, [r0, #8]
    a8a4:	e3500000 	cmp	r0, #0
    a8a8:	e92dd800 	push	{fp, ip, lr, pc}
    a8ac:	e24cb004 	sub	fp, ip, #4
    a8b0:	1b000261 	blne	b23c <xwin_set_display>
    a8b4:	e24bd00c 	sub	sp, fp, #12
    a8b8:	e89d6800 	ldm	sp, {fp, sp, lr}
    a8bc:	e12fff1e 	bx	lr

0000a8c0 <_ZN4Ewok4XWin7setCWinEP7st_xwin>:
    a8c0:	e92d4070 	push	{r4, r5, r6, lr}
    a8c4:	e59fc058 	ldr	ip, [pc, #88]	; a924 <_ZN4Ewok4XWin7setCWinEP7st_xwin+0x64>
    a8c8:	e59f6058 	ldr	r6, [pc, #88]	; a928 <_ZN4Ewok4XWin7setCWinEP7st_xwin+0x68>
    a8cc:	e59f5058 	ldr	r5, [pc, #88]	; a92c <_ZN4Ewok4XWin7setCWinEP7st_xwin+0x6c>
    a8d0:	e59f4058 	ldr	r4, [pc, #88]	; a930 <_ZN4Ewok4XWin7setCWinEP7st_xwin+0x70>
    a8d4:	e59fe058 	ldr	lr, [pc, #88]	; a934 <_ZN4Ewok4XWin7setCWinEP7st_xwin+0x74>
    a8d8:	e59f2058 	ldr	r2, [pc, #88]	; a938 <_ZN4Ewok4XWin7setCWinEP7st_xwin+0x78>
    a8dc:	e59f3058 	ldr	r3, [pc, #88]	; a93c <_ZN4Ewok4XWin7setCWinEP7st_xwin+0x7c>
    a8e0:	e08f6006 	add	r6, pc, r6
    a8e4:	e08f5005 	add	r5, pc, r5
    a8e8:	e08f4004 	add	r4, pc, r4
    a8ec:	e08fe00e 	add	lr, pc, lr
    a8f0:	e08fc00c 	add	ip, pc, ip
    a8f4:	e08f2002 	add	r2, pc, r2
    a8f8:	e08f3003 	add	r3, pc, r3
    a8fc:	e5801008 	str	r1, [r0, #8]
    a900:	e58160a4 	str	r6, [r1, #164]	; 0xa4
    a904:	e58150b8 	str	r5, [r1, #184]	; 0xb8
    a908:	e58140a8 	str	r4, [r1, #168]	; 0xa8
    a90c:	e581e0ac 	str	lr, [r1, #172]	; 0xac
    a910:	e581c0b0 	str	ip, [r1, #176]	; 0xb0
    a914:	e58120b4 	str	r2, [r1, #180]	; 0xb4
    a918:	e58130bc 	str	r3, [r1, #188]	; 0xbc
    a91c:	e8bd4070 	pop	{r4, r5, r6, lr}
    a920:	e12fff1e 	bx	lr
    a924:	fffffd4c 			; <UNDEFINED> instruction: 0xfffffd4c
    a928:	fffffd1c 			; <UNDEFINED> instruction: 0xfffffd1c
    a92c:	fffffc20 			; <UNDEFINED> instruction: 0xfffffc20
    a930:	fffffc94 			; <UNDEFINED> instruction: 0xfffffc94
    a934:	fffffcd0 			; <UNDEFINED> instruction: 0xfffffcd0
    a938:	fffffd88 			; <UNDEFINED> instruction: 0xfffffd88
    a93c:	fffffc30 			; <UNDEFINED> instruction: 0xfffffc30

0000a940 <sig_stop>:
    a940:	e3a03001 	mov	r3, #1
    a944:	e5c13008 	strb	r3, [r1, #8]
    a948:	e12fff1e 	bx	lr

0000a94c <x_push_event>:
    a94c:	e1a0c00d 	mov	ip, sp
    a950:	e92dd830 	push	{r4, r5, fp, ip, lr, pc}
    a954:	e1a05000 	mov	r5, r0
    a958:	e24cb004 	sub	fp, ip, #4
    a95c:	e3a00030 	mov	r0, #48	; 0x30
    a960:	e1a04001 	mov	r4, r1
    a964:	eb001bff 	bl	11968 <malloc>
    a968:	e3a03000 	mov	r3, #0
    a96c:	e1a01004 	mov	r1, r4
    a970:	e3a0202c 	mov	r2, #44	; 0x2c
    a974:	e580302c 	str	r3, [r0, #44]	; 0x2c
    a978:	e1a04000 	mov	r4, r0
    a97c:	eb002c31 	bl	15a48 <memcpy>
    a980:	e5953010 	ldr	r3, [r5, #16]
    a984:	e3530000 	cmp	r3, #0
    a988:	1583402c 	strne	r4, [r3, #44]	; 0x2c
    a98c:	0585400c 	streq	r4, [r5, #12]
    a990:	e5854010 	str	r4, [r5, #16]
    a994:	e24bd014 	sub	sp, fp, #20
    a998:	e89d6830 	ldm	sp, {r4, r5, fp, sp, lr}
    a99c:	e12fff1e 	bx	lr

0000a9a0 <handle>:
    a9a0:	e1a0c00d 	mov	ip, sp
    a9a4:	e92dd810 	push	{r4, fp, ip, lr, pc}
    a9a8:	e3510000 	cmp	r1, #0
    a9ac:	e24cb004 	sub	fp, ip, #4
    a9b0:	e24dd034 	sub	sp, sp, #52	; 0x34
    a9b4:	e1a00002 	mov	r0, r2
    a9b8:	0a000002 	beq	a9c8 <handle+0x28>
    a9bc:	e24bd010 	sub	sp, fp, #16
    a9c0:	e89d6810 	ldm	sp, {r4, fp, sp, lr}
    a9c4:	e12fff1e 	bx	lr
    a9c8:	e24b4040 	sub	r4, fp, #64	; 0x40
    a9cc:	e3a0202c 	mov	r2, #44	; 0x2c
    a9d0:	e1a01004 	mov	r1, r4
    a9d4:	eb001811 	bl	10a20 <proto_read_to>
    a9d8:	e1a01004 	mov	r1, r4
    a9dc:	e59b0004 	ldr	r0, [fp, #4]
    a9e0:	ebffffd9 	bl	a94c <x_push_event>
    a9e4:	e24bd010 	sub	sp, fp, #16
    a9e8:	e89d6810 	ldm	sp, {r4, fp, sp, lr}
    a9ec:	e12fff1e 	bx	lr

0000a9f0 <x_screen_info>:
    a9f0:	e1a0c00d 	mov	ip, sp
    a9f4:	e92dd8f0 	push	{r4, r5, r6, r7, fp, ip, lr, pc}
    a9f8:	e24cb004 	sub	fp, ip, #4
    a9fc:	e24ddf4a 	sub	sp, sp, #296	; 0x128
    aa00:	e1a04001 	mov	r4, r1
    aa04:	e1a07000 	mov	r7, r0
    aa08:	eb0017a3 	bl	1089c <get_proto_factor>
    aa0c:	e1a03000 	mov	r3, r0
    aa10:	e24b60b0 	sub	r6, fp, #176	; 0xb0
    aa14:	e5933004 	ldr	r3, [r3, #4]
    aa18:	e1a00006 	mov	r0, r6
    aa1c:	e1a0e00f 	mov	lr, pc
    aa20:	e12fff13 	bx	r3
    aa24:	eb00179c 	bl	1089c <get_proto_factor>
    aa28:	e1a03000 	mov	r3, r0
    aa2c:	e24b5f51 	sub	r5, fp, #324	; 0x144
    aa30:	e5933004 	ldr	r3, [r3, #4]
    aa34:	e1a00005 	mov	r0, r5
    aa38:	e1a0e00f 	mov	lr, pc
    aa3c:	e12fff13 	bx	r3
    aa40:	e1a03000 	mov	r3, r0
    aa44:	e1a01004 	mov	r1, r4
    aa48:	e5933014 	ldr	r3, [r3, #20]
    aa4c:	e1a00005 	mov	r0, r5
    aa50:	e1a0e00f 	mov	lr, pc
    aa54:	e12fff13 	bx	r3
    aa58:	e59f006c 	ldr	r0, [pc, #108]	; aacc <x_screen_info+0xdc>
    aa5c:	e1a03006 	mov	r3, r6
    aa60:	e1a02005 	mov	r2, r5
    aa64:	e3a01000 	mov	r1, #0
    aa68:	e08f0000 	add	r0, pc, r0
    aa6c:	eb00166d 	bl	10428 <dev_cntl>
    aa70:	e2504000 	subs	r4, r0, #0
    aa74:	0a00000f 	beq	aab8 <x_screen_info+0xc8>
    aa78:	eb001787 	bl	1089c <get_proto_factor>
    aa7c:	e1a03000 	mov	r3, r0
    aa80:	e1a00005 	mov	r0, r5
    aa84:	e593300c 	ldr	r3, [r3, #12]
    aa88:	e1a0e00f 	mov	lr, pc
    aa8c:	e12fff13 	bx	r3
    aa90:	eb001781 	bl	1089c <get_proto_factor>
    aa94:	e1a03000 	mov	r3, r0
    aa98:	e1a00006 	mov	r0, r6
    aa9c:	e593300c 	ldr	r3, [r3, #12]
    aaa0:	e1a0e00f 	mov	lr, pc
    aaa4:	e12fff13 	bx	r3
    aaa8:	e1a00004 	mov	r0, r4
    aaac:	e24bd01c 	sub	sp, fp, #28
    aab0:	e89d68f0 	ldm	sp, {r4, r5, r6, r7, fp, sp, lr}
    aab4:	e12fff1e 	bx	lr
    aab8:	e3a02010 	mov	r2, #16
    aabc:	e1a01007 	mov	r1, r7
    aac0:	e1a00006 	mov	r0, r6
    aac4:	eb0017d5 	bl	10a20 <proto_read_to>
    aac8:	eaffffea 	b	aa78 <x_screen_info+0x88>
    aacc:	0000d03c 	andeq	sp, r0, ip, lsr r0

0000aad0 <x_get_display_num>:
    aad0:	e1a0c00d 	mov	ip, sp
    aad4:	e92dd810 	push	{r4, fp, ip, lr, pc}
    aad8:	e24cb004 	sub	fp, ip, #4
    aadc:	e24dd09c 	sub	sp, sp, #156	; 0x9c
    aae0:	eb00176d 	bl	1089c <get_proto_factor>
    aae4:	e1a03000 	mov	r3, r0
    aae8:	e24b40a8 	sub	r4, fp, #168	; 0xa8
    aaec:	e5933004 	ldr	r3, [r3, #4]
    aaf0:	e1a00004 	mov	r0, r4
    aaf4:	e1a0e00f 	mov	lr, pc
    aaf8:	e12fff13 	bx	r3
    aafc:	e59f003c 	ldr	r0, [pc, #60]	; ab40 <x_get_display_num+0x70>
    ab00:	e1a03004 	mov	r3, r4
    ab04:	e3a02000 	mov	r2, #0
    ab08:	e3a01001 	mov	r1, #1
    ab0c:	e08f0000 	add	r0, pc, r0
    ab10:	eb001644 	bl	10428 <dev_cntl>
    ab14:	e3500000 	cmp	r0, #0
    ab18:	13a00000 	movne	r0, #0
    ab1c:	0a000002 	beq	ab2c <x_get_display_num+0x5c>
    ab20:	e24bd010 	sub	sp, fp, #16
    ab24:	e89d6810 	ldm	sp, {r4, fp, sp, lr}
    ab28:	e12fff1e 	bx	lr
    ab2c:	e1a00004 	mov	r0, r4
    ab30:	eb001827 	bl	10bd4 <proto_read_int>
    ab34:	e24bd010 	sub	sp, fp, #16
    ab38:	e89d6810 	ldm	sp, {r4, fp, sp, lr}
    ab3c:	e12fff1e 	bx	lr
    ab40:	0000cf98 	muleq	r0, r8, pc	; <UNPREDICTABLE>

0000ab44 <x_init>:
    ab44:	e1a0c00d 	mov	ip, sp
    ab48:	e92dd830 	push	{r4, r5, fp, ip, lr, pc}
    ab4c:	e1a04000 	mov	r4, r0
    ab50:	e1a05001 	mov	r5, r1
    ab54:	e24cb004 	sub	fp, ip, #4
    ab58:	e3a02018 	mov	r2, #24
    ab5c:	e3a01000 	mov	r1, #0
    ab60:	eb002c56 	bl	15cc0 <memset>
    ab64:	e59f101c 	ldr	r1, [pc, #28]	; ab88 <x_init+0x44>
    ab68:	e1a02004 	mov	r2, r4
    ab6c:	e5845004 	str	r5, [r4, #4]
    ab70:	e08f1001 	add	r1, pc, r1
    ab74:	e3a00000 	mov	r0, #0
    ab78:	eb001271 	bl	f544 <sys_signal>
    ab7c:	e24bd014 	sub	sp, fp, #20
    ab80:	e89d6830 	ldm	sp, {r4, r5, fp, sp, lr}
    ab84:	e12fff1e 	bx	lr
    ab88:	fffffdc8 			; <UNDEFINED> instruction: 0xfffffdc8

0000ab8c <x_run>:
    ab8c:	e1a0c00d 	mov	ip, sp
    ab90:	e92dd9f0 	push	{r4, r5, r6, r7, r8, fp, ip, lr, pc}
    ab94:	e1a04000 	mov	r4, r0
    ab98:	e59f00f0 	ldr	r0, [pc, #240]	; ac90 <x_run+0x104>
    ab9c:	e24cb004 	sub	fp, ip, #4
    aba0:	e24dd034 	sub	sp, sp, #52	; 0x34
    aba4:	e3a03001 	mov	r3, #1
    aba8:	e1a07001 	mov	r7, r1
    abac:	e1a02004 	mov	r2, r4
    abb0:	e3a01000 	mov	r1, #0
    abb4:	e08f0000 	add	r0, pc, r0
    abb8:	eb001208 	bl	f3e0 <ipc_serv_run>
    abbc:	e5d43008 	ldrb	r3, [r4, #8]
    abc0:	e3530000 	cmp	r3, #0
    abc4:	1a000020 	bne	ac4c <x_run+0xc0>
    abc8:	e59f80c4 	ldr	r8, [pc, #196]	; ac94 <x_run+0x108>
    abcc:	e24b6050 	sub	r6, fp, #80	; 0x50
    abd0:	e594500c 	ldr	r5, [r4, #12]
    abd4:	e3550000 	cmp	r5, #0
    abd8:	0a00001e 	beq	ac58 <x_run+0xcc>
    abdc:	eb001084 	bl	edf4 <ipc_disable>
    abe0:	e594300c 	ldr	r3, [r4, #12]
    abe4:	e593302c 	ldr	r3, [r3, #44]	; 0x2c
    abe8:	e3530000 	cmp	r3, #0
    abec:	e1a01005 	mov	r1, r5
    abf0:	05843010 	streq	r3, [r4, #16]
    abf4:	e3a0202c 	mov	r2, #44	; 0x2c
    abf8:	e584300c 	str	r3, [r4, #12]
    abfc:	e1a00006 	mov	r0, r6
    ac00:	eb002b90 	bl	15a48 <memcpy>
    ac04:	e1a00005 	mov	r0, r5
    ac08:	eb001b4d 	bl	11944 <free>
    ac0c:	eb001085 	bl	ee28 <ipc_enable>
    ac10:	e51b5048 	ldr	r5, [fp, #-72]	; 0xffffffb8
    ac14:	e3550000 	cmp	r5, #0
    ac18:	0a000008 	beq	ac40 <x_run+0xb4>
    ac1c:	e55b3050 	ldrb	r3, [fp, #-80]	; 0xffffffb0
    ac20:	e3530003 	cmp	r3, #3
    ac24:	0a000015 	beq	ac80 <x_run+0xf4>
    ac28:	e59530bc 	ldr	r3, [r5, #188]	; 0xbc
    ac2c:	e3530000 	cmp	r3, #0
    ac30:	11a01006 	movne	r1, r6
    ac34:	11a00005 	movne	r0, r5
    ac38:	11a0e00f 	movne	lr, pc
    ac3c:	112fff13 	bxne	r3
    ac40:	e5d43008 	ldrb	r3, [r4, #8]
    ac44:	e3530000 	cmp	r3, #0
    ac48:	0affffe0 	beq	abd0 <x_run+0x44>
    ac4c:	e24bd020 	sub	sp, fp, #32
    ac50:	e89d69f0 	ldm	sp, {r4, r5, r6, r7, r8, fp, sp, lr}
    ac54:	e12fff1e 	bx	lr
    ac58:	e5943014 	ldr	r3, [r4, #20]
    ac5c:	e3530000 	cmp	r3, #0
    ac60:	0a000003 	beq	ac74 <x_run+0xe8>
    ac64:	e1a00007 	mov	r0, r7
    ac68:	e1a0e00f 	mov	lr, pc
    ac6c:	e12fff13 	bx	r3
    ac70:	eafffff2 	b	ac40 <x_run+0xb4>
    ac74:	e1a00008 	mov	r0, r8
    ac78:	eb001aa8 	bl	11720 <usleep>
    ac7c:	eaffffef 	b	ac40 <x_run+0xb4>
    ac80:	e1a01006 	mov	r1, r6
    ac84:	e1a00005 	mov	r0, r5
    ac88:	eb0001b4 	bl	b360 <xwin_event_handle>
    ac8c:	eaffffe5 	b	ac28 <x_run+0x9c>
    ac90:	fffffde4 			; <UNDEFINED> instruction: 0xfffffde4
    ac94:	00004e20 	andeq	r4, r0, r0, lsr #28

0000ac98 <x_get_work_dir>:
    ac98:	e1a0c00d 	mov	ip, sp
    ac9c:	e92dd800 	push	{fp, ip, lr, pc}
    aca0:	e24cb004 	sub	fp, ip, #4
    aca4:	eb000595 	bl	c300 <cmain_get_work_dir>
    aca8:	e24bd00c 	sub	sp, fp, #12
    acac:	e89d6800 	ldm	sp, {fp, sp, lr}
    acb0:	e12fff1e 	bx	lr

0000acb4 <x_get_workspace.isra.0>:
    acb4:	e1a0c00d 	mov	ip, sp
    acb8:	e92ddbf0 	push	{r4, r5, r6, r7, r8, r9, fp, ip, lr, pc}
    acbc:	e24cb004 	sub	fp, ip, #4
    acc0:	e24ddf4a 	sub	sp, sp, #296	; 0x128
    acc4:	e1a07002 	mov	r7, r2
    acc8:	e1a09001 	mov	r9, r1
    accc:	e1a06000 	mov	r6, r0
    acd0:	e1a08003 	mov	r8, r3
    acd4:	eb0016f0 	bl	1089c <get_proto_factor>
    acd8:	e1a03000 	mov	r3, r0
    acdc:	e24b50b8 	sub	r5, fp, #184	; 0xb8
    ace0:	e5933004 	ldr	r3, [r3, #4]
    ace4:	e1a00005 	mov	r0, r5
    ace8:	e1a0e00f 	mov	lr, pc
    acec:	e12fff13 	bx	r3
    acf0:	eb0016e9 	bl	1089c <get_proto_factor>
    acf4:	e1a03000 	mov	r3, r0
    acf8:	e24b4f53 	sub	r4, fp, #332	; 0x14c
    acfc:	e5933004 	ldr	r3, [r3, #4]
    ad00:	e1a00004 	mov	r0, r4
    ad04:	e1a0e00f 	mov	lr, pc
    ad08:	e12fff13 	bx	r3
    ad0c:	e1a03000 	mov	r3, r0
    ad10:	e1a01009 	mov	r1, r9
    ad14:	e5933014 	ldr	r3, [r3, #20]
    ad18:	e1a00004 	mov	r0, r4
    ad1c:	e1a0e00f 	mov	lr, pc
    ad20:	e12fff13 	bx	r3
    ad24:	e1a03000 	mov	r3, r0
    ad28:	e1a01007 	mov	r1, r7
    ad2c:	e3a02010 	mov	r2, #16
    ad30:	e5933010 	ldr	r3, [r3, #16]
    ad34:	e1a00004 	mov	r0, r4
    ad38:	e1a0e00f 	mov	lr, pc
    ad3c:	e12fff13 	bx	r3
    ad40:	e1a03005 	mov	r3, r5
    ad44:	e1a02004 	mov	r2, r4
    ad48:	e3a01004 	mov	r1, #4
    ad4c:	e1a00006 	mov	r0, r6
    ad50:	eb000c75 	bl	df2c <vfs_fcntl>
    ad54:	e1a06000 	mov	r6, r0
    ad58:	eb0016cf 	bl	1089c <get_proto_factor>
    ad5c:	e1a03000 	mov	r3, r0
    ad60:	e1a00004 	mov	r0, r4
    ad64:	e593300c 	ldr	r3, [r3, #12]
    ad68:	e1a0e00f 	mov	lr, pc
    ad6c:	e12fff13 	bx	r3
    ad70:	e3560000 	cmp	r6, #0
    ad74:	0a000008 	beq	ad9c <x_get_workspace.isra.0+0xe8>
    ad78:	eb0016c7 	bl	1089c <get_proto_factor>
    ad7c:	e1a03000 	mov	r3, r0
    ad80:	e1a00005 	mov	r0, r5
    ad84:	e593300c 	ldr	r3, [r3, #12]
    ad88:	e1a0e00f 	mov	lr, pc
    ad8c:	e12fff13 	bx	r3
    ad90:	e24bd024 	sub	sp, fp, #36	; 0x24
    ad94:	e89d6bf0 	ldm	sp, {r4, r5, r6, r7, r8, r9, fp, sp, lr}
    ad98:	e12fff1e 	bx	lr
    ad9c:	e3a02010 	mov	r2, #16
    ada0:	e1a01008 	mov	r1, r8
    ada4:	e1a00005 	mov	r0, r5
    ada8:	eb00171c 	bl	10a20 <proto_read_to>
    adac:	eafffff1 	b	ad78 <x_get_workspace.isra.0+0xc4>

0000adb0 <xwin_update_info>:
    adb0:	e1a0c00d 	mov	ip, sp
    adb4:	e92dd9f0 	push	{r4, r5, r6, r7, r8, fp, ip, lr, pc}
    adb8:	e24cb004 	sub	fp, ip, #4
    adbc:	e24ddf4b 	sub	sp, sp, #300	; 0x12c
    adc0:	e590300c 	ldr	r3, [r0, #12]
    adc4:	e3530000 	cmp	r3, #0
    adc8:	e1a04000 	mov	r4, r0
    adcc:	e1a07001 	mov	r7, r1
    add0:	0a000005 	beq	adec <xwin_update_info+0x3c>
    add4:	e3a03000 	mov	r3, #0
    add8:	e5900010 	ldr	r0, [r0, #16]
    addc:	e584300c 	str	r3, [r4, #12]
    ade0:	eb001908 	bl	11208 <shm_unmap>
    ade4:	e3e03000 	mvn	r3, #0
    ade8:	e5843010 	str	r3, [r4, #16]
    adec:	eb0016aa 	bl	1089c <get_proto_factor>
    adf0:	e1a03000 	mov	r3, r0
    adf4:	e24b80b8 	sub	r8, fp, #184	; 0xb8
    adf8:	e5933004 	ldr	r3, [r3, #4]
    adfc:	e1a00008 	mov	r0, r8
    ae00:	e1a0e00f 	mov	lr, pc
    ae04:	e12fff13 	bx	r3
    ae08:	eb0016a3 	bl	1089c <get_proto_factor>
    ae0c:	e1a03000 	mov	r3, r0
    ae10:	e24b5f53 	sub	r5, fp, #332	; 0x14c
    ae14:	e5933004 	ldr	r3, [r3, #4]
    ae18:	e1a00005 	mov	r0, r5
    ae1c:	e1a0e00f 	mov	lr, pc
    ae20:	e12fff13 	bx	r3
    ae24:	e1a03000 	mov	r3, r0
    ae28:	e3a02048 	mov	r2, #72	; 0x48
    ae2c:	e1a01007 	mov	r1, r7
    ae30:	e5933010 	ldr	r3, [r3, #16]
    ae34:	e1a00005 	mov	r0, r5
    ae38:	e1a0e00f 	mov	lr, pc
    ae3c:	e12fff13 	bx	r3
    ae40:	e1a03008 	mov	r3, r8
    ae44:	e1a02005 	mov	r2, r5
    ae48:	e3a01003 	mov	r1, #3
    ae4c:	e5940004 	ldr	r0, [r4, #4]
    ae50:	eb000c35 	bl	df2c <vfs_fcntl>
    ae54:	e1a06000 	mov	r6, r0
    ae58:	eb00168f 	bl	1089c <get_proto_factor>
    ae5c:	e1a03000 	mov	r3, r0
    ae60:	e1a00005 	mov	r0, r5
    ae64:	e593300c 	ldr	r3, [r3, #12]
    ae68:	e1a0e00f 	mov	lr, pc
    ae6c:	e12fff13 	bx	r3
    ae70:	e3560000 	cmp	r6, #0
    ae74:	0a000009 	beq	aea0 <xwin_update_info+0xf0>
    ae78:	eb001687 	bl	1089c <get_proto_factor>
    ae7c:	e1a03000 	mov	r3, r0
    ae80:	e1a00008 	mov	r0, r8
    ae84:	e593300c 	ldr	r3, [r3, #12]
    ae88:	e1a0e00f 	mov	lr, pc
    ae8c:	e12fff13 	bx	r3
    ae90:	e1a00006 	mov	r0, r6
    ae94:	e24bd020 	sub	sp, fp, #32
    ae98:	e89d69f0 	ldm	sp, {r4, r5, r6, r7, r8, fp, sp, lr}
    ae9c:	e12fff1e 	bx	lr
    aea0:	e3a02048 	mov	r2, #72	; 0x48
    aea4:	e1a01007 	mov	r1, r7
    aea8:	e1a00008 	mov	r0, r8
    aeac:	eb0016db 	bl	10a20 <proto_read_to>
    aeb0:	e2840014 	add	r0, r4, #20
    aeb4:	e1500007 	cmp	r0, r7
    aeb8:	0affffee 	beq	ae78 <xwin_update_info+0xc8>
    aebc:	e3a02048 	mov	r2, #72	; 0x48
    aec0:	e1a01007 	mov	r1, r7
    aec4:	eb002adf 	bl	15a48 <memcpy>
    aec8:	eaffffea 	b	ae78 <xwin_update_info+0xc8>

0000aecc <xwin_call_xim>:
    aecc:	e1a0c00d 	mov	ip, sp
    aed0:	e3a03000 	mov	r3, #0
    aed4:	e92dd800 	push	{fp, ip, lr, pc}
    aed8:	e3a01005 	mov	r1, #5
    aedc:	e24cb004 	sub	fp, ip, #4
    aee0:	e1a02003 	mov	r2, r3
    aee4:	e5900004 	ldr	r0, [r0, #4]
    aee8:	eb000c0f 	bl	df2c <vfs_fcntl>
    aeec:	e24bd00c 	sub	sp, fp, #12
    aef0:	e89d6800 	ldm	sp, {fp, sp, lr}
    aef4:	e12fff1e 	bx	lr

0000aef8 <xwin_open>:
    aef8:	e1a0c00d 	mov	ip, sp
    aefc:	e92ddff0 	push	{r4, r5, r6, r7, r8, r9, sl, fp, ip, lr, pc}
    af00:	e24cb004 	sub	fp, ip, #4
    af04:	e24dd05c 	sub	sp, sp, #92	; 0x5c
    af08:	e59b7004 	ldr	r7, [fp, #4]
    af0c:	e3570000 	cmp	r7, #0
    af10:	c3530000 	cmpgt	r3, #0
    af14:	e1a04003 	mov	r4, r3
    af18:	d3a09001 	movle	r9, #1
    af1c:	c3a09000 	movgt	r9, #0
    af20:	e1a05000 	mov	r5, r0
    af24:	e1a0a001 	mov	sl, r1
    af28:	e1a06002 	mov	r6, r2
    af2c:	da000030 	ble	aff4 <xwin_open+0xfc>
    af30:	e59f00d0 	ldr	r0, [pc, #208]	; b008 <xwin_open+0x110>
    af34:	e3a01003 	mov	r1, #3
    af38:	e08f0000 	add	r0, pc, r0
    af3c:	eb001cc0 	bl	12244 <open>
    af40:	e2508000 	subs	r8, r0, #0
    af44:	ba00002a 	blt	aff4 <xwin_open+0xfc>
    af48:	e50b6080 	str	r6, [fp, #-128]	; 0xffffff80
    af4c:	e24b6084 	sub	r6, fp, #132	; 0x84
    af50:	e1a03006 	mov	r3, r6
    af54:	e1a02006 	mov	r2, r6
    af58:	e59b100c 	ldr	r1, [fp, #12]
    af5c:	e50b407c 	str	r4, [fp, #-124]	; 0xffffff84
    af60:	e50ba084 	str	sl, [fp, #-132]	; 0xffffff7c
    af64:	e50b7078 	str	r7, [fp, #-120]	; 0xffffff88
    af68:	ebffff51 	bl	acb4 <x_get_workspace.isra.0>
    af6c:	e3a000c0 	mov	r0, #192	; 0xc0
    af70:	eb001a7c 	bl	11968 <malloc>
    af74:	e1a04000 	mov	r4, r0
    af78:	e1a01009 	mov	r1, r9
    af7c:	e3a020c0 	mov	r2, #192	; 0xc0
    af80:	eb002b4e 	bl	15cc0 <memset>
    af84:	e5953000 	ldr	r3, [r5]
    af88:	e3530000 	cmp	r3, #0
    af8c:	05854000 	streq	r4, [r5]
    af90:	e8840120 	stm	r4, {r5, r8}
    af94:	e24b5074 	sub	r5, fp, #116	; 0x74
    af98:	e3a02048 	mov	r2, #72	; 0x48
    af9c:	e3a01000 	mov	r1, #0
    afa0:	e1a00005 	mov	r0, r5
    afa4:	eb002b45 	bl	15cc0 <memset>
    afa8:	e3a03000 	mov	r3, #0
    afac:	e59b200c 	ldr	r2, [fp, #12]
    afb0:	e50b3064 	str	r3, [fp, #-100]	; 0xffffff9c
    afb4:	e50b2068 	str	r2, [fp, #-104]	; 0xffffff98
    afb8:	e896000f 	ldm	r6, {r0, r1, r2, r3}
    afbc:	e24bc05c 	sub	ip, fp, #92	; 0x5c
    afc0:	e88c000f 	stm	ip, {r0, r1, r2, r3}
    afc4:	e3a0201f 	mov	r2, #31
    afc8:	e59b1008 	ldr	r1, [fp, #8]
    afcc:	e24b004c 	sub	r0, fp, #76	; 0x4c
    afd0:	e50b4074 	str	r4, [fp, #-116]	; 0xffffff8c
    afd4:	eb002ef2 	bl	16ba4 <strncpy>
    afd8:	e1a01005 	mov	r1, r5
    afdc:	e1a00004 	mov	r0, r4
    afe0:	ebffff72 	bl	adb0 <xwin_update_info>
    afe4:	e1a00004 	mov	r0, r4
    afe8:	e24bd028 	sub	sp, fp, #40	; 0x28
    afec:	e89d6ff0 	ldm	sp, {r4, r5, r6, r7, r8, r9, sl, fp, sp, lr}
    aff0:	e12fff1e 	bx	lr
    aff4:	e3a04000 	mov	r4, #0
    aff8:	e1a00004 	mov	r0, r4
    affc:	e24bd028 	sub	sp, fp, #40	; 0x28
    b000:	e89d6ff0 	ldm	sp, {r4, r5, r6, r7, r8, r9, sl, fp, sp, lr}
    b004:	e12fff1e 	bx	lr
    b008:	0000cb6c 	andeq	ip, r0, ip, ror #22

0000b00c <xwin_close>:
    b00c:	e1a0c00d 	mov	ip, sp
    b010:	e92dd830 	push	{r4, r5, fp, ip, lr, pc}
    b014:	e2504000 	subs	r4, r0, #0
    b018:	e24cb004 	sub	fp, ip, #4
    b01c:	0a000010 	beq	b064 <xwin_close+0x58>
    b020:	e59430a4 	ldr	r3, [r4, #164]	; 0xa4
    b024:	e3530000 	cmp	r3, #0
    b028:	11a0e00f 	movne	lr, pc
    b02c:	112fff13 	bxne	r3
    b030:	e594300c 	ldr	r3, [r4, #12]
    b034:	e3530000 	cmp	r3, #0
    b038:	15940010 	ldrne	r0, [r4, #16]
    b03c:	1b001871 	blne	11208 <shm_unmap>
    b040:	e5940004 	ldr	r0, [r4, #4]
    b044:	eb001ceb 	bl	123f8 <close>
    b048:	e5943000 	ldr	r3, [r4]
    b04c:	e5932000 	ldr	r2, [r3]
    b050:	e1520004 	cmp	r2, r4
    b054:	03a02001 	moveq	r2, #1
    b058:	e1a00004 	mov	r0, r4
    b05c:	05c32008 	strbeq	r2, [r3, #8]
    b060:	eb001a37 	bl	11944 <free>
    b064:	e24bd014 	sub	sp, fp, #20
    b068:	e89d6830 	ldm	sp, {r4, r5, fp, sp, lr}
    b06c:	e12fff1e 	bx	lr

0000b070 <xwin_repaint>:
    b070:	e1a0c00d 	mov	ip, sp
    b074:	e92dd870 	push	{r4, r5, r6, fp, ip, lr, pc}
    b078:	e24cb004 	sub	fp, ip, #4
    b07c:	e24dd09c 	sub	sp, sp, #156	; 0x9c
    b080:	e59030b8 	ldr	r3, [r0, #184]	; 0xb8
    b084:	e3530000 	cmp	r3, #0
    b088:	e1a06000 	mov	r6, r0
    b08c:	0a00003e 	beq	b18c <xwin_repaint+0x11c>
    b090:	e3510000 	cmp	r1, #0
    b094:	024b50b0 	subeq	r5, fp, #176	; 0xb0
    b098:	0a000023 	beq	b12c <xwin_repaint+0xbc>
    b09c:	eb0015fe 	bl	1089c <get_proto_factor>
    b0a0:	e1a03000 	mov	r3, r0
    b0a4:	e24b50b0 	sub	r5, fp, #176	; 0xb0
    b0a8:	e1a00005 	mov	r0, r5
    b0ac:	e5933004 	ldr	r3, [r3, #4]
    b0b0:	e3a04ffa 	mov	r4, #1000	; 0x3e8
    b0b4:	e1a0e00f 	mov	lr, pc
    b0b8:	e12fff13 	bx	r3
    b0bc:	ea000009 	b	b0e8 <xwin_repaint+0x78>
    b0c0:	eb0015f5 	bl	1089c <get_proto_factor>
    b0c4:	e1a03000 	mov	r3, r0
    b0c8:	e1a00005 	mov	r0, r5
    b0cc:	e593300c 	ldr	r3, [r3, #12]
    b0d0:	e1a0e00f 	mov	lr, pc
    b0d4:	e12fff13 	bx	r3
    b0d8:	e3a00ffa 	mov	r0, #1000	; 0x3e8
    b0dc:	eb00198f 	bl	11720 <usleep>
    b0e0:	e2544001 	subs	r4, r4, #1
    b0e4:	0a00002b 	beq	b198 <xwin_repaint+0x128>
    b0e8:	e1a03005 	mov	r3, r5
    b0ec:	e3a02000 	mov	r2, #0
    b0f0:	e3a01006 	mov	r1, #6
    b0f4:	e5960004 	ldr	r0, [r6, #4]
    b0f8:	eb000b8b 	bl	df2c <vfs_fcntl>
    b0fc:	e3500000 	cmp	r0, #0
    b100:	1affffee 	bne	b0c0 <xwin_repaint+0x50>
    b104:	e1a00005 	mov	r0, r5
    b108:	eb0016b1 	bl	10bd4 <proto_read_int>
    b10c:	e3500000 	cmp	r0, #0
    b110:	0affffea 	beq	b0c0 <xwin_repaint+0x50>
    b114:	eb0015e0 	bl	1089c <get_proto_factor>
    b118:	e1a03000 	mov	r3, r0
    b11c:	e1a00005 	mov	r0, r5
    b120:	e593300c 	ldr	r3, [r3, #12]
    b124:	e1a0e00f 	mov	lr, pc
    b128:	e12fff13 	bx	r3
    b12c:	e3a02020 	mov	r2, #32
    b130:	e3a01000 	mov	r1, #0
    b134:	e1a00005 	mov	r0, r5
    b138:	eb002ae0 	bl	15cc0 <memset>
    b13c:	e596000c 	ldr	r0, [r6, #12]
    b140:	e3500000 	cmp	r0, #0
    b144:	0a00001c 	beq	b1bc <xwin_repaint+0x14c>
    b148:	e3a04000 	mov	r4, #0
    b14c:	e2862034 	add	r2, r6, #52	; 0x34
    b150:	e892000c 	ldm	r2, {r2, r3}
    b154:	e1a01005 	mov	r1, r5
    b158:	e50b00b0 	str	r0, [fp, #-176]	; 0xffffff50
    b15c:	e50b20ac 	str	r2, [fp, #-172]	; 0xffffff54
    b160:	e1a00006 	mov	r0, r6
    b164:	e50b30a8 	str	r3, [fp, #-168]	; 0xffffff58
    b168:	e54b4094 	strb	r4, [fp, #-148]	; 0xffffff6c
    b16c:	e59630b8 	ldr	r3, [r6, #184]	; 0xb8
    b170:	e1a0e00f 	mov	lr, pc
    b174:	e12fff13 	bx	r3
    b178:	e1a03004 	mov	r3, r4
    b17c:	e1a02004 	mov	r2, r4
    b180:	e3a01002 	mov	r1, #2
    b184:	e5960004 	ldr	r0, [r6, #4]
    b188:	eb000b67 	bl	df2c <vfs_fcntl>
    b18c:	e24bd018 	sub	sp, fp, #24
    b190:	e89d6870 	ldm	sp, {r4, r5, r6, fp, sp, lr}
    b194:	e12fff1e 	bx	lr
    b198:	eb0015bf 	bl	1089c <get_proto_factor>
    b19c:	e1a03000 	mov	r3, r0
    b1a0:	e1a00005 	mov	r0, r5
    b1a4:	e593300c 	ldr	r3, [r3, #12]
    b1a8:	e1a0e00f 	mov	lr, pc
    b1ac:	e12fff13 	bx	r3
    b1b0:	e24bd018 	sub	sp, fp, #24
    b1b4:	e89d6870 	ldm	sp, {r4, r5, r6, fp, sp, lr}
    b1b8:	e12fff1e 	bx	lr
    b1bc:	e5960018 	ldr	r0, [r6, #24]
    b1c0:	eb001807 	bl	111e4 <shm_map>
    b1c4:	e3500000 	cmp	r0, #0
    b1c8:	e586000c 	str	r0, [r6, #12]
    b1cc:	0affffee 	beq	b18c <xwin_repaint+0x11c>
    b1d0:	e5963018 	ldr	r3, [r6, #24]
    b1d4:	e5863010 	str	r3, [r6, #16]
    b1d8:	eaffffda 	b	b148 <xwin_repaint+0xd8>

0000b1dc <xwin_repaint_req>:
    b1dc:	e1a0c00d 	mov	ip, sp
    b1e0:	e92dd870 	push	{r4, r5, r6, fp, ip, lr, pc}
    b1e4:	e24cb004 	sub	fp, ip, #4
    b1e8:	e24dd034 	sub	sp, sp, #52	; 0x34
    b1ec:	e1a05000 	mov	r5, r0
    b1f0:	e24b4048 	sub	r4, fp, #72	; 0x48
    b1f4:	e3a01000 	mov	r1, #0
    b1f8:	e3a0202c 	mov	r2, #44	; 0x2c
    b1fc:	e1a00004 	mov	r0, r4
    b200:	e5956000 	ldr	r6, [r5]
    b204:	eb002aad 	bl	15cc0 <memset>
    b208:	e3a02008 	mov	r2, #8
    b20c:	e3a03003 	mov	r3, #3
    b210:	e50b203c 	str	r2, [fp, #-60]	; 0xffffffc4
    b214:	e54b3048 	strb	r3, [fp, #-72]	; 0xffffffb8
    b218:	e50b5040 	str	r5, [fp, #-64]	; 0xffffffc0
    b21c:	eb000ef4 	bl	edf4 <ipc_disable>
    b220:	e1a01004 	mov	r1, r4
    b224:	e1a00006 	mov	r0, r6
    b228:	ebfffdc7 	bl	a94c <x_push_event>
    b22c:	eb000efd 	bl	ee28 <ipc_enable>
    b230:	e24bd018 	sub	sp, fp, #24
    b234:	e89d6870 	ldm	sp, {r4, r5, r6, fp, sp, lr}
    b238:	e12fff1e 	bx	lr

0000b23c <xwin_set_display>:
    b23c:	e1a0c00d 	mov	ip, sp
    b240:	e92dd800 	push	{fp, ip, lr, pc}
    b244:	e24cb004 	sub	fp, ip, #4
    b248:	e580101c 	str	r1, [r0, #28]
    b24c:	e2801014 	add	r1, r0, #20
    b250:	ebfffed6 	bl	adb0 <xwin_update_info>
    b254:	e3a00000 	mov	r0, #0
    b258:	e24bd00c 	sub	sp, fp, #12
    b25c:	e89d6800 	ldm	sp, {fp, sp, lr}
    b260:	e12fff1e 	bx	lr

0000b264 <xwin_resize_to>:
    b264:	e1a0c00d 	mov	ip, sp
    b268:	e92dd830 	push	{r4, r5, fp, ip, lr, pc}
    b26c:	e1a04000 	mov	r4, r0
    b270:	e5801034 	str	r1, [r0, #52]	; 0x34
    b274:	e5802038 	str	r2, [r0, #56]	; 0x38
    b278:	e24cb004 	sub	fp, ip, #4
    b27c:	e2801014 	add	r1, r0, #20
    b280:	ebfffeca 	bl	adb0 <xwin_update_info>
    b284:	e59430ac 	ldr	r3, [r4, #172]	; 0xac
    b288:	e3530000 	cmp	r3, #0
    b28c:	11a00004 	movne	r0, r4
    b290:	11a0e00f 	movne	lr, pc
    b294:	112fff13 	bxne	r3
    b298:	e1a00004 	mov	r0, r4
    b29c:	e3a01001 	mov	r1, #1
    b2a0:	ebffff72 	bl	b070 <xwin_repaint>
    b2a4:	e3a00000 	mov	r0, #0
    b2a8:	e24bd014 	sub	sp, fp, #20
    b2ac:	e89d6830 	ldm	sp, {r4, r5, fp, sp, lr}
    b2b0:	e12fff1e 	bx	lr

0000b2b4 <xwin_resize>:
    b2b4:	e2803034 	add	r3, r0, #52	; 0x34
    b2b8:	e8931008 	ldm	r3, {r3, ip}
    b2bc:	e082200c 	add	r2, r2, ip
    b2c0:	e0811003 	add	r1, r1, r3
    b2c4:	eaffffe6 	b	b264 <xwin_resize_to>

0000b2c8 <xwin_move_to>:
    b2c8:	e1a0c00d 	mov	ip, sp
    b2cc:	e92dd800 	push	{fp, ip, lr, pc}
    b2d0:	e24cb004 	sub	fp, ip, #4
    b2d4:	e580102c 	str	r1, [r0, #44]	; 0x2c
    b2d8:	e5802030 	str	r2, [r0, #48]	; 0x30
    b2dc:	e2801014 	add	r1, r0, #20
    b2e0:	ebfffeb2 	bl	adb0 <xwin_update_info>
    b2e4:	e3a00000 	mov	r0, #0
    b2e8:	e24bd00c 	sub	sp, fp, #12
    b2ec:	e89d6800 	ldm	sp, {fp, sp, lr}
    b2f0:	e12fff1e 	bx	lr

0000b2f4 <xwin_move>:
    b2f4:	e280302c 	add	r3, r0, #44	; 0x2c
    b2f8:	e8931008 	ldm	r3, {r3, ip}
    b2fc:	e082200c 	add	r2, r2, ip
    b300:	e0811003 	add	r1, r1, r3
    b304:	eaffffef 	b	b2c8 <xwin_move_to>

0000b308 <xwin_set_visible>:
    b308:	e1a0c00d 	mov	ip, sp
    b30c:	e59030b0 	ldr	r3, [r0, #176]	; 0xb0
    b310:	e3530000 	cmp	r3, #0
    b314:	e92dd830 	push	{r4, r5, fp, ip, lr, pc}
    b318:	e1a04000 	mov	r4, r0
    b31c:	e1a05001 	mov	r5, r1
    b320:	e24cb004 	sub	fp, ip, #4
    b324:	11a0e00f 	movne	lr, pc
    b328:	112fff13 	bxne	r3
    b32c:	e5c45028 	strb	r5, [r4, #40]	; 0x28
    b330:	e2841014 	add	r1, r4, #20
    b334:	e1a00004 	mov	r0, r4
    b338:	ebfffe9c 	bl	adb0 <xwin_update_info>
    b33c:	e1a03000 	mov	r3, r0
    b340:	e1a00004 	mov	r0, r4
    b344:	e1a04003 	mov	r4, r3
    b348:	e3a01001 	mov	r1, #1
    b34c:	ebffff47 	bl	b070 <xwin_repaint>
    b350:	e1a00004 	mov	r0, r4
    b354:	e24bd014 	sub	sp, fp, #20
    b358:	e89d6830 	ldm	sp, {r4, r5, fp, sp, lr}
    b35c:	e12fff1e 	bx	lr

0000b360 <xwin_event_handle>:
    b360:	e1a0c00d 	mov	ip, sp
    b364:	e92dd870 	push	{r4, r5, r6, fp, ip, lr, pc}
    b368:	e24cb004 	sub	fp, ip, #4
    b36c:	e24dd024 	sub	sp, sp, #36	; 0x24
    b370:	e591300c 	ldr	r3, [r1, #12]
    b374:	e3530000 	cmp	r3, #0
    b378:	e1a04000 	mov	r4, r0
    b37c:	1a000008 	bne	b3a4 <xwin_event_handle+0x44>
    b380:	e5903000 	ldr	r3, [r0]
    b384:	e5932000 	ldr	r2, [r3]
    b388:	e1520000 	cmp	r2, r0
    b38c:	03a02001 	moveq	r2, #1
    b390:	05c32008 	strbeq	r2, [r3, #8]
    b394:	e3a00000 	mov	r0, #0
    b398:	e24bd018 	sub	sp, fp, #24
    b39c:	e89d6870 	ldm	sp, {r4, r5, r6, fp, sp, lr}
    b3a0:	e12fff1e 	bx	lr
    b3a4:	e3530005 	cmp	r3, #5
    b3a8:	0a00001e 	beq	b428 <xwin_event_handle+0xc8>
    b3ac:	e3530006 	cmp	r3, #6
    b3b0:	0a000025 	beq	b44c <xwin_event_handle+0xec>
    b3b4:	e3530004 	cmp	r3, #4
    b3b8:	0a000027 	beq	b45c <xwin_event_handle+0xfc>
    b3bc:	e3530001 	cmp	r3, #1
    b3c0:	0a000036 	beq	b4a0 <xwin_event_handle+0x140>
    b3c4:	e3530007 	cmp	r3, #7
    b3c8:	0a00003f 	beq	b4cc <xwin_event_handle+0x16c>
    b3cc:	e3530008 	cmp	r3, #8
    b3d0:	0a000010 	beq	b418 <xwin_event_handle+0xb8>
    b3d4:	e3530003 	cmp	r3, #3
    b3d8:	1affffed 	bne	b394 <xwin_event_handle+0x34>
    b3dc:	e5903024 	ldr	r3, [r0, #36]	; 0x24
    b3e0:	e3530001 	cmp	r3, #1
    b3e4:	0a00003e 	beq	b4e4 <xwin_event_handle+0x184>
    b3e8:	e590101c 	ldr	r1, [r0, #28]
    b3ec:	e24b003c 	sub	r0, fp, #60	; 0x3c
    b3f0:	ebfffd7e 	bl	a9f0 <x_screen_info>
    b3f4:	e3500000 	cmp	r0, #0
    b3f8:	e2845014 	add	r5, r4, #20
    b3fc:	0a000040 	beq	b504 <xwin_event_handle+0x1a4>
    b400:	e1a01005 	mov	r1, r5
    b404:	e1a00004 	mov	r0, r4
    b408:	ebfffe68 	bl	adb0 <xwin_update_info>
    b40c:	e59430ac 	ldr	r3, [r4, #172]	; 0xac
    b410:	e3530000 	cmp	r3, #0
    b414:	1a00001d 	bne	b490 <xwin_event_handle+0x130>
    b418:	e3a01001 	mov	r1, #1
    b41c:	e1a00004 	mov	r0, r4
    b420:	ebffff12 	bl	b070 <xwin_repaint>
    b424:	eaffffda 	b	b394 <xwin_event_handle+0x34>
    b428:	e59030b0 	ldr	r3, [r0, #176]	; 0xb0
    b42c:	e3530000 	cmp	r3, #0
    b430:	0affffd7 	beq	b394 <xwin_event_handle+0x34>
    b434:	e1a0e00f 	mov	lr, pc
    b438:	e12fff13 	bx	r3
    b43c:	e3a00000 	mov	r0, #0
    b440:	e24bd018 	sub	sp, fp, #24
    b444:	e89d6870 	ldm	sp, {r4, r5, r6, fp, sp, lr}
    b448:	e12fff1e 	bx	lr
    b44c:	e59030b4 	ldr	r3, [r0, #180]	; 0xb4
    b450:	e3530000 	cmp	r3, #0
    b454:	1afffff6 	bne	b434 <xwin_event_handle+0xd4>
    b458:	eaffffcd 	b	b394 <xwin_event_handle+0x34>
    b45c:	e2802034 	add	r2, r0, #52	; 0x34
    b460:	e591c010 	ldr	ip, [r1, #16]
    b464:	e892000c 	ldm	r2, {r2, r3}
    b468:	e5911014 	ldr	r1, [r1, #20]
    b46c:	e082200c 	add	r2, r2, ip
    b470:	e0833001 	add	r3, r3, r1
    b474:	e5803038 	str	r3, [r0, #56]	; 0x38
    b478:	e5802034 	str	r2, [r0, #52]	; 0x34
    b47c:	e2801014 	add	r1, r0, #20
    b480:	ebfffe4a 	bl	adb0 <xwin_update_info>
    b484:	e59430ac 	ldr	r3, [r4, #172]	; 0xac
    b488:	e3530000 	cmp	r3, #0
    b48c:	0affffe1 	beq	b418 <xwin_event_handle+0xb8>
    b490:	e1a00004 	mov	r0, r4
    b494:	e1a0e00f 	mov	lr, pc
    b498:	e12fff13 	bx	r3
    b49c:	eaffffdd 	b	b418 <xwin_event_handle+0xb8>
    b4a0:	e280202c 	add	r2, r0, #44	; 0x2c
    b4a4:	e591c010 	ldr	ip, [r1, #16]
    b4a8:	e892000c 	ldm	r2, {r2, r3}
    b4ac:	e5911014 	ldr	r1, [r1, #20]
    b4b0:	e082200c 	add	r2, r2, ip
    b4b4:	e0833001 	add	r3, r3, r1
    b4b8:	e580202c 	str	r2, [r0, #44]	; 0x2c
    b4bc:	e5803030 	str	r3, [r0, #48]	; 0x30
    b4c0:	e2801014 	add	r1, r0, #20
    b4c4:	ebfffe39 	bl	adb0 <xwin_update_info>
    b4c8:	eaffffb1 	b	b394 <xwin_event_handle+0x34>
    b4cc:	e5911010 	ldr	r1, [r1, #16]
    b4d0:	e2413001 	sub	r3, r1, #1
    b4d4:	e2731000 	rsbs	r1, r3, #0
    b4d8:	e0a11003 	adc	r1, r1, r3
    b4dc:	ebffff89 	bl	b308 <xwin_set_visible>
    b4e0:	eaffffab 	b	b394 <xwin_event_handle+0x34>
    b4e4:	e2801074 	add	r1, r0, #116	; 0x74
    b4e8:	e3a02010 	mov	r2, #16
    b4ec:	e280002c 	add	r0, r0, #44	; 0x2c
    b4f0:	eb002954 	bl	15a48 <memcpy>
    b4f4:	e594306c 	ldr	r3, [r4, #108]	; 0x6c
    b4f8:	e2845014 	add	r5, r4, #20
    b4fc:	e5843024 	str	r3, [r4, #36]	; 0x24
    b500:	eaffffbe 	b	b400 <xwin_event_handle+0xa0>
    b504:	e3a02048 	mov	r2, #72	; 0x48
    b508:	e1a01005 	mov	r1, r5
    b50c:	e284005c 	add	r0, r4, #92	; 0x5c
    b510:	eb00294c 	bl	15a48 <memcpy>
    b514:	e3a0c000 	mov	ip, #0
    b518:	e24b2034 	sub	r2, fp, #52	; 0x34
    b51c:	e892000c 	ldm	r2, {r2, r3}
    b520:	e24b602c 	sub	r6, fp, #44	; 0x2c
    b524:	e50b2024 	str	r2, [fp, #-36]	; 0xffffffdc
    b528:	e50b3020 	str	r3, [fp, #-32]	; 0xffffffe0
    b52c:	e1a02006 	mov	r2, r6
    b530:	e1a03006 	mov	r3, r6
    b534:	e5941020 	ldr	r1, [r4, #32]
    b538:	e5940004 	ldr	r0, [r4, #4]
    b53c:	e50bc02c 	str	ip, [fp, #-44]	; 0xffffffd4
    b540:	e50bc028 	str	ip, [fp, #-40]	; 0xffffffd8
    b544:	ebfffdda 	bl	acb4 <x_get_workspace.isra.0>
    b548:	e3a02010 	mov	r2, #16
    b54c:	e1a01006 	mov	r1, r6
    b550:	e284002c 	add	r0, r4, #44	; 0x2c
    b554:	eb00293b 	bl	15a48 <memcpy>
    b558:	e3a03001 	mov	r3, #1
    b55c:	e5843024 	str	r3, [r4, #36]	; 0x24
    b560:	eaffffa6 	b	b400 <xwin_event_handle+0xa0>

0000b564 <sconf_parse>:
    b564:	e1a0c00d 	mov	ip, sp
    b568:	e92ddff0 	push	{r4, r5, r6, r7, r8, r9, sl, fp, ip, lr, pc}
    b56c:	e24cb004 	sub	fp, ip, #4
    b570:	e24dd00c 	sub	sp, sp, #12
    b574:	e2504000 	subs	r4, r0, #0
    b578:	0a00006c 	beq	b730 <sconf_parse+0x1cc>
    b57c:	e5d43000 	ldrb	r3, [r4]
    b580:	e3530000 	cmp	r3, #0
    b584:	0a000069 	beq	b730 <sconf_parse+0x1cc>
    b588:	e3a00c01 	mov	r0, #256	; 0x100
    b58c:	eb0018f5 	bl	11968 <malloc>
    b590:	e2505000 	subs	r5, r0, #0
    b594:	0a000065 	beq	b730 <sconf_parse+0x1cc>
    b598:	e59f62dc 	ldr	r6, [pc, #732]	; b87c <sconf_parse+0x318>
    b59c:	e3a02c01 	mov	r2, #256	; 0x100
    b5a0:	e3a01000 	mov	r1, #0
    b5a4:	e08f6006 	add	r6, pc, r6
    b5a8:	eb0029c4 	bl	15cc0 <memset>
    b5ac:	e1a00006 	mov	r0, r6
    b5b0:	eb00015e 	bl	bb30 <str_new>
    b5b4:	e1a03000 	mov	r3, r0
    b5b8:	e1a00006 	mov	r0, r6
    b5bc:	e5853000 	str	r3, [r5]
    b5c0:	eb00015a 	bl	bb30 <str_new>
    b5c4:	e3a08000 	mov	r8, #0
    b5c8:	e59f32b0 	ldr	r3, [pc, #688]	; b880 <sconf_parse+0x31c>
    b5cc:	e59f62b0 	ldr	r6, [pc, #688]	; b884 <sconf_parse+0x320>
    b5d0:	e08f3003 	add	r3, pc, r3
    b5d4:	e1a09005 	mov	r9, r5
    b5d8:	e1a0a008 	mov	sl, r8
    b5dc:	e1a07008 	mov	r7, r8
    b5e0:	e50b3030 	str	r3, [fp, #-48]	; 0xffffffd0
    b5e4:	e5850004 	str	r0, [r5, #4]
    b5e8:	e08f6006 	add	r6, pc, r6
    b5ec:	ea00000b 	b	b620 <sconf_parse+0xbc>
    b5f0:	e351003d 	cmp	r1, #61	; 0x3d
    b5f4:	0a000083 	beq	b808 <sconf_parse+0x2a4>
    b5f8:	e2412009 	sub	r2, r1, #9
    b5fc:	e3510020 	cmp	r1, #32
    b600:	13520001 	cmpne	r2, #1
    b604:	9a000003 	bls	b618 <sconf_parse+0xb4>
    b608:	e351000d 	cmp	r1, #13
    b60c:	15990000 	ldrne	r0, [r9]
    b610:	12877001 	addne	r7, r7, #1
    b614:	1b00018f 	blne	bc58 <str_addc>
    b618:	e3580020 	cmp	r8, #32
    b61c:	0a000016 	beq	b67c <sconf_parse+0x118>
    b620:	e4d41001 	ldrb	r1, [r4], #1
    b624:	e3510000 	cmp	r1, #0
    b628:	0a000013 	beq	b67c <sconf_parse+0x118>
    b62c:	e3570000 	cmp	r7, #0
    b630:	1a000005 	bne	b64c <sconf_parse+0xe8>
    b634:	e2412009 	sub	r2, r1, #9
    b638:	e3510020 	cmp	r1, #32
    b63c:	13520001 	cmpne	r2, #1
    b640:	9afffff4 	bls	b618 <sconf_parse+0xb4>
    b644:	e351000d 	cmp	r1, #13
    b648:	0afffff2 	beq	b618 <sconf_parse+0xb4>
    b64c:	e3510023 	cmp	r1, #35	; 0x23
    b650:	0a00000d 	beq	b68c <sconf_parse+0x128>
    b654:	e35a0000 	cmp	sl, #0
    b658:	0affffe4 	beq	b5f0 <sconf_parse+0x8c>
    b65c:	e35a0001 	cmp	sl, #1
    b660:	0a000029 	beq	b70c <sconf_parse+0x1a8>
    b664:	e351000a 	cmp	r1, #10
    b668:	0a00002d 	beq	b724 <sconf_parse+0x1c0>
    b66c:	e3580020 	cmp	r8, #32
    b670:	e3a0a002 	mov	sl, #2
    b674:	e2877001 	add	r7, r7, #1
    b678:	1affffe8 	bne	b620 <sconf_parse+0xbc>
    b67c:	e1a00005 	mov	r0, r5
    b680:	e24bd028 	sub	sp, fp, #40	; 0x28
    b684:	e89d6ff0 	ldm	sp, {r4, r5, r6, r7, r8, r9, sl, fp, sp, lr}
    b688:	e12fff1e 	bx	lr
    b68c:	e35a0001 	cmp	sl, #1
    b690:	1afffff5 	bne	b66c <sconf_parse+0x108>
    b694:	e5990004 	ldr	r0, [r9, #4]
    b698:	e5901000 	ldr	r1, [r0]
    b69c:	e3510000 	cmp	r1, #0
    b6a0:	0a00000c 	beq	b6d8 <sconf_parse+0x174>
    b6a4:	e5902008 	ldr	r2, [r0, #8]
    b6a8:	e3520000 	cmp	r2, #0
    b6ac:	0a000009 	beq	b6d8 <sconf_parse+0x174>
    b6b0:	e3a0c000 	mov	ip, #0
    b6b4:	e2422001 	sub	r2, r2, #1
    b6b8:	e7d1e002 	ldrb	lr, [r1, r2]
    b6bc:	e24ea009 	sub	sl, lr, #9
    b6c0:	e35e0020 	cmp	lr, #32
    b6c4:	135a0001 	cmpne	sl, #1
    b6c8:	9a00003e 	bls	b7c8 <sconf_parse+0x264>
    b6cc:	e35e000d 	cmp	lr, #13
    b6d0:	0a00003c 	beq	b7c8 <sconf_parse+0x264>
    b6d4:	e5990004 	ldr	r0, [r9, #4]
    b6d8:	e3a01000 	mov	r1, #0
    b6dc:	eb00015d 	bl	bc58 <str_addc>
    b6e0:	e1a00006 	mov	r0, r6
    b6e4:	eb000111 	bl	bb30 <str_new>
    b6e8:	e085a188 	add	sl, r5, r8, lsl #3
    b6ec:	e58a0008 	str	r0, [sl, #8]
    b6f0:	e1a00006 	mov	r0, r6
    b6f4:	eb00010d 	bl	bb30 <str_new>
    b6f8:	e2889001 	add	r9, r8, #1
    b6fc:	e1a08009 	mov	r8, r9
    b700:	e58a000c 	str	r0, [sl, #12]
    b704:	e0859189 	add	r9, r5, r9, lsl #3
    b708:	eaffffd7 	b	b66c <sconf_parse+0x108>
    b70c:	e351000a 	cmp	r1, #10
    b710:	0a00000b 	beq	b744 <sconf_parse+0x1e0>
    b714:	e5990004 	ldr	r0, [r9, #4]
    b718:	e2877001 	add	r7, r7, #1
    b71c:	eb00014d 	bl	bc58 <str_addc>
    b720:	eaffffbc 	b	b618 <sconf_parse+0xb4>
    b724:	e3a07001 	mov	r7, #1
    b728:	e3a0a000 	mov	sl, #0
    b72c:	eaffffb9 	b	b618 <sconf_parse+0xb4>
    b730:	e3a05000 	mov	r5, #0
    b734:	e1a00005 	mov	r0, r5
    b738:	e24bd028 	sub	sp, fp, #40	; 0x28
    b73c:	e89d6ff0 	ldm	sp, {r4, r5, r6, r7, r8, r9, sl, fp, sp, lr}
    b740:	e12fff1e 	bx	lr
    b744:	e5990004 	ldr	r0, [r9, #4]
    b748:	e5901000 	ldr	r1, [r0]
    b74c:	e3510000 	cmp	r1, #0
    b750:	0a00000c 	beq	b788 <sconf_parse+0x224>
    b754:	e5903008 	ldr	r3, [r0, #8]
    b758:	e3530000 	cmp	r3, #0
    b75c:	0a000009 	beq	b788 <sconf_parse+0x224>
    b760:	e3a0c000 	mov	ip, #0
    b764:	e2433001 	sub	r3, r3, #1
    b768:	e7d12003 	ldrb	r2, [r1, r3]
    b76c:	e242e009 	sub	lr, r2, #9
    b770:	e3520020 	cmp	r2, #32
    b774:	135e0001 	cmpne	lr, #1
    b778:	9a00001a 	bls	b7e8 <sconf_parse+0x284>
    b77c:	e352000d 	cmp	r2, #13
    b780:	0a000018 	beq	b7e8 <sconf_parse+0x284>
    b784:	e5990004 	ldr	r0, [r9, #4]
    b788:	e3a01000 	mov	r1, #0
    b78c:	eb000131 	bl	bc58 <str_addc>
    b790:	e51b7030 	ldr	r7, [fp, #-48]	; 0xffffffd0
    b794:	e1a00007 	mov	r0, r7
    b798:	eb0000e4 	bl	bb30 <str_new>
    b79c:	e2889001 	add	r9, r8, #1
    b7a0:	e0858188 	add	r8, r5, r8, lsl #3
    b7a4:	e5880008 	str	r0, [r8, #8]
    b7a8:	e1a00007 	mov	r0, r7
    b7ac:	eb0000df 	bl	bb30 <str_new>
    b7b0:	e3a0a000 	mov	sl, #0
    b7b4:	e588000c 	str	r0, [r8, #12]
    b7b8:	e1a0700a 	mov	r7, sl
    b7bc:	e1a08009 	mov	r8, r9
    b7c0:	e0859189 	add	r9, r5, r9, lsl #3
    b7c4:	eaffff93 	b	b618 <sconf_parse+0xb4>
    b7c8:	e590e000 	ldr	lr, [r0]
    b7cc:	e7cec002 	strb	ip, [lr, r2]
    b7d0:	e5902008 	ldr	r2, [r0, #8]
    b7d4:	e2422001 	sub	r2, r2, #1
    b7d8:	e3520000 	cmp	r2, #0
    b7dc:	e5802008 	str	r2, [r0, #8]
    b7e0:	1affffb3 	bne	b6b4 <sconf_parse+0x150>
    b7e4:	eaffffba 	b	b6d4 <sconf_parse+0x170>
    b7e8:	e5902000 	ldr	r2, [r0]
    b7ec:	e7c2c003 	strb	ip, [r2, r3]
    b7f0:	e5903008 	ldr	r3, [r0, #8]
    b7f4:	e2433001 	sub	r3, r3, #1
    b7f8:	e3530000 	cmp	r3, #0
    b7fc:	e5803008 	str	r3, [r0, #8]
    b800:	1affffd7 	bne	b764 <sconf_parse+0x200>
    b804:	eaffffde 	b	b784 <sconf_parse+0x220>
    b808:	e5990000 	ldr	r0, [r9]
    b80c:	e5901000 	ldr	r1, [r0]
    b810:	e3510000 	cmp	r1, #0
    b814:	0a00000b 	beq	b848 <sconf_parse+0x2e4>
    b818:	e5903008 	ldr	r3, [r0, #8]
    b81c:	e3530000 	cmp	r3, #0
    b820:	0a000008 	beq	b848 <sconf_parse+0x2e4>
    b824:	e2433001 	sub	r3, r3, #1
    b828:	e7d12003 	ldrb	r2, [r1, r3]
    b82c:	e242c009 	sub	ip, r2, #9
    b830:	e3520020 	cmp	r2, #32
    b834:	135c0001 	cmpne	ip, #1
    b838:	9a000007 	bls	b85c <sconf_parse+0x2f8>
    b83c:	e352000d 	cmp	r2, #13
    b840:	0a000005 	beq	b85c <sconf_parse+0x2f8>
    b844:	e5990000 	ldr	r0, [r9]
    b848:	e3a01000 	mov	r1, #0
    b84c:	eb000101 	bl	bc58 <str_addc>
    b850:	e3a0a001 	mov	sl, #1
    b854:	e3a07000 	mov	r7, #0
    b858:	eaffff6e 	b	b618 <sconf_parse+0xb4>
    b85c:	e5902000 	ldr	r2, [r0]
    b860:	e7c2a003 	strb	sl, [r2, r3]
    b864:	e5903008 	ldr	r3, [r0, #8]
    b868:	e2433001 	sub	r3, r3, #1
    b86c:	e3530000 	cmp	r3, #0
    b870:	e5803008 	str	r3, [r0, #8]
    b874:	1affffea 	bne	b824 <sconf_parse+0x2c0>
    b878:	eafffff1 	b	b844 <sconf_parse+0x2e0>
    b87c:	0000c498 	muleq	r0, r8, r4
    b880:	0000c46c 	andeq	ip, r0, ip, ror #8
    b884:	0000c454 	andeq	ip, r0, r4, asr r4

0000b888 <sconf_free>:
    b888:	e1a0c00d 	mov	ip, sp
    b88c:	e92dd8f0 	push	{r4, r5, r6, r7, fp, ip, lr, pc}
    b890:	e2506000 	subs	r6, r0, #0
    b894:	e24cb004 	sub	fp, ip, #4
    b898:	0a00000d 	beq	b8d4 <sconf_free+0x4c>
    b89c:	e1a04006 	mov	r4, r6
    b8a0:	e2865c01 	add	r5, r6, #256	; 0x100
    b8a4:	ea000005 	b	b8c0 <sconf_free+0x38>
    b8a8:	e2844008 	add	r4, r4, #8
    b8ac:	eb000112 	bl	bcfc <str_free>
    b8b0:	e5140004 	ldr	r0, [r4, #-4]
    b8b4:	eb000110 	bl	bcfc <str_free>
    b8b8:	e1540005 	cmp	r4, r5
    b8bc:	0a000002 	beq	b8cc <sconf_free+0x44>
    b8c0:	e5940000 	ldr	r0, [r4]
    b8c4:	e3500000 	cmp	r0, #0
    b8c8:	1afffff6 	bne	b8a8 <sconf_free+0x20>
    b8cc:	e1a00006 	mov	r0, r6
    b8d0:	eb00181b 	bl	11944 <free>
    b8d4:	e24bd01c 	sub	sp, fp, #28
    b8d8:	e89d68f0 	ldm	sp, {r4, r5, r6, r7, fp, sp, lr}
    b8dc:	e12fff1e 	bx	lr

0000b8e0 <sconf_get_at>:
    b8e0:	e351001f 	cmp	r1, #31
    b8e4:	d0800181 	addle	r0, r0, r1, lsl #3
    b8e8:	c3a00000 	movgt	r0, #0
    b8ec:	e12fff1e 	bx	lr

0000b8f0 <sconf_get>:
    b8f0:	e1a0c00d 	mov	ip, sp
    b8f4:	e3500000 	cmp	r0, #0
    b8f8:	13510000 	cmpne	r1, #0
    b8fc:	e92dd8f0 	push	{r4, r5, r6, r7, fp, ip, lr, pc}
    b900:	e1a05000 	mov	r5, r0
    b904:	03a04001 	moveq	r4, #1
    b908:	13a04000 	movne	r4, #0
    b90c:	e1a06001 	mov	r6, r1
    b910:	e24cb004 	sub	fp, ip, #4
    b914:	1a000003 	bne	b928 <sconf_get+0x38>
    b918:	ea000014 	b	b970 <sconf_get+0x80>
    b91c:	e2844001 	add	r4, r4, #1
    b920:	e3540020 	cmp	r4, #32
    b924:	0a000016 	beq	b984 <sconf_get+0x94>
    b928:	e7953184 	ldr	r3, [r5, r4, lsl #3]
    b92c:	e3530000 	cmp	r3, #0
    b930:	0afffff9 	beq	b91c <sconf_get+0x2c>
    b934:	e5930000 	ldr	r0, [r3]
    b938:	e3500000 	cmp	r0, #0
    b93c:	0afffff6 	beq	b91c <sconf_get+0x2c>
    b940:	e1a01006 	mov	r1, r6
    b944:	eb002bb9 	bl	16830 <strcmp>
    b948:	e3500000 	cmp	r0, #0
    b94c:	1afffff2 	bne	b91c <sconf_get+0x2c>
    b950:	e0854184 	add	r4, r5, r4, lsl #3
    b954:	e5943004 	ldr	r3, [r4, #4]
    b958:	e5930000 	ldr	r0, [r3]
    b95c:	e3500000 	cmp	r0, #0
    b960:	0a00000c 	beq	b998 <sconf_get+0xa8>
    b964:	e24bd01c 	sub	sp, fp, #28
    b968:	e89d68f0 	ldm	sp, {r4, r5, r6, r7, fp, sp, lr}
    b96c:	e12fff1e 	bx	lr
    b970:	e59f0034 	ldr	r0, [pc, #52]	; b9ac <sconf_get+0xbc>
    b974:	e08f0000 	add	r0, pc, r0
    b978:	e24bd01c 	sub	sp, fp, #28
    b97c:	e89d68f0 	ldm	sp, {r4, r5, r6, r7, fp, sp, lr}
    b980:	e12fff1e 	bx	lr
    b984:	e59f0024 	ldr	r0, [pc, #36]	; b9b0 <sconf_get+0xc0>
    b988:	e08f0000 	add	r0, pc, r0
    b98c:	e24bd01c 	sub	sp, fp, #28
    b990:	e89d68f0 	ldm	sp, {r4, r5, r6, r7, fp, sp, lr}
    b994:	e12fff1e 	bx	lr
    b998:	e59f0014 	ldr	r0, [pc, #20]	; b9b4 <sconf_get+0xc4>
    b99c:	e08f0000 	add	r0, pc, r0
    b9a0:	e24bd01c 	sub	sp, fp, #28
    b9a4:	e89d68f0 	ldm	sp, {r4, r5, r6, r7, fp, sp, lr}
    b9a8:	e12fff1e 	bx	lr
    b9ac:	0000c0c8 	andeq	ip, r0, r8, asr #1
    b9b0:	0000c0b4 	strheq	ip, [r0], -r4
    b9b4:	0000c0a0 	andeq	ip, r0, r0, lsr #1

0000b9b8 <sconf_load>:
    b9b8:	e1a0c00d 	mov	ip, sp
    b9bc:	e92dd810 	push	{r4, fp, ip, lr, pc}
    b9c0:	e24cb004 	sub	fp, ip, #4
    b9c4:	e24dd00c 	sub	sp, sp, #12
    b9c8:	e24b1018 	sub	r1, fp, #24
    b9cc:	eb000853 	bl	db20 <vfs_readfile>
    b9d0:	e2504000 	subs	r4, r0, #0
    b9d4:	0a00000a 	beq	ba04 <sconf_load+0x4c>
    b9d8:	e51b3018 	ldr	r3, [fp, #-24]	; 0xffffffe8
    b9dc:	e3530000 	cmp	r3, #0
    b9e0:	01a04003 	moveq	r4, r3
    b9e4:	0a000006 	beq	ba04 <sconf_load+0x4c>
    b9e8:	e3a02000 	mov	r2, #0
    b9ec:	e7c42003 	strb	r2, [r4, r3]
    b9f0:	ebfffedb 	bl	b564 <sconf_parse>
    b9f4:	e1a03000 	mov	r3, r0
    b9f8:	e1a00004 	mov	r0, r4
    b9fc:	e1a04003 	mov	r4, r3
    ba00:	eb0017cf 	bl	11944 <free>
    ba04:	e1a00004 	mov	r0, r4
    ba08:	e24bd010 	sub	sp, fp, #16
    ba0c:	e89d6810 	ldm	sp, {r4, fp, sp, lr}
    ba10:	e12fff1e 	bx	lr

0000ba14 <str_reset>:
    ba14:	e1a0c00d 	mov	ip, sp
    ba18:	e92dd830 	push	{r4, r5, fp, ip, lr, pc}
    ba1c:	e1a04000 	mov	r4, r0
    ba20:	e5900000 	ldr	r0, [r0]
    ba24:	e3500000 	cmp	r0, #0
    ba28:	e24cb004 	sub	fp, ip, #4
    ba2c:	0a000005 	beq	ba48 <str_reset+0x34>
    ba30:	e3a03000 	mov	r3, #0
    ba34:	e5c03000 	strb	r3, [r0]
    ba38:	e5843008 	str	r3, [r4, #8]
    ba3c:	e24bd014 	sub	sp, fp, #20
    ba40:	e89d6830 	ldm	sp, {r4, r5, fp, sp, lr}
    ba44:	e12fff1e 	bx	lr
    ba48:	e3a00010 	mov	r0, #16
    ba4c:	eb0017c5 	bl	11968 <malloc>
    ba50:	e3a03010 	mov	r3, #16
    ba54:	e8840009 	stm	r4, {r0, r3}
    ba58:	eafffff4 	b	ba30 <str_reset+0x1c>

0000ba5c <str_ncpy>:
    ba5c:	e1a0c00d 	mov	ip, sp
    ba60:	e92dd8f0 	push	{r4, r5, r6, r7, fp, ip, lr, pc}
    ba64:	e2516000 	subs	r6, r1, #0
    ba68:	e1a05000 	mov	r5, r0
    ba6c:	e1a04002 	mov	r4, r2
    ba70:	e24cb004 	sub	fp, ip, #4
    ba74:	0a000003 	beq	ba88 <str_ncpy+0x2c>
    ba78:	e5d63000 	ldrb	r3, [r6]
    ba7c:	e3520000 	cmp	r2, #0
    ba80:	13530000 	cmpne	r3, #0
    ba84:	1a000005 	bne	baa0 <str_ncpy+0x44>
    ba88:	e1a00005 	mov	r0, r5
    ba8c:	ebffffe0 	bl	ba14 <str_reset>
    ba90:	e5950000 	ldr	r0, [r5]
    ba94:	e24bd01c 	sub	sp, fp, #28
    ba98:	e89d68f0 	ldm	sp, {r4, r5, r6, r7, fp, sp, lr}
    ba9c:	e12fff1e 	bx	lr
    baa0:	e1a00006 	mov	r0, r6
    baa4:	eb002c26 	bl	16b44 <strlen>
    baa8:	e1540000 	cmp	r4, r0
    baac:	21a04000 	movcs	r4, r0
    bab0:	e5953004 	ldr	r3, [r5, #4]
    bab4:	e1540003 	cmp	r4, r3
    bab8:	2a00000b 	bcs	baec <str_ncpy+0x90>
    babc:	e5950000 	ldr	r0, [r5]
    bac0:	e1a02004 	mov	r2, r4
    bac4:	e1a01006 	mov	r1, r6
    bac8:	eb002c35 	bl	16ba4 <strncpy>
    bacc:	e3a02000 	mov	r2, #0
    bad0:	e5953000 	ldr	r3, [r5]
    bad4:	e7c32004 	strb	r2, [r3, r4]
    bad8:	e5950000 	ldr	r0, [r5]
    badc:	e5854008 	str	r4, [r5, #8]
    bae0:	e24bd01c 	sub	sp, fp, #28
    bae4:	e89d68f0 	ldm	sp, {r4, r5, r6, r7, fp, sp, lr}
    bae8:	e12fff1e 	bx	lr
    baec:	e2847010 	add	r7, r4, #16
    baf0:	e1a01007 	mov	r1, r7
    baf4:	e5950000 	ldr	r0, [r5]
    baf8:	eb0017a3 	bl	1198c <realloc>
    bafc:	e8850081 	stm	r5, {r0, r7}
    bb00:	eaffffee 	b	bac0 <str_ncpy+0x64>

0000bb04 <str_cpy>:
    bb04:	e1a0c00d 	mov	ip, sp
    bb08:	e92dd830 	push	{r4, r5, fp, ip, lr, pc}
    bb0c:	e1a04000 	mov	r4, r0
    bb10:	e24cb004 	sub	fp, ip, #4
    bb14:	e59f2010 	ldr	r2, [pc, #16]	; bb2c <str_cpy+0x28>
    bb18:	ebffffcf 	bl	ba5c <str_ncpy>
    bb1c:	e5940000 	ldr	r0, [r4]
    bb20:	e24bd014 	sub	sp, fp, #20
    bb24:	e89d6830 	ldm	sp, {r4, r5, fp, sp, lr}
    bb28:	e12fff1e 	bx	lr
    bb2c:	0000ffff 	strdeq	pc, [r0], -pc	; <UNPREDICTABLE>

0000bb30 <str_new>:
    bb30:	e1a0c00d 	mov	ip, sp
    bb34:	e92dd830 	push	{r4, r5, fp, ip, lr, pc}
    bb38:	e24cb004 	sub	fp, ip, #4
    bb3c:	e1a04000 	mov	r4, r0
    bb40:	e3a0000c 	mov	r0, #12
    bb44:	eb001787 	bl	11968 <malloc>
    bb48:	e3a03000 	mov	r3, #0
    bb4c:	e1a01004 	mov	r1, r4
    bb50:	e1a04000 	mov	r4, r0
    bb54:	e5803000 	str	r3, [r0]
    bb58:	e5803004 	str	r3, [r0, #4]
    bb5c:	e5803008 	str	r3, [r0, #8]
    bb60:	ebffffe7 	bl	bb04 <str_cpy>
    bb64:	e1a00004 	mov	r0, r4
    bb68:	e24bd014 	sub	sp, fp, #20
    bb6c:	e89d6830 	ldm	sp, {r4, r5, fp, sp, lr}
    bb70:	e12fff1e 	bx	lr

0000bb74 <str_new_by_size>:
    bb74:	e1a0c00d 	mov	ip, sp
    bb78:	e92dd830 	push	{r4, r5, fp, ip, lr, pc}
    bb7c:	e24cb004 	sub	fp, ip, #4
    bb80:	e1a05000 	mov	r5, r0
    bb84:	e3a0000c 	mov	r0, #12
    bb88:	eb001776 	bl	11968 <malloc>
    bb8c:	e1a04000 	mov	r4, r0
    bb90:	e1a00005 	mov	r0, r5
    bb94:	eb001773 	bl	11968 <malloc>
    bb98:	e3a02000 	mov	r2, #0
    bb9c:	e1a03000 	mov	r3, r0
    bba0:	e1a00004 	mov	r0, r4
    bba4:	e5845004 	str	r5, [r4, #4]
    bba8:	e5842008 	str	r2, [r4, #8]
    bbac:	e5843000 	str	r3, [r4]
    bbb0:	e5c32000 	strb	r2, [r3]
    bbb4:	e24bd014 	sub	sp, fp, #20
    bbb8:	e89d6830 	ldm	sp, {r4, r5, fp, sp, lr}
    bbbc:	e12fff1e 	bx	lr

0000bbc0 <str_add>:
    bbc0:	e1a0c00d 	mov	ip, sp
    bbc4:	e92dd8f0 	push	{r4, r5, r6, r7, fp, ip, lr, pc}
    bbc8:	e2516000 	subs	r6, r1, #0
    bbcc:	e1a04000 	mov	r4, r0
    bbd0:	e24cb004 	sub	fp, ip, #4
    bbd4:	0a000013 	beq	bc28 <str_add+0x68>
    bbd8:	e5d63000 	ldrb	r3, [r6]
    bbdc:	e3530000 	cmp	r3, #0
    bbe0:	0a000010 	beq	bc28 <str_add+0x68>
    bbe4:	e1a00006 	mov	r0, r6
    bbe8:	eb002bd5 	bl	16b44 <strlen>
    bbec:	e994000c 	ldmib	r4, {r2, r3}
    bbf0:	e0801003 	add	r1, r0, r3
    bbf4:	e1510002 	cmp	r1, r2
    bbf8:	e1a05000 	mov	r5, r0
    bbfc:	2a00000d 	bcs	bc38 <str_add+0x78>
    bc00:	e5940000 	ldr	r0, [r4]
    bc04:	e0800003 	add	r0, r0, r3
    bc08:	e1a01006 	mov	r1, r6
    bc0c:	eb002b90 	bl	16a54 <strcpy>
    bc10:	e3a02000 	mov	r2, #0
    bc14:	e5940008 	ldr	r0, [r4, #8]
    bc18:	e5943000 	ldr	r3, [r4]
    bc1c:	e0855000 	add	r5, r5, r0
    bc20:	e5845008 	str	r5, [r4, #8]
    bc24:	e7c32005 	strb	r2, [r3, r5]
    bc28:	e5940000 	ldr	r0, [r4]
    bc2c:	e24bd01c 	sub	sp, fp, #28
    bc30:	e89d68f0 	ldm	sp, {r4, r5, r6, r7, fp, sp, lr}
    bc34:	e12fff1e 	bx	lr
    bc38:	e2817010 	add	r7, r1, #16
    bc3c:	e1a01007 	mov	r1, r7
    bc40:	e5940000 	ldr	r0, [r4]
    bc44:	eb001750 	bl	1198c <realloc>
    bc48:	e5847004 	str	r7, [r4, #4]
    bc4c:	e5943008 	ldr	r3, [r4, #8]
    bc50:	e5840000 	str	r0, [r4]
    bc54:	eaffffea 	b	bc04 <str_add+0x44>

0000bc58 <str_addc>:
    bc58:	e1a0c00d 	mov	ip, sp
    bc5c:	e92dd8f0 	push	{r4, r5, r6, r7, fp, ip, lr, pc}
    bc60:	e2516000 	subs	r6, r1, #0
    bc64:	e1a04000 	mov	r4, r0
    bc68:	e24cb004 	sub	fp, ip, #4
    bc6c:	0a000017 	beq	bcd0 <str_addc+0x78>
    bc70:	e990000c 	ldmib	r0, {r2, r3}
    bc74:	e2831001 	add	r1, r3, #1
    bc78:	e1510002 	cmp	r1, r2
    bc7c:	2a00000b 	bcs	bcb0 <str_addc+0x58>
    bc80:	e5900000 	ldr	r0, [r0]
    bc84:	e3a01000 	mov	r1, #0
    bc88:	e7c06003 	strb	r6, [r0, r3]
    bc8c:	e5943008 	ldr	r3, [r4, #8]
    bc90:	e5942000 	ldr	r2, [r4]
    bc94:	e2833001 	add	r3, r3, #1
    bc98:	e5843008 	str	r3, [r4, #8]
    bc9c:	e7c21003 	strb	r1, [r2, r3]
    bca0:	e5940000 	ldr	r0, [r4]
    bca4:	e24bd01c 	sub	sp, fp, #28
    bca8:	e89d68f0 	ldm	sp, {r4, r5, r6, r7, fp, sp, lr}
    bcac:	e12fff1e 	bx	lr
    bcb0:	e2835010 	add	r5, r3, #16
    bcb4:	e1a01005 	mov	r1, r5
    bcb8:	e5900000 	ldr	r0, [r0]
    bcbc:	eb001732 	bl	1198c <realloc>
    bcc0:	e5845004 	str	r5, [r4, #4]
    bcc4:	e5943008 	ldr	r3, [r4, #8]
    bcc8:	e5840000 	str	r0, [r4]
    bccc:	eaffffec 	b	bc84 <str_addc+0x2c>
    bcd0:	e5902000 	ldr	r2, [r0]
    bcd4:	e5903008 	ldr	r3, [r0, #8]
    bcd8:	e7c26003 	strb	r6, [r2, r3]
    bcdc:	e5900000 	ldr	r0, [r0]
    bce0:	e24bd01c 	sub	sp, fp, #28
    bce4:	e89d68f0 	ldm	sp, {r4, r5, r6, r7, fp, sp, lr}
    bce8:	e12fff1e 	bx	lr

0000bcec <outc>:
    bcec:	e1a03001 	mov	r3, r1
    bcf0:	e1a01000 	mov	r1, r0
    bcf4:	e1a00003 	mov	r0, r3
    bcf8:	eaffffd6 	b	bc58 <str_addc>

0000bcfc <str_free>:
    bcfc:	e1a0c00d 	mov	ip, sp
    bd00:	e92dd830 	push	{r4, r5, fp, ip, lr, pc}
    bd04:	e2504000 	subs	r4, r0, #0
    bd08:	e24cb004 	sub	fp, ip, #4
    bd0c:	0a000004 	beq	bd24 <str_free+0x28>
    bd10:	e5940000 	ldr	r0, [r4]
    bd14:	e3500000 	cmp	r0, #0
    bd18:	1b001709 	blne	11944 <free>
    bd1c:	e1a00004 	mov	r0, r4
    bd20:	eb001707 	bl	11944 <free>
    bd24:	e24bd014 	sub	sp, fp, #20
    bd28:	e89d6830 	ldm	sp, {r4, r5, fp, sp, lr}
    bd2c:	e12fff1e 	bx	lr

0000bd30 <str_from_int>:
    bd30:	e1a0c00d 	mov	ip, sp
    bd34:	e2413002 	sub	r3, r1, #2
    bd38:	e3530023 	cmp	r3, #35	; 0x23
    bd3c:	e92dd8f0 	push	{r4, r5, r6, r7, fp, ip, lr, pc}
    bd40:	e1a07001 	mov	r7, r1
    bd44:	e1a05000 	mov	r5, r0
    bd48:	31a07001 	movcc	r7, r1
    bd4c:	23a0700a 	movcs	r7, #10
    bd50:	e59f4090 	ldr	r4, [pc, #144]	; bde8 <str_from_int+0xb8>
    bd54:	e59f6090 	ldr	r6, [pc, #144]	; bdec <str_from_int+0xbc>
    bd58:	e24cb004 	sub	fp, ip, #4
    bd5c:	e08f4004 	add	r4, pc, r4
    bd60:	e08f6006 	add	r6, pc, r6
    bd64:	e1a00005 	mov	r0, r5
    bd68:	e1a01007 	mov	r1, r7
    bd6c:	eb00145b 	bl	10ee0 <__aeabi_idivmod>
    bd70:	e0861001 	add	r1, r6, r1
    bd74:	e5d12023 	ldrb	r2, [r1, #35]	; 0x23
    bd78:	e1a0c005 	mov	ip, r5
    bd7c:	e2505000 	subs	r5, r0, #0
    bd80:	e1a03004 	mov	r3, r4
    bd84:	e4c42001 	strb	r2, [r4], #1
    bd88:	1afffff5 	bne	bd64 <str_from_int+0x34>
    bd8c:	e35c0000 	cmp	ip, #0
    bd90:	b3a0102d 	movlt	r1, #45	; 0x2d
    bd94:	b2832002 	addlt	r2, r3, #2
    bd98:	b1a03004 	movlt	r3, r4
    bd9c:	b5c41000 	strblt	r1, [r4]
    bda0:	b1a04002 	movlt	r4, r2
    bda4:	e3a01000 	mov	r1, #0
    bda8:	e59f2040 	ldr	r2, [pc, #64]	; bdf0 <str_from_int+0xc0>
    bdac:	e08f2002 	add	r2, pc, r2
    bdb0:	e1530002 	cmp	r3, r2
    bdb4:	e5c41000 	strb	r1, [r4]
    bdb8:	9a000005 	bls	bdd4 <str_from_int+0xa4>
    bdbc:	e5d31000 	ldrb	r1, [r3]
    bdc0:	e5d20000 	ldrb	r0, [r2]
    bdc4:	e4430001 	strb	r0, [r3], #-1
    bdc8:	e4c21001 	strb	r1, [r2], #1
    bdcc:	e1530002 	cmp	r3, r2
    bdd0:	8afffff9 	bhi	bdbc <str_from_int+0x8c>
    bdd4:	e59f0018 	ldr	r0, [pc, #24]	; bdf4 <str_from_int+0xc4>
    bdd8:	e08f0000 	add	r0, pc, r0
    bddc:	e24bd01c 	sub	sp, fp, #28
    bde0:	e89d68f0 	ldm	sp, {r4, r5, r6, r7, fp, sp, lr}
    bde4:	e12fff1e 	bx	lr
    bde8:	0001c0cc 	andeq	ip, r1, ip, asr #1
    bdec:	0000bd4c 	andeq	fp, r0, ip, asr #26
    bdf0:	0001c07c 	andeq	ip, r1, ip, ror r0
    bdf4:	0001c050 	andeq	ip, r1, r0, asr r0

0000bdf8 <str_addc_int>:
    bdf8:	e1a0c00d 	mov	ip, sp
    bdfc:	e92dd830 	push	{r4, r5, fp, ip, lr, pc}
    be00:	e24cb004 	sub	fp, ip, #4
    be04:	e1a04000 	mov	r4, r0
    be08:	e1a00001 	mov	r0, r1
    be0c:	e1a01002 	mov	r1, r2
    be10:	ebffffc6 	bl	bd30 <str_from_int>
    be14:	e1a01000 	mov	r1, r0
    be18:	e1a00004 	mov	r0, r4
    be1c:	e24bd014 	sub	sp, fp, #20
    be20:	e89d6830 	ldm	sp, {r4, r5, fp, sp, lr}
    be24:	eaffff65 	b	bbc0 <str_add>

0000be28 <str_from_bool>:
    be28:	e3500000 	cmp	r0, #0
    be2c:	1a000002 	bne	be3c <str_from_bool+0x14>
    be30:	e59f0010 	ldr	r0, [pc, #16]	; be48 <str_from_bool+0x20>
    be34:	e08f0000 	add	r0, pc, r0
    be38:	e12fff1e 	bx	lr
    be3c:	e59f0008 	ldr	r0, [pc, #8]	; be4c <str_from_bool+0x24>
    be40:	e08f0000 	add	r0, pc, r0
    be44:	e12fff1e 	bx	lr
    be48:	0000bcc8 	andeq	fp, r0, r8, asr #25
    be4c:	0000bcb4 			; <UNDEFINED> instruction: 0x0000bcb4

0000be50 <str_from_float>:
    be50:	e59f000c 	ldr	r0, [pc, #12]	; be64 <str_from_float+0x14>
    be54:	e59f300c 	ldr	r3, [pc, #12]	; be68 <str_from_float+0x18>
    be58:	e08f0000 	add	r0, pc, r0
    be5c:	e5803000 	str	r3, [r0]
    be60:	e12fff1e 	bx	lr
    be64:	0001bfd0 	ldrdeq	fp, [r1], -r0
    be68:	00302e30 	eorseq	r2, r0, r0, lsr lr

0000be6c <str_addc_float>:
    be6c:	e1a0c00d 	mov	ip, sp
    be70:	e92dd830 	push	{r4, r5, fp, ip, lr, pc}
    be74:	e24cb004 	sub	fp, ip, #4
    be78:	e1a04000 	mov	r4, r0
    be7c:	e1a00001 	mov	r0, r1
    be80:	ebfffff2 	bl	be50 <str_from_float>
    be84:	e1a01000 	mov	r1, r0
    be88:	e1a00004 	mov	r0, r4
    be8c:	e24bd014 	sub	sp, fp, #20
    be90:	e89d6830 	ldm	sp, {r4, r5, fp, sp, lr}
    be94:	eaffff49 	b	bbc0 <str_add>

0000be98 <str_to_int>:
    be98:	e1a0c00d 	mov	ip, sp
    be9c:	e59f1030 	ldr	r1, [pc, #48]	; bed4 <str_to_int+0x3c>
    bea0:	e92dd830 	push	{r4, r5, fp, ip, lr, pc}
    bea4:	e08f1001 	add	r1, pc, r1
    bea8:	e24cb004 	sub	fp, ip, #4
    beac:	e1a04000 	mov	r4, r0
    beb0:	eb002c76 	bl	17090 <strstr>
    beb4:	e3500000 	cmp	r0, #0
    beb8:	13a01010 	movne	r1, #16
    bebc:	03a0100a 	moveq	r1, #10
    bec0:	e1a00004 	mov	r0, r4
    bec4:	eb001626 	bl	11764 <atoi_base>
    bec8:	e24bd014 	sub	sp, fp, #20
    becc:	e89d6830 	ldm	sp, {r4, r5, fp, sp, lr}
    bed0:	e12fff1e 	bx	lr
    bed4:	0000bc60 	andeq	fp, r0, r0, ror #24

0000bed8 <str_to_bool>:
    bed8:	e1a0c00d 	mov	ip, sp
    bedc:	e59f1040 	ldr	r1, [pc, #64]	; bf24 <str_to_bool+0x4c>
    bee0:	e92dd830 	push	{r4, r5, fp, ip, lr, pc}
    bee4:	e08f1001 	add	r1, pc, r1
    bee8:	e24cb004 	sub	fp, ip, #4
    beec:	e1a04000 	mov	r4, r0
    bef0:	eb002a4e 	bl	16830 <strcmp>
    bef4:	e3500000 	cmp	r0, #0
    bef8:	03a00001 	moveq	r0, #1
    befc:	0a000005 	beq	bf18 <str_to_bool+0x40>
    bf00:	e59f1020 	ldr	r1, [pc, #32]	; bf28 <str_to_bool+0x50>
    bf04:	e1a00004 	mov	r0, r4
    bf08:	e08f1001 	add	r1, pc, r1
    bf0c:	eb002a47 	bl	16830 <strcmp>
    bf10:	e2700001 	rsbs	r0, r0, #1
    bf14:	33a00000 	movcc	r0, #0
    bf18:	e24bd014 	sub	sp, fp, #20
    bf1c:	e89d6830 	ldm	sp, {r4, r5, fp, sp, lr}
    bf20:	e12fff1e 	bx	lr
    bf24:	0000bc10 	andeq	fp, r0, r0, lsl ip
    bf28:	0000bc00 	andeq	fp, r0, r0, lsl #24

0000bf2c <str_to_float>:
    bf2c:	e3a00000 	mov	r0, #0
    bf30:	e12fff1e 	bx	lr

0000bf34 <str_to>:
    bf34:	e1a0c00d 	mov	ip, sp
    bf38:	e92ddbf0 	push	{r4, r5, r6, r7, r8, r9, fp, ip, lr, pc}
    bf3c:	e2527000 	subs	r7, r2, #0
    bf40:	e1a09000 	mov	r9, r0
    bf44:	e1a05001 	mov	r5, r1
    bf48:	e1a06003 	mov	r6, r3
    bf4c:	e24cb004 	sub	fp, ip, #4
    bf50:	11a00007 	movne	r0, r7
    bf54:	1bfffeae 	blne	ba14 <str_reset>
    bf58:	e3560000 	cmp	r6, #0
    bf5c:	1a000024 	bne	bff4 <str_to+0xc0>
    bf60:	e1a03009 	mov	r3, r9
    bf64:	e1a04006 	mov	r4, r6
    bf68:	e5d31000 	ldrb	r1, [r3]
    bf6c:	e3510000 	cmp	r1, #0
    bf70:	12844001 	addne	r4, r4, #1
    bf74:	11e08009 	mvnne	r8, r9
    bf78:	10894004 	addne	r4, r9, r4
    bf7c:	1a000006 	bne	bf9c <str_to+0x68>
    bf80:	ea00001e 	b	c000 <str_to+0xcc>
    bf84:	e3570000 	cmp	r7, #0
    bf88:	11a00007 	movne	r0, r7
    bf8c:	1bffff31 	blne	bc58 <str_addc>
    bf90:	e4d41001 	ldrb	r1, [r4], #1
    bf94:	e3510000 	cmp	r1, #0
    bf98:	0a000018 	beq	c000 <str_to+0xcc>
    bf9c:	e1550001 	cmp	r5, r1
    bfa0:	e0880004 	add	r0, r8, r4
    bfa4:	1afffff6 	bne	bf84 <str_to+0x50>
    bfa8:	e3560000 	cmp	r6, #0
    bfac:	13570000 	cmpne	r7, #0
    bfb0:	0a000013 	beq	c004 <str_to+0xd0>
    bfb4:	e5973008 	ldr	r3, [r7, #8]
    bfb8:	e2533001 	subs	r3, r3, #1
    bfbc:	4a000010 	bmi	c004 <str_to+0xd0>
    bfc0:	e3a0c000 	mov	ip, #0
    bfc4:	ea000002 	b	bfd4 <str_to+0xa0>
    bfc8:	e7c1c003 	strb	ip, [r1, r3]
    bfcc:	e2533001 	subs	r3, r3, #1
    bfd0:	3a00000b 	bcc	c004 <str_to+0xd0>
    bfd4:	e5971000 	ldr	r1, [r7]
    bfd8:	e7d12003 	ldrb	r2, [r1, r3]
    bfdc:	e3520009 	cmp	r2, #9
    bfe0:	13520020 	cmpne	r2, #32
    bfe4:	0afffff7 	beq	bfc8 <str_to+0x94>
    bfe8:	e2833001 	add	r3, r3, #1
    bfec:	e5873008 	str	r3, [r7, #8]
    bff0:	ea000003 	b	c004 <str_to+0xd0>
    bff4:	e5d9c000 	ldrb	ip, [r9]
    bff8:	e35c0000 	cmp	ip, #0
    bffc:	1a000003 	bne	c010 <str_to+0xdc>
    c000:	e3e00000 	mvn	r0, #0
    c004:	e24bd024 	sub	sp, fp, #36	; 0x24
    c008:	e89d6bf0 	ldm	sp, {r4, r5, r6, r7, r8, r9, fp, sp, lr}
    c00c:	e12fff1e 	bx	lr
    c010:	e1e08009 	mvn	r8, r9
    c014:	e2893001 	add	r3, r9, #1
    c018:	ea000002 	b	c028 <str_to+0xf4>
    c01c:	e4d3c001 	ldrb	ip, [r3], #1
    c020:	e35c0000 	cmp	ip, #0
    c024:	0afffff5 	beq	c000 <str_to+0xcc>
    c028:	e35c0020 	cmp	ip, #32
    c02c:	135c0009 	cmpne	ip, #9
    c030:	e0884003 	add	r4, r8, r3
    c034:	0afffff8 	beq	c01c <str_to+0xe8>
    c038:	e0893004 	add	r3, r9, r4
    c03c:	eaffffc9 	b	bf68 <str_to+0x34>

0000c040 <str_format>:
    c040:	e1a0c00d 	mov	ip, sp
    c044:	e92d000e 	push	{r1, r2, r3}
    c048:	e92dd810 	push	{r4, fp, ip, lr, pc}
    c04c:	e1a04000 	mov	r4, r0
    c050:	e24cb010 	sub	fp, ip, #16
    c054:	e24dd008 	sub	sp, sp, #8
    c058:	ebfffe6d 	bl	ba14 <str_reset>
    c05c:	e59f0024 	ldr	r0, [pc, #36]	; c088 <str_format+0x48>
    c060:	e28b3008 	add	r3, fp, #8
    c064:	e1a01004 	mov	r1, r4
    c068:	e59b2004 	ldr	r2, [fp, #4]
    c06c:	e08f0000 	add	r0, pc, r0
    c070:	e50b3014 	str	r3, [fp, #-20]	; 0xffffffec
    c074:	eb0016c9 	bl	11ba0 <v_printf>
    c078:	e1a00004 	mov	r0, r4
    c07c:	e24bd010 	sub	sp, fp, #16
    c080:	e89d6810 	ldm	sp, {r4, fp, sp, lr}
    c084:	e12fff1e 	bx	lr
    c088:	fffffc78 			; <UNDEFINED> instruction: 0xfffffc78

0000c08c <str_format_new>:
    c08c:	e1a0c00d 	mov	ip, sp
    c090:	e92d000f 	push	{r0, r1, r2, r3}
    c094:	e92dd810 	push	{r4, fp, ip, lr, pc}
    c098:	e24cb014 	sub	fp, ip, #20
    c09c:	e24dd00c 	sub	sp, sp, #12
    c0a0:	e3a00000 	mov	r0, #0
    c0a4:	ebfffea1 	bl	bb30 <str_new>
    c0a8:	e1a04000 	mov	r4, r0
    c0ac:	e59f0024 	ldr	r0, [pc, #36]	; c0d8 <str_format_new+0x4c>
    c0b0:	e28b3008 	add	r3, fp, #8
    c0b4:	e1a01004 	mov	r1, r4
    c0b8:	e59b2004 	ldr	r2, [fp, #4]
    c0bc:	e08f0000 	add	r0, pc, r0
    c0c0:	e50b3018 	str	r3, [fp, #-24]	; 0xffffffe8
    c0c4:	eb0016b5 	bl	11ba0 <v_printf>
    c0c8:	e1a00004 	mov	r0, r4
    c0cc:	e24bd010 	sub	sp, fp, #16
    c0d0:	e89d6810 	ldm	sp, {r4, fp, sp, lr}
    c0d4:	e12fff1e 	bx	lr
    c0d8:	fffffc28 			; <UNDEFINED> instruction: 0xfffffc28

0000c0dc <utf82unicode_char>:
    c0dc:	e3510000 	cmp	r1, #0
    c0e0:	13500000 	cmpne	r0, #0
    c0e4:	e92d4010 	push	{r4, lr}
    c0e8:	03a00000 	moveq	r0, #0
    c0ec:	0a000019 	beq	c158 <utf82unicode_char+0x7c>
    c0f0:	e5d03000 	ldrb	r3, [r0]
    c0f4:	e35300fb 	cmp	r3, #251	; 0xfb
    c0f8:	9a000018 	bls	c160 <utf82unicode_char+0x84>
    c0fc:	e5d02001 	ldrb	r2, [r0, #1]
    c100:	e5d0c005 	ldrb	ip, [r0, #5]
    c104:	e1a03f03 	lsl	r3, r3, #30
    c108:	e1a02c02 	lsl	r2, r2, #24
    c10c:	e5d0e002 	ldrb	lr, [r0, #2]
    c110:	e2033101 	and	r3, r3, #1073741824	; 0x40000000
    c114:	e202243f 	and	r2, r2, #1056964608	; 0x3f000000
    c118:	e1822003 	orr	r2, r2, r3
    c11c:	e20c303f 	and	r3, ip, #63	; 0x3f
    c120:	e5d0c003 	ldrb	ip, [r0, #3]
    c124:	e1a0e90e 	lsl	lr, lr, #18
    c128:	e1822003 	orr	r2, r2, r3
    c12c:	e20ee73f 	and	lr, lr, #16515072	; 0xfc0000
    c130:	e5d03004 	ldrb	r3, [r0, #4]
    c134:	e1a0060c 	lsl	r0, ip, #12
    c138:	e2000a3f 	and	r0, r0, #258048	; 0x3f000
    c13c:	e182200e 	orr	r2, r2, lr
    c140:	e1822000 	orr	r2, r2, r0
    c144:	e3a00006 	mov	r0, #6
    c148:	e1a03303 	lsl	r3, r3, #6
    c14c:	e2033d3f 	and	r3, r3, #4032	; 0xfc0
    c150:	e1833002 	orr	r3, r3, r2
    c154:	e5813000 	str	r3, [r1]
    c158:	e8bd4010 	pop	{r4, lr}
    c15c:	e12fff1e 	bx	lr
    c160:	e35300f7 	cmp	r3, #247	; 0xf7
    c164:	8a000010 	bhi	c1ac <utf82unicode_char+0xd0>
    c168:	e35300ef 	cmp	r3, #239	; 0xef
    c16c:	9a000021 	bls	c1f8 <utf82unicode_char+0x11c>
    c170:	e5d02001 	ldrb	r2, [r0, #1]
    c174:	e5d0c003 	ldrb	ip, [r0, #3]
    c178:	e1a03903 	lsl	r3, r3, #18
    c17c:	e5d00002 	ldrb	r0, [r0, #2]
    c180:	e1a02602 	lsl	r2, r2, #12
    c184:	e203e707 	and	lr, r3, #1835008	; 0x1c0000
    c188:	e2023a3f 	and	r3, r2, #258048	; 0x3f000
    c18c:	e183300e 	orr	r3, r3, lr
    c190:	e1a02300 	lsl	r2, r0, #6
    c194:	e20cc03f 	and	ip, ip, #63	; 0x3f
    c198:	e183300c 	orr	r3, r3, ip
    c19c:	e2022d3f 	and	r2, r2, #4032	; 0xfc0
    c1a0:	e3a00004 	mov	r0, #4
    c1a4:	e1823003 	orr	r3, r2, r3
    c1a8:	eaffffe9 	b	c154 <utf82unicode_char+0x78>
    c1ac:	e5d02001 	ldrb	r2, [r0, #1]
    c1b0:	e5d0e004 	ldrb	lr, [r0, #4]
    c1b4:	e5d0c002 	ldrb	ip, [r0, #2]
    c1b8:	e1a04c03 	lsl	r4, r3, #24
    c1bc:	e1a02902 	lsl	r2, r2, #18
    c1c0:	e5d03003 	ldrb	r3, [r0, #3]
    c1c4:	e202273f 	and	r2, r2, #16515072	; 0xfc0000
    c1c8:	e2040403 	and	r0, r4, #50331648	; 0x3000000
    c1cc:	e1822000 	orr	r2, r2, r0
    c1d0:	e20ee03f 	and	lr, lr, #63	; 0x3f
    c1d4:	e1a0060c 	lsl	r0, ip, #12
    c1d8:	e2000a3f 	and	r0, r0, #258048	; 0x3f000
    c1dc:	e182200e 	orr	r2, r2, lr
    c1e0:	e1a03303 	lsl	r3, r3, #6
    c1e4:	e1822000 	orr	r2, r2, r0
    c1e8:	e2033d3f 	and	r3, r3, #4032	; 0xfc0
    c1ec:	e3a00005 	mov	r0, #5
    c1f0:	e1833002 	orr	r3, r3, r2
    c1f4:	eaffffd6 	b	c154 <utf82unicode_char+0x78>
    c1f8:	e35300df 	cmp	r3, #223	; 0xdf
    c1fc:	9a00000a 	bls	c22c <utf82unicode_char+0x150>
    c200:	e5d02001 	ldrb	r2, [r0, #1]
    c204:	e59fc044 	ldr	ip, [pc, #68]	; c250 <utf82unicode_char+0x174>
    c208:	e5d00002 	ldrb	r0, [r0, #2]
    c20c:	e1a02302 	lsl	r2, r2, #6
    c210:	e00cc603 	and	ip, ip, r3, lsl #12
    c214:	e2023d3f 	and	r3, r2, #4032	; 0xfc0
    c218:	e183300c 	orr	r3, r3, ip
    c21c:	e200203f 	and	r2, r0, #63	; 0x3f
    c220:	e1823003 	orr	r3, r2, r3
    c224:	e3a00003 	mov	r0, #3
    c228:	eaffffc9 	b	c154 <utf82unicode_char+0x78>
    c22c:	e35300bf 	cmp	r3, #191	; 0xbf
    c230:	85d02001 	ldrbhi	r2, [r0, #1]
    c234:	81a03303 	lslhi	r3, r3, #6
    c238:	82033d1f 	andhi	r3, r3, #1984	; 0x7c0
    c23c:	8202203f 	andhi	r2, r2, #63	; 0x3f
    c240:	83a00002 	movhi	r0, #2
    c244:	93a00001 	movls	r0, #1
    c248:	81823003 	orrhi	r3, r2, r3
    c24c:	eaffffc0 	b	c154 <utf82unicode_char+0x78>
    c250:	0000ffff 	strdeq	pc, [r0], -pc	; <UNPREDICTABLE>

0000c254 <utf82unicode>:
    c254:	e3a03000 	mov	r3, #0
    c258:	e1a0c00d 	mov	ip, sp
    c25c:	e1510003 	cmp	r1, r3
    c260:	11500003 	cmpne	r0, r3
    c264:	e92ddbf0 	push	{r4, r5, r6, r7, r8, r9, fp, ip, lr, pc}
    c268:	e24cb004 	sub	fp, ip, #4
    c26c:	e24dd008 	sub	sp, sp, #8
    c270:	e1a04000 	mov	r4, r0
    c274:	03a06001 	moveq	r6, #1
    c278:	13a06000 	movne	r6, #0
    c27c:	e1a07002 	mov	r7, r2
    c280:	e1a05001 	mov	r5, r1
    c284:	e50b3028 	str	r3, [fp, #-40]	; 0xffffffd8
    c288:	0a000017 	beq	c2ec <utf82unicode+0x98>
    c28c:	e5d03000 	ldrb	r3, [r0]
    c290:	e3530000 	cmp	r3, #0
    c294:	0a000014 	beq	c2ec <utf82unicode+0x98>
    c298:	e1a08006 	mov	r8, r6
    c29c:	e24b9028 	sub	r9, fp, #40	; 0x28
    c2a0:	ea000008 	b	c2c8 <utf82unicode+0x74>
    c2a4:	e2866001 	add	r6, r6, #1
    c2a8:	e1560007 	cmp	r6, r7
    c2ac:	aa00000a 	bge	c2dc <utf82unicode+0x88>
    c2b0:	e51b3028 	ldr	r3, [fp, #-40]	; 0xffffffd8
    c2b4:	e1c530b0 	strh	r3, [r5]
    c2b8:	e1e580b2 	strh	r8, [r5, #2]!
    c2bc:	e7f43000 	ldrb	r3, [r4, r0]!
    c2c0:	e3530000 	cmp	r3, #0
    c2c4:	0a000004 	beq	c2dc <utf82unicode+0x88>
    c2c8:	e1a00004 	mov	r0, r4
    c2cc:	e1a01009 	mov	r1, r9
    c2d0:	ebffff81 	bl	c0dc <utf82unicode_char>
    c2d4:	e3500000 	cmp	r0, #0
    c2d8:	cafffff1 	bgt	c2a4 <utf82unicode+0x50>
    c2dc:	e1a00006 	mov	r0, r6
    c2e0:	e24bd024 	sub	sp, fp, #36	; 0x24
    c2e4:	e89d6bf0 	ldm	sp, {r4, r5, r6, r7, r8, r9, fp, sp, lr}
    c2e8:	e12fff1e 	bx	lr
    c2ec:	e1a06003 	mov	r6, r3
    c2f0:	e1a00006 	mov	r0, r6
    c2f4:	e24bd024 	sub	sp, fp, #36	; 0x24
    c2f8:	e89d6bf0 	ldm	sp, {r4, r5, r6, r7, r8, r9, fp, sp, lr}
    c2fc:	e12fff1e 	bx	lr

0000c300 <cmain_get_work_dir>:
    c300:	e1a0c00d 	mov	ip, sp
    c304:	e59f3088 	ldr	r3, [pc, #136]	; c394 <cmain_get_work_dir+0x94>
    c308:	e08f3003 	add	r3, pc, r3
    c30c:	e92dd830 	push	{r4, r5, fp, ip, lr, pc}
    c310:	e5935400 	ldr	r5, [r3, #1024]	; 0x400
    c314:	e24cb004 	sub	fp, ip, #4
    c318:	e1a00005 	mov	r0, r5
    c31c:	eb002a08 	bl	16b44 <strlen>
    c320:	e3500000 	cmp	r0, #0
    c324:	e2404001 	sub	r4, r0, #1
    c328:	0a000016 	beq	c388 <cmain_get_work_dir+0x88>
    c32c:	e0850000 	add	r0, r5, r0
    c330:	ea000001 	b	c33c <cmain_get_work_dir+0x3c>
    c334:	e2544001 	subs	r4, r4, #1
    c338:	3a00000d 	bcc	c374 <cmain_get_work_dir+0x74>
    c33c:	e5703001 	ldrb	r3, [r0, #-1]!
    c340:	e353002f 	cmp	r3, #47	; 0x2f
    c344:	1afffffa 	bne	c334 <cmain_get_work_dir+0x34>
    c348:	e59f3048 	ldr	r3, [pc, #72]	; c398 <cmain_get_work_dir+0x98>
    c34c:	e08f3003 	add	r3, pc, r3
    c350:	e1a02004 	mov	r2, r4
    c354:	e1a01005 	mov	r1, r5
    c358:	e1a00003 	mov	r0, r3
    c35c:	eb002a10 	bl	16ba4 <strncpy>
    c360:	e3a02000 	mov	r2, #0
    c364:	e7c02004 	strb	r2, [r0, r4]
    c368:	e24bd014 	sub	sp, fp, #20
    c36c:	e89d6830 	ldm	sp, {r4, r5, fp, sp, lr}
    c370:	e12fff1e 	bx	lr
    c374:	e59f0020 	ldr	r0, [pc, #32]	; c39c <cmain_get_work_dir+0x9c>
    c378:	e08f0000 	add	r0, pc, r0
    c37c:	e24bd014 	sub	sp, fp, #20
    c380:	e89d6830 	ldm	sp, {r4, r5, fp, sp, lr}
    c384:	e12fff1e 	bx	lr
    c388:	e59f0010 	ldr	r0, [pc, #16]	; c3a0 <cmain_get_work_dir+0xa0>
    c38c:	e08f0000 	add	r0, pc, r0
    c390:	eafffff4 	b	c368 <cmain_get_work_dir+0x68>
    c394:	0001bb64 	andeq	fp, r1, r4, ror #22
    c398:	0001bb20 	andeq	fp, r1, r0, lsr #22
    c39c:	0000b6c4 	andeq	fp, r0, r4, asr #13
    c3a0:	0000b6b0 			; <UNDEFINED> instruction: 0x0000b6b0

0000c3a4 <_start>:
    c3a4:	e1a0c00d 	mov	ip, sp
    c3a8:	e92ddff0 	push	{r4, r5, r6, r7, r8, r9, sl, fp, ip, lr, pc}
    c3ac:	e3a04000 	mov	r4, #0
    c3b0:	e24cb004 	sub	fp, ip, #4
    c3b4:	e24dd054 	sub	sp, sp, #84	; 0x54
    c3b8:	eb000c48 	bl	f4e0 <sys_signal_init>
    c3bc:	e3a06001 	mov	r6, #1
    c3c0:	eb001399 	bl	1122c <proc_init>
    c3c4:	e3a0e002 	mov	lr, #2
    c3c8:	e59f52a8 	ldr	r5, [pc, #680]	; c678 <_start+0x2d4>
    c3cc:	e59f32a8 	ldr	r3, [pc, #680]	; c67c <_start+0x2d8>
    c3d0:	e08f5005 	add	r5, pc, r5
    c3d4:	e5854404 	str	r4, [r5, #1028]	; 0x404
    c3d8:	e5854408 	str	r4, [r5, #1032]	; 0x408
    c3dc:	e59f029c 	ldr	r0, [pc, #668]	; c680 <_start+0x2dc>
    c3e0:	e08f3003 	add	r3, pc, r3
    c3e4:	e7930000 	ldr	r0, [r3, r0]
    c3e8:	e2852b01 	add	r2, r5, #1024	; 0x400
    c3ec:	e2827004 	add	r7, r2, #4
    c3f0:	e585e410 	str	lr, [r5, #1040]	; 0x410
    c3f4:	e5807000 	str	r7, [r0]
    c3f8:	e282c00c 	add	ip, r2, #12
    c3fc:	e585640c 	str	r6, [r5, #1036]	; 0x40c
    c400:	e59f227c 	ldr	r2, [pc, #636]	; c684 <_start+0x2e0>
    c404:	e7932002 	ldr	r2, [r3, r2]
    c408:	e59f1278 	ldr	r1, [pc, #632]	; c688 <_start+0x2e4>
    c40c:	e582c000 	str	ip, [r2]
    c410:	e585e414 	str	lr, [r5, #1044]	; 0x414
    c414:	e585e418 	str	lr, [r5, #1048]	; 0x418
    c418:	e59f226c 	ldr	r2, [pc, #620]	; c68c <_start+0x2e8>
    c41c:	e7933001 	ldr	r3, [r3, r1]
    c420:	e2857e41 	add	r7, r5, #1040	; 0x410
    c424:	e08f2002 	add	r2, pc, r2
    c428:	e5852400 	str	r2, [r5, #1024]	; 0x400
    c42c:	e5c5441c 	strb	r4, [r5, #1052]	; 0x41c
    c430:	e2872004 	add	r2, r7, #4
    c434:	e5832000 	str	r2, [r3]
    c438:	e585481c 	str	r4, [r5, #2076]	; 0x81c
    c43c:	eb001446 	bl	1155c <getpid>
    c440:	e59f3248 	ldr	r3, [pc, #584]	; c690 <_start+0x2ec>
    c444:	e1a01000 	mov	r1, r0
    c448:	e287200c 	add	r2, r7, #12
    c44c:	e3a00016 	mov	r0, #22
    c450:	eb0019c9 	bl	12b7c <syscall3>
    c454:	e1a0a004 	mov	sl, r4
    c458:	e1a0e004 	mov	lr, r4
    c45c:	e1a01004 	mov	r1, r4
    c460:	e5952400 	ldr	r2, [r5, #1024]	; 0x400
    c464:	e59f9228 	ldr	r9, [pc, #552]	; c694 <_start+0x2f0>
    c468:	e50b2070 	str	r2, [fp, #-112]	; 0xffffff90
    c46c:	e59f2224 	ldr	r2, [pc, #548]	; c698 <_start+0x2f4>
    c470:	e24b306c 	sub	r3, fp, #108	; 0x6c
    c474:	e08f9009 	add	r9, pc, r9
    c478:	e08f2002 	add	r2, pc, r2
    c47c:	e1a08003 	mov	r8, r3
    c480:	e50b3074 	str	r3, [fp, #-116]	; 0xffffff8c
    c484:	e2899e41 	add	r9, r9, #1040	; 0x410
    c488:	e595381c 	ldr	r3, [r5, #2076]	; 0x81c
    c48c:	e50b2078 	str	r2, [fp, #-120]	; 0xffffff88
    c490:	e289900c 	add	r9, r9, #12
    c494:	e0852003 	add	r2, r5, r3
    c498:	e5d2241c 	ldrb	r2, [r2, #1052]	; 0x41c
    c49c:	e3520000 	cmp	r2, #0
    c4a0:	e1a0000e 	mov	r0, lr
    c4a4:	0a000060 	beq	c62c <_start+0x288>
    c4a8:	e3a0c000 	mov	ip, #0
    c4ac:	e1a0400c 	mov	r4, ip
    c4b0:	e59f71e4 	ldr	r7, [pc, #484]	; c69c <_start+0x2f8>
    c4b4:	e08f7007 	add	r7, pc, r7
    c4b8:	e3540000 	cmp	r4, #0
    c4bc:	e2831001 	add	r1, r3, #1
    c4c0:	0a00001f 	beq	c544 <_start+0x1a0>
    c4c4:	e3520022 	cmp	r2, #34	; 0x22
    c4c8:	0a000028 	beq	c570 <_start+0x1cc>
    c4cc:	e1a03001 	mov	r3, r1
    c4d0:	e0872001 	add	r2, r7, r1
    c4d4:	e5d2241c 	ldrb	r2, [r2, #1052]	; 0x41c
    c4d8:	e3520000 	cmp	r2, #0
    c4dc:	1afffff5 	bne	c4b8 <_start+0x114>
    c4e0:	e35c0000 	cmp	ip, #0
    c4e4:	0a000058 	beq	c64c <_start+0x2a8>
    c4e8:	e5dc2000 	ldrb	r2, [ip]
    c4ec:	e3520000 	cmp	r2, #0
    c4f0:	0a000030 	beq	c5b8 <_start+0x214>
    c4f4:	e35e0000 	cmp	lr, #0
    c4f8:	03a0a001 	moveq	sl, #1
    c4fc:	050bc070 	streq	ip, [fp, #-112]	; 0xffffff90
    c500:	0588c000 	streq	ip, [r8]
    c504:	0a000002 	beq	c514 <_start+0x170>
    c508:	e3560010 	cmp	r6, #16
    c50c:	e588c000 	str	ip, [r8]
    c510:	0a000030 	beq	c5d8 <_start+0x234>
    c514:	e3a01001 	mov	r1, #1
    c518:	e2888004 	add	r8, r8, #4
    c51c:	e08ee001 	add	lr, lr, r1
    c520:	e0866001 	add	r6, r6, r1
    c524:	eaffffda 	b	c494 <_start+0xf0>
    c528:	e51b3078 	ldr	r3, [fp, #-120]	; 0xffffff88
    c52c:	e0833001 	add	r3, r3, r1
    c530:	e5d3241c 	ldrb	r2, [r3, #1052]	; 0x41c
    c534:	e3520000 	cmp	r2, #0
    c538:	0a000049 	beq	c664 <_start+0x2c0>
    c53c:	e1a03001 	mov	r3, r1
    c540:	e2811001 	add	r1, r1, #1
    c544:	e3520020 	cmp	r2, #32
    c548:	0a00000f 	beq	c58c <_start+0x1e8>
    c54c:	e35c0000 	cmp	ip, #0
    c550:	1affffdd 	bne	c4cc <_start+0x128>
    c554:	e3520022 	cmp	r2, #34	; 0x22
    c558:	02831002 	addeq	r1, r3, #2
    c55c:	e241c001 	sub	ip, r1, #1
    c560:	03a04001 	moveq	r4, #1
    c564:	e1a03001 	mov	r3, r1
    c568:	e089c00c 	add	ip, r9, ip
    c56c:	eaffffd7 	b	c4d0 <_start+0x12c>
    c570:	e3a02000 	mov	r2, #0
    c574:	e59f4124 	ldr	r4, [pc, #292]	; c6a0 <_start+0x2fc>
    c578:	e08f4004 	add	r4, pc, r4
    c57c:	e0843003 	add	r3, r4, r3
    c580:	e5c3241c 	strb	r2, [r3, #1052]	; 0x41c
    c584:	e1a03001 	mov	r3, r1
    c588:	eaffffd4 	b	c4e0 <_start+0x13c>
    c58c:	e35c0000 	cmp	ip, #0
    c590:	0affffe4 	beq	c528 <_start+0x184>
    c594:	e3a02000 	mov	r2, #0
    c598:	e59f4104 	ldr	r4, [pc, #260]	; c6a4 <_start+0x300>
    c59c:	e08f4004 	add	r4, pc, r4
    c5a0:	e0843003 	add	r3, r4, r3
    c5a4:	e5c3241c 	strb	r2, [r3, #1052]	; 0x41c
    c5a8:	e5dc2000 	ldrb	r2, [ip]
    c5ac:	e3520000 	cmp	r2, #0
    c5b0:	e1a03001 	mov	r3, r1
    c5b4:	1affffce 	bne	c4f4 <_start+0x150>
    c5b8:	e59f30e8 	ldr	r3, [pc, #232]	; c6a8 <_start+0x304>
    c5bc:	e35a0000 	cmp	sl, #0
    c5c0:	e08f3003 	add	r3, pc, r3
    c5c4:	e583181c 	str	r1, [r3, #2076]	; 0x81c
    c5c8:	0a000009 	beq	c5f4 <_start+0x250>
    c5cc:	e51b2070 	ldr	r2, [fp, #-112]	; 0xffffff90
    c5d0:	e5832400 	str	r2, [r3, #1024]	; 0x400
    c5d4:	ea000006 	b	c5f4 <_start+0x250>
    c5d8:	e3a00010 	mov	r0, #16
    c5dc:	e35a0000 	cmp	sl, #0
    c5e0:	e59f30c4 	ldr	r3, [pc, #196]	; c6ac <_start+0x308>
    c5e4:	151b2070 	ldrne	r2, [fp, #-112]	; 0xffffff90
    c5e8:	e08f3003 	add	r3, pc, r3
    c5ec:	e583181c 	str	r1, [r3, #2076]	; 0x81c
    c5f0:	15832400 	strne	r2, [r3, #1024]	; 0x400
    c5f4:	e51b1074 	ldr	r1, [fp, #-116]	; 0xffffff8c
    c5f8:	ebffcec0 	bl	100 <main>
    c5fc:	e1a04000 	mov	r4, r0
    c600:	e3a00000 	mov	r0, #0
    c604:	eb00177b 	bl	123f8 <close>
    c608:	e3a00001 	mov	r0, #1
    c60c:	eb001779 	bl	123f8 <close>
    c610:	e3a00002 	mov	r0, #2
    c614:	eb001777 	bl	123f8 <close>
    c618:	e1a00004 	mov	r0, r4
    c61c:	eb0014bf 	bl	11920 <exit>
    c620:	e24bd028 	sub	sp, fp, #40	; 0x28
    c624:	e89d6ff0 	ldm	sp, {r4, r5, r6, r7, r8, r9, sl, fp, sp, lr}
    c628:	e12fff1e 	bx	lr
    c62c:	e3510000 	cmp	r1, #0
    c630:	1585381c 	strne	r3, [r5, #2076]	; 0x81c
    c634:	e35a0000 	cmp	sl, #0
    c638:	159f3070 	ldrne	r3, [pc, #112]	; c6b0 <_start+0x30c>
    c63c:	151b2070 	ldrne	r2, [fp, #-112]	; 0xffffff90
    c640:	108f3003 	addne	r3, pc, r3
    c644:	15832400 	strne	r2, [r3, #1024]	; 0x400
    c648:	eaffffe9 	b	c5f4 <_start+0x250>
    c64c:	e59f3060 	ldr	r3, [pc, #96]	; c6b4 <_start+0x310>
    c650:	e35a0000 	cmp	sl, #0
    c654:	e08f3003 	add	r3, pc, r3
    c658:	e583181c 	str	r1, [r3, #2076]	; 0x81c
    c65c:	1affffda 	bne	c5cc <_start+0x228>
    c660:	eaffffe3 	b	c5f4 <_start+0x250>
    c664:	e51b3078 	ldr	r3, [fp, #-120]	; 0xffffff88
    c668:	e35a0000 	cmp	sl, #0
    c66c:	e583181c 	str	r1, [r3, #2076]	; 0x81c
    c670:	1affffd5 	bne	c5cc <_start+0x228>
    c674:	eaffffde 	b	c5f4 <_start+0x250>
    c678:	0001ba9c 	muleq	r1, ip, sl
    c67c:	0001b804 	andeq	fp, r1, r4, lsl #16
    c680:	00000028 	andeq	r0, r0, r8, lsr #32
    c684:	00000014 	andeq	r0, r0, r4, lsl r0
    c688:	00000038 	andeq	r0, r0, r8, lsr r0
    c68c:	0000b618 	andeq	fp, r0, r8, lsl r6
    c690:	000003ff 	strdeq	r0, [r0], -pc	; <UNPREDICTABLE>
    c694:	0001b9f8 	strdeq	fp, [r1], -r8
    c698:	0001b9f4 	strdeq	fp, [r1], -r4
    c69c:	0001b9b8 			; <UNDEFINED> instruction: 0x0001b9b8
    c6a0:	0001b8f4 	strdeq	fp, [r1], -r4
    c6a4:	0001b8d0 	ldrdeq	fp, [r1], -r0
    c6a8:	0001b8ac 	andeq	fp, r1, ip, lsr #17
    c6ac:	0001b884 	andeq	fp, r1, r4, lsl #17
    c6b0:	0001b82c 	andeq	fp, r1, ip, lsr #16
    c6b4:	0001b818 	andeq	fp, r1, r8, lsl r8

0000c6b8 <vfs_get_by_fd_raw>:
    c6b8:	e1a0c00d 	mov	ip, sp
    c6bc:	e92dd8f0 	push	{r4, r5, r6, r7, fp, ip, lr, pc}
    c6c0:	e24cb004 	sub	fp, ip, #4
    c6c4:	e24ddf4a 	sub	sp, sp, #296	; 0x128
    c6c8:	e1a07001 	mov	r7, r1
    c6cc:	e1a05000 	mov	r5, r0
    c6d0:	eb001071 	bl	1089c <get_proto_factor>
    c6d4:	e1a03000 	mov	r3, r0
    c6d8:	e24b4f51 	sub	r4, fp, #324	; 0x144
    c6dc:	e5933004 	ldr	r3, [r3, #4]
    c6e0:	e1a00004 	mov	r0, r4
    c6e4:	e1a0e00f 	mov	lr, pc
    c6e8:	e12fff13 	bx	r3
    c6ec:	e1a03000 	mov	r3, r0
    c6f0:	e1a01005 	mov	r1, r5
    c6f4:	e5933014 	ldr	r3, [r3, #20]
    c6f8:	e1a00004 	mov	r0, r4
    c6fc:	e1a0e00f 	mov	lr, pc
    c700:	e12fff13 	bx	r3
    c704:	eb001064 	bl	1089c <get_proto_factor>
    c708:	e1a03000 	mov	r3, r0
    c70c:	e24b60b0 	sub	r6, fp, #176	; 0xb0
    c710:	e5933004 	ldr	r3, [r3, #4]
    c714:	e1a00006 	mov	r0, r6
    c718:	e1a0e00f 	mov	lr, pc
    c71c:	e12fff13 	bx	r3
    c720:	eb0012cf 	bl	11264 <get_vfsd_pid>
    c724:	e1a03006 	mov	r3, r6
    c728:	e1a02004 	mov	r2, r4
    c72c:	e3a01001 	mov	r1, #1
    c730:	eb0009c4 	bl	ee48 <ipc_call>
    c734:	e1a05000 	mov	r5, r0
    c738:	eb001057 	bl	1089c <get_proto_factor>
    c73c:	e1a03000 	mov	r3, r0
    c740:	e1a00004 	mov	r0, r4
    c744:	e593300c 	ldr	r3, [r3, #12]
    c748:	e1a0e00f 	mov	lr, pc
    c74c:	e12fff13 	bx	r3
    c750:	e2753001 	rsbs	r3, r5, #1
    c754:	33a03000 	movcc	r3, #0
    c758:	e3570000 	cmp	r7, #0
    c75c:	03a03000 	moveq	r3, #0
    c760:	e3530000 	cmp	r3, #0
    c764:	1a000009 	bne	c790 <vfs_get_by_fd_raw+0xd8>
    c768:	eb00104b 	bl	1089c <get_proto_factor>
    c76c:	e1a03000 	mov	r3, r0
    c770:	e1a00006 	mov	r0, r6
    c774:	e593300c 	ldr	r3, [r3, #12]
    c778:	e1a0e00f 	mov	lr, pc
    c77c:	e12fff13 	bx	r3
    c780:	e1a00005 	mov	r0, r5
    c784:	e24bd01c 	sub	sp, fp, #28
    c788:	e89d68f0 	ldm	sp, {r4, r5, r6, r7, fp, sp, lr}
    c78c:	e12fff1e 	bx	lr
    c790:	e3a0205c 	mov	r2, #92	; 0x5c
    c794:	e1a01007 	mov	r1, r7
    c798:	e1a00006 	mov	r0, r6
    c79c:	eb00109f 	bl	10a20 <proto_read_to>
    c7a0:	eafffff0 	b	c768 <vfs_get_by_fd_raw+0xb0>

0000c7a4 <read_pipe>:
    c7a4:	e1a0c00d 	mov	ip, sp
    c7a8:	e92ddff0 	push	{r4, r5, r6, r7, r8, r9, sl, fp, ip, lr, pc}
    c7ac:	e24cb004 	sub	fp, ip, #4
    c7b0:	e24ddf4d 	sub	sp, sp, #308	; 0x134
    c7b4:	e1a09002 	mov	r9, r2
    c7b8:	e1a06003 	mov	r6, r3
    c7bc:	e50b1158 	str	r1, [fp, #-344]	; 0xfffffea8
    c7c0:	e1a08000 	mov	r8, r0
    c7c4:	eb001034 	bl	1089c <get_proto_factor>
    c7c8:	e1a03000 	mov	r3, r0
    c7cc:	e24b4f55 	sub	r4, fp, #340	; 0x154
    c7d0:	e5933004 	ldr	r3, [r3, #4]
    c7d4:	e1a00004 	mov	r0, r4
    c7d8:	e1a0e00f 	mov	lr, pc
    c7dc:	e12fff13 	bx	r3
    c7e0:	e1a03000 	mov	r3, r0
    c7e4:	e3a0205c 	mov	r2, #92	; 0x5c
    c7e8:	e1a01008 	mov	r1, r8
    c7ec:	e5933010 	ldr	r3, [r3, #16]
    c7f0:	e1a00004 	mov	r0, r4
    c7f4:	e1a0e00f 	mov	lr, pc
    c7f8:	e12fff13 	bx	r3
    c7fc:	e1a03000 	mov	r3, r0
    c800:	e1a01009 	mov	r1, r9
    c804:	e5933014 	ldr	r3, [r3, #20]
    c808:	e1a00004 	mov	r0, r4
    c80c:	e1a0e00f 	mov	lr, pc
    c810:	e12fff13 	bx	r3
    c814:	e1a03000 	mov	r3, r0
    c818:	e1a01006 	mov	r1, r6
    c81c:	e5933014 	ldr	r3, [r3, #20]
    c820:	e1a00004 	mov	r0, r4
    c824:	e1a0e00f 	mov	lr, pc
    c828:	e12fff13 	bx	r3
    c82c:	eb00101a 	bl	1089c <get_proto_factor>
    c830:	e1a03000 	mov	r3, r0
    c834:	e24b70c0 	sub	r7, fp, #192	; 0xc0
    c838:	e5933004 	ldr	r3, [r3, #4]
    c83c:	e1a00007 	mov	r0, r7
    c840:	e1a0e00f 	mov	lr, pc
    c844:	e12fff13 	bx	r3
    c848:	eb001285 	bl	11264 <get_vfsd_pid>
    c84c:	e1a03007 	mov	r3, r7
    c850:	e1a02004 	mov	r2, r4
    c854:	e3a01007 	mov	r1, #7
    c858:	e1a0a000 	mov	sl, r0
    c85c:	eb000979 	bl	ee48 <ipc_call>
    c860:	e1a05000 	mov	r5, r0
    c864:	eb00100c 	bl	1089c <get_proto_factor>
    c868:	e1a03000 	mov	r3, r0
    c86c:	e1a00004 	mov	r0, r4
    c870:	e593300c 	ldr	r3, [r3, #12]
    c874:	e1a0e00f 	mov	lr, pc
    c878:	e12fff13 	bx	r3
    c87c:	e3550000 	cmp	r5, #0
    c880:	0a000009 	beq	c8ac <read_pipe+0x108>
    c884:	eb001004 	bl	1089c <get_proto_factor>
    c888:	e1a03000 	mov	r3, r0
    c88c:	e1a00007 	mov	r0, r7
    c890:	e593300c 	ldr	r3, [r3, #12]
    c894:	e1a0e00f 	mov	lr, pc
    c898:	e12fff13 	bx	r3
    c89c:	e1a00005 	mov	r0, r5
    c8a0:	e24bd028 	sub	sp, fp, #40	; 0x28
    c8a4:	e89d6ff0 	ldm	sp, {r4, r5, r6, r7, r8, r9, sl, fp, sp, lr}
    c8a8:	e12fff1e 	bx	lr
    c8ac:	e1a00007 	mov	r0, r7
    c8b0:	eb0010c7 	bl	10bd4 <proto_read_int>
    c8b4:	e2505000 	subs	r5, r0, #0
    c8b8:	ca000011 	bgt	c904 <read_pipe+0x160>
    c8bc:	eb000ff6 	bl	1089c <get_proto_factor>
    c8c0:	e1a03000 	mov	r3, r0
    c8c4:	e3550000 	cmp	r5, #0
    c8c8:	13a06000 	movne	r6, #0
    c8cc:	02066001 	andeq	r6, r6, #1
    c8d0:	e1a00007 	mov	r0, r7
    c8d4:	e593300c 	ldr	r3, [r3, #12]
    c8d8:	e1a0e00f 	mov	lr, pc
    c8dc:	e12fff13 	bx	r3
    c8e0:	e3560000 	cmp	r6, #0
    c8e4:	0affffec 	beq	c89c <read_pipe+0xf8>
    c8e8:	e1a0000a 	mov	r0, sl
    c8ec:	e5981000 	ldr	r1, [r8]
    c8f0:	eb0012c1 	bl	113fc <proc_block>
    c8f4:	e1a00005 	mov	r0, r5
    c8f8:	e24bd028 	sub	sp, fp, #40	; 0x28
    c8fc:	e89d6ff0 	ldm	sp, {r4, r5, r6, r7, r8, r9, sl, fp, sp, lr}
    c900:	e12fff1e 	bx	lr
    c904:	e1a02009 	mov	r2, r9
    c908:	e1a00007 	mov	r0, r7
    c90c:	e51b1158 	ldr	r1, [fp, #-344]	; 0xfffffea8
    c910:	eb001042 	bl	10a20 <proto_read_to>
    c914:	e1a05000 	mov	r5, r0
    c918:	eaffffe7 	b	c8bc <read_pipe+0x118>

0000c91c <write_pipe>:
    c91c:	e1a0c00d 	mov	ip, sp
    c920:	e92ddbf0 	push	{r4, r5, r6, r7, r8, r9, fp, ip, lr, pc}
    c924:	e24cb004 	sub	fp, ip, #4
    c928:	e24ddf4a 	sub	sp, sp, #296	; 0x128
    c92c:	e1a05001 	mov	r5, r1
    c930:	e1a09002 	mov	r9, r2
    c934:	e1a06003 	mov	r6, r3
    c938:	e1a08000 	mov	r8, r0
    c93c:	eb000fd6 	bl	1089c <get_proto_factor>
    c940:	e1a03000 	mov	r3, r0
    c944:	e24b4f53 	sub	r4, fp, #332	; 0x14c
    c948:	e5933004 	ldr	r3, [r3, #4]
    c94c:	e1a00004 	mov	r0, r4
    c950:	e1a0e00f 	mov	lr, pc
    c954:	e12fff13 	bx	r3
    c958:	e1a03000 	mov	r3, r0
    c95c:	e3a0205c 	mov	r2, #92	; 0x5c
    c960:	e1a01008 	mov	r1, r8
    c964:	e5933010 	ldr	r3, [r3, #16]
    c968:	e1a00004 	mov	r0, r4
    c96c:	e1a0e00f 	mov	lr, pc
    c970:	e12fff13 	bx	r3
    c974:	e1a03000 	mov	r3, r0
    c978:	e1a02009 	mov	r2, r9
    c97c:	e1a01005 	mov	r1, r5
    c980:	e5933010 	ldr	r3, [r3, #16]
    c984:	e1a00004 	mov	r0, r4
    c988:	e1a0e00f 	mov	lr, pc
    c98c:	e12fff13 	bx	r3
    c990:	e1a03000 	mov	r3, r0
    c994:	e1a01006 	mov	r1, r6
    c998:	e5933014 	ldr	r3, [r3, #20]
    c99c:	e1a00004 	mov	r0, r4
    c9a0:	e1a0e00f 	mov	lr, pc
    c9a4:	e12fff13 	bx	r3
    c9a8:	eb000fbb 	bl	1089c <get_proto_factor>
    c9ac:	e1a03000 	mov	r3, r0
    c9b0:	e24b70b8 	sub	r7, fp, #184	; 0xb8
    c9b4:	e5933004 	ldr	r3, [r3, #4]
    c9b8:	e1a00007 	mov	r0, r7
    c9bc:	e1a0e00f 	mov	lr, pc
    c9c0:	e12fff13 	bx	r3
    c9c4:	eb001226 	bl	11264 <get_vfsd_pid>
    c9c8:	e1a03007 	mov	r3, r7
    c9cc:	e1a02004 	mov	r2, r4
    c9d0:	e3a01006 	mov	r1, #6
    c9d4:	e1a09000 	mov	r9, r0
    c9d8:	eb00091a 	bl	ee48 <ipc_call>
    c9dc:	e1a05000 	mov	r5, r0
    c9e0:	eb000fad 	bl	1089c <get_proto_factor>
    c9e4:	e1a03000 	mov	r3, r0
    c9e8:	e1a00004 	mov	r0, r4
    c9ec:	e593300c 	ldr	r3, [r3, #12]
    c9f0:	e1a0e00f 	mov	lr, pc
    c9f4:	e12fff13 	bx	r3
    c9f8:	e3550000 	cmp	r5, #0
    c9fc:	0a000009 	beq	ca28 <write_pipe+0x10c>
    ca00:	eb000fa5 	bl	1089c <get_proto_factor>
    ca04:	e1a03000 	mov	r3, r0
    ca08:	e1a00007 	mov	r0, r7
    ca0c:	e593300c 	ldr	r3, [r3, #12]
    ca10:	e1a0e00f 	mov	lr, pc
    ca14:	e12fff13 	bx	r3
    ca18:	e1a00005 	mov	r0, r5
    ca1c:	e24bd024 	sub	sp, fp, #36	; 0x24
    ca20:	e89d6bf0 	ldm	sp, {r4, r5, r6, r7, r8, r9, fp, sp, lr}
    ca24:	e12fff1e 	bx	lr
    ca28:	e1a00007 	mov	r0, r7
    ca2c:	eb001068 	bl	10bd4 <proto_read_int>
    ca30:	e1a05000 	mov	r5, r0
    ca34:	eb000f98 	bl	1089c <get_proto_factor>
    ca38:	e1a03000 	mov	r3, r0
    ca3c:	e3550000 	cmp	r5, #0
    ca40:	13a06000 	movne	r6, #0
    ca44:	02066001 	andeq	r6, r6, #1
    ca48:	e1a00007 	mov	r0, r7
    ca4c:	e593300c 	ldr	r3, [r3, #12]
    ca50:	e1a0e00f 	mov	lr, pc
    ca54:	e12fff13 	bx	r3
    ca58:	e3560000 	cmp	r6, #0
    ca5c:	0affffed 	beq	ca18 <write_pipe+0xfc>
    ca60:	e1a00009 	mov	r0, r9
    ca64:	e5981000 	ldr	r1, [r8]
    ca68:	eb001263 	bl	113fc <proc_block>
    ca6c:	e1a00005 	mov	r0, r5
    ca70:	e24bd024 	sub	sp, fp, #36	; 0x24
    ca74:	e89d6bf0 	ldm	sp, {r4, r5, r6, r7, r8, r9, fp, sp, lr}
    ca78:	e12fff1e 	bx	lr

0000ca7c <vfs_init>:
    ca7c:	e3e02000 	mvn	r2, #0
    ca80:	e59f3024 	ldr	r3, [pc, #36]	; caac <vfs_init+0x30>
    ca84:	e08f3003 	add	r3, pc, r3
    ca88:	e5832000 	str	r2, [r3]
    ca8c:	e5832060 	str	r2, [r3, #96]	; 0x60
    ca90:	e58320c0 	str	r2, [r3, #192]	; 0xc0
    ca94:	e5832120 	str	r2, [r3, #288]	; 0x120
    ca98:	e5832180 	str	r2, [r3, #384]	; 0x180
    ca9c:	e58321e0 	str	r2, [r3, #480]	; 0x1e0
    caa0:	e5832240 	str	r2, [r3, #576]	; 0x240
    caa4:	e58322a0 	str	r2, [r3, #672]	; 0x2a0
    caa8:	e12fff1e 	bx	lr
    caac:	0001bc14 	andeq	fp, r1, r4, lsl ip

0000cab0 <vfs_get_by_fd>:
    cab0:	e1a0c00d 	mov	ip, sp
    cab4:	e3a03000 	mov	r3, #0
    cab8:	e92dd830 	push	{r4, r5, fp, ip, lr, pc}
    cabc:	e1a02003 	mov	r2, r3
    cac0:	e1a04000 	mov	r4, r0
    cac4:	e1a05001 	mov	r5, r1
    cac8:	e59fe0dc 	ldr	lr, [pc, #220]	; cbac <vfs_get_by_fd+0xfc>
    cacc:	e24cb004 	sub	fp, ip, #4
    cad0:	e08fe00e 	add	lr, pc, lr
    cad4:	e79ec103 	ldr	ip, [lr, r3, lsl #2]
    cad8:	e154000c 	cmp	r4, ip
    cadc:	e2833018 	add	r3, r3, #24
    cae0:	0a00001d 	beq	cb5c <vfs_get_by_fd+0xac>
    cae4:	e2822001 	add	r2, r2, #1
    cae8:	e3520008 	cmp	r2, #8
    caec:	1afffff8 	bne	cad4 <vfs_get_by_fd+0x24>
    caf0:	e1a01005 	mov	r1, r5
    caf4:	e1a00004 	mov	r0, r4
    caf8:	ebfffeee 	bl	c6b8 <vfs_get_by_fd_raw>
    cafc:	e2703001 	rsbs	r3, r0, #1
    cb00:	33a03000 	movcc	r3, #0
    cb04:	e3540003 	cmp	r4, #3
    cb08:	d3a03000 	movle	r3, #0
    cb0c:	e3530000 	cmp	r3, #0
    cb10:	1a000002 	bne	cb20 <vfs_get_by_fd+0x70>
    cb14:	e24bd014 	sub	sp, fp, #20
    cb18:	e89d6830 	ldm	sp, {r4, r5, fp, sp, lr}
    cb1c:	e12fff1e 	bx	lr
    cb20:	e3a03000 	mov	r3, #0
    cb24:	e1a02003 	mov	r2, r3
    cb28:	e59fc080 	ldr	ip, [pc, #128]	; cbb0 <vfs_get_by_fd+0x100>
    cb2c:	e08fc00c 	add	ip, pc, ip
    cb30:	e79c1103 	ldr	r1, [ip, r3, lsl #2]
    cb34:	e3510000 	cmp	r1, #0
    cb38:	e2833018 	add	r3, r3, #24
    cb3c:	ba000010 	blt	cb84 <vfs_get_by_fd+0xd4>
    cb40:	e2822001 	add	r2, r2, #1
    cb44:	e3520008 	cmp	r2, #8
    cb48:	1afffff8 	bne	cb30 <vfs_get_by_fd+0x80>
    cb4c:	e3a00000 	mov	r0, #0
    cb50:	e24bd014 	sub	sp, fp, #20
    cb54:	e89d6830 	ldm	sp, {r4, r5, fp, sp, lr}
    cb58:	e12fff1e 	bx	lr
    cb5c:	e0822082 	add	r2, r2, r2, lsl #1
    cb60:	e08ee282 	add	lr, lr, r2, lsl #5
    cb64:	e1a00005 	mov	r0, r5
    cb68:	e3a0205c 	mov	r2, #92	; 0x5c
    cb6c:	e28e1004 	add	r1, lr, #4
    cb70:	eb0023b4 	bl	15a48 <memcpy>
    cb74:	e3a00000 	mov	r0, #0
    cb78:	e24bd014 	sub	sp, fp, #20
    cb7c:	e89d6830 	ldm	sp, {r4, r5, fp, sp, lr}
    cb80:	e12fff1e 	bx	lr
    cb84:	e0822082 	add	r2, r2, r2, lsl #1
    cb88:	e1a03282 	lsl	r3, r2, #5
    cb8c:	e2830004 	add	r0, r3, #4
    cb90:	e3a0205c 	mov	r2, #92	; 0x5c
    cb94:	e1a01005 	mov	r1, r5
    cb98:	e78c4003 	str	r4, [ip, r3]
    cb9c:	e08c0000 	add	r0, ip, r0
    cba0:	eb0023a8 	bl	15a48 <memcpy>
    cba4:	e3a00000 	mov	r0, #0
    cba8:	eaffffd9 	b	cb14 <vfs_get_by_fd+0x64>
    cbac:	0001bbc8 	andeq	fp, r1, r8, asr #23
    cbb0:	0001bb6c 	andeq	fp, r1, ip, ror #22

0000cbb4 <vfs_new_node>:
    cbb4:	e1a0c00d 	mov	ip, sp
    cbb8:	e92dd8f0 	push	{r4, r5, r6, r7, fp, ip, lr, pc}
    cbbc:	e24cb004 	sub	fp, ip, #4
    cbc0:	e24ddf4a 	sub	sp, sp, #296	; 0x128
    cbc4:	e1a07000 	mov	r7, r0
    cbc8:	eb000f33 	bl	1089c <get_proto_factor>
    cbcc:	e1a03000 	mov	r3, r0
    cbd0:	e24b4f51 	sub	r4, fp, #324	; 0x144
    cbd4:	e5933004 	ldr	r3, [r3, #4]
    cbd8:	e1a00004 	mov	r0, r4
    cbdc:	e1a0e00f 	mov	lr, pc
    cbe0:	e12fff13 	bx	r3
    cbe4:	e1a03000 	mov	r3, r0
    cbe8:	e1a01007 	mov	r1, r7
    cbec:	e3a0205c 	mov	r2, #92	; 0x5c
    cbf0:	e5933010 	ldr	r3, [r3, #16]
    cbf4:	e1a00004 	mov	r0, r4
    cbf8:	e1a0e00f 	mov	lr, pc
    cbfc:	e12fff13 	bx	r3
    cc00:	eb000f25 	bl	1089c <get_proto_factor>
    cc04:	e1a03000 	mov	r3, r0
    cc08:	e24b60b0 	sub	r6, fp, #176	; 0xb0
    cc0c:	e5933004 	ldr	r3, [r3, #4]
    cc10:	e1a00006 	mov	r0, r6
    cc14:	e1a0e00f 	mov	lr, pc
    cc18:	e12fff13 	bx	r3
    cc1c:	eb001190 	bl	11264 <get_vfsd_pid>
    cc20:	e1a03006 	mov	r3, r6
    cc24:	e1a02004 	mov	r2, r4
    cc28:	e3a01003 	mov	r1, #3
    cc2c:	eb000885 	bl	ee48 <ipc_call>
    cc30:	e1a05000 	mov	r5, r0
    cc34:	eb000f18 	bl	1089c <get_proto_factor>
    cc38:	e1a03000 	mov	r3, r0
    cc3c:	e1a00004 	mov	r0, r4
    cc40:	e593300c 	ldr	r3, [r3, #12]
    cc44:	e1a0e00f 	mov	lr, pc
    cc48:	e12fff13 	bx	r3
    cc4c:	e3550000 	cmp	r5, #0
    cc50:	0a000009 	beq	cc7c <vfs_new_node+0xc8>
    cc54:	eb000f10 	bl	1089c <get_proto_factor>
    cc58:	e1a03000 	mov	r3, r0
    cc5c:	e1a00006 	mov	r0, r6
    cc60:	e593300c 	ldr	r3, [r3, #12]
    cc64:	e1a0e00f 	mov	lr, pc
    cc68:	e12fff13 	bx	r3
    cc6c:	e1a00005 	mov	r0, r5
    cc70:	e24bd01c 	sub	sp, fp, #28
    cc74:	e89d68f0 	ldm	sp, {r4, r5, r6, r7, fp, sp, lr}
    cc78:	e12fff1e 	bx	lr
    cc7c:	e3a0205c 	mov	r2, #92	; 0x5c
    cc80:	e1a01007 	mov	r1, r7
    cc84:	e1a00006 	mov	r0, r6
    cc88:	eb000f64 	bl	10a20 <proto_read_to>
    cc8c:	eafffff0 	b	cc54 <vfs_new_node+0xa0>

0000cc90 <vfs_fullname>:
    cc90:	e1a0c00d 	mov	ip, sp
    cc94:	e92dd870 	push	{r4, r5, r6, fp, ip, lr, pc}
    cc98:	e1a04000 	mov	r4, r0
    cc9c:	e59f00a0 	ldr	r0, [pc, #160]	; cd44 <vfs_fullname+0xb4>
    cca0:	e24cb004 	sub	fp, ip, #4
    cca4:	e24ddf81 	sub	sp, sp, #516	; 0x204
    cca8:	e08f0000 	add	r0, pc, r0
    ccac:	ebfffb9f 	bl	bb30 <str_new>
    ccb0:	e5d43000 	ldrb	r3, [r4]
    ccb4:	e353002f 	cmp	r3, #47	; 0x2f
    ccb8:	e1a05000 	mov	r5, r0
    ccbc:	0a00001d 	beq	cd38 <vfs_fullname+0xa8>
    ccc0:	e24b6f87 	sub	r6, fp, #540	; 0x21c
    ccc4:	e59f107c 	ldr	r1, [pc, #124]	; cd48 <vfs_fullname+0xb8>
    ccc8:	e1a00006 	mov	r0, r6
    cccc:	eb0011f9 	bl	114b8 <getcwd>
    ccd0:	e1a01006 	mov	r1, r6
    ccd4:	e1a00005 	mov	r0, r5
    ccd8:	ebfffb89 	bl	bb04 <str_cpy>
    ccdc:	e55b321b 	ldrb	r3, [fp, #-539]	; 0xfffffde5
    cce0:	e3530000 	cmp	r3, #0
    cce4:	1a00000f 	bne	cd28 <vfs_fullname+0x98>
    cce8:	e1a01004 	mov	r1, r4
    ccec:	e1a00005 	mov	r0, r5
    ccf0:	ebfffbb2 	bl	bbc0 <str_add>
    ccf4:	e59f4050 	ldr	r4, [pc, #80]	; cd4c <vfs_fullname+0xbc>
    ccf8:	e08f4004 	add	r4, pc, r4
    ccfc:	e2844c03 	add	r4, r4, #768	; 0x300
    cd00:	e59f2040 	ldr	r2, [pc, #64]	; cd48 <vfs_fullname+0xb8>
    cd04:	e5951000 	ldr	r1, [r5]
    cd08:	e1a00004 	mov	r0, r4
    cd0c:	eb0027a4 	bl	16ba4 <strncpy>
    cd10:	e1a00005 	mov	r0, r5
    cd14:	ebfffbf8 	bl	bcfc <str_free>
    cd18:	e1a00004 	mov	r0, r4
    cd1c:	e24bd018 	sub	sp, fp, #24
    cd20:	e89d6870 	ldm	sp, {r4, r5, r6, fp, sp, lr}
    cd24:	e12fff1e 	bx	lr
    cd28:	e3a0102f 	mov	r1, #47	; 0x2f
    cd2c:	e1a00005 	mov	r0, r5
    cd30:	ebfffbc8 	bl	bc58 <str_addc>
    cd34:	eaffffeb 	b	cce8 <vfs_fullname+0x58>
    cd38:	e1a01004 	mov	r1, r4
    cd3c:	ebfffb70 	bl	bb04 <str_cpy>
    cd40:	eaffffeb 	b	ccf4 <vfs_fullname+0x64>
    cd44:	0000ad94 	muleq	r0, r4, sp
    cd48:	000001ff 	strdeq	r0, [r0], -pc	; <UNPREDICTABLE>
    cd4c:	0001b9a0 	andeq	fp, r1, r0, lsr #19

0000cd50 <vfs_open>:
    cd50:	e1a0c00d 	mov	ip, sp
    cd54:	e92dd8f0 	push	{r4, r5, r6, r7, fp, ip, lr, pc}
    cd58:	e24cb004 	sub	fp, ip, #4
    cd5c:	e24ddf4a 	sub	sp, sp, #296	; 0x128
    cd60:	e1a07001 	mov	r7, r1
    cd64:	e1a06000 	mov	r6, r0
    cd68:	eb000ecb 	bl	1089c <get_proto_factor>
    cd6c:	e1a03000 	mov	r3, r0
    cd70:	e24b4f51 	sub	r4, fp, #324	; 0x144
    cd74:	e5933004 	ldr	r3, [r3, #4]
    cd78:	e1a00004 	mov	r0, r4
    cd7c:	e1a0e00f 	mov	lr, pc
    cd80:	e12fff13 	bx	r3
    cd84:	e1a03000 	mov	r3, r0
    cd88:	e3a0205c 	mov	r2, #92	; 0x5c
    cd8c:	e1a01006 	mov	r1, r6
    cd90:	e5933010 	ldr	r3, [r3, #16]
    cd94:	e1a00004 	mov	r0, r4
    cd98:	e1a0e00f 	mov	lr, pc
    cd9c:	e12fff13 	bx	r3
    cda0:	e1a03000 	mov	r3, r0
    cda4:	e1a01007 	mov	r1, r7
    cda8:	e5933014 	ldr	r3, [r3, #20]
    cdac:	e1a00004 	mov	r0, r4
    cdb0:	e1a0e00f 	mov	lr, pc
    cdb4:	e12fff13 	bx	r3
    cdb8:	eb000eb7 	bl	1089c <get_proto_factor>
    cdbc:	e1a03000 	mov	r3, r0
    cdc0:	e24b50b0 	sub	r5, fp, #176	; 0xb0
    cdc4:	e5933004 	ldr	r3, [r3, #4]
    cdc8:	e1a00005 	mov	r0, r5
    cdcc:	e1a0e00f 	mov	lr, pc
    cdd0:	e12fff13 	bx	r3
    cdd4:	eb001122 	bl	11264 <get_vfsd_pid>
    cdd8:	e1a03005 	mov	r3, r5
    cddc:	e1a02004 	mov	r2, r4
    cde0:	e3a01004 	mov	r1, #4
    cde4:	eb000817 	bl	ee48 <ipc_call>
    cde8:	e1a07000 	mov	r7, r0
    cdec:	eb000eaa 	bl	1089c <get_proto_factor>
    cdf0:	e1a03000 	mov	r3, r0
    cdf4:	e1a00004 	mov	r0, r4
    cdf8:	e593300c 	ldr	r3, [r3, #12]
    cdfc:	e1a0e00f 	mov	lr, pc
    ce00:	e12fff13 	bx	r3
    ce04:	e3570000 	cmp	r7, #0
    ce08:	0a000009 	beq	ce34 <vfs_open+0xe4>
    ce0c:	eb000ea2 	bl	1089c <get_proto_factor>
    ce10:	e1a03000 	mov	r3, r0
    ce14:	e1a00005 	mov	r0, r5
    ce18:	e593300c 	ldr	r3, [r3, #12]
    ce1c:	e1a0e00f 	mov	lr, pc
    ce20:	e12fff13 	bx	r3
    ce24:	e1a00007 	mov	r0, r7
    ce28:	e24bd01c 	sub	sp, fp, #28
    ce2c:	e89d68f0 	ldm	sp, {r4, r5, r6, r7, fp, sp, lr}
    ce30:	e12fff1e 	bx	lr
    ce34:	e1a00005 	mov	r0, r5
    ce38:	eb000f65 	bl	10bd4 <proto_read_int>
    ce3c:	e3a02000 	mov	r2, #0
    ce40:	e59fc04c 	ldr	ip, [pc, #76]	; ce94 <vfs_open+0x144>
    ce44:	e1a07000 	mov	r7, r0
    ce48:	e1a03002 	mov	r3, r2
    ce4c:	e08fc00c 	add	ip, pc, ip
    ce50:	ea000002 	b	ce60 <vfs_open+0x110>
    ce54:	e2833001 	add	r3, r3, #1
    ce58:	e3530008 	cmp	r3, #8
    ce5c:	0affffea 	beq	ce0c <vfs_open+0xbc>
    ce60:	e79c1102 	ldr	r1, [ip, r2, lsl #2]
    ce64:	e3510000 	cmp	r1, #0
    ce68:	e2822018 	add	r2, r2, #24
    ce6c:	aafffff8 	bge	ce54 <vfs_open+0x104>
    ce70:	e0833083 	add	r3, r3, r3, lsl #1
    ce74:	e1a03283 	lsl	r3, r3, #5
    ce78:	e2830004 	add	r0, r3, #4
    ce7c:	e1a01006 	mov	r1, r6
    ce80:	e3a0205c 	mov	r2, #92	; 0x5c
    ce84:	e78c7003 	str	r7, [ip, r3]
    ce88:	e08c0000 	add	r0, ip, r0
    ce8c:	eb0022ed 	bl	15a48 <memcpy>
    ce90:	eaffffdd 	b	ce0c <vfs_open+0xbc>
    ce94:	0001b84c 	andeq	fp, r1, ip, asr #16

0000ce98 <vfs_dup>:
    ce98:	e1a0c00d 	mov	ip, sp
    ce9c:	e92dd870 	push	{r4, r5, r6, fp, ip, lr, pc}
    cea0:	e24cb004 	sub	fp, ip, #4
    cea4:	e24ddf4b 	sub	sp, sp, #300	; 0x12c
    cea8:	e1a05000 	mov	r5, r0
    ceac:	eb000e7a 	bl	1089c <get_proto_factor>
    ceb0:	e1a03000 	mov	r3, r0
    ceb4:	e24b4f51 	sub	r4, fp, #324	; 0x144
    ceb8:	e5933004 	ldr	r3, [r3, #4]
    cebc:	e1a00004 	mov	r0, r4
    cec0:	e1a0e00f 	mov	lr, pc
    cec4:	e12fff13 	bx	r3
    cec8:	e1a03000 	mov	r3, r0
    cecc:	e1a01005 	mov	r1, r5
    ced0:	e5933014 	ldr	r3, [r3, #20]
    ced4:	e1a00004 	mov	r0, r4
    ced8:	e1a0e00f 	mov	lr, pc
    cedc:	e12fff13 	bx	r3
    cee0:	eb000e6d 	bl	1089c <get_proto_factor>
    cee4:	e1a03000 	mov	r3, r0
    cee8:	e24b60b0 	sub	r6, fp, #176	; 0xb0
    ceec:	e5933004 	ldr	r3, [r3, #4]
    cef0:	e1a00006 	mov	r0, r6
    cef4:	e1a0e00f 	mov	lr, pc
    cef8:	e12fff13 	bx	r3
    cefc:	eb0010d8 	bl	11264 <get_vfsd_pid>
    cf00:	e1a03006 	mov	r3, r6
    cf04:	e1a02004 	mov	r2, r4
    cf08:	e3a01008 	mov	r1, #8
    cf0c:	eb0007cd 	bl	ee48 <ipc_call>
    cf10:	e1a05000 	mov	r5, r0
    cf14:	eb000e60 	bl	1089c <get_proto_factor>
    cf18:	e1a03000 	mov	r3, r0
    cf1c:	e1a00004 	mov	r0, r4
    cf20:	e593300c 	ldr	r3, [r3, #12]
    cf24:	e1a0e00f 	mov	lr, pc
    cf28:	e12fff13 	bx	r3
    cf2c:	e3550000 	cmp	r5, #0
    cf30:	0a000009 	beq	cf5c <vfs_dup+0xc4>
    cf34:	eb000e58 	bl	1089c <get_proto_factor>
    cf38:	e1a03000 	mov	r3, r0
    cf3c:	e1a00006 	mov	r0, r6
    cf40:	e593300c 	ldr	r3, [r3, #12]
    cf44:	e1a0e00f 	mov	lr, pc
    cf48:	e12fff13 	bx	r3
    cf4c:	e1a00005 	mov	r0, r5
    cf50:	e24bd018 	sub	sp, fp, #24
    cf54:	e89d6870 	ldm	sp, {r4, r5, r6, fp, sp, lr}
    cf58:	e12fff1e 	bx	lr
    cf5c:	e1a00006 	mov	r0, r6
    cf60:	eb000f1b 	bl	10bd4 <proto_read_int>
    cf64:	e1a05000 	mov	r5, r0
    cf68:	eafffff1 	b	cf34 <vfs_dup+0x9c>

0000cf6c <vfs_close>:
    cf6c:	e1a0c00d 	mov	ip, sp
    cf70:	e92dd870 	push	{r4, r5, r6, fp, ip, lr, pc}
    cf74:	e24cb004 	sub	fp, ip, #4
    cf78:	e24dd09c 	sub	sp, sp, #156	; 0x9c
    cf7c:	e1a04000 	mov	r4, r0
    cf80:	eb000e45 	bl	1089c <get_proto_factor>
    cf84:	e1a03000 	mov	r3, r0
    cf88:	e24b50b0 	sub	r5, fp, #176	; 0xb0
    cf8c:	e5933004 	ldr	r3, [r3, #4]
    cf90:	e1a00005 	mov	r0, r5
    cf94:	e1a0e00f 	mov	lr, pc
    cf98:	e12fff13 	bx	r3
    cf9c:	e1a03000 	mov	r3, r0
    cfa0:	e1a01004 	mov	r1, r4
    cfa4:	e5933014 	ldr	r3, [r3, #20]
    cfa8:	e1a00005 	mov	r0, r5
    cfac:	e1a0e00f 	mov	lr, pc
    cfb0:	e12fff13 	bx	r3
    cfb4:	eb0010aa 	bl	11264 <get_vfsd_pid>
    cfb8:	e1a02005 	mov	r2, r5
    cfbc:	e3a0100a 	mov	r1, #10
    cfc0:	e3a03000 	mov	r3, #0
    cfc4:	eb00079f 	bl	ee48 <ipc_call>
    cfc8:	e1a06000 	mov	r6, r0
    cfcc:	eb000e32 	bl	1089c <get_proto_factor>
    cfd0:	e1a03000 	mov	r3, r0
    cfd4:	e1a00005 	mov	r0, r5
    cfd8:	e593300c 	ldr	r3, [r3, #12]
    cfdc:	e1a0e00f 	mov	lr, pc
    cfe0:	e12fff13 	bx	r3
    cfe4:	e3a03000 	mov	r3, #0
    cfe8:	e1a02003 	mov	r2, r3
    cfec:	e59f1048 	ldr	r1, [pc, #72]	; d03c <vfs_close+0xd0>
    cff0:	e08f1001 	add	r1, pc, r1
    cff4:	e791c103 	ldr	ip, [r1, r3, lsl #2]
    cff8:	e154000c 	cmp	r4, ip
    cffc:	e2833018 	add	r3, r3, #24
    d000:	0a000006 	beq	d020 <vfs_close+0xb4>
    d004:	e2822001 	add	r2, r2, #1
    d008:	e3520008 	cmp	r2, #8
    d00c:	1afffff8 	bne	cff4 <vfs_close+0x88>
    d010:	e1a00006 	mov	r0, r6
    d014:	e24bd018 	sub	sp, fp, #24
    d018:	e89d6870 	ldm	sp, {r4, r5, r6, fp, sp, lr}
    d01c:	e12fff1e 	bx	lr
    d020:	e3e03000 	mvn	r3, #0
    d024:	e1a00006 	mov	r0, r6
    d028:	e0822082 	add	r2, r2, r2, lsl #1
    d02c:	e7813282 	str	r3, [r1, r2, lsl #5]
    d030:	e24bd018 	sub	sp, fp, #24
    d034:	e89d6870 	ldm	sp, {r4, r5, r6, fp, sp, lr}
    d038:	e12fff1e 	bx	lr
    d03c:	0001b6a8 	andeq	fp, r1, r8, lsr #13

0000d040 <vfs_dup2>:
    d040:	e1a0c00d 	mov	ip, sp
    d044:	e92dd8f0 	push	{r4, r5, r6, r7, fp, ip, lr, pc}
    d048:	e24cb004 	sub	fp, ip, #4
    d04c:	e24ddf4a 	sub	sp, sp, #296	; 0x128
    d050:	e1a05001 	mov	r5, r1
    d054:	e1a07000 	mov	r7, r0
    d058:	eb000e0f 	bl	1089c <get_proto_factor>
    d05c:	e1a03000 	mov	r3, r0
    d060:	e24b4f51 	sub	r4, fp, #324	; 0x144
    d064:	e5933004 	ldr	r3, [r3, #4]
    d068:	e1a00004 	mov	r0, r4
    d06c:	e1a0e00f 	mov	lr, pc
    d070:	e12fff13 	bx	r3
    d074:	e1a03000 	mov	r3, r0
    d078:	e1a01007 	mov	r1, r7
    d07c:	e5933014 	ldr	r3, [r3, #20]
    d080:	e1a00004 	mov	r0, r4
    d084:	e1a0e00f 	mov	lr, pc
    d088:	e12fff13 	bx	r3
    d08c:	e1a03000 	mov	r3, r0
    d090:	e1a01005 	mov	r1, r5
    d094:	e5933014 	ldr	r3, [r3, #20]
    d098:	e1a00004 	mov	r0, r4
    d09c:	e1a0e00f 	mov	lr, pc
    d0a0:	e12fff13 	bx	r3
    d0a4:	eb000dfc 	bl	1089c <get_proto_factor>
    d0a8:	e1a03000 	mov	r3, r0
    d0ac:	e24b60b0 	sub	r6, fp, #176	; 0xb0
    d0b0:	e5933004 	ldr	r3, [r3, #4]
    d0b4:	e1a00006 	mov	r0, r6
    d0b8:	e1a0e00f 	mov	lr, pc
    d0bc:	e12fff13 	bx	r3
    d0c0:	eb001067 	bl	11264 <get_vfsd_pid>
    d0c4:	e1a03006 	mov	r3, r6
    d0c8:	e1a02004 	mov	r2, r4
    d0cc:	e3a01009 	mov	r1, #9
    d0d0:	eb00075c 	bl	ee48 <ipc_call>
    d0d4:	e1a05000 	mov	r5, r0
    d0d8:	eb000def 	bl	1089c <get_proto_factor>
    d0dc:	e1a03000 	mov	r3, r0
    d0e0:	e1a00004 	mov	r0, r4
    d0e4:	e593300c 	ldr	r3, [r3, #12]
    d0e8:	e1a0e00f 	mov	lr, pc
    d0ec:	e12fff13 	bx	r3
    d0f0:	e3550000 	cmp	r5, #0
    d0f4:	0a000009 	beq	d120 <vfs_dup2+0xe0>
    d0f8:	eb000de7 	bl	1089c <get_proto_factor>
    d0fc:	e1a03000 	mov	r3, r0
    d100:	e1a00006 	mov	r0, r6
    d104:	e593300c 	ldr	r3, [r3, #12]
    d108:	e1a0e00f 	mov	lr, pc
    d10c:	e12fff13 	bx	r3
    d110:	e1a00005 	mov	r0, r5
    d114:	e24bd01c 	sub	sp, fp, #28
    d118:	e89d68f0 	ldm	sp, {r4, r5, r6, r7, fp, sp, lr}
    d11c:	e12fff1e 	bx	lr
    d120:	e1a00006 	mov	r0, r6
    d124:	eb000eaa 	bl	10bd4 <proto_read_int>
    d128:	e1a05000 	mov	r5, r0
    d12c:	eafffff1 	b	d0f8 <vfs_dup2+0xb8>

0000d130 <vfs_open_pipe>:
    d130:	e1a0c00d 	mov	ip, sp
    d134:	e92dd870 	push	{r4, r5, r6, fp, ip, lr, pc}
    d138:	e24cb004 	sub	fp, ip, #4
    d13c:	e24dd09c 	sub	sp, sp, #156	; 0x9c
    d140:	e1a06000 	mov	r6, r0
    d144:	eb000dd4 	bl	1089c <get_proto_factor>
    d148:	e1a03000 	mov	r3, r0
    d14c:	e24b50b0 	sub	r5, fp, #176	; 0xb0
    d150:	e5933004 	ldr	r3, [r3, #4]
    d154:	e1a00005 	mov	r0, r5
    d158:	e1a0e00f 	mov	lr, pc
    d15c:	e12fff13 	bx	r3
    d160:	eb00103f 	bl	11264 <get_vfsd_pid>
    d164:	e1a03005 	mov	r3, r5
    d168:	e3a02000 	mov	r2, #0
    d16c:	e3a01005 	mov	r1, #5
    d170:	eb000734 	bl	ee48 <ipc_call>
    d174:	e2504000 	subs	r4, r0, #0
    d178:	0a000009 	beq	d1a4 <vfs_open_pipe+0x74>
    d17c:	eb000dc6 	bl	1089c <get_proto_factor>
    d180:	e1a03000 	mov	r3, r0
    d184:	e1a00005 	mov	r0, r5
    d188:	e593300c 	ldr	r3, [r3, #12]
    d18c:	e1a0e00f 	mov	lr, pc
    d190:	e12fff13 	bx	r3
    d194:	e1a00004 	mov	r0, r4
    d198:	e24bd018 	sub	sp, fp, #24
    d19c:	e89d6870 	ldm	sp, {r4, r5, r6, fp, sp, lr}
    d1a0:	e12fff1e 	bx	lr
    d1a4:	e1a00005 	mov	r0, r5
    d1a8:	eb000e89 	bl	10bd4 <proto_read_int>
    d1ac:	e2504000 	subs	r4, r0, #0
    d1b0:	1a000007 	bne	d1d4 <vfs_open_pipe+0xa4>
    d1b4:	e1a00005 	mov	r0, r5
    d1b8:	eb000e85 	bl	10bd4 <proto_read_int>
    d1bc:	e1a03000 	mov	r3, r0
    d1c0:	e1a00005 	mov	r0, r5
    d1c4:	e5863000 	str	r3, [r6]
    d1c8:	eb000e81 	bl	10bd4 <proto_read_int>
    d1cc:	e5860004 	str	r0, [r6, #4]
    d1d0:	eaffffe9 	b	d17c <vfs_open_pipe+0x4c>
    d1d4:	e3e04000 	mvn	r4, #0
    d1d8:	eaffffe7 	b	d17c <vfs_open_pipe+0x4c>

0000d1dc <vfs_get>:
    d1dc:	e1a0c00d 	mov	ip, sp
    d1e0:	e92dd8f0 	push	{r4, r5, r6, r7, fp, ip, lr, pc}
    d1e4:	e24cb004 	sub	fp, ip, #4
    d1e8:	e24ddf4a 	sub	sp, sp, #296	; 0x128
    d1ec:	e1a07001 	mov	r7, r1
    d1f0:	ebfffea6 	bl	cc90 <vfs_fullname>
    d1f4:	e1a05000 	mov	r5, r0
    d1f8:	eb000da7 	bl	1089c <get_proto_factor>
    d1fc:	e1a03000 	mov	r3, r0
    d200:	e24b4f51 	sub	r4, fp, #324	; 0x144
    d204:	e5933004 	ldr	r3, [r3, #4]
    d208:	e1a00004 	mov	r0, r4
    d20c:	e1a0e00f 	mov	lr, pc
    d210:	e12fff13 	bx	r3
    d214:	e1a03000 	mov	r3, r0
    d218:	e1a01005 	mov	r1, r5
    d21c:	e5933018 	ldr	r3, [r3, #24]
    d220:	e1a00004 	mov	r0, r4
    d224:	e1a0e00f 	mov	lr, pc
    d228:	e12fff13 	bx	r3
    d22c:	eb000d9a 	bl	1089c <get_proto_factor>
    d230:	e1a03000 	mov	r3, r0
    d234:	e24b60b0 	sub	r6, fp, #176	; 0xb0
    d238:	e5933004 	ldr	r3, [r3, #4]
    d23c:	e1a00006 	mov	r0, r6
    d240:	e1a0e00f 	mov	lr, pc
    d244:	e12fff13 	bx	r3
    d248:	eb001005 	bl	11264 <get_vfsd_pid>
    d24c:	e1a03006 	mov	r3, r6
    d250:	e1a02004 	mov	r2, r4
    d254:	e3a01000 	mov	r1, #0
    d258:	eb0006fa 	bl	ee48 <ipc_call>
    d25c:	e1a05000 	mov	r5, r0
    d260:	eb000d8d 	bl	1089c <get_proto_factor>
    d264:	e1a03000 	mov	r3, r0
    d268:	e1a00004 	mov	r0, r4
    d26c:	e593300c 	ldr	r3, [r3, #12]
    d270:	e1a0e00f 	mov	lr, pc
    d274:	e12fff13 	bx	r3
    d278:	e3550000 	cmp	r5, #0
    d27c:	0a000009 	beq	d2a8 <vfs_get+0xcc>
    d280:	eb000d85 	bl	1089c <get_proto_factor>
    d284:	e1a03000 	mov	r3, r0
    d288:	e1a00006 	mov	r0, r6
    d28c:	e593300c 	ldr	r3, [r3, #12]
    d290:	e1a0e00f 	mov	lr, pc
    d294:	e12fff13 	bx	r3
    d298:	e1a00005 	mov	r0, r5
    d29c:	e24bd01c 	sub	sp, fp, #28
    d2a0:	e89d68f0 	ldm	sp, {r4, r5, r6, r7, fp, sp, lr}
    d2a4:	e12fff1e 	bx	lr
    d2a8:	e1a00006 	mov	r0, r6
    d2ac:	eb000e48 	bl	10bd4 <proto_read_int>
    d2b0:	e3500000 	cmp	r0, #0
    d2b4:	0a000006 	beq	d2d4 <vfs_get+0xf8>
    d2b8:	e3570000 	cmp	r7, #0
    d2bc:	0affffef 	beq	d280 <vfs_get+0xa4>
    d2c0:	e3a0205c 	mov	r2, #92	; 0x5c
    d2c4:	e1a01007 	mov	r1, r7
    d2c8:	e1a00006 	mov	r0, r6
    d2cc:	eb000dd3 	bl	10a20 <proto_read_to>
    d2d0:	eaffffea 	b	d280 <vfs_get+0xa4>
    d2d4:	e3e05000 	mvn	r5, #0
    d2d8:	eaffffe8 	b	d280 <vfs_get+0xa4>

0000d2dc <vfs_access>:
    d2dc:	e3a01000 	mov	r1, #0
    d2e0:	eaffffbd 	b	d1dc <vfs_get>

0000d2e4 <vfs_kids>:
    d2e4:	e1a0c00d 	mov	ip, sp
    d2e8:	e92dd8f0 	push	{r4, r5, r6, r7, fp, ip, lr, pc}
    d2ec:	e24cb004 	sub	fp, ip, #4
    d2f0:	e24ddf4a 	sub	sp, sp, #296	; 0x128
    d2f4:	e1a07001 	mov	r7, r1
    d2f8:	e1a06000 	mov	r6, r0
    d2fc:	eb000d66 	bl	1089c <get_proto_factor>
    d300:	e1a03000 	mov	r3, r0
    d304:	e24b4f51 	sub	r4, fp, #324	; 0x144
    d308:	e5933004 	ldr	r3, [r3, #4]
    d30c:	e1a00004 	mov	r0, r4
    d310:	e1a0e00f 	mov	lr, pc
    d314:	e12fff13 	bx	r3
    d318:	e1a03000 	mov	r3, r0
    d31c:	e1a01006 	mov	r1, r6
    d320:	e3a0205c 	mov	r2, #92	; 0x5c
    d324:	e5933010 	ldr	r3, [r3, #16]
    d328:	e1a00004 	mov	r0, r4
    d32c:	e1a0e00f 	mov	lr, pc
    d330:	e12fff13 	bx	r3
    d334:	eb000d58 	bl	1089c <get_proto_factor>
    d338:	e1a03000 	mov	r3, r0
    d33c:	e24b50b0 	sub	r5, fp, #176	; 0xb0
    d340:	e5933004 	ldr	r3, [r3, #4]
    d344:	e1a00005 	mov	r0, r5
    d348:	e1a0e00f 	mov	lr, pc
    d34c:	e12fff13 	bx	r3
    d350:	eb000fc3 	bl	11264 <get_vfsd_pid>
    d354:	e1a03005 	mov	r3, r5
    d358:	e1a02004 	mov	r2, r4
    d35c:	e3a01012 	mov	r1, #18
    d360:	eb0006b8 	bl	ee48 <ipc_call>
    d364:	e1a06000 	mov	r6, r0
    d368:	eb000d4b 	bl	1089c <get_proto_factor>
    d36c:	e1a03000 	mov	r3, r0
    d370:	e1a00004 	mov	r0, r4
    d374:	e593300c 	ldr	r3, [r3, #12]
    d378:	e1a0e00f 	mov	lr, pc
    d37c:	e12fff13 	bx	r3
    d380:	e3560000 	cmp	r6, #0
    d384:	1a00000f 	bne	d3c8 <vfs_kids+0xe4>
    d388:	e1a00005 	mov	r0, r5
    d38c:	eb000e10 	bl	10bd4 <proto_read_int>
    d390:	e3500000 	cmp	r0, #0
    d394:	e5870000 	str	r0, [r7]
    d398:	0a00000a 	beq	d3c8 <vfs_kids+0xe4>
    d39c:	e0804080 	add	r4, r0, r0, lsl #1
    d3a0:	e0600184 	rsb	r0, r0, r4, lsl #3
    d3a4:	e1a04100 	lsl	r4, r0, #2
    d3a8:	e1a00004 	mov	r0, r4
    d3ac:	eb00116d 	bl	11968 <malloc>
    d3b0:	e1a01000 	mov	r1, r0
    d3b4:	e1a02004 	mov	r2, r4
    d3b8:	e1a00005 	mov	r0, r5
    d3bc:	e1a04001 	mov	r4, r1
    d3c0:	eb000d96 	bl	10a20 <proto_read_to>
    d3c4:	ea000000 	b	d3cc <vfs_kids+0xe8>
    d3c8:	e3a04000 	mov	r4, #0
    d3cc:	eb000d32 	bl	1089c <get_proto_factor>
    d3d0:	e1a03000 	mov	r3, r0
    d3d4:	e1a00005 	mov	r0, r5
    d3d8:	e593300c 	ldr	r3, [r3, #12]
    d3dc:	e1a0e00f 	mov	lr, pc
    d3e0:	e12fff13 	bx	r3
    d3e4:	e1a00004 	mov	r0, r4
    d3e8:	e24bd01c 	sub	sp, fp, #28
    d3ec:	e89d68f0 	ldm	sp, {r4, r5, r6, r7, fp, sp, lr}
    d3f0:	e12fff1e 	bx	lr

0000d3f4 <vfs_set>:
    d3f4:	e1a0c00d 	mov	ip, sp
    d3f8:	e92dd870 	push	{r4, r5, r6, fp, ip, lr, pc}
    d3fc:	e24cb004 	sub	fp, ip, #4
    d400:	e24ddf4b 	sub	sp, sp, #300	; 0x12c
    d404:	e1a05000 	mov	r5, r0
    d408:	eb000d23 	bl	1089c <get_proto_factor>
    d40c:	e1a03000 	mov	r3, r0
    d410:	e24b4f51 	sub	r4, fp, #324	; 0x144
    d414:	e5933004 	ldr	r3, [r3, #4]
    d418:	e1a00004 	mov	r0, r4
    d41c:	e1a0e00f 	mov	lr, pc
    d420:	e12fff13 	bx	r3
    d424:	e1a03000 	mov	r3, r0
    d428:	e1a01005 	mov	r1, r5
    d42c:	e3a0205c 	mov	r2, #92	; 0x5c
    d430:	e5933010 	ldr	r3, [r3, #16]
    d434:	e1a00004 	mov	r0, r4
    d438:	e1a0e00f 	mov	lr, pc
    d43c:	e12fff13 	bx	r3
    d440:	eb000d15 	bl	1089c <get_proto_factor>
    d444:	e1a03000 	mov	r3, r0
    d448:	e24b60b0 	sub	r6, fp, #176	; 0xb0
    d44c:	e5933004 	ldr	r3, [r3, #4]
    d450:	e1a00006 	mov	r0, r6
    d454:	e1a0e00f 	mov	lr, pc
    d458:	e12fff13 	bx	r3
    d45c:	eb000f80 	bl	11264 <get_vfsd_pid>
    d460:	e1a03006 	mov	r3, r6
    d464:	e1a02004 	mov	r2, r4
    d468:	e3a01002 	mov	r1, #2
    d46c:	eb000675 	bl	ee48 <ipc_call>
    d470:	e1a05000 	mov	r5, r0
    d474:	eb000d08 	bl	1089c <get_proto_factor>
    d478:	e1a03000 	mov	r3, r0
    d47c:	e1a00004 	mov	r0, r4
    d480:	e593300c 	ldr	r3, [r3, #12]
    d484:	e1a0e00f 	mov	lr, pc
    d488:	e12fff13 	bx	r3
    d48c:	e3550000 	cmp	r5, #0
    d490:	0a000009 	beq	d4bc <vfs_set+0xc8>
    d494:	eb000d00 	bl	1089c <get_proto_factor>
    d498:	e1a03000 	mov	r3, r0
    d49c:	e1a00006 	mov	r0, r6
    d4a0:	e593300c 	ldr	r3, [r3, #12]
    d4a4:	e1a0e00f 	mov	lr, pc
    d4a8:	e12fff13 	bx	r3
    d4ac:	e1a00005 	mov	r0, r5
    d4b0:	e24bd018 	sub	sp, fp, #24
    d4b4:	e89d6870 	ldm	sp, {r4, r5, r6, fp, sp, lr}
    d4b8:	e12fff1e 	bx	lr
    d4bc:	e1a00006 	mov	r0, r6
    d4c0:	eb000dc3 	bl	10bd4 <proto_read_int>
    d4c4:	e1a05000 	mov	r5, r0
    d4c8:	eafffff1 	b	d494 <vfs_set+0xa0>

0000d4cc <vfs_add>:
    d4cc:	e1a0c00d 	mov	ip, sp
    d4d0:	e92dd8f0 	push	{r4, r5, r6, r7, fp, ip, lr, pc}
    d4d4:	e24cb004 	sub	fp, ip, #4
    d4d8:	e24ddf4a 	sub	sp, sp, #296	; 0x128
    d4dc:	e1a05001 	mov	r5, r1
    d4e0:	e1a07000 	mov	r7, r0
    d4e4:	eb000cec 	bl	1089c <get_proto_factor>
    d4e8:	e1a03000 	mov	r3, r0
    d4ec:	e24b4f51 	sub	r4, fp, #324	; 0x144
    d4f0:	e5933004 	ldr	r3, [r3, #4]
    d4f4:	e1a00004 	mov	r0, r4
    d4f8:	e1a0e00f 	mov	lr, pc
    d4fc:	e12fff13 	bx	r3
    d500:	e1a03000 	mov	r3, r0
    d504:	e3a0205c 	mov	r2, #92	; 0x5c
    d508:	e1a01007 	mov	r1, r7
    d50c:	e5933010 	ldr	r3, [r3, #16]
    d510:	e1a00004 	mov	r0, r4
    d514:	e1a0e00f 	mov	lr, pc
    d518:	e12fff13 	bx	r3
    d51c:	e1a03000 	mov	r3, r0
    d520:	e1a01005 	mov	r1, r5
    d524:	e3a0205c 	mov	r2, #92	; 0x5c
    d528:	e5933010 	ldr	r3, [r3, #16]
    d52c:	e1a00004 	mov	r0, r4
    d530:	e1a0e00f 	mov	lr, pc
    d534:	e12fff13 	bx	r3
    d538:	eb000cd7 	bl	1089c <get_proto_factor>
    d53c:	e1a03000 	mov	r3, r0
    d540:	e24b60b0 	sub	r6, fp, #176	; 0xb0
    d544:	e5933004 	ldr	r3, [r3, #4]
    d548:	e1a00006 	mov	r0, r6
    d54c:	e1a0e00f 	mov	lr, pc
    d550:	e12fff13 	bx	r3
    d554:	eb000f42 	bl	11264 <get_vfsd_pid>
    d558:	e1a03006 	mov	r3, r6
    d55c:	e1a02004 	mov	r2, r4
    d560:	e3a0100d 	mov	r1, #13
    d564:	eb000637 	bl	ee48 <ipc_call>
    d568:	e1a05000 	mov	r5, r0
    d56c:	eb000cca 	bl	1089c <get_proto_factor>
    d570:	e1a03000 	mov	r3, r0
    d574:	e1a00004 	mov	r0, r4
    d578:	e593300c 	ldr	r3, [r3, #12]
    d57c:	e1a0e00f 	mov	lr, pc
    d580:	e12fff13 	bx	r3
    d584:	e3550000 	cmp	r5, #0
    d588:	0a000009 	beq	d5b4 <vfs_add+0xe8>
    d58c:	eb000cc2 	bl	1089c <get_proto_factor>
    d590:	e1a03000 	mov	r3, r0
    d594:	e1a00006 	mov	r0, r6
    d598:	e593300c 	ldr	r3, [r3, #12]
    d59c:	e1a0e00f 	mov	lr, pc
    d5a0:	e12fff13 	bx	r3
    d5a4:	e1a00005 	mov	r0, r5
    d5a8:	e24bd01c 	sub	sp, fp, #28
    d5ac:	e89d68f0 	ldm	sp, {r4, r5, r6, r7, fp, sp, lr}
    d5b0:	e12fff1e 	bx	lr
    d5b4:	e1a00006 	mov	r0, r6
    d5b8:	eb000d85 	bl	10bd4 <proto_read_int>
    d5bc:	e1a05000 	mov	r5, r0
    d5c0:	eafffff1 	b	d58c <vfs_add+0xc0>

0000d5c4 <vfs_del>:
    d5c4:	e1a0c00d 	mov	ip, sp
    d5c8:	e92dd870 	push	{r4, r5, r6, fp, ip, lr, pc}
    d5cc:	e24cb004 	sub	fp, ip, #4
    d5d0:	e24ddf4b 	sub	sp, sp, #300	; 0x12c
    d5d4:	e1a05000 	mov	r5, r0
    d5d8:	eb000caf 	bl	1089c <get_proto_factor>
    d5dc:	e1a03000 	mov	r3, r0
    d5e0:	e24b4f51 	sub	r4, fp, #324	; 0x144
    d5e4:	e5933004 	ldr	r3, [r3, #4]
    d5e8:	e1a00004 	mov	r0, r4
    d5ec:	e1a0e00f 	mov	lr, pc
    d5f0:	e12fff13 	bx	r3
    d5f4:	e1a03000 	mov	r3, r0
    d5f8:	e1a01005 	mov	r1, r5
    d5fc:	e3a0205c 	mov	r2, #92	; 0x5c
    d600:	e5933010 	ldr	r3, [r3, #16]
    d604:	e1a00004 	mov	r0, r4
    d608:	e1a0e00f 	mov	lr, pc
    d60c:	e12fff13 	bx	r3
    d610:	eb000ca1 	bl	1089c <get_proto_factor>
    d614:	e1a03000 	mov	r3, r0
    d618:	e24b60b0 	sub	r6, fp, #176	; 0xb0
    d61c:	e5933004 	ldr	r3, [r3, #4]
    d620:	e1a00006 	mov	r0, r6
    d624:	e1a0e00f 	mov	lr, pc
    d628:	e12fff13 	bx	r3
    d62c:	eb000f0c 	bl	11264 <get_vfsd_pid>
    d630:	e1a03006 	mov	r3, r6
    d634:	e1a02004 	mov	r2, r4
    d638:	e3a0100e 	mov	r1, #14
    d63c:	eb000601 	bl	ee48 <ipc_call>
    d640:	e1a05000 	mov	r5, r0
    d644:	eb000c94 	bl	1089c <get_proto_factor>
    d648:	e1a03000 	mov	r3, r0
    d64c:	e1a00004 	mov	r0, r4
    d650:	e593300c 	ldr	r3, [r3, #12]
    d654:	e1a0e00f 	mov	lr, pc
    d658:	e12fff13 	bx	r3
    d65c:	e3550000 	cmp	r5, #0
    d660:	0a000009 	beq	d68c <vfs_del+0xc8>
    d664:	eb000c8c 	bl	1089c <get_proto_factor>
    d668:	e1a03000 	mov	r3, r0
    d66c:	e1a00006 	mov	r0, r6
    d670:	e593300c 	ldr	r3, [r3, #12]
    d674:	e1a0e00f 	mov	lr, pc
    d678:	e12fff13 	bx	r3
    d67c:	e1a00005 	mov	r0, r5
    d680:	e24bd018 	sub	sp, fp, #24
    d684:	e89d6870 	ldm	sp, {r4, r5, r6, fp, sp, lr}
    d688:	e12fff1e 	bx	lr
    d68c:	e1a00006 	mov	r0, r6
    d690:	eb000d4f 	bl	10bd4 <proto_read_int>
    d694:	e1a05000 	mov	r5, r0
    d698:	eafffff1 	b	d664 <vfs_del+0xa0>

0000d69c <vfs_get_mount_by_id>:
    d69c:	e1a0c00d 	mov	ip, sp
    d6a0:	e92dd8f0 	push	{r4, r5, r6, r7, fp, ip, lr, pc}
    d6a4:	e24cb004 	sub	fp, ip, #4
    d6a8:	e24ddf4a 	sub	sp, sp, #296	; 0x128
    d6ac:	e1a07001 	mov	r7, r1
    d6b0:	e1a05000 	mov	r5, r0
    d6b4:	eb000c78 	bl	1089c <get_proto_factor>
    d6b8:	e1a03000 	mov	r3, r0
    d6bc:	e24b4f51 	sub	r4, fp, #324	; 0x144
    d6c0:	e5933004 	ldr	r3, [r3, #4]
    d6c4:	e1a00004 	mov	r0, r4
    d6c8:	e1a0e00f 	mov	lr, pc
    d6cc:	e12fff13 	bx	r3
    d6d0:	e1a03000 	mov	r3, r0
    d6d4:	e1a01005 	mov	r1, r5
    d6d8:	e5933014 	ldr	r3, [r3, #20]
    d6dc:	e1a00004 	mov	r0, r4
    d6e0:	e1a0e00f 	mov	lr, pc
    d6e4:	e12fff13 	bx	r3
    d6e8:	eb000c6b 	bl	1089c <get_proto_factor>
    d6ec:	e1a03000 	mov	r3, r0
    d6f0:	e24b60b0 	sub	r6, fp, #176	; 0xb0
    d6f4:	e5933004 	ldr	r3, [r3, #4]
    d6f8:	e1a00006 	mov	r0, r6
    d6fc:	e1a0e00f 	mov	lr, pc
    d700:	e12fff13 	bx	r3
    d704:	eb000ed6 	bl	11264 <get_vfsd_pid>
    d708:	e1a03006 	mov	r3, r6
    d70c:	e1a02004 	mov	r2, r4
    d710:	e3a01011 	mov	r1, #17
    d714:	eb0005cb 	bl	ee48 <ipc_call>
    d718:	e1a05000 	mov	r5, r0
    d71c:	eb000c5e 	bl	1089c <get_proto_factor>
    d720:	e1a03000 	mov	r3, r0
    d724:	e1a00004 	mov	r0, r4
    d728:	e593300c 	ldr	r3, [r3, #12]
    d72c:	e1a0e00f 	mov	lr, pc
    d730:	e12fff13 	bx	r3
    d734:	e3550000 	cmp	r5, #0
    d738:	0a000009 	beq	d764 <vfs_get_mount_by_id+0xc8>
    d73c:	eb000c56 	bl	1089c <get_proto_factor>
    d740:	e1a03000 	mov	r3, r0
    d744:	e1a00006 	mov	r0, r6
    d748:	e593300c 	ldr	r3, [r3, #12]
    d74c:	e1a0e00f 	mov	lr, pc
    d750:	e12fff13 	bx	r3
    d754:	e1a00005 	mov	r0, r5
    d758:	e24bd01c 	sub	sp, fp, #28
    d75c:	e89d68f0 	ldm	sp, {r4, r5, r6, r7, fp, sp, lr}
    d760:	e12fff1e 	bx	lr
    d764:	e1a00006 	mov	r0, r6
    d768:	eb000d19 	bl	10bd4 <proto_read_int>
    d76c:	e2505000 	subs	r5, r0, #0
    d770:	1afffff1 	bne	d73c <vfs_get_mount_by_id+0xa0>
    d774:	e3a02f82 	mov	r2, #520	; 0x208
    d778:	e1a01007 	mov	r1, r7
    d77c:	e1a00006 	mov	r0, r6
    d780:	eb000ca6 	bl	10a20 <proto_read_to>
    d784:	eaffffec 	b	d73c <vfs_get_mount_by_id+0xa0>

0000d788 <vfs_mount>:
    d788:	e1a0c00d 	mov	ip, sp
    d78c:	e92dd8f0 	push	{r4, r5, r6, r7, fp, ip, lr, pc}
    d790:	e24cb004 	sub	fp, ip, #4
    d794:	e24dde13 	sub	sp, sp, #304	; 0x130
    d798:	e1a05001 	mov	r5, r1
    d79c:	e1a07000 	mov	r7, r0
    d7a0:	eb000c3d 	bl	1089c <get_proto_factor>
    d7a4:	e1a03000 	mov	r3, r0
    d7a8:	e24b4f51 	sub	r4, fp, #324	; 0x144
    d7ac:	e5933004 	ldr	r3, [r3, #4]
    d7b0:	e1a00004 	mov	r0, r4
    d7b4:	e1a0e00f 	mov	lr, pc
    d7b8:	e12fff13 	bx	r3
    d7bc:	e1a03000 	mov	r3, r0
    d7c0:	e3a0205c 	mov	r2, #92	; 0x5c
    d7c4:	e1a01007 	mov	r1, r7
    d7c8:	e5933010 	ldr	r3, [r3, #16]
    d7cc:	e1a00004 	mov	r0, r4
    d7d0:	e1a0e00f 	mov	lr, pc
    d7d4:	e12fff13 	bx	r3
    d7d8:	e1a03000 	mov	r3, r0
    d7dc:	e1a01005 	mov	r1, r5
    d7e0:	e3a0205c 	mov	r2, #92	; 0x5c
    d7e4:	e5933010 	ldr	r3, [r3, #16]
    d7e8:	e1a00004 	mov	r0, r4
    d7ec:	e1a0e00f 	mov	lr, pc
    d7f0:	e12fff13 	bx	r3
    d7f4:	eb000c28 	bl	1089c <get_proto_factor>
    d7f8:	e1a03000 	mov	r3, r0
    d7fc:	e24b60b0 	sub	r6, fp, #176	; 0xb0
    d800:	e5933004 	ldr	r3, [r3, #4]
    d804:	e1a00006 	mov	r0, r6
    d808:	e1a0e00f 	mov	lr, pc
    d80c:	e12fff13 	bx	r3
    d810:	eb000e93 	bl	11264 <get_vfsd_pid>
    d814:	e1a03006 	mov	r3, r6
    d818:	e1a02004 	mov	r2, r4
    d81c:	e3a0100f 	mov	r1, #15
    d820:	eb000588 	bl	ee48 <ipc_call>
    d824:	e1a05000 	mov	r5, r0
    d828:	e50b0148 	str	r0, [fp, #-328]	; 0xfffffeb8
    d82c:	eb000c1a 	bl	1089c <get_proto_factor>
    d830:	e1a03000 	mov	r3, r0
    d834:	e1a00004 	mov	r0, r4
    d838:	e593300c 	ldr	r3, [r3, #12]
    d83c:	e1a0e00f 	mov	lr, pc
    d840:	e12fff13 	bx	r3
    d844:	e3550000 	cmp	r5, #0
    d848:	0a000009 	beq	d874 <vfs_mount+0xec>
    d84c:	eb000c12 	bl	1089c <get_proto_factor>
    d850:	e1a03000 	mov	r3, r0
    d854:	e1a00006 	mov	r0, r6
    d858:	e593300c 	ldr	r3, [r3, #12]
    d85c:	e1a0e00f 	mov	lr, pc
    d860:	e12fff13 	bx	r3
    d864:	e1a00005 	mov	r0, r5
    d868:	e24bd01c 	sub	sp, fp, #28
    d86c:	e89d68f0 	ldm	sp, {r4, r5, r6, r7, fp, sp, lr}
    d870:	e12fff1e 	bx	lr
    d874:	e1a00006 	mov	r0, r6
    d878:	eb000cd5 	bl	10bd4 <proto_read_int>
    d87c:	e1a05000 	mov	r5, r0
    d880:	eafffff1 	b	d84c <vfs_mount+0xc4>

0000d884 <vfs_umount>:
    d884:	e1a0c00d 	mov	ip, sp
    d888:	e92dd870 	push	{r4, r5, r6, fp, ip, lr, pc}
    d88c:	e24cb004 	sub	fp, ip, #4
    d890:	e24ddf4b 	sub	sp, sp, #300	; 0x12c
    d894:	e1a05000 	mov	r5, r0
    d898:	eb000bff 	bl	1089c <get_proto_factor>
    d89c:	e1a03000 	mov	r3, r0
    d8a0:	e24b4f51 	sub	r4, fp, #324	; 0x144
    d8a4:	e5933004 	ldr	r3, [r3, #4]
    d8a8:	e1a00004 	mov	r0, r4
    d8ac:	e1a0e00f 	mov	lr, pc
    d8b0:	e12fff13 	bx	r3
    d8b4:	e1a03000 	mov	r3, r0
    d8b8:	e1a01005 	mov	r1, r5
    d8bc:	e3a0205c 	mov	r2, #92	; 0x5c
    d8c0:	e5933010 	ldr	r3, [r3, #16]
    d8c4:	e1a00004 	mov	r0, r4
    d8c8:	e1a0e00f 	mov	lr, pc
    d8cc:	e12fff13 	bx	r3
    d8d0:	eb000bf1 	bl	1089c <get_proto_factor>
    d8d4:	e1a03000 	mov	r3, r0
    d8d8:	e24b60b0 	sub	r6, fp, #176	; 0xb0
    d8dc:	e5933004 	ldr	r3, [r3, #4]
    d8e0:	e1a00006 	mov	r0, r6
    d8e4:	e1a0e00f 	mov	lr, pc
    d8e8:	e12fff13 	bx	r3
    d8ec:	eb000e5c 	bl	11264 <get_vfsd_pid>
    d8f0:	e1a03006 	mov	r3, r6
    d8f4:	e1a02004 	mov	r2, r4
    d8f8:	e3a01010 	mov	r1, #16
    d8fc:	eb000551 	bl	ee48 <ipc_call>
    d900:	e1a05000 	mov	r5, r0
    d904:	eb000be4 	bl	1089c <get_proto_factor>
    d908:	e1a03000 	mov	r3, r0
    d90c:	e1a00004 	mov	r0, r4
    d910:	e593300c 	ldr	r3, [r3, #12]
    d914:	e1a0e00f 	mov	lr, pc
    d918:	e12fff13 	bx	r3
    d91c:	e3550000 	cmp	r5, #0
    d920:	0a000009 	beq	d94c <vfs_umount+0xc8>
    d924:	eb000bdc 	bl	1089c <get_proto_factor>
    d928:	e1a03000 	mov	r3, r0
    d92c:	e1a00006 	mov	r0, r6
    d930:	e593300c 	ldr	r3, [r3, #12]
    d934:	e1a0e00f 	mov	lr, pc
    d938:	e12fff13 	bx	r3
    d93c:	e1a00005 	mov	r0, r5
    d940:	e24bd018 	sub	sp, fp, #24
    d944:	e89d6870 	ldm	sp, {r4, r5, r6, fp, sp, lr}
    d948:	e12fff1e 	bx	lr
    d94c:	e1a00006 	mov	r0, r6
    d950:	eb000c9f 	bl	10bd4 <proto_read_int>
    d954:	e1a05000 	mov	r5, r0
    d958:	eafffff1 	b	d924 <vfs_umount+0xa0>

0000d95c <vfs_tell>:
    d95c:	e1a0c00d 	mov	ip, sp
    d960:	e92dd870 	push	{r4, r5, r6, fp, ip, lr, pc}
    d964:	e24cb004 	sub	fp, ip, #4
    d968:	e24ddf4b 	sub	sp, sp, #300	; 0x12c
    d96c:	e1a05000 	mov	r5, r0
    d970:	eb000bc9 	bl	1089c <get_proto_factor>
    d974:	e1a03000 	mov	r3, r0
    d978:	e24b4f51 	sub	r4, fp, #324	; 0x144
    d97c:	e5933004 	ldr	r3, [r3, #4]
    d980:	e1a00004 	mov	r0, r4
    d984:	e1a0e00f 	mov	lr, pc
    d988:	e12fff13 	bx	r3
    d98c:	e1a03000 	mov	r3, r0
    d990:	e1a01005 	mov	r1, r5
    d994:	e5933014 	ldr	r3, [r3, #20]
    d998:	e1a00004 	mov	r0, r4
    d99c:	e1a0e00f 	mov	lr, pc
    d9a0:	e12fff13 	bx	r3
    d9a4:	eb000bbc 	bl	1089c <get_proto_factor>
    d9a8:	e1a03000 	mov	r3, r0
    d9ac:	e24b60b0 	sub	r6, fp, #176	; 0xb0
    d9b0:	e5933004 	ldr	r3, [r3, #4]
    d9b4:	e1a00006 	mov	r0, r6
    d9b8:	e1a0e00f 	mov	lr, pc
    d9bc:	e12fff13 	bx	r3
    d9c0:	eb000e27 	bl	11264 <get_vfsd_pid>
    d9c4:	e1a03006 	mov	r3, r6
    d9c8:	e1a02004 	mov	r2, r4
    d9cc:	e3a0100b 	mov	r1, #11
    d9d0:	eb00051c 	bl	ee48 <ipc_call>
    d9d4:	e1a05000 	mov	r5, r0
    d9d8:	eb000baf 	bl	1089c <get_proto_factor>
    d9dc:	e1a03000 	mov	r3, r0
    d9e0:	e1a00004 	mov	r0, r4
    d9e4:	e593300c 	ldr	r3, [r3, #12]
    d9e8:	e1a0e00f 	mov	lr, pc
    d9ec:	e12fff13 	bx	r3
    d9f0:	e3550000 	cmp	r5, #0
    d9f4:	0a000009 	beq	da20 <vfs_tell+0xc4>
    d9f8:	eb000ba7 	bl	1089c <get_proto_factor>
    d9fc:	e1a03000 	mov	r3, r0
    da00:	e1a00006 	mov	r0, r6
    da04:	e593300c 	ldr	r3, [r3, #12]
    da08:	e1a0e00f 	mov	lr, pc
    da0c:	e12fff13 	bx	r3
    da10:	e1a00005 	mov	r0, r5
    da14:	e24bd018 	sub	sp, fp, #24
    da18:	e89d6870 	ldm	sp, {r4, r5, r6, fp, sp, lr}
    da1c:	e12fff1e 	bx	lr
    da20:	e1a00006 	mov	r0, r6
    da24:	eb000c6a 	bl	10bd4 <proto_read_int>
    da28:	e1a05000 	mov	r5, r0
    da2c:	eafffff1 	b	d9f8 <vfs_tell+0x9c>

0000da30 <vfs_seek>:
    da30:	e1a0c00d 	mov	ip, sp
    da34:	e92dd8f0 	push	{r4, r5, r6, r7, fp, ip, lr, pc}
    da38:	e24cb004 	sub	fp, ip, #4
    da3c:	e24ddf4a 	sub	sp, sp, #296	; 0x128
    da40:	e1a05001 	mov	r5, r1
    da44:	e1a07000 	mov	r7, r0
    da48:	eb000b93 	bl	1089c <get_proto_factor>
    da4c:	e1a03000 	mov	r3, r0
    da50:	e24b4f51 	sub	r4, fp, #324	; 0x144
    da54:	e5933004 	ldr	r3, [r3, #4]
    da58:	e1a00004 	mov	r0, r4
    da5c:	e1a0e00f 	mov	lr, pc
    da60:	e12fff13 	bx	r3
    da64:	e1a03000 	mov	r3, r0
    da68:	e1a01007 	mov	r1, r7
    da6c:	e5933014 	ldr	r3, [r3, #20]
    da70:	e1a00004 	mov	r0, r4
    da74:	e1a0e00f 	mov	lr, pc
    da78:	e12fff13 	bx	r3
    da7c:	e1a03000 	mov	r3, r0
    da80:	e1a01005 	mov	r1, r5
    da84:	e5933014 	ldr	r3, [r3, #20]
    da88:	e1a00004 	mov	r0, r4
    da8c:	e1a0e00f 	mov	lr, pc
    da90:	e12fff13 	bx	r3
    da94:	eb000b80 	bl	1089c <get_proto_factor>
    da98:	e1a03000 	mov	r3, r0
    da9c:	e24b60b0 	sub	r6, fp, #176	; 0xb0
    daa0:	e5933004 	ldr	r3, [r3, #4]
    daa4:	e1a00006 	mov	r0, r6
    daa8:	e1a0e00f 	mov	lr, pc
    daac:	e12fff13 	bx	r3
    dab0:	eb000deb 	bl	11264 <get_vfsd_pid>
    dab4:	e1a03006 	mov	r3, r6
    dab8:	e1a02004 	mov	r2, r4
    dabc:	e3a0100c 	mov	r1, #12
    dac0:	eb0004e0 	bl	ee48 <ipc_call>
    dac4:	e1a05000 	mov	r5, r0
    dac8:	eb000b73 	bl	1089c <get_proto_factor>
    dacc:	e1a03000 	mov	r3, r0
    dad0:	e1a00004 	mov	r0, r4
    dad4:	e593300c 	ldr	r3, [r3, #12]
    dad8:	e1a0e00f 	mov	lr, pc
    dadc:	e12fff13 	bx	r3
    dae0:	e3550000 	cmp	r5, #0
    dae4:	0a000009 	beq	db10 <vfs_seek+0xe0>
    dae8:	eb000b6b 	bl	1089c <get_proto_factor>
    daec:	e1a03000 	mov	r3, r0
    daf0:	e1a00006 	mov	r0, r6
    daf4:	e593300c 	ldr	r3, [r3, #12]
    daf8:	e1a0e00f 	mov	lr, pc
    dafc:	e12fff13 	bx	r3
    db00:	e1a00fc5 	asr	r0, r5, #31
    db04:	e24bd01c 	sub	sp, fp, #28
    db08:	e89d68f0 	ldm	sp, {r4, r5, r6, r7, fp, sp, lr}
    db0c:	e12fff1e 	bx	lr
    db10:	e1a00006 	mov	r0, r6
    db14:	eb000c2e 	bl	10bd4 <proto_read_int>
    db18:	e1a05000 	mov	r5, r0
    db1c:	eafffff1 	b	dae8 <vfs_seek+0xb8>

0000db20 <vfs_readfile>:
    db20:	e1a0c00d 	mov	ip, sp
    db24:	e92ddbf0 	push	{r4, r5, r6, r7, r8, r9, fp, ip, lr, pc}
    db28:	e24cb004 	sub	fp, ip, #4
    db2c:	e24dd060 	sub	sp, sp, #96	; 0x60
    db30:	e1a07001 	mov	r7, r1
    db34:	ebfffc55 	bl	cc90 <vfs_fullname>
    db38:	e24b1080 	sub	r1, fp, #128	; 0x80
    db3c:	e1a05000 	mov	r5, r0
    db40:	ebfffda5 	bl	d1dc <vfs_get>
    db44:	e59f80d4 	ldr	r8, [pc, #212]	; dc20 <vfs_readfile+0x100>
    db48:	e2504000 	subs	r4, r0, #0
    db4c:	e08f8008 	add	r8, pc, r8
    db50:	1a00002d 	bne	dc0c <vfs_readfile+0xec>
    db54:	e51b0038 	ldr	r0, [fp, #-56]	; 0xffffffc8
    db58:	e3500000 	cmp	r0, #0
    db5c:	0a00002a 	beq	dc0c <vfs_readfile+0xec>
    db60:	e2800001 	add	r0, r0, #1
    db64:	eb000f7f 	bl	11968 <malloc>
    db68:	e2506000 	subs	r6, r0, #0
    db6c:	0a000026 	beq	dc0c <vfs_readfile+0xec>
    db70:	e1a01004 	mov	r1, r4
    db74:	e1a00005 	mov	r0, r5
    db78:	eb0011b1 	bl	12244 <open>
    db7c:	e2509000 	subs	r9, r0, #0
    db80:	e51b4038 	ldr	r4, [fp, #-56]	; 0xffffffc8
    db84:	ba000010 	blt	dbcc <vfs_readfile+0xac>
    db88:	e3540000 	cmp	r4, #0
    db8c:	da00000c 	ble	dbc4 <vfs_readfile+0xa4>
    db90:	e1a05006 	mov	r5, r6
    db94:	e1a02004 	mov	r2, r4
    db98:	e1a01005 	mov	r1, r5
    db9c:	e1a00009 	mov	r0, r9
    dba0:	eb000e75 	bl	1157c <read>
    dba4:	e3500000 	cmp	r0, #0
    dba8:	e59f3074 	ldr	r3, [pc, #116]	; dc24 <vfs_readfile+0x104>
    dbac:	ba00000f 	blt	dbf0 <vfs_readfile+0xd0>
    dbb0:	0afffff7 	beq	db94 <vfs_readfile+0x74>
    dbb4:	e0444000 	sub	r4, r4, r0
    dbb8:	e3540000 	cmp	r4, #0
    dbbc:	e0855000 	add	r5, r5, r0
    dbc0:	cafffff3 	bgt	db94 <vfs_readfile+0x74>
    dbc4:	e1a00009 	mov	r0, r9
    dbc8:	eb00120a 	bl	123f8 <close>
    dbcc:	e3540000 	cmp	r4, #0
    dbd0:	1a00000b 	bne	dc04 <vfs_readfile+0xe4>
    dbd4:	e1a00006 	mov	r0, r6
    dbd8:	e3570000 	cmp	r7, #0
    dbdc:	151b3038 	ldrne	r3, [fp, #-56]	; 0xffffffc8
    dbe0:	15873000 	strne	r3, [r7]
    dbe4:	e24bd024 	sub	sp, fp, #36	; 0x24
    dbe8:	e89d6bf0 	ldm	sp, {r4, r5, r6, r7, r8, r9, fp, sp, lr}
    dbec:	e12fff1e 	bx	lr
    dbf0:	e7983003 	ldr	r3, [r8, r3]
    dbf4:	e5933000 	ldr	r3, [r3]
    dbf8:	e3530001 	cmp	r3, #1
    dbfc:	0affffe4 	beq	db94 <vfs_readfile+0x74>
    dc00:	eaffffef 	b	dbc4 <vfs_readfile+0xa4>
    dc04:	e1a00006 	mov	r0, r6
    dc08:	eb000f4d 	bl	11944 <free>
    dc0c:	e3a06000 	mov	r6, #0
    dc10:	e1a00006 	mov	r0, r6
    dc14:	e24bd024 	sub	sp, fp, #36	; 0x24
    dc18:	e89d6bf0 	ldm	sp, {r4, r5, r6, r7, r8, r9, fp, sp, lr}
    dc1c:	e12fff1e 	bx	lr
    dc20:	0001a098 	muleq	r1, r8, r0
    dc24:	00000020 	andeq	r0, r0, r0, lsr #32

0000dc28 <vfs_parse_name>:
    dc28:	e1a0c00d 	mov	ip, sp
    dc2c:	e92ddbf0 	push	{r4, r5, r6, r7, r8, r9, fp, ip, lr, pc}
    dc30:	e24cb004 	sub	fp, ip, #4
    dc34:	e1a07001 	mov	r7, r1
    dc38:	e1a06002 	mov	r6, r2
    dc3c:	ebfffc13 	bl	cc90 <vfs_fullname>
    dc40:	ebfff7ba 	bl	bb30 <str_new>
    dc44:	e5908000 	ldr	r8, [r0]
    dc48:	e1a05000 	mov	r5, r0
    dc4c:	e1a00008 	mov	r0, r8
    dc50:	eb0023bb 	bl	16b44 <strlen>
    dc54:	e0883000 	add	r3, r8, r0
    dc58:	e1a02003 	mov	r2, r3
    dc5c:	e5d21000 	ldrb	r1, [r2]
    dc60:	e351002f 	cmp	r1, #47	; 0x2f
    dc64:	e2433001 	sub	r3, r3, #1
    dc68:	0a000012 	beq	dcb8 <vfs_parse_name+0x90>
    dc6c:	e2500001 	subs	r0, r0, #1
    dc70:	2afffff8 	bcs	dc58 <vfs_parse_name+0x30>
    dc74:	e1a04008 	mov	r4, r8
    dc78:	e1a01008 	mov	r1, r8
    dc7c:	e1a00007 	mov	r0, r7
    dc80:	ebfff79f 	bl	bb04 <str_cpy>
    dc84:	e1a01004 	mov	r1, r4
    dc88:	e1a00006 	mov	r0, r6
    dc8c:	ebfff79c 	bl	bb04 <str_cpy>
    dc90:	e5973000 	ldr	r3, [r7]
    dc94:	e5d33000 	ldrb	r3, [r3]
    dc98:	e3530000 	cmp	r3, #0
    dc9c:	0a00000a 	beq	dccc <vfs_parse_name+0xa4>
    dca0:	e1a00005 	mov	r0, r5
    dca4:	ebfff814 	bl	bcfc <str_free>
    dca8:	e3a00000 	mov	r0, #0
    dcac:	e24bd024 	sub	sp, fp, #36	; 0x24
    dcb0:	e89d6bf0 	ldm	sp, {r4, r5, r6, r7, r8, r9, fp, sp, lr}
    dcb4:	e12fff1e 	bx	lr
    dcb8:	e3a03000 	mov	r3, #0
    dcbc:	e2804001 	add	r4, r0, #1
    dcc0:	e5c23000 	strb	r3, [r2]
    dcc4:	e0884004 	add	r4, r8, r4
    dcc8:	eaffffea 	b	dc78 <vfs_parse_name+0x50>
    dccc:	e59f100c 	ldr	r1, [pc, #12]	; dce0 <vfs_parse_name+0xb8>
    dcd0:	e1a00007 	mov	r0, r7
    dcd4:	e08f1001 	add	r1, pc, r1
    dcd8:	ebfff789 	bl	bb04 <str_cpy>
    dcdc:	eaffffef 	b	dca0 <vfs_parse_name+0x78>
    dce0:	00009e3c 	andeq	r9, r0, ip, lsr lr

0000dce4 <vfs_create>:
    dce4:	e1a0c00d 	mov	ip, sp
    dce8:	e92ddff0 	push	{r4, r5, r6, r7, r8, r9, sl, fp, ip, lr, pc}
    dcec:	e24cb004 	sub	fp, ip, #4
    dcf0:	e24ddf65 	sub	sp, sp, #404	; 0x194
    dcf4:	e59fa22c 	ldr	sl, [pc, #556]	; df28 <vfs_create+0x244>
    dcf8:	e08fa00a 	add	sl, pc, sl
    dcfc:	e1a05000 	mov	r5, r0
    dd00:	e1a0000a 	mov	r0, sl
    dd04:	e1a04001 	mov	r4, r1
    dd08:	e1a06002 	mov	r6, r2
    dd0c:	e1a08003 	mov	r8, r3
    dd10:	e5db9004 	ldrb	r9, [fp, #4]
    dd14:	ebfff785 	bl	bb30 <str_new>
    dd18:	e1a03000 	mov	r3, r0
    dd1c:	e1a0000a 	mov	r0, sl
    dd20:	e1a0a003 	mov	sl, r3
    dd24:	ebfff781 	bl	bb30 <str_new>
    dd28:	e1a03000 	mov	r3, r0
    dd2c:	e1a0100a 	mov	r1, sl
    dd30:	e1a00005 	mov	r0, r5
    dd34:	e1a02003 	mov	r2, r3
    dd38:	e24b7e1b 	sub	r7, fp, #432	; 0x1b0
    dd3c:	e1a05003 	mov	r5, r3
    dd40:	ebffffb8 	bl	dc28 <vfs_parse_name>
    dd44:	e1a01007 	mov	r1, r7
    dd48:	e59a0000 	ldr	r0, [sl]
    dd4c:	ebfffd22 	bl	d1dc <vfs_get>
    dd50:	e3500000 	cmp	r0, #0
    dd54:	0a00000a 	beq	dd84 <vfs_create+0xa0>
    dd58:	e3590000 	cmp	r9, #0
    dd5c:	0a000067 	beq	df00 <vfs_create+0x21c>
    dd60:	e3a03000 	mov	r3, #0
    dd64:	e3a02001 	mov	r2, #1
    dd68:	e59a0000 	ldr	r0, [sl]
    dd6c:	e1a01007 	mov	r1, r7
    dd70:	e58d2000 	str	r2, [sp]
    dd74:	e1a02003 	mov	r2, r3
    dd78:	ebffffd9 	bl	dce4 <vfs_create>
    dd7c:	e3500000 	cmp	r0, #0
    dd80:	1a00005e 	bne	df00 <vfs_create+0x21c>
    dd84:	e3a0205c 	mov	r2, #92	; 0x5c
    dd88:	e3a01000 	mov	r1, #0
    dd8c:	e1a00004 	mov	r0, r4
    dd90:	eb001fca 	bl	15cc0 <memset>
    dd94:	e5951000 	ldr	r1, [r5]
    dd98:	e2840004 	add	r0, r4, #4
    dd9c:	eb00232c 	bl	16a54 <strcpy>
    dda0:	e1a00005 	mov	r0, r5
    dda4:	e5846044 	str	r6, [r4, #68]	; 0x44
    dda8:	ebfff7d3 	bl	bcfc <str_free>
    ddac:	e1a0000a 	mov	r0, sl
    ddb0:	ebfff7d1 	bl	bcfc <str_free>
    ddb4:	e1a00004 	mov	r0, r4
    ddb8:	ebfffb7d 	bl	cbb4 <vfs_new_node>
    ddbc:	e1a01004 	mov	r1, r4
    ddc0:	e1a00007 	mov	r0, r7
    ddc4:	ebfffdc0 	bl	d4cc <vfs_add>
    ddc8:	e2509000 	subs	r9, r0, #0
    ddcc:	1a000051 	bne	df18 <vfs_create+0x234>
    ddd0:	e3580000 	cmp	r8, #0
    ddd4:	1a000036 	bne	deb4 <vfs_create+0x1d0>
    ddd8:	e3560000 	cmp	r6, #0
    dddc:	03a03b01 	moveq	r3, #1024	; 0x400
    dde0:	05843048 	streq	r3, [r4, #72]	; 0x48
    dde4:	e51b315c 	ldr	r3, [fp, #-348]	; 0xfffffea4
    dde8:	e5843054 	str	r3, [r4, #84]	; 0x54
    ddec:	eb000aaa 	bl	1089c <get_proto_factor>
    ddf0:	e1a03000 	mov	r3, r0
    ddf4:	e24b60c0 	sub	r6, fp, #192	; 0xc0
    ddf8:	e5933004 	ldr	r3, [r3, #4]
    ddfc:	e1a00006 	mov	r0, r6
    de00:	e1a0e00f 	mov	lr, pc
    de04:	e12fff13 	bx	r3
    de08:	eb000aa3 	bl	1089c <get_proto_factor>
    de0c:	e1a03000 	mov	r3, r0
    de10:	e24b5f55 	sub	r5, fp, #340	; 0x154
    de14:	e5933004 	ldr	r3, [r3, #4]
    de18:	e1a00005 	mov	r0, r5
    de1c:	e1a0e00f 	mov	lr, pc
    de20:	e12fff13 	bx	r3
    de24:	e1a03000 	mov	r3, r0
    de28:	e3a0205c 	mov	r2, #92	; 0x5c
    de2c:	e1a01007 	mov	r1, r7
    de30:	e5933010 	ldr	r3, [r3, #16]
    de34:	e1a00005 	mov	r0, r5
    de38:	e1a0e00f 	mov	lr, pc
    de3c:	e12fff13 	bx	r3
    de40:	e1a03000 	mov	r3, r0
    de44:	e1a01004 	mov	r1, r4
    de48:	e3a0205c 	mov	r2, #92	; 0x5c
    de4c:	e5933010 	ldr	r3, [r3, #16]
    de50:	e1a00005 	mov	r0, r5
    de54:	e1a0e00f 	mov	lr, pc
    de58:	e12fff13 	bx	r3
    de5c:	e1a03006 	mov	r3, r6
    de60:	e1a02005 	mov	r2, r5
    de64:	e3a01002 	mov	r1, #2
    de68:	e51b015c 	ldr	r0, [fp, #-348]	; 0xfffffea4
    de6c:	eb0003f5 	bl	ee48 <ipc_call>
    de70:	e3500000 	cmp	r0, #0
    de74:	0a000012 	beq	dec4 <vfs_create+0x1e0>
    de78:	e1a00004 	mov	r0, r4
    de7c:	ebfffdd0 	bl	d5c4 <vfs_del>
    de80:	e3e09000 	mvn	r9, #0
    de84:	eb000a84 	bl	1089c <get_proto_factor>
    de88:	e1a03000 	mov	r3, r0
    de8c:	e1a00005 	mov	r0, r5
    de90:	e593300c 	ldr	r3, [r3, #12]
    de94:	e1a0e00f 	mov	lr, pc
    de98:	e12fff13 	bx	r3
    de9c:	eb000a7e 	bl	1089c <get_proto_factor>
    dea0:	e1a03000 	mov	r3, r0
    dea4:	e1a00006 	mov	r0, r6
    dea8:	e593300c 	ldr	r3, [r3, #12]
    deac:	e1a0e00f 	mov	lr, pc
    deb0:	e12fff13 	bx	r3
    deb4:	e1a00009 	mov	r0, r9
    deb8:	e24bd028 	sub	sp, fp, #40	; 0x28
    debc:	e89d6ff0 	ldm	sp, {r4, r5, r6, r7, r8, r9, sl, fp, sp, lr}
    dec0:	e12fff1e 	bx	lr
    dec4:	e1a00006 	mov	r0, r6
    dec8:	eb000b41 	bl	10bd4 <proto_read_int>
    decc:	e2509000 	subs	r9, r0, #0
    ded0:	1a000007 	bne	def4 <vfs_create+0x210>
    ded4:	e3a0205c 	mov	r2, #92	; 0x5c
    ded8:	e1a01004 	mov	r1, r4
    dedc:	e1a00006 	mov	r0, r6
    dee0:	eb000ace 	bl	10a20 <proto_read_to>
    dee4:	e1a00004 	mov	r0, r4
    dee8:	ebfffd41 	bl	d3f4 <vfs_set>
    deec:	e1a09000 	mov	r9, r0
    def0:	eaffffe3 	b	de84 <vfs_create+0x1a0>
    def4:	e1a00004 	mov	r0, r4
    def8:	ebfffdb1 	bl	d5c4 <vfs_del>
    defc:	eaffffe0 	b	de84 <vfs_create+0x1a0>
    df00:	e1a0000a 	mov	r0, sl
    df04:	ebfff77c 	bl	bcfc <str_free>
    df08:	e1a00005 	mov	r0, r5
    df0c:	ebfff77a 	bl	bcfc <str_free>
    df10:	e3e09000 	mvn	r9, #0
    df14:	eaffffe6 	b	deb4 <vfs_create+0x1d0>
    df18:	e1a00004 	mov	r0, r4
    df1c:	ebfffda8 	bl	d5c4 <vfs_del>
    df20:	e3e09000 	mvn	r9, #0
    df24:	eaffffe2 	b	deb4 <vfs_create+0x1d0>
    df28:	00009d44 	andeq	r9, r0, r4, asr #26

0000df2c <vfs_fcntl>:
    df2c:	e1a0c00d 	mov	ip, sp
    df30:	e92ddbf0 	push	{r4, r5, r6, r7, r8, r9, fp, ip, lr, pc}
    df34:	e24cb004 	sub	fp, ip, #4
    df38:	e24dde19 	sub	sp, sp, #400	; 0x190
    df3c:	e24b9f6a 	sub	r9, fp, #424	; 0x1a8
    df40:	e1a07001 	mov	r7, r1
    df44:	e1a01009 	mov	r1, r9
    df48:	e1a08000 	mov	r8, r0
    df4c:	e1a05002 	mov	r5, r2
    df50:	e1a06003 	mov	r6, r3
    df54:	ebfffad5 	bl	cab0 <vfs_get_by_fd>
    df58:	e3500000 	cmp	r0, #0
    df5c:	1a00006e 	bne	e11c <vfs_fcntl+0x1f0>
    df60:	eb000a4d 	bl	1089c <get_proto_factor>
    df64:	e1a03000 	mov	r3, r0
    df68:	e24b4f53 	sub	r4, fp, #332	; 0x14c
    df6c:	e5933004 	ldr	r3, [r3, #4]
    df70:	e1a00004 	mov	r0, r4
    df74:	e1a0e00f 	mov	lr, pc
    df78:	e12fff13 	bx	r3
    df7c:	e1a03000 	mov	r3, r0
    df80:	e1a01008 	mov	r1, r8
    df84:	e5933014 	ldr	r3, [r3, #20]
    df88:	e1a00004 	mov	r0, r4
    df8c:	e1a0e00f 	mov	lr, pc
    df90:	e12fff13 	bx	r3
    df94:	e1a03000 	mov	r3, r0
    df98:	e1a01009 	mov	r1, r9
    df9c:	e3a0205c 	mov	r2, #92	; 0x5c
    dfa0:	e5933010 	ldr	r3, [r3, #16]
    dfa4:	e1a00004 	mov	r0, r4
    dfa8:	e1a0e00f 	mov	lr, pc
    dfac:	e12fff13 	bx	r3
    dfb0:	e1a03000 	mov	r3, r0
    dfb4:	e1a01007 	mov	r1, r7
    dfb8:	e1a00004 	mov	r0, r4
    dfbc:	e5933014 	ldr	r3, [r3, #20]
    dfc0:	e1a0e00f 	mov	lr, pc
    dfc4:	e12fff13 	bx	r3
    dfc8:	e3550000 	cmp	r5, #0
    dfcc:	0a000049 	beq	e0f8 <vfs_fcntl+0x1cc>
    dfd0:	eb000a31 	bl	1089c <get_proto_factor>
    dfd4:	e1a03000 	mov	r3, r0
    dfd8:	e2851080 	add	r1, r5, #128	; 0x80
    dfdc:	e1a00004 	mov	r0, r4
    dfe0:	e8910006 	ldm	r1, {r1, r2}
    dfe4:	e5933010 	ldr	r3, [r3, #16]
    dfe8:	e1a0e00f 	mov	lr, pc
    dfec:	e12fff13 	bx	r3
    dff0:	e3560000 	cmp	r6, #0
    dff4:	0a00002f 	beq	e0b8 <vfs_fcntl+0x18c>
    dff8:	eb000a27 	bl	1089c <get_proto_factor>
    dffc:	e1a03000 	mov	r3, r0
    e000:	e24b50b8 	sub	r5, fp, #184	; 0xb8
    e004:	e5933004 	ldr	r3, [r3, #4]
    e008:	e1a00005 	mov	r0, r5
    e00c:	e1a0e00f 	mov	lr, pc
    e010:	e12fff13 	bx	r3
    e014:	e1a03005 	mov	r3, r5
    e018:	e1a02004 	mov	r2, r4
    e01c:	e3a0100a 	mov	r1, #10
    e020:	e51b0154 	ldr	r0, [fp, #-340]	; 0xfffffeac
    e024:	eb000387 	bl	ee48 <ipc_call>
    e028:	e3500000 	cmp	r0, #0
    e02c:	13e07000 	mvnne	r7, #0
    e030:	0a00000f 	beq	e074 <vfs_fcntl+0x148>
    e034:	eb000a18 	bl	1089c <get_proto_factor>
    e038:	e1a03000 	mov	r3, r0
    e03c:	e1a00004 	mov	r0, r4
    e040:	e593300c 	ldr	r3, [r3, #12]
    e044:	e1a0e00f 	mov	lr, pc
    e048:	e12fff13 	bx	r3
    e04c:	eb000a12 	bl	1089c <get_proto_factor>
    e050:	e1a03000 	mov	r3, r0
    e054:	e1a00005 	mov	r0, r5
    e058:	e593300c 	ldr	r3, [r3, #12]
    e05c:	e1a0e00f 	mov	lr, pc
    e060:	e12fff13 	bx	r3
    e064:	e1a00007 	mov	r0, r7
    e068:	e24bd024 	sub	sp, fp, #36	; 0x24
    e06c:	e89d6bf0 	ldm	sp, {r4, r5, r6, r7, r8, r9, fp, sp, lr}
    e070:	e12fff1e 	bx	lr
    e074:	e1a00005 	mov	r0, r5
    e078:	eb000ad5 	bl	10bd4 <proto_read_int>
    e07c:	e24b1f6b 	sub	r1, fp, #428	; 0x1ac
    e080:	e50b01b0 	str	r0, [fp, #-432]	; 0xfffffe50
    e084:	e1a00005 	mov	r0, r5
    e088:	e51b71b0 	ldr	r7, [fp, #-432]	; 0xfffffe50
    e08c:	eb000a3d 	bl	10988 <proto_read>
    e090:	e1a08000 	mov	r8, r0
    e094:	eb000a00 	bl	1089c <get_proto_factor>
    e098:	e1a03000 	mov	r3, r0
    e09c:	e1a01008 	mov	r1, r8
    e0a0:	e1a00006 	mov	r0, r6
    e0a4:	e51b21ac 	ldr	r2, [fp, #-428]	; 0xfffffe54
    e0a8:	e5933008 	ldr	r3, [r3, #8]
    e0ac:	e1a0e00f 	mov	lr, pc
    e0b0:	e12fff13 	bx	r3
    e0b4:	eaffffde 	b	e034 <vfs_fcntl+0x108>
    e0b8:	e1a03006 	mov	r3, r6
    e0bc:	e1a02004 	mov	r2, r4
    e0c0:	e3a0100a 	mov	r1, #10
    e0c4:	e51b0154 	ldr	r0, [fp, #-340]	; 0xfffffeac
    e0c8:	eb00035e 	bl	ee48 <ipc_call>
    e0cc:	e1a07000 	mov	r7, r0
    e0d0:	eb0009f1 	bl	1089c <get_proto_factor>
    e0d4:	e1a03000 	mov	r3, r0
    e0d8:	e1a00004 	mov	r0, r4
    e0dc:	e593300c 	ldr	r3, [r3, #12]
    e0e0:	e1a0e00f 	mov	lr, pc
    e0e4:	e12fff13 	bx	r3
    e0e8:	e1a00007 	mov	r0, r7
    e0ec:	e24bd024 	sub	sp, fp, #36	; 0x24
    e0f0:	e89d6bf0 	ldm	sp, {r4, r5, r6, r7, r8, r9, fp, sp, lr}
    e0f4:	e12fff1e 	bx	lr
    e0f8:	eb0009e7 	bl	1089c <get_proto_factor>
    e0fc:	e1a03000 	mov	r3, r0
    e100:	e1a02005 	mov	r2, r5
    e104:	e1a01005 	mov	r1, r5
    e108:	e1a00004 	mov	r0, r4
    e10c:	e5933010 	ldr	r3, [r3, #16]
    e110:	e1a0e00f 	mov	lr, pc
    e114:	e12fff13 	bx	r3
    e118:	eaffffb4 	b	dff0 <vfs_fcntl+0xc4>
    e11c:	e3e07000 	mvn	r7, #0
    e120:	eaffffcf 	b	e064 <vfs_fcntl+0x138>

0000e124 <vfs_dma>:
    e124:	e1a0c00d 	mov	ip, sp
    e128:	e92dd9f0 	push	{r4, r5, r6, r7, r8, fp, ip, lr, pc}
    e12c:	e24cb004 	sub	fp, ip, #4
    e130:	e24ddf63 	sub	sp, sp, #396	; 0x18c
    e134:	e24b8f6a 	sub	r8, fp, #424	; 0x1a8
    e138:	e1a07001 	mov	r7, r1
    e13c:	e1a01008 	mov	r1, r8
    e140:	e1a06000 	mov	r6, r0
    e144:	ebfffa59 	bl	cab0 <vfs_get_by_fd>
    e148:	e3500000 	cmp	r0, #0
    e14c:	1a00003b 	bne	e240 <vfs_dma+0x11c>
    e150:	eb0009d1 	bl	1089c <get_proto_factor>
    e154:	e1a03000 	mov	r3, r0
    e158:	e24b50b8 	sub	r5, fp, #184	; 0xb8
    e15c:	e5933004 	ldr	r3, [r3, #4]
    e160:	e1a00005 	mov	r0, r5
    e164:	e1a0e00f 	mov	lr, pc
    e168:	e12fff13 	bx	r3
    e16c:	eb0009ca 	bl	1089c <get_proto_factor>
    e170:	e1a03000 	mov	r3, r0
    e174:	e24b4f53 	sub	r4, fp, #332	; 0x14c
    e178:	e5933004 	ldr	r3, [r3, #4]
    e17c:	e1a00004 	mov	r0, r4
    e180:	e1a0e00f 	mov	lr, pc
    e184:	e12fff13 	bx	r3
    e188:	e1a03000 	mov	r3, r0
    e18c:	e1a01006 	mov	r1, r6
    e190:	e5933014 	ldr	r3, [r3, #20]
    e194:	e1a00004 	mov	r0, r4
    e198:	e1a0e00f 	mov	lr, pc
    e19c:	e12fff13 	bx	r3
    e1a0:	e1a03000 	mov	r3, r0
    e1a4:	e1a01008 	mov	r1, r8
    e1a8:	e3a0205c 	mov	r2, #92	; 0x5c
    e1ac:	e5933010 	ldr	r3, [r3, #16]
    e1b0:	e1a00004 	mov	r0, r4
    e1b4:	e1a0e00f 	mov	lr, pc
    e1b8:	e12fff13 	bx	r3
    e1bc:	e1a03005 	mov	r3, r5
    e1c0:	e1a02004 	mov	r2, r4
    e1c4:	e3a01009 	mov	r1, #9
    e1c8:	e51b0154 	ldr	r0, [fp, #-340]	; 0xfffffeac
    e1cc:	eb00031d 	bl	ee48 <ipc_call>
    e1d0:	e3500000 	cmp	r0, #0
    e1d4:	13e06000 	mvnne	r6, #0
    e1d8:	0a00000f 	beq	e21c <vfs_dma+0xf8>
    e1dc:	eb0009ae 	bl	1089c <get_proto_factor>
    e1e0:	e1a03000 	mov	r3, r0
    e1e4:	e1a00004 	mov	r0, r4
    e1e8:	e593300c 	ldr	r3, [r3, #12]
    e1ec:	e1a0e00f 	mov	lr, pc
    e1f0:	e12fff13 	bx	r3
    e1f4:	eb0009a8 	bl	1089c <get_proto_factor>
    e1f8:	e1a03000 	mov	r3, r0
    e1fc:	e1a00005 	mov	r0, r5
    e200:	e593300c 	ldr	r3, [r3, #12]
    e204:	e1a0e00f 	mov	lr, pc
    e208:	e12fff13 	bx	r3
    e20c:	e1a00006 	mov	r0, r6
    e210:	e24bd020 	sub	sp, fp, #32
    e214:	e89d69f0 	ldm	sp, {r4, r5, r6, r7, r8, fp, sp, lr}
    e218:	e12fff1e 	bx	lr
    e21c:	e1a00005 	mov	r0, r5
    e220:	eb000a6b 	bl	10bd4 <proto_read_int>
    e224:	e3570000 	cmp	r7, #0
    e228:	e1a06000 	mov	r6, r0
    e22c:	0affffea 	beq	e1dc <vfs_dma+0xb8>
    e230:	e1a00005 	mov	r0, r5
    e234:	eb000a66 	bl	10bd4 <proto_read_int>
    e238:	e5870000 	str	r0, [r7]
    e23c:	eaffffe6 	b	e1dc <vfs_dma+0xb8>
    e240:	e3e06000 	mvn	r6, #0
    e244:	eafffff0 	b	e20c <vfs_dma+0xe8>

0000e248 <vfs_flush>:
    e248:	e1a0c00d 	mov	ip, sp
    e24c:	e92dd9f0 	push	{r4, r5, r6, r7, r8, fp, ip, lr, pc}
    e250:	e24cb004 	sub	fp, ip, #4
    e254:	e24dd0f4 	sub	sp, sp, #244	; 0xf4
    e258:	e24b7f45 	sub	r7, fp, #276	; 0x114
    e25c:	e1a05001 	mov	r5, r1
    e260:	e1a01007 	mov	r1, r7
    e264:	e1a06000 	mov	r6, r0
    e268:	ebfffa10 	bl	cab0 <vfs_get_by_fd>
    e26c:	e2504000 	subs	r4, r0, #0
    e270:	13a00000 	movne	r0, #0
    e274:	0a000002 	beq	e284 <vfs_flush+0x3c>
    e278:	e24bd020 	sub	sp, fp, #32
    e27c:	e89d69f0 	ldm	sp, {r4, r5, r6, r7, r8, fp, sp, lr}
    e280:	e12fff1e 	bx	lr
    e284:	eb000984 	bl	1089c <get_proto_factor>
    e288:	e1a03000 	mov	r3, r0
    e28c:	e24b80b8 	sub	r8, fp, #184	; 0xb8
    e290:	e5933004 	ldr	r3, [r3, #4]
    e294:	e1a00008 	mov	r0, r8
    e298:	e1a0e00f 	mov	lr, pc
    e29c:	e12fff13 	bx	r3
    e2a0:	e1a03000 	mov	r3, r0
    e2a4:	e1a01006 	mov	r1, r6
    e2a8:	e5933014 	ldr	r3, [r3, #20]
    e2ac:	e1a00008 	mov	r0, r8
    e2b0:	e1a0e00f 	mov	lr, pc
    e2b4:	e12fff13 	bx	r3
    e2b8:	e1a03000 	mov	r3, r0
    e2bc:	e3a0205c 	mov	r2, #92	; 0x5c
    e2c0:	e1a01007 	mov	r1, r7
    e2c4:	e1a00008 	mov	r0, r8
    e2c8:	e5933010 	ldr	r3, [r3, #16]
    e2cc:	e1a0e00f 	mov	lr, pc
    e2d0:	e12fff13 	bx	r3
    e2d4:	e3550000 	cmp	r5, #0
    e2d8:	0a00000c 	beq	e310 <vfs_flush+0xc8>
    e2dc:	e1a03004 	mov	r3, r4
    e2e0:	e1a02008 	mov	r2, r8
    e2e4:	e3a0100e 	mov	r1, #14
    e2e8:	e51b00c0 	ldr	r0, [fp, #-192]	; 0xffffff40
    e2ec:	eb0002fe 	bl	eeec <ipc_call_wait>
    e2f0:	eb000969 	bl	1089c <get_proto_factor>
    e2f4:	e1a03000 	mov	r3, r0
    e2f8:	e1a00008 	mov	r0, r8
    e2fc:	e593300c 	ldr	r3, [r3, #12]
    e300:	e1a0e00f 	mov	lr, pc
    e304:	e12fff13 	bx	r3
    e308:	e3e00000 	mvn	r0, #0
    e30c:	eaffffd9 	b	e278 <vfs_flush+0x30>
    e310:	e1a03005 	mov	r3, r5
    e314:	e1a02008 	mov	r2, r8
    e318:	e3a0100e 	mov	r1, #14
    e31c:	e51b00c0 	ldr	r0, [fp, #-192]	; 0xffffff40
    e320:	eb0002c8 	bl	ee48 <ipc_call>
    e324:	eafffff1 	b	e2f0 <vfs_flush+0xa8>

0000e328 <vfs_write_block>:
    e328:	e1a0c00d 	mov	ip, sp
    e32c:	e92ddff0 	push	{r4, r5, r6, r7, r8, r9, sl, fp, ip, lr, pc}
    e330:	e24cb004 	sub	fp, ip, #4
    e334:	e24ddf4b 	sub	sp, sp, #300	; 0x12c
    e338:	e1a08001 	mov	r8, r1
    e33c:	e1a0a002 	mov	sl, r2
    e340:	e1a07003 	mov	r7, r3
    e344:	e1a06000 	mov	r6, r0
    e348:	eb000953 	bl	1089c <get_proto_factor>
    e34c:	e1a03000 	mov	r3, r0
    e350:	e24b50c0 	sub	r5, fp, #192	; 0xc0
    e354:	e5933004 	ldr	r3, [r3, #4]
    e358:	e1a00005 	mov	r0, r5
    e35c:	e1a0e00f 	mov	lr, pc
    e360:	e12fff13 	bx	r3
    e364:	eb00094c 	bl	1089c <get_proto_factor>
    e368:	e1a03000 	mov	r3, r0
    e36c:	e24b4f55 	sub	r4, fp, #340	; 0x154
    e370:	e5933004 	ldr	r3, [r3, #4]
    e374:	e1a00004 	mov	r0, r4
    e378:	e1a0e00f 	mov	lr, pc
    e37c:	e12fff13 	bx	r3
    e380:	e1a03000 	mov	r3, r0
    e384:	e1a0200a 	mov	r2, sl
    e388:	e1a01008 	mov	r1, r8
    e38c:	e5933010 	ldr	r3, [r3, #16]
    e390:	e1a00004 	mov	r0, r4
    e394:	e1a0e00f 	mov	lr, pc
    e398:	e12fff13 	bx	r3
    e39c:	e1a03000 	mov	r3, r0
    e3a0:	e1a01007 	mov	r1, r7
    e3a4:	e5933014 	ldr	r3, [r3, #20]
    e3a8:	e1a00004 	mov	r0, r4
    e3ac:	e1a0e00f 	mov	lr, pc
    e3b0:	e12fff13 	bx	r3
    e3b4:	e1a03005 	mov	r3, r5
    e3b8:	e1a02004 	mov	r2, r4
    e3bc:	e1a00006 	mov	r0, r6
    e3c0:	e3a01007 	mov	r1, #7
    e3c4:	eb00029f 	bl	ee48 <ipc_call>
    e3c8:	e59f907c 	ldr	r9, [pc, #124]	; e44c <vfs_write_block+0x124>
    e3cc:	e3500000 	cmp	r0, #0
    e3d0:	e08f9009 	add	r9, pc, r9
    e3d4:	1a000014 	bne	e42c <vfs_write_block+0x104>
    e3d8:	e1a00005 	mov	r0, r5
    e3dc:	eb0009fc 	bl	10bd4 <proto_read_int>
    e3e0:	e3700002 	cmn	r0, #2
    e3e4:	e1a06000 	mov	r6, r0
    e3e8:	0a000011 	beq	e434 <vfs_write_block+0x10c>
    e3ec:	eb00092a 	bl	1089c <get_proto_factor>
    e3f0:	e1a03000 	mov	r3, r0
    e3f4:	e1a00004 	mov	r0, r4
    e3f8:	e593300c 	ldr	r3, [r3, #12]
    e3fc:	e1a0e00f 	mov	lr, pc
    e400:	e12fff13 	bx	r3
    e404:	eb000924 	bl	1089c <get_proto_factor>
    e408:	e1a03000 	mov	r3, r0
    e40c:	e1a00005 	mov	r0, r5
    e410:	e593300c 	ldr	r3, [r3, #12]
    e414:	e1a0e00f 	mov	lr, pc
    e418:	e12fff13 	bx	r3
    e41c:	e1a00006 	mov	r0, r6
    e420:	e24bd028 	sub	sp, fp, #40	; 0x28
    e424:	e89d6ff0 	ldm	sp, {r4, r5, r6, r7, r8, r9, sl, fp, sp, lr}
    e428:	e12fff1e 	bx	lr
    e42c:	e3e06000 	mvn	r6, #0
    e430:	eaffffed 	b	e3ec <vfs_write_block+0xc4>
    e434:	e3a02001 	mov	r2, #1
    e438:	e59f3010 	ldr	r3, [pc, #16]	; e450 <vfs_write_block+0x128>
    e43c:	e7993003 	ldr	r3, [r9, r3]
    e440:	e3e06000 	mvn	r6, #0
    e444:	e5832000 	str	r2, [r3]
    e448:	eaffffe7 	b	e3ec <vfs_write_block+0xc4>
    e44c:	00019814 	andeq	r9, r1, r4, lsl r8
    e450:	00000020 	andeq	r0, r0, r0, lsr #32

0000e454 <vfs_read_block>:
    e454:	e1a0c00d 	mov	ip, sp
    e458:	e92ddff0 	push	{r4, r5, r6, r7, r8, r9, sl, fp, ip, lr, pc}
    e45c:	e24cb004 	sub	fp, ip, #4
    e460:	e59fc178 	ldr	ip, [pc, #376]	; e5e0 <vfs_read_block+0x18c>
    e464:	e24ddf4d 	sub	sp, sp, #308	; 0x134
    e468:	e08fc00c 	add	ip, pc, ip
    e46c:	e50b1158 	str	r1, [fp, #-344]	; 0xfffffea8
    e470:	e3a01001 	mov	r1, #1
    e474:	e1a08000 	mov	r8, r0
    e478:	e1a00002 	mov	r0, r2
    e47c:	e1a06002 	mov	r6, r2
    e480:	e1a09003 	mov	r9, r3
    e484:	e50bc15c 	str	ip, [fp, #-348]	; 0xfffffea4
    e488:	e51ba158 	ldr	sl, [fp, #-344]	; 0xfffffea8
    e48c:	eb000b49 	bl	111b8 <shm_alloc>
    e490:	e2505000 	subs	r5, r0, #0
    e494:	ba00004f 	blt	e5d8 <vfs_read_block+0x184>
    e498:	eb000b51 	bl	111e4 <shm_map>
    e49c:	e2503000 	subs	r3, r0, #0
    e4a0:	e50b3158 	str	r3, [fp, #-344]	; 0xfffffea8
    e4a4:	0a00004b 	beq	e5d8 <vfs_read_block+0x184>
    e4a8:	eb0008fb 	bl	1089c <get_proto_factor>
    e4ac:	e1a02000 	mov	r2, r0
    e4b0:	e24b70c0 	sub	r7, fp, #192	; 0xc0
    e4b4:	e5922004 	ldr	r2, [r2, #4]
    e4b8:	e1a00007 	mov	r0, r7
    e4bc:	e1a0e00f 	mov	lr, pc
    e4c0:	e12fff12 	bx	r2
    e4c4:	eb0008f4 	bl	1089c <get_proto_factor>
    e4c8:	e1a02000 	mov	r2, r0
    e4cc:	e24b4f55 	sub	r4, fp, #340	; 0x154
    e4d0:	e5922004 	ldr	r2, [r2, #4]
    e4d4:	e1a00004 	mov	r0, r4
    e4d8:	e1a0e00f 	mov	lr, pc
    e4dc:	e12fff12 	bx	r2
    e4e0:	e1a02000 	mov	r2, r0
    e4e4:	e1a01006 	mov	r1, r6
    e4e8:	e5922014 	ldr	r2, [r2, #20]
    e4ec:	e1a00004 	mov	r0, r4
    e4f0:	e1a0e00f 	mov	lr, pc
    e4f4:	e12fff12 	bx	r2
    e4f8:	e1a02000 	mov	r2, r0
    e4fc:	e1a01009 	mov	r1, r9
    e500:	e5922014 	ldr	r2, [r2, #20]
    e504:	e1a00004 	mov	r0, r4
    e508:	e1a0e00f 	mov	lr, pc
    e50c:	e12fff12 	bx	r2
    e510:	e1a02000 	mov	r2, r0
    e514:	e1a01005 	mov	r1, r5
    e518:	e5922014 	ldr	r2, [r2, #20]
    e51c:	e1a00004 	mov	r0, r4
    e520:	e1a0e00f 	mov	lr, pc
    e524:	e12fff12 	bx	r2
    e528:	e1a03007 	mov	r3, r7
    e52c:	e1a02004 	mov	r2, r4
    e530:	e1a00008 	mov	r0, r8
    e534:	e3a01006 	mov	r1, #6
    e538:	eb000242 	bl	ee48 <ipc_call>
    e53c:	e3500000 	cmp	r0, #0
    e540:	13e06000 	mvnne	r6, #0
    e544:	0a000011 	beq	e590 <vfs_read_block+0x13c>
    e548:	eb0008d3 	bl	1089c <get_proto_factor>
    e54c:	e1a02000 	mov	r2, r0
    e550:	e1a00004 	mov	r0, r4
    e554:	e592200c 	ldr	r2, [r2, #12]
    e558:	e1a0e00f 	mov	lr, pc
    e55c:	e12fff12 	bx	r2
    e560:	eb0008cd 	bl	1089c <get_proto_factor>
    e564:	e1a02000 	mov	r2, r0
    e568:	e1a00007 	mov	r0, r7
    e56c:	e592300c 	ldr	r3, [r2, #12]
    e570:	e1a0e00f 	mov	lr, pc
    e574:	e12fff13 	bx	r3
    e578:	e1a00005 	mov	r0, r5
    e57c:	eb000b21 	bl	11208 <shm_unmap>
    e580:	e1a00006 	mov	r0, r6
    e584:	e24bd028 	sub	sp, fp, #40	; 0x28
    e588:	e89d6ff0 	ldm	sp, {r4, r5, r6, r7, r8, r9, sl, fp, sp, lr}
    e58c:	e12fff1e 	bx	lr
    e590:	e1a00007 	mov	r0, r7
    e594:	eb00098e 	bl	10bd4 <proto_read_int>
    e598:	e2506000 	subs	r6, r0, #0
    e59c:	ca000008 	bgt	e5c4 <vfs_read_block+0x170>
    e5a0:	e3760002 	cmn	r6, #2
    e5a4:	1affffe7 	bne	e548 <vfs_read_block+0xf4>
    e5a8:	e3a01001 	mov	r1, #1
    e5ac:	e59f2030 	ldr	r2, [pc, #48]	; e5e4 <vfs_read_block+0x190>
    e5b0:	e51b315c 	ldr	r3, [fp, #-348]	; 0xfffffea4
    e5b4:	e7932002 	ldr	r2, [r3, r2]
    e5b8:	e3e06000 	mvn	r6, #0
    e5bc:	e5821000 	str	r1, [r2]
    e5c0:	eaffffe0 	b	e548 <vfs_read_block+0xf4>
    e5c4:	e1a0000a 	mov	r0, sl
    e5c8:	e1a02006 	mov	r2, r6
    e5cc:	e51b1158 	ldr	r1, [fp, #-344]	; 0xfffffea8
    e5d0:	eb001d1c 	bl	15a48 <memcpy>
    e5d4:	eaffffdb 	b	e548 <vfs_read_block+0xf4>
    e5d8:	e3e06000 	mvn	r6, #0
    e5dc:	eaffffe7 	b	e580 <vfs_read_block+0x12c>
    e5e0:	0001977c 	andeq	r9, r1, ip, ror r7
    e5e4:	00000020 	andeq	r0, r0, r0, lsr #32

0000e5e8 <vfs_read_pipe>:
    e5e8:	e1a0c00d 	mov	ip, sp
    e5ec:	e92dd800 	push	{fp, ip, lr, pc}
    e5f0:	e24cb004 	sub	fp, ip, #4
    e5f4:	ebfff86a 	bl	c7a4 <read_pipe>
    e5f8:	e59f3030 	ldr	r3, [pc, #48]	; e630 <vfs_read_pipe+0x48>
    e5fc:	e3500000 	cmp	r0, #0
    e600:	e08f3003 	add	r3, pc, r3
    e604:	11c00fc0 	bicne	r0, r0, r0, asr #31
    e608:	0a000002 	beq	e618 <vfs_read_pipe+0x30>
    e60c:	e24bd00c 	sub	sp, fp, #12
    e610:	e89d6800 	ldm	sp, {fp, sp, lr}
    e614:	e12fff1e 	bx	lr
    e618:	e3a01001 	mov	r1, #1
    e61c:	e59f2010 	ldr	r2, [pc, #16]	; e634 <vfs_read_pipe+0x4c>
    e620:	e7933002 	ldr	r3, [r3, r2]
    e624:	e3e00000 	mvn	r0, #0
    e628:	e5831000 	str	r1, [r3]
    e62c:	eafffff6 	b	e60c <vfs_read_pipe+0x24>
    e630:	000195e4 	andeq	r9, r1, r4, ror #11
    e634:	00000020 	andeq	r0, r0, r0, lsr #32

0000e638 <vfs_read>:
    e638:	e1a0c00d 	mov	ip, sp
    e63c:	e92ddff0 	push	{r4, r5, r6, r7, r8, r9, sl, fp, ip, lr, pc}
    e640:	e24cb004 	sub	fp, ip, #4
    e644:	e24ddf4f 	sub	sp, sp, #316	; 0x13c
    e648:	e1a06003 	mov	r6, r3
    e64c:	e5913044 	ldr	r3, [r1, #68]	; 0x44
    e650:	e3530001 	cmp	r3, #1
    e654:	13a03000 	movne	r3, #0
    e658:	e59fc230 	ldr	ip, [pc, #560]	; e890 <vfs_read+0x258>
    e65c:	e08fc00c 	add	ip, pc, ip
    e660:	e1a05001 	mov	r5, r1
    e664:	e1a07000 	mov	r7, r0
    e668:	e50bc164 	str	ip, [fp, #-356]	; 0xfffffe9c
    e66c:	e50b2160 	str	r2, [fp, #-352]	; 0xfffffea0
    e670:	150b315c 	strne	r3, [fp, #-348]	; 0xfffffea4
    e674:	0a00006a 	beq	e824 <vfs_read+0x1ec>
    e678:	e356001f 	cmp	r6, #31
    e67c:	9a00000a 	bls	e6ac <vfs_read+0x74>
    e680:	e3a01001 	mov	r1, #1
    e684:	e1a00006 	mov	r0, r6
    e688:	eb000aca 	bl	111b8 <shm_alloc>
    e68c:	e2508000 	subs	r8, r0, #0
    e690:	ba000003 	blt	e6a4 <vfs_read+0x6c>
    e694:	eb000ad2 	bl	111e4 <shm_map>
    e698:	e2503000 	subs	r3, r0, #0
    e69c:	e50b3158 	str	r3, [fp, #-344]	; 0xfffffea8
    e6a0:	1a000004 	bne	e6b8 <vfs_read+0x80>
    e6a4:	e3e09000 	mvn	r9, #0
    e6a8:	ea000047 	b	e7cc <vfs_read+0x194>
    e6ac:	e3a03000 	mov	r3, #0
    e6b0:	e3e08000 	mvn	r8, #0
    e6b4:	e50b3158 	str	r3, [fp, #-344]	; 0xfffffea8
    e6b8:	eb000877 	bl	1089c <get_proto_factor>
    e6bc:	e1a02000 	mov	r2, r0
    e6c0:	e24ba0c0 	sub	sl, fp, #192	; 0xc0
    e6c4:	e5922004 	ldr	r2, [r2, #4]
    e6c8:	e1a0000a 	mov	r0, sl
    e6cc:	e1a0e00f 	mov	lr, pc
    e6d0:	e12fff12 	bx	r2
    e6d4:	eb000870 	bl	1089c <get_proto_factor>
    e6d8:	e1a02000 	mov	r2, r0
    e6dc:	e24b4f55 	sub	r4, fp, #340	; 0x154
    e6e0:	e5922004 	ldr	r2, [r2, #4]
    e6e4:	e1a00004 	mov	r0, r4
    e6e8:	e1a0e00f 	mov	lr, pc
    e6ec:	e12fff12 	bx	r2
    e6f0:	e1a02000 	mov	r2, r0
    e6f4:	e1a01007 	mov	r1, r7
    e6f8:	e5922014 	ldr	r2, [r2, #20]
    e6fc:	e1a00004 	mov	r0, r4
    e700:	e1a0e00f 	mov	lr, pc
    e704:	e12fff12 	bx	r2
    e708:	e1a0c000 	mov	ip, r0
    e70c:	e3a0205c 	mov	r2, #92	; 0x5c
    e710:	e59c9010 	ldr	r9, [ip, #16]
    e714:	e1a01005 	mov	r1, r5
    e718:	e1a00004 	mov	r0, r4
    e71c:	e1a0e00f 	mov	lr, pc
    e720:	e12fff19 	bx	r9
    e724:	e1a02000 	mov	r2, r0
    e728:	e1a01006 	mov	r1, r6
    e72c:	e5922014 	ldr	r2, [r2, #20]
    e730:	e1a00004 	mov	r0, r4
    e734:	e1a0e00f 	mov	lr, pc
    e738:	e12fff12 	bx	r2
    e73c:	e1a02000 	mov	r2, r0
    e740:	e51b115c 	ldr	r1, [fp, #-348]	; 0xfffffea4
    e744:	e5922014 	ldr	r2, [r2, #20]
    e748:	e1a00004 	mov	r0, r4
    e74c:	e1a0e00f 	mov	lr, pc
    e750:	e12fff12 	bx	r2
    e754:	e1a02000 	mov	r2, r0
    e758:	e1a01008 	mov	r1, r8
    e75c:	e5922014 	ldr	r2, [r2, #20]
    e760:	e1a00004 	mov	r0, r4
    e764:	e1a0e00f 	mov	lr, pc
    e768:	e12fff12 	bx	r2
    e76c:	e1a0300a 	mov	r3, sl
    e770:	e1a02004 	mov	r2, r4
    e774:	e3a01004 	mov	r1, #4
    e778:	e5950054 	ldr	r0, [r5, #84]	; 0x54
    e77c:	eb0001b1 	bl	ee48 <ipc_call>
    e780:	e3500000 	cmp	r0, #0
    e784:	13e09000 	mvnne	r9, #0
    e788:	0a000013 	beq	e7dc <vfs_read+0x1a4>
    e78c:	eb000842 	bl	1089c <get_proto_factor>
    e790:	e1a02000 	mov	r2, r0
    e794:	e1a00004 	mov	r0, r4
    e798:	e592200c 	ldr	r2, [r2, #12]
    e79c:	e1a0e00f 	mov	lr, pc
    e7a0:	e12fff12 	bx	r2
    e7a4:	eb00083c 	bl	1089c <get_proto_factor>
    e7a8:	e1a02000 	mov	r2, r0
    e7ac:	e1a0000a 	mov	r0, sl
    e7b0:	e592300c 	ldr	r3, [r2, #12]
    e7b4:	e1a0e00f 	mov	lr, pc
    e7b8:	e12fff13 	bx	r3
    e7bc:	e51b3158 	ldr	r3, [fp, #-344]	; 0xfffffea8
    e7c0:	e3530000 	cmp	r3, #0
    e7c4:	11a00008 	movne	r0, r8
    e7c8:	1b000a8e 	blne	11208 <shm_unmap>
    e7cc:	e1a00009 	mov	r0, r9
    e7d0:	e24bd028 	sub	sp, fp, #40	; 0x28
    e7d4:	e89d6ff0 	ldm	sp, {r4, r5, r6, r7, r8, r9, sl, fp, sp, lr}
    e7d8:	e12fff1e 	bx	lr
    e7dc:	e1a0000a 	mov	r0, sl
    e7e0:	eb0008fb 	bl	10bd4 <proto_read_int>
    e7e4:	e2509000 	subs	r9, r0, #0
    e7e8:	da000011 	ble	e834 <vfs_read+0x1fc>
    e7ec:	e51b1158 	ldr	r1, [fp, #-344]	; 0xfffffea8
    e7f0:	e3510000 	cmp	r1, #0
    e7f4:	0a000020 	beq	e87c <vfs_read+0x244>
    e7f8:	e1a02009 	mov	r2, r9
    e7fc:	e51b0160 	ldr	r0, [fp, #-352]	; 0xfffffea0
    e800:	eb001c90 	bl	15a48 <memcpy>
    e804:	e5952044 	ldr	r2, [r5, #68]	; 0x44
    e808:	e3520001 	cmp	r2, #1
    e80c:	1affffde 	bne	e78c <vfs_read+0x154>
    e810:	e51b315c 	ldr	r3, [fp, #-348]	; 0xfffffea4
    e814:	e1a00007 	mov	r0, r7
    e818:	e0831009 	add	r1, r3, r9
    e81c:	ebfffc83 	bl	da30 <vfs_seek>
    e820:	eaffffd9 	b	e78c <vfs_read+0x154>
    e824:	ebfffc4c 	bl	d95c <vfs_tell>
    e828:	e1c03fc0 	bic	r3, r0, r0, asr #31
    e82c:	e50b315c 	str	r3, [fp, #-348]	; 0xfffffea4
    e830:	eaffff90 	b	e678 <vfs_read+0x40>
    e834:	e3790002 	cmn	r9, #2
    e838:	1a000006 	bne	e858 <vfs_read+0x220>
    e83c:	e3a01001 	mov	r1, #1
    e840:	e59f204c 	ldr	r2, [pc, #76]	; e894 <vfs_read+0x25c>
    e844:	e51b3164 	ldr	r3, [fp, #-356]	; 0xfffffe9c
    e848:	e7932002 	ldr	r2, [r3, r2]
    e84c:	e3e09000 	mvn	r9, #0
    e850:	e5821000 	str	r1, [r2]
    e854:	eaffffcc 	b	e78c <vfs_read+0x154>
    e858:	e3790003 	cmn	r9, #3
    e85c:	1affffca 	bne	e78c <vfs_read+0x154>
    e860:	e3a01002 	mov	r1, #2
    e864:	e59f2028 	ldr	r2, [pc, #40]	; e894 <vfs_read+0x25c>
    e868:	e51b3164 	ldr	r3, [fp, #-356]	; 0xfffffe9c
    e86c:	e7932002 	ldr	r2, [r3, r2]
    e870:	e3e09000 	mvn	r9, #0
    e874:	e5821000 	str	r1, [r2]
    e878:	eaffffc3 	b	e78c <vfs_read+0x154>
    e87c:	e1a02006 	mov	r2, r6
    e880:	e1a0000a 	mov	r0, sl
    e884:	e51b1160 	ldr	r1, [fp, #-352]	; 0xfffffea0
    e888:	eb000864 	bl	10a20 <proto_read_to>
    e88c:	eaffffdc 	b	e804 <vfs_read+0x1cc>
    e890:	00019588 	andeq	r9, r1, r8, lsl #11
    e894:	00000020 	andeq	r0, r0, r0, lsr #32

0000e898 <vfs_write_pipe>:
    e898:	e1a0c00d 	mov	ip, sp
    e89c:	e92dd800 	push	{fp, ip, lr, pc}
    e8a0:	e24cb004 	sub	fp, ip, #4
    e8a4:	ebfff81c 	bl	c91c <write_pipe>
    e8a8:	e59f3030 	ldr	r3, [pc, #48]	; e8e0 <vfs_write_pipe+0x48>
    e8ac:	e3500000 	cmp	r0, #0
    e8b0:	e08f3003 	add	r3, pc, r3
    e8b4:	11c00fc0 	bicne	r0, r0, r0, asr #31
    e8b8:	0a000002 	beq	e8c8 <vfs_write_pipe+0x30>
    e8bc:	e24bd00c 	sub	sp, fp, #12
    e8c0:	e89d6800 	ldm	sp, {fp, sp, lr}
    e8c4:	e12fff1e 	bx	lr
    e8c8:	e3a01001 	mov	r1, #1
    e8cc:	e59f2010 	ldr	r2, [pc, #16]	; e8e4 <vfs_write_pipe+0x4c>
    e8d0:	e7933002 	ldr	r3, [r3, r2]
    e8d4:	e3e00000 	mvn	r0, #0
    e8d8:	e5831000 	str	r1, [r3]
    e8dc:	eafffff6 	b	e8bc <vfs_write_pipe+0x24>
    e8e0:	00019334 	andeq	r9, r1, r4, lsr r3
    e8e4:	00000020 	andeq	r0, r0, r0, lsr #32

0000e8e8 <vfs_write>:
    e8e8:	e1a0c00d 	mov	ip, sp
    e8ec:	e92ddff0 	push	{r4, r5, r6, r7, r8, r9, sl, fp, ip, lr, pc}
    e8f0:	e24cb004 	sub	fp, ip, #4
    e8f4:	e24ddf4f 	sub	sp, sp, #316	; 0x13c
    e8f8:	e1a06003 	mov	r6, r3
    e8fc:	e59fc360 	ldr	ip, [pc, #864]	; ec64 <vfs_write+0x37c>
    e900:	e5913044 	ldr	r3, [r1, #68]	; 0x44
    e904:	e08fc00c 	add	ip, pc, ip
    e908:	e3530000 	cmp	r3, #0
    e90c:	e1a05001 	mov	r5, r1
    e910:	e1a07000 	mov	r7, r0
    e914:	e1a08002 	mov	r8, r2
    e918:	e50bc15c 	str	ip, [fp, #-348]	; 0xfffffea4
    e91c:	0a0000ce 	beq	ec5c <vfs_write+0x374>
    e920:	e3530001 	cmp	r3, #1
    e924:	13a03000 	movne	r3, #0
    e928:	150b3158 	strne	r3, [fp, #-344]	; 0xfffffea8
    e92c:	0a0000b8 	beq	ec14 <vfs_write+0x32c>
    e930:	e356001f 	cmp	r6, #31
    e934:	9a000053 	bls	ea88 <vfs_write+0x1a0>
    e938:	e3a01001 	mov	r1, #1
    e93c:	e1a00006 	mov	r0, r6
    e940:	eb000a1c 	bl	111b8 <shm_alloc>
    e944:	e2509000 	subs	r9, r0, #0
    e948:	ba0000c3 	blt	ec5c <vfs_write+0x374>
    e94c:	eb000a24 	bl	111e4 <shm_map>
    e950:	e2503000 	subs	r3, r0, #0
    e954:	e50b3160 	str	r3, [fp, #-352]	; 0xfffffea0
    e958:	0a0000bf 	beq	ec5c <vfs_write+0x374>
    e95c:	e1a01008 	mov	r1, r8
    e960:	e1a02006 	mov	r2, r6
    e964:	eb001c37 	bl	15a48 <memcpy>
    e968:	eb0007cb 	bl	1089c <get_proto_factor>
    e96c:	e1a02000 	mov	r2, r0
    e970:	e24ba0c0 	sub	sl, fp, #192	; 0xc0
    e974:	e5922004 	ldr	r2, [r2, #4]
    e978:	e1a0000a 	mov	r0, sl
    e97c:	e1a0e00f 	mov	lr, pc
    e980:	e12fff12 	bx	r2
    e984:	eb0007c4 	bl	1089c <get_proto_factor>
    e988:	e1a02000 	mov	r2, r0
    e98c:	e24b4f55 	sub	r4, fp, #340	; 0x154
    e990:	e5922004 	ldr	r2, [r2, #4]
    e994:	e1a00004 	mov	r0, r4
    e998:	e1a0e00f 	mov	lr, pc
    e99c:	e12fff12 	bx	r2
    e9a0:	e1a02000 	mov	r2, r0
    e9a4:	e1a01007 	mov	r1, r7
    e9a8:	e5922014 	ldr	r2, [r2, #20]
    e9ac:	e1a00004 	mov	r0, r4
    e9b0:	e1a0e00f 	mov	lr, pc
    e9b4:	e12fff12 	bx	r2
    e9b8:	e1a0c000 	mov	ip, r0
    e9bc:	e3a0205c 	mov	r2, #92	; 0x5c
    e9c0:	e59c8010 	ldr	r8, [ip, #16]
    e9c4:	e1a01005 	mov	r1, r5
    e9c8:	e1a00004 	mov	r0, r4
    e9cc:	e1a0e00f 	mov	lr, pc
    e9d0:	e12fff18 	bx	r8
    e9d4:	e1a02000 	mov	r2, r0
    e9d8:	e51b1158 	ldr	r1, [fp, #-344]	; 0xfffffea8
    e9dc:	e5922014 	ldr	r2, [r2, #20]
    e9e0:	e1a00004 	mov	r0, r4
    e9e4:	e1a0e00f 	mov	lr, pc
    e9e8:	e12fff12 	bx	r2
    e9ec:	e1a02000 	mov	r2, r0
    e9f0:	e1a01009 	mov	r1, r9
    e9f4:	e5922014 	ldr	r2, [r2, #20]
    e9f8:	e1a00004 	mov	r0, r4
    e9fc:	e1a0e00f 	mov	lr, pc
    ea00:	e12fff12 	bx	r2
    ea04:	eb0007a4 	bl	1089c <get_proto_factor>
    ea08:	e1a02000 	mov	r2, r0
    ea0c:	e1a01006 	mov	r1, r6
    ea10:	e5922014 	ldr	r2, [r2, #20]
    ea14:	e1a00004 	mov	r0, r4
    ea18:	e1a0e00f 	mov	lr, pc
    ea1c:	e12fff12 	bx	r2
    ea20:	e1a0300a 	mov	r3, sl
    ea24:	e1a02004 	mov	r2, r4
    ea28:	e3a01005 	mov	r1, #5
    ea2c:	e5950054 	ldr	r0, [r5, #84]	; 0x54
    ea30:	eb000104 	bl	ee48 <ipc_call>
    ea34:	e3500000 	cmp	r0, #0
    ea38:	0a00005b 	beq	ebac <vfs_write+0x2c4>
    ea3c:	eb000796 	bl	1089c <get_proto_factor>
    ea40:	e1a02000 	mov	r2, r0
    ea44:	e1a00004 	mov	r0, r4
    ea48:	e592200c 	ldr	r2, [r2, #12]
    ea4c:	e1a0e00f 	mov	lr, pc
    ea50:	e12fff12 	bx	r2
    ea54:	eb000790 	bl	1089c <get_proto_factor>
    ea58:	e1a02000 	mov	r2, r0
    ea5c:	e1a0000a 	mov	r0, sl
    ea60:	e592300c 	ldr	r3, [r2, #12]
    ea64:	e3e06000 	mvn	r6, #0
    ea68:	e1a0e00f 	mov	lr, pc
    ea6c:	e12fff13 	bx	r3
    ea70:	e1a00009 	mov	r0, r9
    ea74:	eb0009e3 	bl	11208 <shm_unmap>
    ea78:	e1a00006 	mov	r0, r6
    ea7c:	e24bd028 	sub	sp, fp, #40	; 0x28
    ea80:	e89d6ff0 	ldm	sp, {r4, r5, r6, r7, r8, r9, sl, fp, sp, lr}
    ea84:	e12fff1e 	bx	lr
    ea88:	eb000783 	bl	1089c <get_proto_factor>
    ea8c:	e1a02000 	mov	r2, r0
    ea90:	e24ba0c0 	sub	sl, fp, #192	; 0xc0
    ea94:	e5922004 	ldr	r2, [r2, #4]
    ea98:	e1a0000a 	mov	r0, sl
    ea9c:	e1a0e00f 	mov	lr, pc
    eaa0:	e12fff12 	bx	r2
    eaa4:	eb00077c 	bl	1089c <get_proto_factor>
    eaa8:	e1a02000 	mov	r2, r0
    eaac:	e24b4f55 	sub	r4, fp, #340	; 0x154
    eab0:	e5922004 	ldr	r2, [r2, #4]
    eab4:	e1a00004 	mov	r0, r4
    eab8:	e1a0e00f 	mov	lr, pc
    eabc:	e12fff12 	bx	r2
    eac0:	e1a02000 	mov	r2, r0
    eac4:	e1a01007 	mov	r1, r7
    eac8:	e5922014 	ldr	r2, [r2, #20]
    eacc:	e1a00004 	mov	r0, r4
    ead0:	e1a0e00f 	mov	lr, pc
    ead4:	e12fff12 	bx	r2
    ead8:	e1a0c000 	mov	ip, r0
    eadc:	e3a0205c 	mov	r2, #92	; 0x5c
    eae0:	e59c9010 	ldr	r9, [ip, #16]
    eae4:	e1a01005 	mov	r1, r5
    eae8:	e1a00004 	mov	r0, r4
    eaec:	e1a0e00f 	mov	lr, pc
    eaf0:	e12fff19 	bx	r9
    eaf4:	e1a02000 	mov	r2, r0
    eaf8:	e51b1158 	ldr	r1, [fp, #-344]	; 0xfffffea8
    eafc:	e5922014 	ldr	r2, [r2, #20]
    eb00:	e1a00004 	mov	r0, r4
    eb04:	e1a0e00f 	mov	lr, pc
    eb08:	e12fff12 	bx	r2
    eb0c:	e1a02000 	mov	r2, r0
    eb10:	e3e01000 	mvn	r1, #0
    eb14:	e5922014 	ldr	r2, [r2, #20]
    eb18:	e1a00004 	mov	r0, r4
    eb1c:	e1a0e00f 	mov	lr, pc
    eb20:	e12fff12 	bx	r2
    eb24:	eb00075c 	bl	1089c <get_proto_factor>
    eb28:	e1a0c000 	mov	ip, r0
    eb2c:	e1a02006 	mov	r2, r6
    eb30:	e1a01008 	mov	r1, r8
    eb34:	e59c6010 	ldr	r6, [ip, #16]
    eb38:	e1a00004 	mov	r0, r4
    eb3c:	e1a0e00f 	mov	lr, pc
    eb40:	e12fff16 	bx	r6
    eb44:	e1a0300a 	mov	r3, sl
    eb48:	e1a02004 	mov	r2, r4
    eb4c:	e3a01005 	mov	r1, #5
    eb50:	e5950054 	ldr	r0, [r5, #84]	; 0x54
    eb54:	eb0000bb 	bl	ee48 <ipc_call>
    eb58:	e3500000 	cmp	r0, #0
    eb5c:	0a000010 	beq	eba4 <vfs_write+0x2bc>
    eb60:	eb00074d 	bl	1089c <get_proto_factor>
    eb64:	e1a02000 	mov	r2, r0
    eb68:	e1a00004 	mov	r0, r4
    eb6c:	e592200c 	ldr	r2, [r2, #12]
    eb70:	e1a0e00f 	mov	lr, pc
    eb74:	e12fff12 	bx	r2
    eb78:	eb000747 	bl	1089c <get_proto_factor>
    eb7c:	e1a02000 	mov	r2, r0
    eb80:	e3e06000 	mvn	r6, #0
    eb84:	e1a0000a 	mov	r0, sl
    eb88:	e592300c 	ldr	r3, [r2, #12]
    eb8c:	e1a0e00f 	mov	lr, pc
    eb90:	e12fff13 	bx	r3
    eb94:	e1a00006 	mov	r0, r6
    eb98:	e24bd028 	sub	sp, fp, #40	; 0x28
    eb9c:	e89d6ff0 	ldm	sp, {r4, r5, r6, r7, r8, r9, sl, fp, sp, lr}
    eba0:	e12fff1e 	bx	lr
    eba4:	e3e09000 	mvn	r9, #0
    eba8:	e50b0160 	str	r0, [fp, #-352]	; 0xfffffea0
    ebac:	e1a0000a 	mov	r0, sl
    ebb0:	eb000807 	bl	10bd4 <proto_read_int>
    ebb4:	e2506000 	subs	r6, r0, #0
    ebb8:	da000019 	ble	ec24 <vfs_write+0x33c>
    ebbc:	e5952044 	ldr	r2, [r5, #68]	; 0x44
    ebc0:	e3520001 	cmp	r2, #1
    ebc4:	0a00001f 	beq	ec48 <vfs_write+0x360>
    ebc8:	eb000733 	bl	1089c <get_proto_factor>
    ebcc:	e1a02000 	mov	r2, r0
    ebd0:	e1a00004 	mov	r0, r4
    ebd4:	e592200c 	ldr	r2, [r2, #12]
    ebd8:	e1a0e00f 	mov	lr, pc
    ebdc:	e12fff12 	bx	r2
    ebe0:	eb00072d 	bl	1089c <get_proto_factor>
    ebe4:	e1a02000 	mov	r2, r0
    ebe8:	e1a0000a 	mov	r0, sl
    ebec:	e592300c 	ldr	r3, [r2, #12]
    ebf0:	e1a0e00f 	mov	lr, pc
    ebf4:	e12fff13 	bx	r3
    ebf8:	e51b3160 	ldr	r3, [fp, #-352]	; 0xfffffea0
    ebfc:	e3530000 	cmp	r3, #0
    ec00:	1affff9a 	bne	ea70 <vfs_write+0x188>
    ec04:	e1a00006 	mov	r0, r6
    ec08:	e24bd028 	sub	sp, fp, #40	; 0x28
    ec0c:	e89d6ff0 	ldm	sp, {r4, r5, r6, r7, r8, r9, sl, fp, sp, lr}
    ec10:	e12fff1e 	bx	lr
    ec14:	ebfffb50 	bl	d95c <vfs_tell>
    ec18:	e1c03fc0 	bic	r3, r0, r0, asr #31
    ec1c:	e50b3158 	str	r3, [fp, #-344]	; 0xfffffea8
    ec20:	eaffff42 	b	e930 <vfs_write+0x48>
    ec24:	e3760002 	cmn	r6, #2
    ec28:	1affffe6 	bne	ebc8 <vfs_write+0x2e0>
    ec2c:	e3a01001 	mov	r1, #1
    ec30:	e59f2030 	ldr	r2, [pc, #48]	; ec68 <vfs_write+0x380>
    ec34:	e51b315c 	ldr	r3, [fp, #-348]	; 0xfffffea4
    ec38:	e7932002 	ldr	r2, [r3, r2]
    ec3c:	e3e06000 	mvn	r6, #0
    ec40:	e5821000 	str	r1, [r2]
    ec44:	eaffffdf 	b	ebc8 <vfs_write+0x2e0>
    ec48:	e51b3158 	ldr	r3, [fp, #-344]	; 0xfffffea8
    ec4c:	e1a00007 	mov	r0, r7
    ec50:	e0831006 	add	r1, r3, r6
    ec54:	ebfffb75 	bl	da30 <vfs_seek>
    ec58:	eaffffda 	b	ebc8 <vfs_write+0x2e0>
    ec5c:	e3e06000 	mvn	r6, #0
    ec60:	eaffff84 	b	ea78 <vfs_write+0x190>
    ec64:	000192e0 	andeq	r9, r1, r0, ror #5
    ec68:	00000020 	andeq	r0, r0, r0, lsr #32

0000ec6c <handle_ipc>:
    ec6c:	e1a0c00d 	mov	ip, sp
    ec70:	e92ddbf0 	push	{r4, r5, r6, r7, r8, r9, fp, ip, lr, pc}
    ec74:	e24cb004 	sub	fp, ip, #4
    ec78:	e24dde13 	sub	sp, sp, #304	; 0x130
    ec7c:	e1a05001 	mov	r5, r1
    ec80:	e1a06000 	mov	r6, r0
    ec84:	eb000704 	bl	1089c <get_proto_factor>
    ec88:	e1a03000 	mov	r3, r0
    ec8c:	e24b4f53 	sub	r4, fp, #332	; 0x14c
    ec90:	e5933004 	ldr	r3, [r3, #4]
    ec94:	e1a00004 	mov	r0, r4
    ec98:	e24b70b8 	sub	r7, fp, #184	; 0xb8
    ec9c:	e1a0e00f 	mov	lr, pc
    eca0:	e12fff13 	bx	r3
    eca4:	e1a03004 	mov	r3, r4
    eca8:	e1a02007 	mov	r2, r7
    ecac:	e1a01006 	mov	r1, r6
    ecb0:	e3a00026 	mov	r0, #38	; 0x26
    ecb4:	eb000fb0 	bl	12b7c <syscall3>
    ecb8:	e2503000 	subs	r3, r0, #0
    ecbc:	1a00003e 	bne	edbc <handle_ipc+0x150>
    ecc0:	e51b80b4 	ldr	r8, [fp, #-180]	; 0xffffff4c
    ecc4:	e3580000 	cmp	r8, #0
    ecc8:	e51b90b8 	ldr	r9, [fp, #-184]	; 0xffffff48
    eccc:	aa00001a 	bge	ed3c <handle_ipc+0xd0>
    ecd0:	e59f2110 	ldr	r2, [pc, #272]	; ede8 <handle_ipc+0x17c>
    ecd4:	e58d5000 	str	r5, [sp]
    ecd8:	e08f2002 	add	r2, pc, r2
    ecdc:	e1a00009 	mov	r0, r9
    ece0:	e5926000 	ldr	r6, [r2]
    ece4:	e3c81102 	bic	r1, r8, #-2147483648	; 0x80000000
    ece8:	e1a02004 	mov	r2, r4
    ecec:	e1a0e00f 	mov	lr, pc
    ecf0:	e12fff16 	bx	r6
    ecf4:	eb0006e8 	bl	1089c <get_proto_factor>
    ecf8:	e1a03000 	mov	r3, r0
    ecfc:	e1a00004 	mov	r0, r4
    ed00:	e593300c 	ldr	r3, [r3, #12]
    ed04:	e1a0e00f 	mov	lr, pc
    ed08:	e12fff13 	bx	r3
    ed0c:	e59f30d8 	ldr	r3, [pc, #216]	; edec <handle_ipc+0x180>
    ed10:	e08f3003 	add	r3, pc, r3
    ed14:	e5933004 	ldr	r3, [r3, #4]
    ed18:	e3530000 	cmp	r3, #0
    ed1c:	11a00005 	movne	r0, r5
    ed20:	11a0e00f 	movne	lr, pc
    ed24:	112fff13 	bxne	r3
    ed28:	e3a00029 	mov	r0, #41	; 0x29
    ed2c:	eb000f98 	bl	12b94 <syscall0>
    ed30:	e24bd024 	sub	sp, fp, #36	; 0x24
    ed34:	e89d6bf0 	ldm	sp, {r4, r5, r6, r7, r8, r9, fp, sp, lr}
    ed38:	e12fff1e 	bx	lr
    ed3c:	eb0006d6 	bl	1089c <get_proto_factor>
    ed40:	e1a03000 	mov	r3, r0
    ed44:	e1a00007 	mov	r0, r7
    ed48:	e5933004 	ldr	r3, [r3, #4]
    ed4c:	e1a0e00f 	mov	lr, pc
    ed50:	e12fff13 	bx	r3
    ed54:	e58d5000 	str	r5, [sp]
    ed58:	e59f3090 	ldr	r3, [pc, #144]	; edf0 <handle_ipc+0x184>
    ed5c:	e1a01008 	mov	r1, r8
    ed60:	e1a02004 	mov	r2, r4
    ed64:	e1a00009 	mov	r0, r9
    ed68:	e79f8003 	ldr	r8, [pc, r3]
    ed6c:	e1a03007 	mov	r3, r7
    ed70:	e1a0e00f 	mov	lr, pc
    ed74:	e12fff18 	bx	r8
    ed78:	eb0006c7 	bl	1089c <get_proto_factor>
    ed7c:	e1a03000 	mov	r3, r0
    ed80:	e1a00004 	mov	r0, r4
    ed84:	e593300c 	ldr	r3, [r3, #12]
    ed88:	e1a0e00f 	mov	lr, pc
    ed8c:	e12fff13 	bx	r3
    ed90:	e1a02007 	mov	r2, r7
    ed94:	e1a01006 	mov	r1, r6
    ed98:	e3a00027 	mov	r0, #39	; 0x27
    ed9c:	eb000f77 	bl	12b80 <syscall2>
    eda0:	eb0006bd 	bl	1089c <get_proto_factor>
    eda4:	e1a03000 	mov	r3, r0
    eda8:	e1a00007 	mov	r0, r7
    edac:	e593300c 	ldr	r3, [r3, #12]
    edb0:	e1a0e00f 	mov	lr, pc
    edb4:	e12fff13 	bx	r3
    edb8:	eaffffd3 	b	ed0c <handle_ipc+0xa0>
    edbc:	eb0006b6 	bl	1089c <get_proto_factor>
    edc0:	e1a03000 	mov	r3, r0
    edc4:	e1a00004 	mov	r0, r4
    edc8:	e593300c 	ldr	r3, [r3, #12]
    edcc:	e1a0e00f 	mov	lr, pc
    edd0:	e12fff13 	bx	r3
    edd4:	e3a00029 	mov	r0, #41	; 0x29
    edd8:	eb000f6d 	bl	12b94 <syscall0>
    eddc:	e24bd024 	sub	sp, fp, #36	; 0x24
    ede0:	e89d6bf0 	ldm	sp, {r4, r5, r6, r7, r8, r9, fp, sp, lr}
    ede4:	e12fff1e 	bx	lr
    ede8:	00019ec0 	andeq	r9, r1, r0, asr #29
    edec:	00019e88 	andeq	r9, r1, r8, lsl #29
    edf0:	00019e30 	andeq	r9, r1, r0, lsr lr

0000edf4 <ipc_disable>:
    edf4:	e1a0c00d 	mov	ip, sp
    edf8:	e92dd800 	push	{fp, ip, lr, pc}
    edfc:	e24cb004 	sub	fp, ip, #4
    ee00:	ea000001 	b	ee0c <ipc_disable+0x18>
    ee04:	e3a00000 	mov	r0, #0
    ee08:	eb000a38 	bl	116f0 <sleep>
    ee0c:	e3a0002a 	mov	r0, #42	; 0x2a
    ee10:	eb000f5f 	bl	12b94 <syscall0>
    ee14:	e3500000 	cmp	r0, #0
    ee18:	1afffff9 	bne	ee04 <ipc_disable+0x10>
    ee1c:	e24bd00c 	sub	sp, fp, #12
    ee20:	e89d6800 	ldm	sp, {fp, sp, lr}
    ee24:	e12fff1e 	bx	lr

0000ee28 <ipc_enable>:
    ee28:	e1a0c00d 	mov	ip, sp
    ee2c:	e3a0002b 	mov	r0, #43	; 0x2b
    ee30:	e92dd800 	push	{fp, ip, lr, pc}
    ee34:	e24cb004 	sub	fp, ip, #4
    ee38:	eb000f55 	bl	12b94 <syscall0>
    ee3c:	e24bd00c 	sub	sp, fp, #12
    ee40:	e89d6800 	ldm	sp, {fp, sp, lr}
    ee44:	e12fff1e 	bx	lr

0000ee48 <ipc_call>:
    ee48:	e1a0c00d 	mov	ip, sp
    ee4c:	e92ddbf0 	push	{r4, r5, r6, r7, r8, r9, fp, ip, lr, pc}
    ee50:	e2506000 	subs	r6, r0, #0
    ee54:	e1a07001 	mov	r7, r1
    ee58:	e1a08002 	mov	r8, r2
    ee5c:	e1a04003 	mov	r4, r3
    ee60:	e24cb004 	sub	fp, ip, #4
    ee64:	ba00001e 	blt	eee4 <ipc_call+0x9c>
    ee68:	e3540000 	cmp	r4, #0
    ee6c:	03877102 	orreq	r7, r7, #-2147483648	; 0x80000000
    ee70:	e1a03008 	mov	r3, r8
    ee74:	e1a01006 	mov	r1, r6
    ee78:	e3a00025 	mov	r0, #37	; 0x25
    ee7c:	e1a02007 	mov	r2, r7
    ee80:	eb000f3d 	bl	12b7c <syscall3>
    ee84:	e3700001 	cmn	r0, #1
    ee88:	e1a05000 	mov	r5, r0
    ee8c:	0afffff5 	beq	ee68 <ipc_call+0x20>
    ee90:	e3500000 	cmp	r0, #0
    ee94:	0a000012 	beq	eee4 <ipc_call+0x9c>
    ee98:	e3540000 	cmp	r4, #0
    ee9c:	01a00004 	moveq	r0, r4
    eea0:	0a00000c 	beq	eed8 <ipc_call+0x90>
    eea4:	eb00067c 	bl	1089c <get_proto_factor>
    eea8:	e1a03000 	mov	r3, r0
    eeac:	e1a00004 	mov	r0, r4
    eeb0:	e593300c 	ldr	r3, [r3, #12]
    eeb4:	e1a0e00f 	mov	lr, pc
    eeb8:	e12fff13 	bx	r3
    eebc:	e1a03004 	mov	r3, r4
    eec0:	e1a02005 	mov	r2, r5
    eec4:	e1a01006 	mov	r1, r6
    eec8:	e3a00028 	mov	r0, #40	; 0x28
    eecc:	eb000f2a 	bl	12b7c <syscall3>
    eed0:	e3700001 	cmn	r0, #1
    eed4:	0afffff8 	beq	eebc <ipc_call+0x74>
    eed8:	e24bd024 	sub	sp, fp, #36	; 0x24
    eedc:	e89d6bf0 	ldm	sp, {r4, r5, r6, r7, r8, r9, fp, sp, lr}
    eee0:	e12fff1e 	bx	lr
    eee4:	e3e00000 	mvn	r0, #0
    eee8:	eafffffa 	b	eed8 <ipc_call+0x90>

0000eeec <ipc_call_wait>:
    eeec:	e1a0c00d 	mov	ip, sp
    eef0:	e92dd9f0 	push	{r4, r5, r6, r7, r8, fp, ip, lr, pc}
    eef4:	e24cb004 	sub	fp, ip, #4
    eef8:	e24dd09c 	sub	sp, sp, #156	; 0x9c
    eefc:	e2536000 	subs	r6, r3, #0
    ef00:	e1a05000 	mov	r5, r0
    ef04:	e1a04001 	mov	r4, r1
    ef08:	e1a08002 	mov	r8, r2
    ef0c:	0a00001d 	beq	ef88 <ipc_call_wait+0x9c>
    ef10:	e3500000 	cmp	r0, #0
    ef14:	ba000046 	blt	f034 <ipc_call_wait+0x148>
    ef18:	e1a03008 	mov	r3, r8
    ef1c:	e1a02004 	mov	r2, r4
    ef20:	e1a01005 	mov	r1, r5
    ef24:	e3a00025 	mov	r0, #37	; 0x25
    ef28:	eb000f13 	bl	12b7c <syscall3>
    ef2c:	e3700001 	cmn	r0, #1
    ef30:	e1a07000 	mov	r7, r0
    ef34:	0afffff7 	beq	ef18 <ipc_call_wait+0x2c>
    ef38:	e3500000 	cmp	r0, #0
    ef3c:	0a00003c 	beq	f034 <ipc_call_wait+0x148>
    ef40:	eb000655 	bl	1089c <get_proto_factor>
    ef44:	e1a03000 	mov	r3, r0
    ef48:	e1a00006 	mov	r0, r6
    ef4c:	e593300c 	ldr	r3, [r3, #12]
    ef50:	e1a0e00f 	mov	lr, pc
    ef54:	e12fff13 	bx	r3
    ef58:	e1a03006 	mov	r3, r6
    ef5c:	e1a02007 	mov	r2, r7
    ef60:	e1a01005 	mov	r1, r5
    ef64:	e3a00028 	mov	r0, #40	; 0x28
    ef68:	eb000f03 	bl	12b7c <syscall3>
    ef6c:	e3700001 	cmn	r0, #1
    ef70:	e1a04000 	mov	r4, r0
    ef74:	0afffff7 	beq	ef58 <ipc_call_wait+0x6c>
    ef78:	e1a00004 	mov	r0, r4
    ef7c:	e24bd020 	sub	sp, fp, #32
    ef80:	e89d69f0 	ldm	sp, {r4, r5, r6, r7, r8, fp, sp, lr}
    ef84:	e12fff1e 	bx	lr
    ef88:	eb000643 	bl	1089c <get_proto_factor>
    ef8c:	e1a03000 	mov	r3, r0
    ef90:	e24b70b8 	sub	r7, fp, #184	; 0xb8
    ef94:	e1a00007 	mov	r0, r7
    ef98:	e5933004 	ldr	r3, [r3, #4]
    ef9c:	e1a0e00f 	mov	lr, pc
    efa0:	e12fff13 	bx	r3
    efa4:	e3550000 	cmp	r5, #0
    efa8:	ba000023 	blt	f03c <ipc_call_wait+0x150>
    efac:	e1a03008 	mov	r3, r8
    efb0:	e1a02004 	mov	r2, r4
    efb4:	e1a01005 	mov	r1, r5
    efb8:	e3a00025 	mov	r0, #37	; 0x25
    efbc:	eb000eee 	bl	12b7c <syscall3>
    efc0:	e3700001 	cmn	r0, #1
    efc4:	e1a06000 	mov	r6, r0
    efc8:	0afffff7 	beq	efac <ipc_call_wait+0xc0>
    efcc:	e3500000 	cmp	r0, #0
    efd0:	0a000019 	beq	f03c <ipc_call_wait+0x150>
    efd4:	eb000630 	bl	1089c <get_proto_factor>
    efd8:	e1a03000 	mov	r3, r0
    efdc:	e1a00007 	mov	r0, r7
    efe0:	e593300c 	ldr	r3, [r3, #12]
    efe4:	e1a0e00f 	mov	lr, pc
    efe8:	e12fff13 	bx	r3
    efec:	e1a03007 	mov	r3, r7
    eff0:	e1a02006 	mov	r2, r6
    eff4:	e1a01005 	mov	r1, r5
    eff8:	e3a00028 	mov	r0, #40	; 0x28
    effc:	eb000ede 	bl	12b7c <syscall3>
    f000:	e3700001 	cmn	r0, #1
    f004:	e1a04000 	mov	r4, r0
    f008:	0afffff7 	beq	efec <ipc_call_wait+0x100>
    f00c:	eb000622 	bl	1089c <get_proto_factor>
    f010:	e1a03000 	mov	r3, r0
    f014:	e1a00007 	mov	r0, r7
    f018:	e593300c 	ldr	r3, [r3, #12]
    f01c:	e1a0e00f 	mov	lr, pc
    f020:	e12fff13 	bx	r3
    f024:	e1a00004 	mov	r0, r4
    f028:	e24bd020 	sub	sp, fp, #32
    f02c:	e89d69f0 	ldm	sp, {r4, r5, r6, r7, r8, fp, sp, lr}
    f030:	e12fff1e 	bx	lr
    f034:	e3e04000 	mvn	r4, #0
    f038:	eaffffce 	b	ef78 <ipc_call_wait+0x8c>
    f03c:	e3e04000 	mvn	r4, #0
    f040:	eafffff1 	b	f00c <ipc_call_wait+0x120>

0000f044 <ipc_serv_reg>:
    f044:	e1a0c00d 	mov	ip, sp
    f048:	e92dd8f0 	push	{r4, r5, r6, r7, fp, ip, lr, pc}
    f04c:	e24cb004 	sub	fp, ip, #4
    f050:	e24ddf4a 	sub	sp, sp, #296	; 0x128
    f054:	e1a04000 	mov	r4, r0
    f058:	e3a0002d 	mov	r0, #45	; 0x2d
    f05c:	eb000ecc 	bl	12b94 <syscall0>
    f060:	e2505000 	subs	r5, r0, #0
    f064:	ba000041 	blt	f170 <ipc_serv_reg+0x12c>
    f068:	eb00060b 	bl	1089c <get_proto_factor>
    f06c:	e1a03000 	mov	r3, r0
    f070:	e24b60b0 	sub	r6, fp, #176	; 0xb0
    f074:	e5933004 	ldr	r3, [r3, #4]
    f078:	e1a00006 	mov	r0, r6
    f07c:	e1a0e00f 	mov	lr, pc
    f080:	e12fff13 	bx	r3
    f084:	eb000604 	bl	1089c <get_proto_factor>
    f088:	e1a03000 	mov	r3, r0
    f08c:	e24b7f51 	sub	r7, fp, #324	; 0x144
    f090:	e5933004 	ldr	r3, [r3, #4]
    f094:	e1a00007 	mov	r0, r7
    f098:	e1a0e00f 	mov	lr, pc
    f09c:	e12fff13 	bx	r3
    f0a0:	e1a03000 	mov	r3, r0
    f0a4:	e1a01004 	mov	r1, r4
    f0a8:	e1a00007 	mov	r0, r7
    f0ac:	e5933018 	ldr	r3, [r3, #24]
    f0b0:	e1a0e00f 	mov	lr, pc
    f0b4:	e12fff13 	bx	r3
    f0b8:	e1a03007 	mov	r3, r7
    f0bc:	e3a02000 	mov	r2, #0
    f0c0:	e1a01005 	mov	r1, r5
    f0c4:	e3a00025 	mov	r0, #37	; 0x25
    f0c8:	eb000eab 	bl	12b7c <syscall3>
    f0cc:	e3700001 	cmn	r0, #1
    f0d0:	e1a04000 	mov	r4, r0
    f0d4:	0afffff7 	beq	f0b8 <ipc_serv_reg+0x74>
    f0d8:	e3500000 	cmp	r0, #0
    f0dc:	0a00000e 	beq	f11c <ipc_serv_reg+0xd8>
    f0e0:	eb0005ed 	bl	1089c <get_proto_factor>
    f0e4:	e1a03000 	mov	r3, r0
    f0e8:	e1a00006 	mov	r0, r6
    f0ec:	e593300c 	ldr	r3, [r3, #12]
    f0f0:	e1a0e00f 	mov	lr, pc
    f0f4:	e12fff13 	bx	r3
    f0f8:	e1a03006 	mov	r3, r6
    f0fc:	e1a02004 	mov	r2, r4
    f100:	e1a01005 	mov	r1, r5
    f104:	e3a00028 	mov	r0, #40	; 0x28
    f108:	eb000e9b 	bl	12b7c <syscall3>
    f10c:	e3700001 	cmn	r0, #1
    f110:	0afffff8 	beq	f0f8 <ipc_serv_reg+0xb4>
    f114:	e3500000 	cmp	r0, #0
    f118:	0a000010 	beq	f160 <ipc_serv_reg+0x11c>
    f11c:	e3e04000 	mvn	r4, #0
    f120:	eb0005dd 	bl	1089c <get_proto_factor>
    f124:	e1a03000 	mov	r3, r0
    f128:	e1a00007 	mov	r0, r7
    f12c:	e593300c 	ldr	r3, [r3, #12]
    f130:	e1a0e00f 	mov	lr, pc
    f134:	e12fff13 	bx	r3
    f138:	eb0005d7 	bl	1089c <get_proto_factor>
    f13c:	e1a03000 	mov	r3, r0
    f140:	e1a00006 	mov	r0, r6
    f144:	e593300c 	ldr	r3, [r3, #12]
    f148:	e1a0e00f 	mov	lr, pc
    f14c:	e12fff13 	bx	r3
    f150:	e1a00004 	mov	r0, r4
    f154:	e24bd01c 	sub	sp, fp, #28
    f158:	e89d68f0 	ldm	sp, {r4, r5, r6, r7, fp, sp, lr}
    f15c:	e12fff1e 	bx	lr
    f160:	e1a00006 	mov	r0, r6
    f164:	eb00069a 	bl	10bd4 <proto_read_int>
    f168:	e1a04000 	mov	r4, r0
    f16c:	eaffffeb 	b	f120 <ipc_serv_reg+0xdc>
    f170:	e3e04000 	mvn	r4, #0
    f174:	eafffff5 	b	f150 <ipc_serv_reg+0x10c>

0000f178 <ipc_serv_get>:
    f178:	e1a0c00d 	mov	ip, sp
    f17c:	e92dd8f0 	push	{r4, r5, r6, r7, fp, ip, lr, pc}
    f180:	e24cb004 	sub	fp, ip, #4
    f184:	e24ddf4a 	sub	sp, sp, #296	; 0x128
    f188:	e1a04000 	mov	r4, r0
    f18c:	e3a0002d 	mov	r0, #45	; 0x2d
    f190:	eb000e7f 	bl	12b94 <syscall0>
    f194:	e2505000 	subs	r5, r0, #0
    f198:	ba000041 	blt	f2a4 <ipc_serv_get+0x12c>
    f19c:	eb0005be 	bl	1089c <get_proto_factor>
    f1a0:	e1a03000 	mov	r3, r0
    f1a4:	e24b60b0 	sub	r6, fp, #176	; 0xb0
    f1a8:	e5933004 	ldr	r3, [r3, #4]
    f1ac:	e1a00006 	mov	r0, r6
    f1b0:	e1a0e00f 	mov	lr, pc
    f1b4:	e12fff13 	bx	r3
    f1b8:	eb0005b7 	bl	1089c <get_proto_factor>
    f1bc:	e1a03000 	mov	r3, r0
    f1c0:	e24b7f51 	sub	r7, fp, #324	; 0x144
    f1c4:	e5933004 	ldr	r3, [r3, #4]
    f1c8:	e1a00007 	mov	r0, r7
    f1cc:	e1a0e00f 	mov	lr, pc
    f1d0:	e12fff13 	bx	r3
    f1d4:	e1a03000 	mov	r3, r0
    f1d8:	e1a01004 	mov	r1, r4
    f1dc:	e1a00007 	mov	r0, r7
    f1e0:	e5933018 	ldr	r3, [r3, #24]
    f1e4:	e1a0e00f 	mov	lr, pc
    f1e8:	e12fff13 	bx	r3
    f1ec:	e1a03007 	mov	r3, r7
    f1f0:	e3a02002 	mov	r2, #2
    f1f4:	e1a01005 	mov	r1, r5
    f1f8:	e3a00025 	mov	r0, #37	; 0x25
    f1fc:	eb000e5e 	bl	12b7c <syscall3>
    f200:	e3700001 	cmn	r0, #1
    f204:	e1a04000 	mov	r4, r0
    f208:	0afffff7 	beq	f1ec <ipc_serv_get+0x74>
    f20c:	e3500000 	cmp	r0, #0
    f210:	0a00000e 	beq	f250 <ipc_serv_get+0xd8>
    f214:	eb0005a0 	bl	1089c <get_proto_factor>
    f218:	e1a03000 	mov	r3, r0
    f21c:	e1a00006 	mov	r0, r6
    f220:	e593300c 	ldr	r3, [r3, #12]
    f224:	e1a0e00f 	mov	lr, pc
    f228:	e12fff13 	bx	r3
    f22c:	e1a03006 	mov	r3, r6
    f230:	e1a02004 	mov	r2, r4
    f234:	e1a01005 	mov	r1, r5
    f238:	e3a00028 	mov	r0, #40	; 0x28
    f23c:	eb000e4e 	bl	12b7c <syscall3>
    f240:	e3700001 	cmn	r0, #1
    f244:	0afffff8 	beq	f22c <ipc_serv_get+0xb4>
    f248:	e3500000 	cmp	r0, #0
    f24c:	0a000010 	beq	f294 <ipc_serv_get+0x11c>
    f250:	e3e04000 	mvn	r4, #0
    f254:	eb000590 	bl	1089c <get_proto_factor>
    f258:	e1a03000 	mov	r3, r0
    f25c:	e1a00007 	mov	r0, r7
    f260:	e593300c 	ldr	r3, [r3, #12]
    f264:	e1a0e00f 	mov	lr, pc
    f268:	e12fff13 	bx	r3
    f26c:	eb00058a 	bl	1089c <get_proto_factor>
    f270:	e1a03000 	mov	r3, r0
    f274:	e1a00006 	mov	r0, r6
    f278:	e593300c 	ldr	r3, [r3, #12]
    f27c:	e1a0e00f 	mov	lr, pc
    f280:	e12fff13 	bx	r3
    f284:	e1a00004 	mov	r0, r4
    f288:	e24bd01c 	sub	sp, fp, #28
    f28c:	e89d68f0 	ldm	sp, {r4, r5, r6, r7, fp, sp, lr}
    f290:	e12fff1e 	bx	lr
    f294:	e1a00006 	mov	r0, r6
    f298:	eb00064d 	bl	10bd4 <proto_read_int>
    f29c:	e1a04000 	mov	r4, r0
    f2a0:	eaffffeb 	b	f254 <ipc_serv_get+0xdc>
    f2a4:	e3e04000 	mvn	r4, #0
    f2a8:	eafffff5 	b	f284 <ipc_serv_get+0x10c>

0000f2ac <ipc_serv_unreg>:
    f2ac:	e1a0c00d 	mov	ip, sp
    f2b0:	e92dd8f0 	push	{r4, r5, r6, r7, fp, ip, lr, pc}
    f2b4:	e24cb004 	sub	fp, ip, #4
    f2b8:	e24ddf4a 	sub	sp, sp, #296	; 0x128
    f2bc:	e1a04000 	mov	r4, r0
    f2c0:	e3a0002d 	mov	r0, #45	; 0x2d
    f2c4:	eb000e32 	bl	12b94 <syscall0>
    f2c8:	e2505000 	subs	r5, r0, #0
    f2cc:	ba000041 	blt	f3d8 <ipc_serv_unreg+0x12c>
    f2d0:	eb000571 	bl	1089c <get_proto_factor>
    f2d4:	e1a03000 	mov	r3, r0
    f2d8:	e24b60b0 	sub	r6, fp, #176	; 0xb0
    f2dc:	e5933004 	ldr	r3, [r3, #4]
    f2e0:	e1a00006 	mov	r0, r6
    f2e4:	e1a0e00f 	mov	lr, pc
    f2e8:	e12fff13 	bx	r3
    f2ec:	eb00056a 	bl	1089c <get_proto_factor>
    f2f0:	e1a03000 	mov	r3, r0
    f2f4:	e24b7f51 	sub	r7, fp, #324	; 0x144
    f2f8:	e5933004 	ldr	r3, [r3, #4]
    f2fc:	e1a00007 	mov	r0, r7
    f300:	e1a0e00f 	mov	lr, pc
    f304:	e12fff13 	bx	r3
    f308:	e1a03000 	mov	r3, r0
    f30c:	e1a01004 	mov	r1, r4
    f310:	e1a00007 	mov	r0, r7
    f314:	e5933018 	ldr	r3, [r3, #24]
    f318:	e1a0e00f 	mov	lr, pc
    f31c:	e12fff13 	bx	r3
    f320:	e1a03007 	mov	r3, r7
    f324:	e3a02001 	mov	r2, #1
    f328:	e1a01005 	mov	r1, r5
    f32c:	e3a00025 	mov	r0, #37	; 0x25
    f330:	eb000e11 	bl	12b7c <syscall3>
    f334:	e3700001 	cmn	r0, #1
    f338:	e1a04000 	mov	r4, r0
    f33c:	0afffff7 	beq	f320 <ipc_serv_unreg+0x74>
    f340:	e3500000 	cmp	r0, #0
    f344:	0a00000e 	beq	f384 <ipc_serv_unreg+0xd8>
    f348:	eb000553 	bl	1089c <get_proto_factor>
    f34c:	e1a03000 	mov	r3, r0
    f350:	e1a00006 	mov	r0, r6
    f354:	e593300c 	ldr	r3, [r3, #12]
    f358:	e1a0e00f 	mov	lr, pc
    f35c:	e12fff13 	bx	r3
    f360:	e1a03006 	mov	r3, r6
    f364:	e1a02004 	mov	r2, r4
    f368:	e1a01005 	mov	r1, r5
    f36c:	e3a00028 	mov	r0, #40	; 0x28
    f370:	eb000e01 	bl	12b7c <syscall3>
    f374:	e3700001 	cmn	r0, #1
    f378:	0afffff8 	beq	f360 <ipc_serv_unreg+0xb4>
    f37c:	e3500000 	cmp	r0, #0
    f380:	0a000010 	beq	f3c8 <ipc_serv_unreg+0x11c>
    f384:	e3e04000 	mvn	r4, #0
    f388:	eb000543 	bl	1089c <get_proto_factor>
    f38c:	e1a03000 	mov	r3, r0
    f390:	e1a00007 	mov	r0, r7
    f394:	e593300c 	ldr	r3, [r3, #12]
    f398:	e1a0e00f 	mov	lr, pc
    f39c:	e12fff13 	bx	r3
    f3a0:	eb00053d 	bl	1089c <get_proto_factor>
    f3a4:	e1a03000 	mov	r3, r0
    f3a8:	e1a00006 	mov	r0, r6
    f3ac:	e593300c 	ldr	r3, [r3, #12]
    f3b0:	e1a0e00f 	mov	lr, pc
    f3b4:	e12fff13 	bx	r3
    f3b8:	e1a00004 	mov	r0, r4
    f3bc:	e24bd01c 	sub	sp, fp, #28
    f3c0:	e89d68f0 	ldm	sp, {r4, r5, r6, r7, fp, sp, lr}
    f3c4:	e12fff1e 	bx	lr
    f3c8:	e1a00006 	mov	r0, r6
    f3cc:	eb000600 	bl	10bd4 <proto_read_int>
    f3d0:	e1a04000 	mov	r4, r0
    f3d4:	eaffffeb 	b	f388 <ipc_serv_unreg+0xdc>
    f3d8:	e3e04000 	mvn	r4, #0
    f3dc:	eafffff5 	b	f3b8 <ipc_serv_unreg+0x10c>

0000f3e0 <ipc_serv_run>:
    f3e0:	e1a0c00d 	mov	ip, sp
    f3e4:	e92dd830 	push	{r4, r5, fp, ip, lr, pc}
    f3e8:	e1a04002 	mov	r4, r2
    f3ec:	e1a05003 	mov	r5, r3
    f3f0:	e24cb004 	sub	fp, ip, #4
    f3f4:	e59fc02c 	ldr	ip, [pc, #44]	; f428 <ipc_serv_run+0x48>
    f3f8:	e08fc00c 	add	ip, pc, ip
    f3fc:	e88c0003 	stm	ip, {r0, r1}
    f400:	eb0007e4 	bl	11398 <proc_ready_ping>
    f404:	e59f1020 	ldr	r1, [pc, #32]	; f42c <ipc_serv_run+0x4c>
    f408:	e1a03005 	mov	r3, r5
    f40c:	e1a02004 	mov	r2, r4
    f410:	e08f1001 	add	r1, pc, r1
    f414:	e3a00024 	mov	r0, #36	; 0x24
    f418:	eb000dd7 	bl	12b7c <syscall3>
    f41c:	e24bd014 	sub	sp, fp, #20
    f420:	e89d6830 	ldm	sp, {r4, r5, fp, sp, lr}
    f424:	e12fff1e 	bx	lr
    f428:	000197a0 	andeq	r9, r1, r0, lsr #15
    f42c:	fffff854 			; <UNDEFINED> instruction: 0xfffff854

0000f430 <sys_sig_default>:
    f430:	e1a0c00d 	mov	ip, sp
    f434:	e3500000 	cmp	r0, #0
    f438:	e92dd800 	push	{fp, ip, lr, pc}
    f43c:	e24cb004 	sub	fp, ip, #4
    f440:	0a000002 	beq	f450 <sys_sig_default+0x20>
    f444:	e24bd00c 	sub	sp, fp, #12
    f448:	e89d6800 	ldm	sp, {fp, sp, lr}
    f44c:	e12fff1e 	bx	lr
    f450:	eb000932 	bl	11920 <exit>
    f454:	e24bd00c 	sub	sp, fp, #12
    f458:	e89d6800 	ldm	sp, {fp, sp, lr}
    f45c:	e12fff1e 	bx	lr

0000f460 <_do_signal>:
    f460:	e1a0c00d 	mov	ip, sp
    f464:	e3500001 	cmp	r0, #1
    f468:	e92dd830 	push	{r4, r5, fp, ip, lr, pc}
    f46c:	e1a04000 	mov	r4, r0
    f470:	e24cb004 	sub	fp, ip, #4
    f474:	8a00000f 	bhi	f4b8 <_do_signal+0x58>
    f478:	e59f5054 	ldr	r5, [pc, #84]	; f4d4 <_do_signal+0x74>
    f47c:	e08f5005 	add	r5, pc, r5
    f480:	e7952180 	ldr	r2, [r5, r0, lsl #3]
    f484:	e3520000 	cmp	r2, #0
    f488:	0a00000a 	beq	f4b8 <_do_signal+0x58>
    f48c:	e3500001 	cmp	r0, #1
    f490:	0a00000b 	beq	f4c4 <_do_signal+0x64>
    f494:	e59f303c 	ldr	r3, [pc, #60]	; f4d8 <_do_signal+0x78>
    f498:	e08f3003 	add	r3, pc, r3
    f49c:	e1a00004 	mov	r0, r4
    f4a0:	e0834184 	add	r4, r3, r4, lsl #3
    f4a4:	e5941004 	ldr	r1, [r4, #4]
    f4a8:	e1a0e00f 	mov	lr, pc
    f4ac:	e12fff12 	bx	r2
    f4b0:	e3a00011 	mov	r0, #17
    f4b4:	eb000db6 	bl	12b94 <syscall0>
    f4b8:	e24bd014 	sub	sp, fp, #20
    f4bc:	e89d6830 	ldm	sp, {r4, r5, fp, sp, lr}
    f4c0:	e12fff1e 	bx	lr
    f4c4:	e3a00000 	mov	r0, #0
    f4c8:	eb000914 	bl	11920 <exit>
    f4cc:	e5952008 	ldr	r2, [r5, #8]
    f4d0:	eaffffef 	b	f494 <_do_signal+0x34>
    f4d4:	00019724 	andeq	r9, r1, r4, lsr #14
    f4d8:	00019708 	andeq	r9, r1, r8, lsl #14

0000f4dc <sys_sig_ignore>:
    f4dc:	e12fff1e 	bx	lr

0000f4e0 <sys_signal_init>:
    f4e0:	e1a0c00d 	mov	ip, sp
    f4e4:	e92dd800 	push	{fp, ip, lr, pc}
    f4e8:	e24cb004 	sub	fp, ip, #4
    f4ec:	e3a0c000 	mov	ip, #0
    f4f0:	e59f203c 	ldr	r2, [pc, #60]	; f534 <sys_signal_init+0x54>
    f4f4:	e59f103c 	ldr	r1, [pc, #60]	; f538 <sys_signal_init+0x58>
    f4f8:	e08f2002 	add	r2, pc, r2
    f4fc:	e59f3038 	ldr	r3, [pc, #56]	; f53c <sys_signal_init+0x5c>
    f500:	e792e001 	ldr	lr, [r2, r1]
    f504:	e59f1034 	ldr	r1, [pc, #52]	; f540 <sys_signal_init+0x60>
    f508:	e08f3003 	add	r3, pc, r3
    f50c:	e583e000 	str	lr, [r3]
    f510:	e583e008 	str	lr, [r3, #8]
    f514:	e583c004 	str	ip, [r3, #4]
    f518:	e583c00c 	str	ip, [r3, #12]
    f51c:	e08f1001 	add	r1, pc, r1
    f520:	e3a0000f 	mov	r0, #15
    f524:	eb000d97 	bl	12b88 <syscall1>
    f528:	e24bd00c 	sub	sp, fp, #12
    f52c:	e89d6800 	ldm	sp, {fp, sp, lr}
    f530:	e12fff1e 	bx	lr
    f534:	000186ec 	andeq	r8, r1, ip, ror #13
    f538:	00000034 	andeq	r0, r0, r4, lsr r0
    f53c:	00019698 	muleq	r1, r8, r6
    f540:	ffffff3c 			; <UNDEFINED> instruction: 0xffffff3c

0000f544 <sys_signal>:
    f544:	e3500001 	cmp	r0, #1
    f548:	e1a03000 	mov	r3, r0
    f54c:	e52de004 	push	{lr}		; (str lr, [sp, #-4]!)
    f550:	83a00000 	movhi	r0, #0
    f554:	8a000005 	bhi	f570 <sys_signal+0x2c>
    f558:	e59fc018 	ldr	ip, [pc, #24]	; f578 <sys_signal+0x34>
    f55c:	e08fc00c 	add	ip, pc, ip
    f560:	e08ce183 	add	lr, ip, r3, lsl #3
    f564:	e79c0183 	ldr	r0, [ip, r3, lsl #3]
    f568:	e58e2004 	str	r2, [lr, #4]
    f56c:	e78c1183 	str	r1, [ip, r3, lsl #3]
    f570:	e49de004 	pop	{lr}		; (ldr lr, [sp], #4)
    f574:	e12fff1e 	bx	lr
    f578:	00019644 	andeq	r9, r1, r4, asr #12

0000f57c <sig_stop>:
    f57c:	e3a03001 	mov	r3, #1
    f580:	e5c13000 	strb	r3, [r1]
    f584:	e12fff1e 	bx	lr

0000f588 <do_fcntl>:
    f588:	e1a0c00d 	mov	ip, sp
    f58c:	e92ddff0 	push	{r4, r5, r6, r7, r8, r9, sl, fp, ip, lr, pc}
    f590:	e24cb004 	sub	fp, ip, #4
    f594:	e24ddf69 	sub	sp, sp, #420	; 0x1a4
    f598:	e1a09000 	mov	r9, r0
    f59c:	e1a00002 	mov	r0, r2
    f5a0:	e1a05003 	mov	r5, r3
    f5a4:	e1a04002 	mov	r4, r2
    f5a8:	e50b11bc 	str	r1, [fp, #-444]	; 0xfffffe44
    f5ac:	eb000588 	bl	10bd4 <proto_read_int>
    f5b0:	e24bae1b 	sub	sl, fp, #432	; 0x1b0
    f5b4:	e1a0100a 	mov	r1, sl
    f5b8:	e3a0205c 	mov	r2, #92	; 0x5c
    f5bc:	e1a08000 	mov	r8, r0
    f5c0:	e1a00004 	mov	r0, r4
    f5c4:	eb000515 	bl	10a20 <proto_read_to>
    f5c8:	e1a00004 	mov	r0, r4
    f5cc:	eb000580 	bl	10bd4 <proto_read_int>
    f5d0:	e50b01b8 	str	r0, [fp, #-440]	; 0xfffffe48
    f5d4:	eb0004b0 	bl	1089c <get_proto_factor>
    f5d8:	e1a02000 	mov	r2, r0
    f5dc:	e24b60c0 	sub	r6, fp, #192	; 0xc0
    f5e0:	e5922004 	ldr	r2, [r2, #4]
    f5e4:	e1a00006 	mov	r0, r6
    f5e8:	e1a0e00f 	mov	lr, pc
    f5ec:	e12fff12 	bx	r2
    f5f0:	e24b1f6d 	sub	r1, fp, #436	; 0x1b4
    f5f4:	e1a00004 	mov	r0, r4
    f5f8:	eb0004e2 	bl	10988 <proto_read>
    f5fc:	e1a04000 	mov	r4, r0
    f600:	eb0004a5 	bl	1089c <get_proto_factor>
    f604:	e1a0c000 	mov	ip, r0
    f608:	e24b7f55 	sub	r7, fp, #340	; 0x154
    f60c:	e1a01004 	mov	r1, r4
    f610:	e1a00007 	mov	r0, r7
    f614:	e51b21b4 	ldr	r2, [fp, #-436]	; 0xfffffe4c
    f618:	e59c4000 	ldr	r4, [ip]
    f61c:	e1a0e00f 	mov	lr, pc
    f620:	e12fff14 	bx	r4
    f624:	e3590000 	cmp	r9, #0
    f628:	0a00000d 	beq	f664 <do_fcntl+0xdc>
    f62c:	e5994070 	ldr	r4, [r9, #112]	; 0x70
    f630:	e3540000 	cmp	r4, #0
    f634:	0a00000a 	beq	f664 <do_fcntl+0xdc>
    f638:	e59bc004 	ldr	ip, [fp, #4]
    f63c:	e1a0200a 	mov	r2, sl
    f640:	e1a00008 	mov	r0, r8
    f644:	e98d1040 	stmib	sp, {r6, ip}
    f648:	e51b31b8 	ldr	r3, [fp, #-440]	; 0xfffffe48
    f64c:	e51b11bc 	ldr	r1, [fp, #-444]	; 0xfffffe44
    f650:	e58d7000 	str	r7, [sp]
    f654:	e1a0e00f 	mov	lr, pc
    f658:	e12fff14 	bx	r4
    f65c:	e1a04000 	mov	r4, r0
    f660:	ea000000 	b	f668 <do_fcntl+0xe0>
    f664:	e3e04000 	mvn	r4, #0
    f668:	eb00048b 	bl	1089c <get_proto_factor>
    f66c:	e1a03000 	mov	r3, r0
    f670:	e1a00007 	mov	r0, r7
    f674:	e593300c 	ldr	r3, [r3, #12]
    f678:	e1a0e00f 	mov	lr, pc
    f67c:	e12fff13 	bx	r3
    f680:	eb000485 	bl	1089c <get_proto_factor>
    f684:	e1a03000 	mov	r3, r0
    f688:	e1a01004 	mov	r1, r4
    f68c:	e1a00005 	mov	r0, r5
    f690:	e5933014 	ldr	r3, [r3, #20]
    f694:	e1a0e00f 	mov	lr, pc
    f698:	e12fff13 	bx	r3
    f69c:	e1a03000 	mov	r3, r0
    f6a0:	e24b1040 	sub	r1, fp, #64	; 0x40
    f6a4:	e8910006 	ldm	r1, {r1, r2}
    f6a8:	e5933010 	ldr	r3, [r3, #16]
    f6ac:	e1a00005 	mov	r0, r5
    f6b0:	e1a0e00f 	mov	lr, pc
    f6b4:	e12fff13 	bx	r3
    f6b8:	eb000477 	bl	1089c <get_proto_factor>
    f6bc:	e1a03000 	mov	r3, r0
    f6c0:	e1a00006 	mov	r0, r6
    f6c4:	e593300c 	ldr	r3, [r3, #12]
    f6c8:	e1a0e00f 	mov	lr, pc
    f6cc:	e12fff13 	bx	r3
    f6d0:	e24bd028 	sub	sp, fp, #40	; 0x28
    f6d4:	e89d6ff0 	ldm	sp, {r4, r5, r6, r7, r8, r9, sl, fp, sp, lr}
    f6d8:	e12fff1e 	bx	lr

0000f6dc <do_dev_cntl>:
    f6dc:	e1a0c00d 	mov	ip, sp
    f6e0:	e92ddff0 	push	{r4, r5, r6, r7, r8, r9, sl, fp, ip, lr, pc}
    f6e4:	e24cb004 	sub	fp, ip, #4
    f6e8:	e24ddf4f 	sub	sp, sp, #316	; 0x13c
    f6ec:	e1a05000 	mov	r5, r0
    f6f0:	e1a00002 	mov	r0, r2
    f6f4:	e1a04002 	mov	r4, r2
    f6f8:	e1a06003 	mov	r6, r3
    f6fc:	e1a09001 	mov	r9, r1
    f700:	eb000533 	bl	10bd4 <proto_read_int>
    f704:	e24b1f56 	sub	r1, fp, #344	; 0x158
    f708:	e1a0a000 	mov	sl, r0
    f70c:	e1a00004 	mov	r0, r4
    f710:	eb00049c 	bl	10988 <proto_read>
    f714:	e1a04000 	mov	r4, r0
    f718:	eb00045f 	bl	1089c <get_proto_factor>
    f71c:	e1a03000 	mov	r3, r0
    f720:	e24b7f55 	sub	r7, fp, #340	; 0x154
    f724:	e5933004 	ldr	r3, [r3, #4]
    f728:	e1a00007 	mov	r0, r7
    f72c:	e1a0e00f 	mov	lr, pc
    f730:	e12fff13 	bx	r3
    f734:	eb000458 	bl	1089c <get_proto_factor>
    f738:	e1a03000 	mov	r3, r0
    f73c:	e24b80c0 	sub	r8, fp, #192	; 0xc0
    f740:	e5933004 	ldr	r3, [r3, #4]
    f744:	e1a00008 	mov	r0, r8
    f748:	e1a0e00f 	mov	lr, pc
    f74c:	e12fff13 	bx	r3
    f750:	eb000451 	bl	1089c <get_proto_factor>
    f754:	e1a03000 	mov	r3, r0
    f758:	e3e01000 	mvn	r1, #0
    f75c:	e1a00006 	mov	r0, r6
    f760:	e5933014 	ldr	r3, [r3, #20]
    f764:	e1a0e00f 	mov	lr, pc
    f768:	e12fff13 	bx	r3
    f76c:	e3540000 	cmp	r4, #0
    f770:	0a000007 	beq	f794 <do_dev_cntl+0xb8>
    f774:	eb000448 	bl	1089c <get_proto_factor>
    f778:	e1a03000 	mov	r3, r0
    f77c:	e1a01004 	mov	r1, r4
    f780:	e1a00007 	mov	r0, r7
    f784:	e51b2158 	ldr	r2, [fp, #-344]	; 0xfffffea8
    f788:	e5933008 	ldr	r3, [r3, #8]
    f78c:	e1a0e00f 	mov	lr, pc
    f790:	e12fff13 	bx	r3
    f794:	e3550000 	cmp	r5, #0
    f798:	0a00000c 	beq	f7d0 <do_dev_cntl+0xf4>
    f79c:	e5954048 	ldr	r4, [r5, #72]	; 0x48
    f7a0:	e3540000 	cmp	r4, #0
    f7a4:	0a000009 	beq	f7d0 <do_dev_cntl+0xf4>
    f7a8:	e59b2004 	ldr	r2, [fp, #4]
    f7ac:	e1a03008 	mov	r3, r8
    f7b0:	e58d2000 	str	r2, [sp]
    f7b4:	e1a0100a 	mov	r1, sl
    f7b8:	e1a00009 	mov	r0, r9
    f7bc:	e1a02007 	mov	r2, r7
    f7c0:	e1a0e00f 	mov	lr, pc
    f7c4:	e12fff14 	bx	r4
    f7c8:	e2504000 	subs	r4, r0, #0
    f7cc:	0a000008 	beq	f7f4 <do_dev_cntl+0x118>
    f7d0:	eb000431 	bl	1089c <get_proto_factor>
    f7d4:	e1a03000 	mov	r3, r0
    f7d8:	e1a00007 	mov	r0, r7
    f7dc:	e593300c 	ldr	r3, [r3, #12]
    f7e0:	e1a0e00f 	mov	lr, pc
    f7e4:	e12fff13 	bx	r3
    f7e8:	e24bd028 	sub	sp, fp, #40	; 0x28
    f7ec:	e89d6ff0 	ldm	sp, {r4, r5, r6, r7, r8, r9, sl, fp, sp, lr}
    f7f0:	e12fff1e 	bx	lr
    f7f4:	eb000428 	bl	1089c <get_proto_factor>
    f7f8:	e1a03000 	mov	r3, r0
    f7fc:	e1a00006 	mov	r0, r6
    f800:	e593300c 	ldr	r3, [r3, #12]
    f804:	e1a0e00f 	mov	lr, pc
    f808:	e12fff13 	bx	r3
    f80c:	e1a03000 	mov	r3, r0
    f810:	e1a01004 	mov	r1, r4
    f814:	e1a00006 	mov	r0, r6
    f818:	e5933014 	ldr	r3, [r3, #20]
    f81c:	e1a0e00f 	mov	lr, pc
    f820:	e12fff13 	bx	r3
    f824:	e1a03000 	mov	r3, r0
    f828:	e51b203c 	ldr	r2, [fp, #-60]	; 0xffffffc4
    f82c:	e1a00006 	mov	r0, r6
    f830:	e51b1040 	ldr	r1, [fp, #-64]	; 0xffffffc0
    f834:	e5933010 	ldr	r3, [r3, #16]
    f838:	e1a0e00f 	mov	lr, pc
    f83c:	e12fff13 	bx	r3
    f840:	eaffffe2 	b	f7d0 <do_dev_cntl+0xf4>

0000f844 <handle>:
    f844:	e1a0c00d 	mov	ip, sp
    f848:	e92ddff0 	push	{r4, r5, r6, r7, r8, r9, sl, fp, ip, lr, pc}
    f84c:	e24cb004 	sub	fp, ip, #4
    f850:	e24dd0dc 	sub	sp, sp, #220	; 0xdc
    f854:	e59b6004 	ldr	r6, [fp, #4]
    f858:	e3560000 	cmp	r6, #0
    f85c:	e1a07000 	mov	r7, r0
    f860:	e1a08001 	mov	r8, r1
    f864:	e1a04002 	mov	r4, r2
    f868:	e1a05003 	mov	r5, r3
    f86c:	0a000036 	beq	f94c <handle+0x108>
    f870:	eb000409 	bl	1089c <get_proto_factor>
    f874:	e1a03000 	mov	r3, r0
    f878:	e1a00005 	mov	r0, r5
    f87c:	e593300c 	ldr	r3, [r3, #12]
    f880:	e1a0e00f 	mov	lr, pc
    f884:	e12fff13 	bx	r3
    f888:	e2481001 	sub	r1, r8, #1
    f88c:	e5968044 	ldr	r8, [r6, #68]	; 0x44
    f890:	e351000f 	cmp	r1, #15
    f894:	908ff101 	addls	pc, pc, r1, lsl #2
    f898:	ea00002b 	b	f94c <handle+0x108>
    f89c:	ea000182 	b	feac <handle+0x668>
    f8a0:	ea00015e 	b	fe20 <handle+0x5dc>
    f8a4:	ea000146 	b	fdc4 <handle+0x580>
    f8a8:	ea000105 	b	fcc4 <handle+0x480>
    f8ac:	ea0000cc 	b	fbe4 <handle+0x3a0>
    f8b0:	ea0000a1 	b	fb3c <handle+0x2f8>
    f8b4:	ea000086 	b	fad4 <handle+0x290>
    f8b8:	ea000023 	b	f94c <handle+0x108>
    f8bc:	ea00005c 	b	fa34 <handle+0x1f0>
    f8c0:	ea000053 	b	fa14 <handle+0x1d0>
    f8c4:	ea000020 	b	f94c <handle+0x108>
    f8c8:	ea000041 	b	f9d4 <handle+0x190>
    f8cc:	ea000031 	b	f998 <handle+0x154>
    f8d0:	ea000001 	b	f8dc <handle+0x98>
    f8d4:	ea000027 	b	f978 <handle+0x134>
    f8d8:	ea00001e 	b	f958 <handle+0x114>
    f8dc:	e1a00004 	mov	r0, r4
    f8e0:	eb0004bb 	bl	10bd4 <proto_read_int>
    f8e4:	e3a01000 	mov	r1, #0
    f8e8:	e1a09000 	mov	r9, r0
    f8ec:	e1a00004 	mov	r0, r4
    f8f0:	eb000424 	bl	10988 <proto_read>
    f8f4:	e24ba088 	sub	sl, fp, #136	; 0x88
    f8f8:	e1a01000 	mov	r1, r0
    f8fc:	e3a0205c 	mov	r2, #92	; 0x5c
    f900:	e1a0000a 	mov	r0, sl
    f904:	eb00184f 	bl	15a48 <memcpy>
    f908:	e596406c 	ldr	r4, [r6, #108]	; 0x6c
    f90c:	e3540000 	cmp	r4, #0
    f910:	0a000006 	beq	f930 <handle+0xec>
    f914:	e1a03008 	mov	r3, r8
    f918:	e1a0200a 	mov	r2, sl
    f91c:	e1a01007 	mov	r1, r7
    f920:	e1a00009 	mov	r0, r9
    f924:	e1a0e00f 	mov	lr, pc
    f928:	e12fff14 	bx	r4
    f92c:	e1a04000 	mov	r4, r0
    f930:	eb0003d9 	bl	1089c <get_proto_factor>
    f934:	e1a03000 	mov	r3, r0
    f938:	e1a01004 	mov	r1, r4
    f93c:	e1a00005 	mov	r0, r5
    f940:	e5933014 	ldr	r3, [r3, #20]
    f944:	e1a0e00f 	mov	lr, pc
    f948:	e12fff13 	bx	r3
    f94c:	e24bd028 	sub	sp, fp, #40	; 0x28
    f950:	e89d6ff0 	ldm	sp, {r4, r5, r6, r7, r8, r9, sl, fp, sp, lr}
    f954:	e12fff1e 	bx	lr
    f958:	e1a03005 	mov	r3, r5
    f95c:	e1a02004 	mov	r2, r4
    f960:	e1a01007 	mov	r1, r7
    f964:	e1a00006 	mov	r0, r6
    f968:	e58b8004 	str	r8, [fp, #4]
    f96c:	e24bd028 	sub	sp, fp, #40	; 0x28
    f970:	e89d6ff0 	ldm	sp, {r4, r5, r6, r7, r8, r9, sl, fp, sp, lr}
    f974:	eaffff58 	b	f6dc <do_dev_cntl>
    f978:	e5963084 	ldr	r3, [r6, #132]	; 0x84
    f97c:	e3530000 	cmp	r3, #0
    f980:	0afffff1 	beq	f94c <handle+0x108>
    f984:	e1a01008 	mov	r1, r8
    f988:	e1a00004 	mov	r0, r4
    f98c:	e24bd028 	sub	sp, fp, #40	; 0x28
    f990:	e89d6ff0 	ldm	sp, {r4, r5, r6, r7, r8, r9, sl, fp, sp, lr}
    f994:	e12fff13 	bx	r3
    f998:	e24b7088 	sub	r7, fp, #136	; 0x88
    f99c:	e1a00004 	mov	r0, r4
    f9a0:	e3a0205c 	mov	r2, #92	; 0x5c
    f9a4:	e1a01007 	mov	r1, r7
    f9a8:	eb00041c 	bl	10a20 <proto_read_to>
    f9ac:	e5963080 	ldr	r3, [r6, #128]	; 0x80
    f9b0:	e3530000 	cmp	r3, #0
    f9b4:	03e04000 	mvneq	r4, #0
    f9b8:	0affffdc 	beq	f930 <handle+0xec>
    f9bc:	e1a01008 	mov	r1, r8
    f9c0:	e1a00007 	mov	r0, r7
    f9c4:	e1a0e00f 	mov	lr, pc
    f9c8:	e12fff13 	bx	r3
    f9cc:	e1a04000 	mov	r4, r0
    f9d0:	eaffffd6 	b	f930 <handle+0xec>
    f9d4:	e3a0205c 	mov	r2, #92	; 0x5c
    f9d8:	e24b10e4 	sub	r1, fp, #228	; 0xe4
    f9dc:	e1a00004 	mov	r0, r4
    f9e0:	eb00040e 	bl	10a20 <proto_read_to>
    f9e4:	e1a00004 	mov	r0, r4
    f9e8:	eb00049a 	bl	10c58 <proto_read_str>
    f9ec:	e596307c 	ldr	r3, [r6, #124]	; 0x7c
    f9f0:	e3530000 	cmp	r3, #0
    f9f4:	0a00014e 	beq	ff34 <handle+0x6f0>
    f9f8:	e1a01000 	mov	r1, r0
    f9fc:	e1a02008 	mov	r2, r8
    fa00:	e24b0088 	sub	r0, fp, #136	; 0x88
    fa04:	e1a0e00f 	mov	lr, pc
    fa08:	e12fff13 	bx	r3
    fa0c:	e1a04000 	mov	r4, r0
    fa10:	eaffffc6 	b	f930 <handle+0xec>
    fa14:	e1a03005 	mov	r3, r5
    fa18:	e1a02004 	mov	r2, r4
    fa1c:	e1a01007 	mov	r1, r7
    fa20:	e1a00006 	mov	r0, r6
    fa24:	e58b8004 	str	r8, [fp, #4]
    fa28:	e24bd028 	sub	sp, fp, #40	; 0x28
    fa2c:	e89d6ff0 	ldm	sp, {r4, r5, r6, r7, r8, r9, sl, fp, sp, lr}
    fa30:	eafffed4 	b	f588 <do_fcntl>
    fa34:	e1a00004 	mov	r0, r4
    fa38:	eb000465 	bl	10bd4 <proto_read_int>
    fa3c:	e1a03000 	mov	r3, r0
    fa40:	e3a01000 	mov	r1, #0
    fa44:	e1a00004 	mov	r0, r4
    fa48:	e1a04003 	mov	r4, r3
    fa4c:	eb0003cd 	bl	10988 <proto_read>
    fa50:	e24b9088 	sub	r9, fp, #136	; 0x88
    fa54:	e1a01000 	mov	r1, r0
    fa58:	e3a0205c 	mov	r2, #92	; 0x5c
    fa5c:	e1a00009 	mov	r0, r9
    fa60:	eb0017f8 	bl	15a48 <memcpy>
    fa64:	e3a03000 	mov	r3, #0
    fa68:	e5966068 	ldr	r6, [r6, #104]	; 0x68
    fa6c:	e3560000 	cmp	r6, #0
    fa70:	03e04000 	mvneq	r4, #0
    fa74:	e50b30e4 	str	r3, [fp, #-228]	; 0xffffff1c
    fa78:	0a000007 	beq	fa9c <handle+0x258>
    fa7c:	e1a00004 	mov	r0, r4
    fa80:	e1a02009 	mov	r2, r9
    fa84:	e1a01007 	mov	r1, r7
    fa88:	e58d8000 	str	r8, [sp]
    fa8c:	e24b30e4 	sub	r3, fp, #228	; 0xe4
    fa90:	e1a0e00f 	mov	lr, pc
    fa94:	e12fff16 	bx	r6
    fa98:	e1a04000 	mov	r4, r0
    fa9c:	eb00037e 	bl	1089c <get_proto_factor>
    faa0:	e1a03000 	mov	r3, r0
    faa4:	e1a01004 	mov	r1, r4
    faa8:	e1a00005 	mov	r0, r5
    faac:	e5933014 	ldr	r3, [r3, #20]
    fab0:	e1a0e00f 	mov	lr, pc
    fab4:	e12fff13 	bx	r3
    fab8:	e1a03000 	mov	r3, r0
    fabc:	e51b10e4 	ldr	r1, [fp, #-228]	; 0xffffff1c
    fac0:	e1a00005 	mov	r0, r5
    fac4:	e5933014 	ldr	r3, [r3, #20]
    fac8:	e1a0e00f 	mov	lr, pc
    facc:	e12fff13 	bx	r3
    fad0:	eaffff9d 	b	f94c <handle+0x108>
    fad4:	e1a00004 	mov	r0, r4
    fad8:	e24b1088 	sub	r1, fp, #136	; 0x88
    fadc:	eb0003a9 	bl	10988 <proto_read>
    fae0:	e1a01000 	mov	r1, r0
    fae4:	e1a00004 	mov	r0, r4
    fae8:	e1a04001 	mov	r4, r1
    faec:	eb000438 	bl	10bd4 <proto_read_int>
    faf0:	e5966064 	ldr	r6, [r6, #100]	; 0x64
    faf4:	e3560000 	cmp	r6, #0
    faf8:	e1a03000 	mov	r3, r0
    fafc:	0a000104 	beq	ff14 <handle+0x6d0>
    fb00:	e1a01004 	mov	r1, r4
    fb04:	e51b2088 	ldr	r2, [fp, #-136]	; 0xffffff78
    fb08:	e1a00007 	mov	r0, r7
    fb0c:	e58d8000 	str	r8, [sp]
    fb10:	e1a0e00f 	mov	lr, pc
    fb14:	e12fff16 	bx	r6
    fb18:	e50b0088 	str	r0, [fp, #-136]	; 0xffffff78
    fb1c:	eb00035e 	bl	1089c <get_proto_factor>
    fb20:	e1a03000 	mov	r3, r0
    fb24:	e51b1088 	ldr	r1, [fp, #-136]	; 0xffffff78
    fb28:	e1a00005 	mov	r0, r5
    fb2c:	e5933014 	ldr	r3, [r3, #20]
    fb30:	e1a0e00f 	mov	lr, pc
    fb34:	e12fff13 	bx	r3
    fb38:	eaffff83 	b	f94c <handle+0x108>
    fb3c:	e1a00004 	mov	r0, r4
    fb40:	eb000423 	bl	10bd4 <proto_read_int>
    fb44:	e1a09000 	mov	r9, r0
    fb48:	e1a00004 	mov	r0, r4
    fb4c:	eb000420 	bl	10bd4 <proto_read_int>
    fb50:	e1a03000 	mov	r3, r0
    fb54:	e1a00004 	mov	r0, r4
    fb58:	e50b30e8 	str	r3, [fp, #-232]	; 0xffffff18
    fb5c:	eb00041c 	bl	10bd4 <proto_read_int>
    fb60:	e5963060 	ldr	r3, [r6, #96]	; 0x60
    fb64:	e3530000 	cmp	r3, #0
    fb68:	e1a04000 	mov	r4, r0
    fb6c:	0a0000f2 	beq	ff3c <handle+0x6f8>
    fb70:	e3500000 	cmp	r0, #0
    fb74:	ba000116 	blt	ffd4 <handle+0x790>
    fb78:	eb000599 	bl	111e4 <shm_map>
    fb7c:	e1a0a000 	mov	sl, r0
    fb80:	e35a0000 	cmp	sl, #0
    fb84:	0a0000ec 	beq	ff3c <handle+0x6f8>
    fb88:	e58d8000 	str	r8, [sp]
    fb8c:	e1a02009 	mov	r2, r9
    fb90:	e1a0100a 	mov	r1, sl
    fb94:	e51b30e8 	ldr	r3, [fp, #-232]	; 0xffffff18
    fb98:	e5966060 	ldr	r6, [r6, #96]	; 0x60
    fb9c:	e1a00007 	mov	r0, r7
    fba0:	e1a0e00f 	mov	lr, pc
    fba4:	e12fff16 	bx	r6
    fba8:	e1a06000 	mov	r6, r0
    fbac:	eb00033a 	bl	1089c <get_proto_factor>
    fbb0:	e1a03000 	mov	r3, r0
    fbb4:	e1a01006 	mov	r1, r6
    fbb8:	e1a00005 	mov	r0, r5
    fbbc:	e5933014 	ldr	r3, [r3, #20]
    fbc0:	e1a0e00f 	mov	lr, pc
    fbc4:	e12fff13 	bx	r3
    fbc8:	e3560000 	cmp	r6, #0
    fbcc:	da000108 	ble	fff4 <handle+0x7b0>
    fbd0:	e3540000 	cmp	r4, #0
    fbd4:	ba000115 	blt	10030 <handle+0x7ec>
    fbd8:	e1a00004 	mov	r0, r4
    fbdc:	eb000589 	bl	11208 <shm_unmap>
    fbe0:	eaffff59 	b	f94c <handle+0x108>
    fbe4:	e1a00004 	mov	r0, r4
    fbe8:	eb0003f9 	bl	10bd4 <proto_read_int>
    fbec:	e1a03000 	mov	r3, r0
    fbf0:	e3a01000 	mov	r1, #0
    fbf4:	e1a00004 	mov	r0, r4
    fbf8:	e50b30e8 	str	r3, [fp, #-232]	; 0xffffff18
    fbfc:	eb000361 	bl	10988 <proto_read>
    fc00:	e24b9088 	sub	r9, fp, #136	; 0x88
    fc04:	e1a01000 	mov	r1, r0
    fc08:	e3a0205c 	mov	r2, #92	; 0x5c
    fc0c:	e1a00009 	mov	r0, r9
    fc10:	eb00178c 	bl	15a48 <memcpy>
    fc14:	e1a00004 	mov	r0, r4
    fc18:	eb0003ed 	bl	10bd4 <proto_read_int>
    fc1c:	e1a03000 	mov	r3, r0
    fc20:	e1a00004 	mov	r0, r4
    fc24:	e50b30ec 	str	r3, [fp, #-236]	; 0xffffff14
    fc28:	eb0003e9 	bl	10bd4 <proto_read_int>
    fc2c:	e596305c 	ldr	r3, [r6, #92]	; 0x5c
    fc30:	e3530000 	cmp	r3, #0
    fc34:	e1a0a000 	mov	sl, r0
    fc38:	0a0000b5 	beq	ff14 <handle+0x6d0>
    fc3c:	e35a0000 	cmp	sl, #0
    fc40:	e1a00004 	mov	r0, r4
    fc44:	ba0000e6 	blt	ffe4 <handle+0x7a0>
    fc48:	eb0003e1 	bl	10bd4 <proto_read_int>
    fc4c:	e50b00e4 	str	r0, [fp, #-228]	; 0xffffff1c
    fc50:	e1a0000a 	mov	r0, sl
    fc54:	eb000562 	bl	111e4 <shm_map>
    fc58:	e1a03000 	mov	r3, r0
    fc5c:	e3530000 	cmp	r3, #0
    fc60:	0a0000ea 	beq	10010 <handle+0x7cc>
    fc64:	e51b20ec 	ldr	r2, [fp, #-236]	; 0xffffff14
    fc68:	e51bc0e4 	ldr	ip, [fp, #-228]	; 0xffffff1c
    fc6c:	e58d2004 	str	r2, [sp, #4]
    fc70:	e58d8008 	str	r8, [sp, #8]
    fc74:	e1a01007 	mov	r1, r7
    fc78:	e1a02009 	mov	r2, r9
    fc7c:	e596405c 	ldr	r4, [r6, #92]	; 0x5c
    fc80:	e51b00e8 	ldr	r0, [fp, #-232]	; 0xffffff18
    fc84:	e58dc000 	str	ip, [sp]
    fc88:	e1a0e00f 	mov	lr, pc
    fc8c:	e12fff14 	bx	r4
    fc90:	e50b00e4 	str	r0, [fp, #-228]	; 0xffffff1c
    fc94:	eb000300 	bl	1089c <get_proto_factor>
    fc98:	e1a03000 	mov	r3, r0
    fc9c:	e51b10e4 	ldr	r1, [fp, #-228]	; 0xffffff1c
    fca0:	e1a00005 	mov	r0, r5
    fca4:	e5933014 	ldr	r3, [r3, #20]
    fca8:	e1a0e00f 	mov	lr, pc
    fcac:	e12fff13 	bx	r3
    fcb0:	e35a0000 	cmp	sl, #0
    fcb4:	baffff24 	blt	f94c <handle+0x108>
    fcb8:	e1a0000a 	mov	r0, sl
    fcbc:	eb000551 	bl	11208 <shm_unmap>
    fcc0:	eaffff21 	b	f94c <handle+0x108>
    fcc4:	e1a00004 	mov	r0, r4
    fcc8:	eb0003c1 	bl	10bd4 <proto_read_int>
    fccc:	e1a03000 	mov	r3, r0
    fcd0:	e24b9088 	sub	r9, fp, #136	; 0x88
    fcd4:	e3a0205c 	mov	r2, #92	; 0x5c
    fcd8:	e1a01009 	mov	r1, r9
    fcdc:	e1a00004 	mov	r0, r4
    fce0:	e50b30ec 	str	r3, [fp, #-236]	; 0xffffff14
    fce4:	eb00034d 	bl	10a20 <proto_read_to>
    fce8:	e1a00004 	mov	r0, r4
    fcec:	eb0003b8 	bl	10bd4 <proto_read_int>
    fcf0:	e1a03000 	mov	r3, r0
    fcf4:	e1a00004 	mov	r0, r4
    fcf8:	e50b30e8 	str	r3, [fp, #-232]	; 0xffffff18
    fcfc:	eb0003b4 	bl	10bd4 <proto_read_int>
    fd00:	e1a03000 	mov	r3, r0
    fd04:	e1a00004 	mov	r0, r4
    fd08:	e50b30f0 	str	r3, [fp, #-240]	; 0xffffff10
    fd0c:	eb0003b0 	bl	10bd4 <proto_read_int>
    fd10:	e596a058 	ldr	sl, [r6, #88]	; 0x58
    fd14:	e35a0000 	cmp	sl, #0
    fd18:	e1a04000 	mov	r4, r0
    fd1c:	0a00007c 	beq	ff14 <handle+0x6d0>
    fd20:	e3500000 	cmp	r0, #0
    fd24:	aa00008c 	bge	ff5c <handle+0x718>
    fd28:	e51b30e8 	ldr	r3, [fp, #-232]	; 0xffffff18
    fd2c:	e3530020 	cmp	r3, #32
    fd30:	ca0000b2 	bgt	10000 <handle+0x7bc>
    fd34:	e51b30f0 	ldr	r3, [fp, #-240]	; 0xffffff10
    fd38:	e58d8008 	str	r8, [sp, #8]
    fd3c:	e58d3004 	str	r3, [sp, #4]
    fd40:	e24b00ec 	sub	r0, fp, #236	; 0xec
    fd44:	e8900009 	ldm	r0, {r0, r3}
    fd48:	e24b40e4 	sub	r4, fp, #228	; 0xe4
    fd4c:	e1a02009 	mov	r2, r9
    fd50:	e1a01007 	mov	r1, r7
    fd54:	e58d3000 	str	r3, [sp]
    fd58:	e1a03004 	mov	r3, r4
    fd5c:	e1a0e00f 	mov	lr, pc
    fd60:	e12fff1a 	bx	sl
    fd64:	e1a06000 	mov	r6, r0
    fd68:	eb0002cb 	bl	1089c <get_proto_factor>
    fd6c:	e1a03000 	mov	r3, r0
    fd70:	e1a01006 	mov	r1, r6
    fd74:	e1a00005 	mov	r0, r5
    fd78:	e5933014 	ldr	r3, [r3, #20]
    fd7c:	e1a0e00f 	mov	lr, pc
    fd80:	e12fff13 	bx	r3
    fd84:	e3560000 	cmp	r6, #0
    fd88:	dafffeef 	ble	f94c <handle+0x108>
    fd8c:	e1a0a004 	mov	sl, r4
    fd90:	eb0002c1 	bl	1089c <get_proto_factor>
    fd94:	e1a03000 	mov	r3, r0
    fd98:	e1a02006 	mov	r2, r6
    fd9c:	e1a0100a 	mov	r1, sl
    fda0:	e1a00005 	mov	r0, r5
    fda4:	e5933010 	ldr	r3, [r3, #16]
    fda8:	e1a0e00f 	mov	lr, pc
    fdac:	e12fff13 	bx	r3
    fdb0:	e15a0004 	cmp	sl, r4
    fdb4:	0afffee4 	beq	f94c <handle+0x108>
    fdb8:	e1a0000a 	mov	r0, sl
    fdbc:	eb0006e0 	bl	11944 <free>
    fdc0:	eafffee1 	b	f94c <handle+0x108>
    fdc4:	e1a00004 	mov	r0, r4
    fdc8:	eb000381 	bl	10bd4 <proto_read_int>
    fdcc:	e1a05000 	mov	r5, r0
    fdd0:	e1a00004 	mov	r0, r4
    fdd4:	eb00037e 	bl	10bd4 <proto_read_int>
    fdd8:	e1a03000 	mov	r3, r0
    fddc:	e24b9088 	sub	r9, fp, #136	; 0x88
    fde0:	e3530000 	cmp	r3, #0
    fde4:	e1a00004 	mov	r0, r4
    fde8:	e3a0205c 	mov	r2, #92	; 0x5c
    fdec:	e1a01009 	mov	r1, r9
    fdf0:	a1a07003 	movge	r7, r3
    fdf4:	eb000309 	bl	10a20 <proto_read_to>
    fdf8:	e5964054 	ldr	r4, [r6, #84]	; 0x54
    fdfc:	e3540000 	cmp	r4, #0
    fe00:	0afffed1 	beq	f94c <handle+0x108>
    fe04:	e1a03008 	mov	r3, r8
    fe08:	e1a02009 	mov	r2, r9
    fe0c:	e1a01007 	mov	r1, r7
    fe10:	e1a00005 	mov	r0, r5
    fe14:	e1a0e00f 	mov	lr, pc
    fe18:	e12fff14 	bx	r4
    fe1c:	eafffeca 	b	f94c <handle+0x108>
    fe20:	e24b70e4 	sub	r7, fp, #228	; 0xe4
    fe24:	e3a0205c 	mov	r2, #92	; 0x5c
    fe28:	e1a01007 	mov	r1, r7
    fe2c:	e1a00004 	mov	r0, r4
    fe30:	e24b9088 	sub	r9, fp, #136	; 0x88
    fe34:	eb0002f9 	bl	10a20 <proto_read_to>
    fe38:	e1a00004 	mov	r0, r4
    fe3c:	e3a0205c 	mov	r2, #92	; 0x5c
    fe40:	e1a01009 	mov	r1, r9
    fe44:	eb0002f5 	bl	10a20 <proto_read_to>
    fe48:	e5963050 	ldr	r3, [r6, #80]	; 0x50
    fe4c:	e3530000 	cmp	r3, #0
    fe50:	03e04000 	mvneq	r4, #0
    fe54:	0a000005 	beq	fe70 <handle+0x62c>
    fe58:	e1a02008 	mov	r2, r8
    fe5c:	e1a01009 	mov	r1, r9
    fe60:	e1a00007 	mov	r0, r7
    fe64:	e1a0e00f 	mov	lr, pc
    fe68:	e12fff13 	bx	r3
    fe6c:	e1a04000 	mov	r4, r0
    fe70:	eb000289 	bl	1089c <get_proto_factor>
    fe74:	e1a03000 	mov	r3, r0
    fe78:	e1a01004 	mov	r1, r4
    fe7c:	e1a00005 	mov	r0, r5
    fe80:	e5933014 	ldr	r3, [r3, #20]
    fe84:	e1a0e00f 	mov	lr, pc
    fe88:	e12fff13 	bx	r3
    fe8c:	e1a03000 	mov	r3, r0
    fe90:	e3a0205c 	mov	r2, #92	; 0x5c
    fe94:	e1a01009 	mov	r1, r9
    fe98:	e1a00005 	mov	r0, r5
    fe9c:	e5933010 	ldr	r3, [r3, #16]
    fea0:	e1a0e00f 	mov	lr, pc
    fea4:	e12fff13 	bx	r3
    fea8:	eafffea7 	b	f94c <handle+0x108>
    feac:	e1a00004 	mov	r0, r4
    feb0:	eb000347 	bl	10bd4 <proto_read_int>
    feb4:	e1a09000 	mov	r9, r0
    feb8:	e24ba088 	sub	sl, fp, #136	; 0x88
    febc:	e3a0205c 	mov	r2, #92	; 0x5c
    fec0:	e1a0100a 	mov	r1, sl
    fec4:	e1a00004 	mov	r0, r4
    fec8:	eb0002d4 	bl	10a20 <proto_read_to>
    fecc:	e1a00004 	mov	r0, r4
    fed0:	eb00033f 	bl	10bd4 <proto_read_int>
    fed4:	e3590000 	cmp	r9, #0
    fed8:	ba000015 	blt	ff34 <handle+0x6f0>
    fedc:	e596404c 	ldr	r4, [r6, #76]	; 0x4c
    fee0:	e3540000 	cmp	r4, #0
    fee4:	0afffe91 	beq	f930 <handle+0xec>
    fee8:	e1a03000 	mov	r3, r0
    feec:	e1a0200a 	mov	r2, sl
    fef0:	e1a01007 	mov	r1, r7
    fef4:	e1a00009 	mov	r0, r9
    fef8:	e58d8000 	str	r8, [sp]
    fefc:	e1a0e00f 	mov	lr, pc
    ff00:	e12fff14 	bx	r4
    ff04:	e2504000 	subs	r4, r0, #0
    ff08:	13a04001 	movne	r4, #1
    ff0c:	e2644000 	rsb	r4, r4, #0
    ff10:	eafffe86 	b	f930 <handle+0xec>
    ff14:	eb000260 	bl	1089c <get_proto_factor>
    ff18:	e1a03000 	mov	r3, r0
    ff1c:	e3e01000 	mvn	r1, #0
    ff20:	e1a00005 	mov	r0, r5
    ff24:	e5933014 	ldr	r3, [r3, #20]
    ff28:	e1a0e00f 	mov	lr, pc
    ff2c:	e12fff13 	bx	r3
    ff30:	eafffe85 	b	f94c <handle+0x108>
    ff34:	e3a04000 	mov	r4, #0
    ff38:	eafffe7c 	b	f930 <handle+0xec>
    ff3c:	eb000256 	bl	1089c <get_proto_factor>
    ff40:	e1a03000 	mov	r3, r0
    ff44:	e3e01000 	mvn	r1, #0
    ff48:	e1a00005 	mov	r0, r5
    ff4c:	e5933014 	ldr	r3, [r3, #20]
    ff50:	e24bd028 	sub	sp, fp, #40	; 0x28
    ff54:	e89d6ff0 	ldm	sp, {r4, r5, r6, r7, r8, r9, sl, fp, sp, lr}
    ff58:	e12fff13 	bx	r3
    ff5c:	eb0004a0 	bl	111e4 <shm_map>
    ff60:	e1a0a000 	mov	sl, r0
    ff64:	e35a0000 	cmp	sl, #0
    ff68:	0affffe9 	beq	ff14 <handle+0x6d0>
    ff6c:	e51b30f0 	ldr	r3, [fp, #-240]	; 0xffffff10
    ff70:	e58d3004 	str	r3, [sp, #4]
    ff74:	e51b30e8 	ldr	r3, [fp, #-232]	; 0xffffff18
    ff78:	e58d8008 	str	r8, [sp, #8]
    ff7c:	e58d3000 	str	r3, [sp]
    ff80:	e1a02009 	mov	r2, r9
    ff84:	e1a01007 	mov	r1, r7
    ff88:	e1a0300a 	mov	r3, sl
    ff8c:	e5966058 	ldr	r6, [r6, #88]	; 0x58
    ff90:	e51b00ec 	ldr	r0, [fp, #-236]	; 0xffffff14
    ff94:	e1a0e00f 	mov	lr, pc
    ff98:	e12fff16 	bx	r6
    ff9c:	e1a06000 	mov	r6, r0
    ffa0:	eb00023d 	bl	1089c <get_proto_factor>
    ffa4:	e1a03000 	mov	r3, r0
    ffa8:	e1a01006 	mov	r1, r6
    ffac:	e1a00005 	mov	r0, r5
    ffb0:	e5933014 	ldr	r3, [r3, #20]
    ffb4:	e1a0e00f 	mov	lr, pc
    ffb8:	e12fff13 	bx	r3
    ffbc:	e3560000 	cmp	r6, #0
    ffc0:	da000023 	ble	10054 <handle+0x810>
    ffc4:	e3540000 	cmp	r4, #0
    ffc8:	b24b40e4 	sublt	r4, fp, #228	; 0xe4
    ffcc:	aaffff01 	bge	fbd8 <handle+0x394>
    ffd0:	eaffff6e 	b	fd90 <handle+0x54c>
    ffd4:	e1a00009 	mov	r0, r9
    ffd8:	eb000662 	bl	11968 <malloc>
    ffdc:	e1a0a000 	mov	sl, r0
    ffe0:	eafffee6 	b	fb80 <handle+0x33c>
    ffe4:	e24b10e4 	sub	r1, fp, #228	; 0xe4
    ffe8:	eb000266 	bl	10988 <proto_read>
    ffec:	e1a03000 	mov	r3, r0
    fff0:	eaffff19 	b	fc5c <handle+0x418>
    fff4:	e3540000 	cmp	r4, #0
    fff8:	baffff6e 	blt	fdb8 <handle+0x574>
    fffc:	eafffef5 	b	fbd8 <handle+0x394>
   10000:	e1a00003 	mov	r0, r3
   10004:	eb000657 	bl	11968 <malloc>
   10008:	e1a0a000 	mov	sl, r0
   1000c:	eaffffd4 	b	ff64 <handle+0x720>
   10010:	eb000221 	bl	1089c <get_proto_factor>
   10014:	e1a03000 	mov	r3, r0
   10018:	e3e01000 	mvn	r1, #0
   1001c:	e1a00005 	mov	r0, r5
   10020:	e5933014 	ldr	r3, [r3, #20]
   10024:	e1a0e00f 	mov	lr, pc
   10028:	e12fff13 	bx	r3
   1002c:	eaffff1f 	b	fcb0 <handle+0x46c>
   10030:	eb000219 	bl	1089c <get_proto_factor>
   10034:	e1a03000 	mov	r3, r0
   10038:	e1a02006 	mov	r2, r6
   1003c:	e1a0100a 	mov	r1, sl
   10040:	e1a00005 	mov	r0, r5
   10044:	e5933010 	ldr	r3, [r3, #16]
   10048:	e1a0e00f 	mov	lr, pc
   1004c:	e12fff13 	bx	r3
   10050:	eaffff58 	b	fdb8 <handle+0x574>
   10054:	e3540000 	cmp	r4, #0
   10058:	aafffede 	bge	fbd8 <handle+0x394>
   1005c:	e24b40e4 	sub	r4, fp, #228	; 0xe4
   10060:	eaffff52 	b	fdb0 <handle+0x56c>

00010064 <device_run>:
   10064:	e1a0c00d 	mov	ip, sp
   10068:	e92dd9f0 	push	{r4, r5, r6, r7, r8, fp, ip, lr, pc}
   1006c:	e24cb004 	sub	fp, ip, #4
   10070:	e24dd0c4 	sub	sp, sp, #196	; 0xc4
   10074:	e2504000 	subs	r4, r0, #0
   10078:	e1a07001 	mov	r7, r1
   1007c:	e1a08002 	mov	r8, r2
   10080:	0a00006d 	beq	1023c <device_run+0x1d8>
   10084:	e59f11b8 	ldr	r1, [pc, #440]	; 10244 <device_run+0x1e0>
   10088:	e1a02004 	mov	r2, r4
   1008c:	e3a00000 	mov	r0, #0
   10090:	e08f1001 	add	r1, pc, r1
   10094:	ebfffd2a 	bl	f544 <sys_signal>
   10098:	e3570000 	cmp	r7, #0
   1009c:	0a000057 	beq	10200 <device_run+0x19c>
   100a0:	e24b50dc 	sub	r5, fp, #220	; 0xdc
   100a4:	e1a01005 	mov	r1, r5
   100a8:	e1a00007 	mov	r0, r7
   100ac:	ebfff44a 	bl	d1dc <vfs_get>
   100b0:	e3500000 	cmp	r0, #0
   100b4:	0a000007 	beq	100d8 <device_run+0x74>
   100b8:	e3a03001 	mov	r3, #1
   100bc:	e1a02008 	mov	r2, r8
   100c0:	e1a01005 	mov	r1, r5
   100c4:	e1a00007 	mov	r0, r7
   100c8:	e58d3000 	str	r3, [sp]
   100cc:	ebfff704 	bl	dce4 <vfs_create>
   100d0:	e3500000 	cmp	r0, #0
   100d4:	1a000058 	bne	1023c <device_run+0x1d8>
   100d8:	e24b6080 	sub	r6, fp, #128	; 0x80
   100dc:	e3a0205c 	mov	r2, #92	; 0x5c
   100e0:	e3a01000 	mov	r1, #0
   100e4:	e1a00006 	mov	r0, r6
   100e8:	eb0016f4 	bl	15cc0 <memset>
   100ec:	e24b10d8 	sub	r1, fp, #216	; 0xd8
   100f0:	e24b007c 	sub	r0, fp, #124	; 0x7c
   100f4:	eb001a56 	bl	16a54 <strcpy>
   100f8:	e1a00006 	mov	r0, r6
   100fc:	e50b803c 	str	r8, [fp, #-60]	; 0xffffffc4
   10100:	ebfff2ab 	bl	cbb4 <vfs_new_node>
   10104:	e5943074 	ldr	r3, [r4, #116]	; 0x74
   10108:	e3530000 	cmp	r3, #0
   1010c:	0a000005 	beq	10128 <device_run+0xc4>
   10110:	e1a00006 	mov	r0, r6
   10114:	e5941044 	ldr	r1, [r4, #68]	; 0x44
   10118:	e1a0e00f 	mov	lr, pc
   1011c:	e12fff13 	bx	r3
   10120:	e3500000 	cmp	r0, #0
   10124:	1a000042 	bne	10234 <device_run+0x1d0>
   10128:	e1a01006 	mov	r1, r6
   1012c:	e1a00005 	mov	r0, r5
   10130:	ebfff594 	bl	d788 <vfs_mount>
   10134:	e3500000 	cmp	r0, #0
   10138:	1a00003d 	bne	10234 <device_run+0x1d0>
   1013c:	e3a0205c 	mov	r2, #92	; 0x5c
   10140:	e1a01006 	mov	r1, r6
   10144:	e1a00005 	mov	r0, r5
   10148:	eb00163e 	bl	15a48 <memcpy>
   1014c:	e594308c 	ldr	r3, [r4, #140]	; 0x8c
   10150:	e59f00f0 	ldr	r0, [pc, #240]	; 10248 <device_run+0x1e4>
   10154:	e2533000 	subs	r3, r3, #0
   10158:	13a03001 	movne	r3, #1
   1015c:	e1a02004 	mov	r2, r4
   10160:	e5941088 	ldr	r1, [r4, #136]	; 0x88
   10164:	e08f0000 	add	r0, pc, r0
   10168:	ebfffc9c 	bl	f3e0 <ipc_serv_run>
   1016c:	e5d43000 	ldrb	r3, [r4]
   10170:	e3530000 	cmp	r3, #0
   10174:	0a000012 	beq	101c4 <device_run+0x160>
   10178:	e5943078 	ldr	r3, [r4, #120]	; 0x78
   1017c:	e3530000 	cmp	r3, #0
   10180:	0a000003 	beq	10194 <device_run+0x130>
   10184:	e1a00005 	mov	r0, r5
   10188:	e5941044 	ldr	r1, [r4, #68]	; 0x44
   1018c:	e1a0e00f 	mov	lr, pc
   10190:	e12fff13 	bx	r3
   10194:	e1a00005 	mov	r0, r5
   10198:	ebfff5b9 	bl	d884 <vfs_umount>
   1019c:	e3a00000 	mov	r0, #0
   101a0:	e24bd020 	sub	sp, fp, #32
   101a4:	e89d69f0 	ldm	sp, {r4, r5, r6, r7, r8, fp, sp, lr}
   101a8:	e12fff1e 	bx	lr
   101ac:	e5940044 	ldr	r0, [r4, #68]	; 0x44
   101b0:	e1a0e00f 	mov	lr, pc
   101b4:	e12fff13 	bx	r3
   101b8:	e5d43000 	ldrb	r3, [r4]
   101bc:	e3530000 	cmp	r3, #0
   101c0:	1a000008 	bne	101e8 <device_run+0x184>
   101c4:	e594308c 	ldr	r3, [r4, #140]	; 0x8c
   101c8:	e3530000 	cmp	r3, #0
   101cc:	1afffff6 	bne	101ac <device_run+0x148>
   101d0:	eb0004e1 	bl	1155c <getpid>
   101d4:	e1a01004 	mov	r1, r4
   101d8:	eb000487 	bl	113fc <proc_block>
   101dc:	e5d43000 	ldrb	r3, [r4]
   101e0:	e3530000 	cmp	r3, #0
   101e4:	0afffff6 	beq	101c4 <device_run+0x160>
   101e8:	e3570000 	cmp	r7, #0
   101ec:	0affffe8 	beq	10194 <device_run+0x130>
   101f0:	e5943078 	ldr	r3, [r4, #120]	; 0x78
   101f4:	e3530000 	cmp	r3, #0
   101f8:	1affffe1 	bne	10184 <device_run+0x120>
   101fc:	eaffffe4 	b	10194 <device_run+0x130>
   10200:	e594308c 	ldr	r3, [r4, #140]	; 0x8c
   10204:	e59f0040 	ldr	r0, [pc, #64]	; 1024c <device_run+0x1e8>
   10208:	e2533000 	subs	r3, r3, #0
   1020c:	13a03001 	movne	r3, #1
   10210:	e1a02004 	mov	r2, r4
   10214:	e5941088 	ldr	r1, [r4, #136]	; 0x88
   10218:	e08f0000 	add	r0, pc, r0
   1021c:	ebfffc6f 	bl	f3e0 <ipc_serv_run>
   10220:	e5d43000 	ldrb	r3, [r4]
   10224:	e3530000 	cmp	r3, #0
   10228:	e24b50dc 	sub	r5, fp, #220	; 0xdc
   1022c:	0affffe4 	beq	101c4 <device_run+0x160>
   10230:	eaffffd7 	b	10194 <device_run+0x130>
   10234:	e1a00006 	mov	r0, r6
   10238:	ebfff4e1 	bl	d5c4 <vfs_del>
   1023c:	e3e00000 	mvn	r0, #0
   10240:	eaffffd6 	b	101a0 <device_run+0x13c>
   10244:	fffff4e4 			; <UNDEFINED> instruction: 0xfffff4e4
   10248:	fffff6d8 			; <UNDEFINED> instruction: 0xfffff6d8
   1024c:	fffff624 			; <UNDEFINED> instruction: 0xfffff624

00010250 <dev_cntl_by_pid>:
   10250:	e1a0c00d 	mov	ip, sp
   10254:	e92dd9f0 	push	{r4, r5, r6, r7, r8, fp, ip, lr, pc}
   10258:	e24cb004 	sub	fp, ip, #4
   1025c:	e24ddf4d 	sub	sp, sp, #308	; 0x134
   10260:	e1a05002 	mov	r5, r2
   10264:	e1a08001 	mov	r8, r1
   10268:	e1a06003 	mov	r6, r3
   1026c:	e1a07000 	mov	r7, r0
   10270:	eb000189 	bl	1089c <get_proto_factor>
   10274:	e1a03000 	mov	r3, r0
   10278:	e24b4f53 	sub	r4, fp, #332	; 0x14c
   1027c:	e5933004 	ldr	r3, [r3, #4]
   10280:	e1a00004 	mov	r0, r4
   10284:	e1a0e00f 	mov	lr, pc
   10288:	e12fff13 	bx	r3
   1028c:	e1a03000 	mov	r3, r0
   10290:	e1a01008 	mov	r1, r8
   10294:	e1a00004 	mov	r0, r4
   10298:	e5933014 	ldr	r3, [r3, #20]
   1029c:	e1a0e00f 	mov	lr, pc
   102a0:	e12fff13 	bx	r3
   102a4:	e3550000 	cmp	r5, #0
   102a8:	0a000007 	beq	102cc <dev_cntl_by_pid+0x7c>
   102ac:	eb00017a 	bl	1089c <get_proto_factor>
   102b0:	e1a03000 	mov	r3, r0
   102b4:	e2851080 	add	r1, r5, #128	; 0x80
   102b8:	e1a00004 	mov	r0, r4
   102bc:	e8910006 	ldm	r1, {r1, r2}
   102c0:	e5933010 	ldr	r3, [r3, #16]
   102c4:	e1a0e00f 	mov	lr, pc
   102c8:	e12fff13 	bx	r3
   102cc:	e3560000 	cmp	r6, #0
   102d0:	0a000030 	beq	10398 <dev_cntl_by_pid+0x148>
   102d4:	eb000170 	bl	1089c <get_proto_factor>
   102d8:	e1a03000 	mov	r3, r0
   102dc:	e24b80b8 	sub	r8, fp, #184	; 0xb8
   102e0:	e5933004 	ldr	r3, [r3, #4]
   102e4:	e1a00008 	mov	r0, r8
   102e8:	e1a0e00f 	mov	lr, pc
   102ec:	e12fff13 	bx	r3
   102f0:	e1a03008 	mov	r3, r8
   102f4:	e1a02004 	mov	r2, r4
   102f8:	e3a01010 	mov	r1, #16
   102fc:	e1a00007 	mov	r0, r7
   10300:	ebfffad0 	bl	ee48 <ipc_call>
   10304:	e1a05000 	mov	r5, r0
   10308:	eb000163 	bl	1089c <get_proto_factor>
   1030c:	e1a03000 	mov	r3, r0
   10310:	e1a00004 	mov	r0, r4
   10314:	e593300c 	ldr	r3, [r3, #12]
   10318:	e1a0e00f 	mov	lr, pc
   1031c:	e12fff13 	bx	r3
   10320:	e3550000 	cmp	r5, #0
   10324:	1a00002b 	bne	103d8 <dev_cntl_by_pid+0x188>
   10328:	e1a00008 	mov	r0, r8
   1032c:	eb000228 	bl	10bd4 <proto_read_int>
   10330:	e2505000 	subs	r5, r0, #0
   10334:	13e05000 	mvnne	r5, #0
   10338:	0a000009 	beq	10364 <dev_cntl_by_pid+0x114>
   1033c:	eb000156 	bl	1089c <get_proto_factor>
   10340:	e1a03000 	mov	r3, r0
   10344:	e1a00008 	mov	r0, r8
   10348:	e593300c 	ldr	r3, [r3, #12]
   1034c:	e1a0e00f 	mov	lr, pc
   10350:	e12fff13 	bx	r3
   10354:	e1a00005 	mov	r0, r5
   10358:	e24bd020 	sub	sp, fp, #32
   1035c:	e89d69f0 	ldm	sp, {r4, r5, r6, r7, r8, fp, sp, lr}
   10360:	e12fff1e 	bx	lr
   10364:	e24b1e15 	sub	r1, fp, #336	; 0x150
   10368:	e1a00008 	mov	r0, r8
   1036c:	eb000185 	bl	10988 <proto_read>
   10370:	e1a04000 	mov	r4, r0
   10374:	eb000148 	bl	1089c <get_proto_factor>
   10378:	e1a03000 	mov	r3, r0
   1037c:	e1a01004 	mov	r1, r4
   10380:	e1a00006 	mov	r0, r6
   10384:	e51b2150 	ldr	r2, [fp, #-336]	; 0xfffffeb0
   10388:	e5933008 	ldr	r3, [r3, #8]
   1038c:	e1a0e00f 	mov	lr, pc
   10390:	e12fff13 	bx	r3
   10394:	eaffffe8 	b	1033c <dev_cntl_by_pid+0xec>
   10398:	e1a03006 	mov	r3, r6
   1039c:	e1a02004 	mov	r2, r4
   103a0:	e3a01010 	mov	r1, #16
   103a4:	e1a00007 	mov	r0, r7
   103a8:	ebfffaa6 	bl	ee48 <ipc_call>
   103ac:	e1a05000 	mov	r5, r0
   103b0:	eb000139 	bl	1089c <get_proto_factor>
   103b4:	e1a03000 	mov	r3, r0
   103b8:	e1a00004 	mov	r0, r4
   103bc:	e593300c 	ldr	r3, [r3, #12]
   103c0:	e1a0e00f 	mov	lr, pc
   103c4:	e12fff13 	bx	r3
   103c8:	e1a00005 	mov	r0, r5
   103cc:	e24bd020 	sub	sp, fp, #32
   103d0:	e89d69f0 	ldm	sp, {r4, r5, r6, r7, r8, fp, sp, lr}
   103d4:	e12fff1e 	bx	lr
   103d8:	eb00012f 	bl	1089c <get_proto_factor>
   103dc:	e1a03000 	mov	r3, r0
   103e0:	e1a00008 	mov	r0, r8
   103e4:	e593300c 	ldr	r3, [r3, #12]
   103e8:	e3e05000 	mvn	r5, #0
   103ec:	e1a0e00f 	mov	lr, pc
   103f0:	e12fff13 	bx	r3
   103f4:	eaffffd6 	b	10354 <dev_cntl_by_pid+0x104>

000103f8 <dev_get_pid>:
   103f8:	e1a0c00d 	mov	ip, sp
   103fc:	e92dd800 	push	{fp, ip, lr, pc}
   10400:	e24cb004 	sub	fp, ip, #4
   10404:	e24dd060 	sub	sp, sp, #96	; 0x60
   10408:	e24b1068 	sub	r1, fp, #104	; 0x68
   1040c:	ebfff372 	bl	d1dc <vfs_get>
   10410:	e3500000 	cmp	r0, #0
   10414:	13e00000 	mvnne	r0, #0
   10418:	051b0014 	ldreq	r0, [fp, #-20]	; 0xffffffec
   1041c:	e24bd00c 	sub	sp, fp, #12
   10420:	e89d6800 	ldm	sp, {fp, sp, lr}
   10424:	e12fff1e 	bx	lr

00010428 <dev_cntl>:
   10428:	e1a0c00d 	mov	ip, sp
   1042c:	e92dd8f0 	push	{r4, r5, r6, r7, fp, ip, lr, pc}
   10430:	e24cb004 	sub	fp, ip, #4
   10434:	e1a04001 	mov	r4, r1
   10438:	e1a05002 	mov	r5, r2
   1043c:	e1a06003 	mov	r6, r3
   10440:	ebffffec 	bl	103f8 <dev_get_pid>
   10444:	e3500000 	cmp	r0, #0
   10448:	ba000005 	blt	10464 <dev_cntl+0x3c>
   1044c:	e1a03006 	mov	r3, r6
   10450:	e1a02005 	mov	r2, r5
   10454:	e1a01004 	mov	r1, r4
   10458:	e24bd01c 	sub	sp, fp, #28
   1045c:	e89d68f0 	ldm	sp, {r4, r5, r6, r7, fp, sp, lr}
   10460:	eaffff7a 	b	10250 <dev_cntl_by_pid>
   10464:	e3e00000 	mvn	r0, #0
   10468:	e24bd01c 	sub	sp, fp, #28
   1046c:	e89d68f0 	ldm	sp, {r4, r5, r6, r7, fp, sp, lr}
   10470:	e12fff1e 	bx	lr

00010474 <proto_init_data>:
   10474:	e3510000 	cmp	r1, #0
   10478:	e1a03000 	mov	r3, r0
   1047c:	03a02080 	moveq	r2, #128	; 0x80
   10480:	13a00001 	movne	r0, #1
   10484:	15832084 	strne	r2, [r3, #132]	; 0x84
   10488:	15832088 	strne	r2, [r3, #136]	; 0x88
   1048c:	05832088 	streq	r2, [r3, #136]	; 0x88
   10490:	e3a02000 	mov	r2, #0
   10494:	15830090 	strne	r0, [r3, #144]	; 0x90
   10498:	e59f0018 	ldr	r0, [pc, #24]	; 104b8 <proto_init_data+0x44>
   1049c:	15831080 	strne	r1, [r3, #128]	; 0x80
   104a0:	05833080 	streq	r3, [r3, #128]	; 0x80
   104a4:	05831084 	streq	r1, [r3, #132]	; 0x84
   104a8:	05831090 	streq	r1, [r3, #144]	; 0x90
   104ac:	e583208c 	str	r2, [r3, #140]	; 0x8c
   104b0:	e08f0000 	add	r0, pc, r0
   104b4:	e12fff1e 	bx	lr
   104b8:	00018700 	andeq	r8, r1, r0, lsl #14

000104bc <proto_init>:
   104bc:	e1a03000 	mov	r3, r0
   104c0:	e3a02000 	mov	r2, #0
   104c4:	e3a01080 	mov	r1, #128	; 0x80
   104c8:	e59f0018 	ldr	r0, [pc, #24]	; 104e8 <proto_init+0x2c>
   104cc:	e5833080 	str	r3, [r3, #128]	; 0x80
   104d0:	e5831088 	str	r1, [r3, #136]	; 0x88
   104d4:	e5832084 	str	r2, [r3, #132]	; 0x84
   104d8:	e5832090 	str	r2, [r3, #144]	; 0x90
   104dc:	e583208c 	str	r2, [r3, #140]	; 0x8c
   104e0:	e08f0000 	add	r0, pc, r0
   104e4:	e12fff1e 	bx	lr
   104e8:	000186d0 	ldrdeq	r8, [r1], -r0

000104ec <proto_add>:
   104ec:	e1a0c00d 	mov	ip, sp
   104f0:	e92ddbf0 	push	{r4, r5, r6, r7, r8, r9, fp, ip, lr, pc}
   104f4:	e24cb004 	sub	fp, ip, #4
   104f8:	e24dd008 	sub	sp, sp, #8
   104fc:	e2806080 	add	r6, r0, #128	; 0x80
   10500:	e8960140 	ldm	r6, {r6, r8}
   10504:	e1a05002 	mov	r5, r2
   10508:	e1a07001 	mov	r7, r1
   1050c:	e50b2028 	str	r2, [fp, #-40]	; 0xffffffd8
   10510:	e0881002 	add	r1, r8, r2
   10514:	e5902088 	ldr	r2, [r0, #136]	; 0x88
   10518:	e2813004 	add	r3, r1, #4
   1051c:	e1520003 	cmp	r2, r3
   10520:	e1a04000 	mov	r4, r0
   10524:	2a00000b 	bcs	10558 <proto_add+0x6c>
   10528:	e5903090 	ldr	r3, [r0, #144]	; 0x90
   1052c:	e3530000 	cmp	r3, #0
   10530:	1a000013 	bne	10584 <proto_add+0x98>
   10534:	e2811084 	add	r1, r1, #132	; 0x84
   10538:	e1500006 	cmp	r0, r6
   1053c:	e5801088 	str	r1, [r0, #136]	; 0x88
   10540:	0a00001b 	beq	105b4 <proto_add+0xc8>
   10544:	e1a00006 	mov	r0, r6
   10548:	eb00050f 	bl	1198c <realloc>
   1054c:	e1a06000 	mov	r6, r0
   10550:	e5948084 	ldr	r8, [r4, #132]	; 0x84
   10554:	e5840080 	str	r0, [r4, #128]	; 0x80
   10558:	e3a02004 	mov	r2, #4
   1055c:	e0860008 	add	r0, r6, r8
   10560:	e24b1028 	sub	r1, fp, #40	; 0x28
   10564:	eb001537 	bl	15a48 <memcpy>
   10568:	e3570000 	cmp	r7, #0
   1056c:	13550000 	cmpne	r5, #0
   10570:	1a000008 	bne	10598 <proto_add+0xac>
   10574:	e5942084 	ldr	r2, [r4, #132]	; 0x84
   10578:	e2855004 	add	r5, r5, #4
   1057c:	e0825005 	add	r5, r2, r5
   10580:	e5845084 	str	r5, [r4, #132]	; 0x84
   10584:	e59f004c 	ldr	r0, [pc, #76]	; 105d8 <proto_add+0xec>
   10588:	e08f0000 	add	r0, pc, r0
   1058c:	e24bd024 	sub	sp, fp, #36	; 0x24
   10590:	e89d6bf0 	ldm	sp, {r4, r5, r6, r7, r8, r9, fp, sp, lr}
   10594:	e12fff1e 	bx	lr
   10598:	e5940084 	ldr	r0, [r4, #132]	; 0x84
   1059c:	e2800004 	add	r0, r0, #4
   105a0:	e1a02005 	mov	r2, r5
   105a4:	e1a01007 	mov	r1, r7
   105a8:	e0860000 	add	r0, r6, r0
   105ac:	eb001525 	bl	15a48 <memcpy>
   105b0:	eaffffef 	b	10574 <proto_add+0x88>
   105b4:	e1a00001 	mov	r0, r1
   105b8:	eb0004ea 	bl	11968 <malloc>
   105bc:	e1a09000 	mov	r9, r0
   105c0:	e1a02008 	mov	r2, r8
   105c4:	e1a01004 	mov	r1, r4
   105c8:	eb00151e 	bl	15a48 <memcpy>
   105cc:	e1a06009 	mov	r6, r9
   105d0:	e5849080 	str	r9, [r4, #128]	; 0x80
   105d4:	eaffffdf 	b	10558 <proto_add+0x6c>
   105d8:	00018628 	andeq	r8, r1, r8, lsr #12

000105dc <proto_copy>:
   105dc:	e1a0c00d 	mov	ip, sp
   105e0:	e5903090 	ldr	r3, [r0, #144]	; 0x90
   105e4:	e3530000 	cmp	r3, #0
   105e8:	e92dd8f0 	push	{r4, r5, r6, r7, fp, ip, lr, pc}
   105ec:	e1a04000 	mov	r4, r0
   105f0:	e1a06001 	mov	r6, r1
   105f4:	e1a05002 	mov	r5, r2
   105f8:	e24cb004 	sub	fp, ip, #4
   105fc:	1a000007 	bne	10620 <proto_copy+0x44>
   10600:	e5903088 	ldr	r3, [r0, #136]	; 0x88
   10604:	e1530002 	cmp	r3, r2
   10608:	e5900080 	ldr	r0, [r0, #128]	; 0x80
   1060c:	2a000009 	bcs	10638 <proto_copy+0x5c>
   10610:	e3500000 	cmp	r0, #0
   10614:	0a000001 	beq	10620 <proto_copy+0x44>
   10618:	e1500004 	cmp	r0, r4
   1061c:	1b0004c8 	blne	11944 <free>
   10620:	e3a03080 	mov	r3, #128	; 0x80
   10624:	e1550003 	cmp	r5, r3
   10628:	91a00004 	movls	r0, r4
   1062c:	e5843088 	str	r3, [r4, #136]	; 0x88
   10630:	95844080 	strls	r4, [r4, #128]	; 0x80
   10634:	8a00000b 	bhi	10668 <proto_copy+0x8c>
   10638:	e1a02005 	mov	r2, r5
   1063c:	e1a01006 	mov	r1, r6
   10640:	eb001500 	bl	15a48 <memcpy>
   10644:	e3a03000 	mov	r3, #0
   10648:	e59f002c 	ldr	r0, [pc, #44]	; 1067c <proto_copy+0xa0>
   1064c:	e08f0000 	add	r0, pc, r0
   10650:	e5845084 	str	r5, [r4, #132]	; 0x84
   10654:	e584308c 	str	r3, [r4, #140]	; 0x8c
   10658:	e5843090 	str	r3, [r4, #144]	; 0x90
   1065c:	e24bd01c 	sub	sp, fp, #28
   10660:	e89d68f0 	ldm	sp, {r4, r5, r6, r7, fp, sp, lr}
   10664:	e12fff1e 	bx	lr
   10668:	e1a00005 	mov	r0, r5
   1066c:	eb0004bd 	bl	11968 <malloc>
   10670:	e5845088 	str	r5, [r4, #136]	; 0x88
   10674:	e5840080 	str	r0, [r4, #128]	; 0x80
   10678:	eaffffee 	b	10638 <proto_copy+0x5c>
   1067c:	00018564 	andeq	r8, r1, r4, ror #10

00010680 <proto_clear>:
   10680:	e1a0c00d 	mov	ip, sp
   10684:	e5903090 	ldr	r3, [r0, #144]	; 0x90
   10688:	e3530000 	cmp	r3, #0
   1068c:	e92dd830 	push	{r4, r5, fp, ip, lr, pc}
   10690:	e1a04000 	mov	r4, r0
   10694:	e24cb004 	sub	fp, ip, #4
   10698:	1a000009 	bne	106c4 <proto_clear+0x44>
   1069c:	e5900080 	ldr	r0, [r0, #128]	; 0x80
   106a0:	e3500000 	cmp	r0, #0
   106a4:	e5843084 	str	r3, [r4, #132]	; 0x84
   106a8:	e584308c 	str	r3, [r4, #140]	; 0x8c
   106ac:	0a000001 	beq	106b8 <proto_clear+0x38>
   106b0:	e1500004 	cmp	r0, r4
   106b4:	1b0004a2 	blne	11944 <free>
   106b8:	e3a03080 	mov	r3, #128	; 0x80
   106bc:	e5844080 	str	r4, [r4, #128]	; 0x80
   106c0:	e5843088 	str	r3, [r4, #136]	; 0x88
   106c4:	e59f000c 	ldr	r0, [pc, #12]	; 106d8 <proto_clear+0x58>
   106c8:	e08f0000 	add	r0, pc, r0
   106cc:	e24bd014 	sub	sp, fp, #20
   106d0:	e89d6830 	ldm	sp, {r4, r5, fp, sp, lr}
   106d4:	e12fff1e 	bx	lr
   106d8:	000184e8 	andeq	r8, r1, r8, ror #9

000106dc <proto_add_int>:
   106dc:	e1a0c00d 	mov	ip, sp
   106e0:	e92dd8f0 	push	{r4, r5, r6, r7, fp, ip, lr, pc}
   106e4:	e24cb004 	sub	fp, ip, #4
   106e8:	e24dd010 	sub	sp, sp, #16
   106ec:	e3a03004 	mov	r3, #4
   106f0:	e5906084 	ldr	r6, [r0, #132]	; 0x84
   106f4:	e50b3020 	str	r3, [fp, #-32]	; 0xffffffe0
   106f8:	e5903088 	ldr	r3, [r0, #136]	; 0x88
   106fc:	e2862008 	add	r2, r6, #8
   10700:	e1520003 	cmp	r2, r3
   10704:	e1a04000 	mov	r4, r0
   10708:	e50b1028 	str	r1, [fp, #-40]	; 0xffffffd8
   1070c:	e5905080 	ldr	r5, [r0, #128]	; 0x80
   10710:	9a00000b 	bls	10744 <proto_add_int+0x68>
   10714:	e5903090 	ldr	r3, [r0, #144]	; 0x90
   10718:	e3530000 	cmp	r3, #0
   1071c:	1a000015 	bne	10778 <proto_add_int+0x9c>
   10720:	e2861088 	add	r1, r6, #136	; 0x88
   10724:	e1550000 	cmp	r5, r0
   10728:	e5801088 	str	r1, [r0, #136]	; 0x88
   1072c:	0a000016 	beq	1078c <proto_add_int+0xb0>
   10730:	e1a00005 	mov	r0, r5
   10734:	eb000494 	bl	1198c <realloc>
   10738:	e1a05000 	mov	r5, r0
   1073c:	e5946084 	ldr	r6, [r4, #132]	; 0x84
   10740:	e5840080 	str	r0, [r4, #128]	; 0x80
   10744:	e3a02004 	mov	r2, #4
   10748:	e24b1020 	sub	r1, fp, #32
   1074c:	e0850006 	add	r0, r5, r6
   10750:	eb0014bc 	bl	15a48 <memcpy>
   10754:	e3a02004 	mov	r2, #4
   10758:	e5940084 	ldr	r0, [r4, #132]	; 0x84
   1075c:	e0800002 	add	r0, r0, r2
   10760:	e24b1028 	sub	r1, fp, #40	; 0x28
   10764:	e0850000 	add	r0, r5, r0
   10768:	eb0014b6 	bl	15a48 <memcpy>
   1076c:	e5943084 	ldr	r3, [r4, #132]	; 0x84
   10770:	e2833008 	add	r3, r3, #8
   10774:	e5843084 	str	r3, [r4, #132]	; 0x84
   10778:	e59f0030 	ldr	r0, [pc, #48]	; 107b0 <proto_add_int+0xd4>
   1077c:	e08f0000 	add	r0, pc, r0
   10780:	e24bd01c 	sub	sp, fp, #28
   10784:	e89d68f0 	ldm	sp, {r4, r5, r6, r7, fp, sp, lr}
   10788:	e12fff1e 	bx	lr
   1078c:	e1a00001 	mov	r0, r1
   10790:	eb000474 	bl	11968 <malloc>
   10794:	e1a07000 	mov	r7, r0
   10798:	e1a01005 	mov	r1, r5
   1079c:	e1a02006 	mov	r2, r6
   107a0:	eb0014a8 	bl	15a48 <memcpy>
   107a4:	e5857080 	str	r7, [r5, #128]	; 0x80
   107a8:	e1a05007 	mov	r5, r7
   107ac:	eaffffe4 	b	10744 <proto_add_int+0x68>
   107b0:	00018434 	andeq	r8, r1, r4, lsr r4

000107b4 <proto_add_str>:
   107b4:	e1a0c00d 	mov	ip, sp
   107b8:	e92ddbf0 	push	{r4, r5, r6, r7, r8, r9, fp, ip, lr, pc}
   107bc:	e1a04000 	mov	r4, r0
   107c0:	e24cb004 	sub	fp, ip, #4
   107c4:	e24dd008 	sub	sp, sp, #8
   107c8:	e1a00001 	mov	r0, r1
   107cc:	e1a07001 	mov	r7, r1
   107d0:	eb0018db 	bl	16b44 <strlen>
   107d4:	e2846080 	add	r6, r4, #128	; 0x80
   107d8:	e8960140 	ldm	r6, {r6, r8}
   107dc:	e2805001 	add	r5, r0, #1
   107e0:	e5943088 	ldr	r3, [r4, #136]	; 0x88
   107e4:	e0851008 	add	r1, r5, r8
   107e8:	e2812004 	add	r2, r1, #4
   107ec:	e1520003 	cmp	r2, r3
   107f0:	e50b5028 	str	r5, [fp, #-40]	; 0xffffffd8
   107f4:	9a00000b 	bls	10828 <proto_add_str+0x74>
   107f8:	e5943090 	ldr	r3, [r4, #144]	; 0x90
   107fc:	e3530000 	cmp	r3, #0
   10800:	1a000016 	bne	10860 <proto_add_str+0xac>
   10804:	e2811084 	add	r1, r1, #132	; 0x84
   10808:	e1560004 	cmp	r6, r4
   1080c:	e5841088 	str	r1, [r4, #136]	; 0x88
   10810:	0a000017 	beq	10874 <proto_add_str+0xc0>
   10814:	e1a00006 	mov	r0, r6
   10818:	eb00045b 	bl	1198c <realloc>
   1081c:	e1a06000 	mov	r6, r0
   10820:	e5948084 	ldr	r8, [r4, #132]	; 0x84
   10824:	e5840080 	str	r0, [r4, #128]	; 0x80
   10828:	e3a02004 	mov	r2, #4
   1082c:	e24b1028 	sub	r1, fp, #40	; 0x28
   10830:	e0860008 	add	r0, r6, r8
   10834:	eb001483 	bl	15a48 <memcpy>
   10838:	e5940084 	ldr	r0, [r4, #132]	; 0x84
   1083c:	e2800004 	add	r0, r0, #4
   10840:	e1a02005 	mov	r2, r5
   10844:	e1a01007 	mov	r1, r7
   10848:	e0860000 	add	r0, r6, r0
   1084c:	eb00147d 	bl	15a48 <memcpy>
   10850:	e5940084 	ldr	r0, [r4, #132]	; 0x84
   10854:	e2800004 	add	r0, r0, #4
   10858:	e0805005 	add	r5, r0, r5
   1085c:	e5845084 	str	r5, [r4, #132]	; 0x84
   10860:	e59f0030 	ldr	r0, [pc, #48]	; 10898 <proto_add_str+0xe4>
   10864:	e08f0000 	add	r0, pc, r0
   10868:	e24bd024 	sub	sp, fp, #36	; 0x24
   1086c:	e89d6bf0 	ldm	sp, {r4, r5, r6, r7, r8, r9, fp, sp, lr}
   10870:	e12fff1e 	bx	lr
   10874:	e1a00001 	mov	r0, r1
   10878:	eb00043a 	bl	11968 <malloc>
   1087c:	e1a09000 	mov	r9, r0
   10880:	e1a01006 	mov	r1, r6
   10884:	e1a02008 	mov	r2, r8
   10888:	eb00146e 	bl	15a48 <memcpy>
   1088c:	e5869080 	str	r9, [r6, #128]	; 0x80
   10890:	e1a06009 	mov	r6, r9
   10894:	eaffffe3 	b	10828 <proto_add_str+0x74>
   10898:	0001834c 	andeq	r8, r1, ip, asr #6

0001089c <get_proto_factor>:
   1089c:	e59f005c 	ldr	r0, [pc, #92]	; 10900 <get_proto_factor+0x64>
   108a0:	e59f205c 	ldr	r2, [pc, #92]	; 10904 <get_proto_factor+0x68>
   108a4:	e59f305c 	ldr	r3, [pc, #92]	; 10908 <get_proto_factor+0x6c>
   108a8:	e08f0000 	add	r0, pc, r0
   108ac:	e08f2002 	add	r2, pc, r2
   108b0:	e08f3003 	add	r3, pc, r3
   108b4:	e52de004 	push	{lr}		; (str lr, [sp, #-4]!)
   108b8:	e880000c 	stm	r0, {r2, r3}
   108bc:	e59fe048 	ldr	lr, [pc, #72]	; 1090c <get_proto_factor+0x70>
   108c0:	e59fc048 	ldr	ip, [pc, #72]	; 10910 <get_proto_factor+0x74>
   108c4:	e59f1048 	ldr	r1, [pc, #72]	; 10914 <get_proto_factor+0x78>
   108c8:	e59f2048 	ldr	r2, [pc, #72]	; 10918 <get_proto_factor+0x7c>
   108cc:	e59f3048 	ldr	r3, [pc, #72]	; 1091c <get_proto_factor+0x80>
   108d0:	e08fe00e 	add	lr, pc, lr
   108d4:	e08fc00c 	add	ip, pc, ip
   108d8:	e08f1001 	add	r1, pc, r1
   108dc:	e08f2002 	add	r2, pc, r2
   108e0:	e08f3003 	add	r3, pc, r3
   108e4:	e580e008 	str	lr, [r0, #8]
   108e8:	e580c00c 	str	ip, [r0, #12]
   108ec:	e5801010 	str	r1, [r0, #16]
   108f0:	e5802014 	str	r2, [r0, #20]
   108f4:	e5803018 	str	r3, [r0, #24]
   108f8:	e49de004 	pop	{lr}		; (ldr lr, [sp], #4)
   108fc:	e12fff1e 	bx	lr
   10900:	00018308 	andeq	r8, r1, r8, lsl #6
   10904:	fffffbc0 			; <UNDEFINED> instruction: 0xfffffbc0
   10908:	fffffc04 			; <UNDEFINED> instruction: 0xfffffc04
   1090c:	fffffd04 			; <UNDEFINED> instruction: 0xfffffd04
   10910:	fffffda4 			; <UNDEFINED> instruction: 0xfffffda4
   10914:	fffffc0c 			; <UNDEFINED> instruction: 0xfffffc0c
   10918:	fffffdf8 			; <UNDEFINED> instruction: 0xfffffdf8
   1091c:	fffffecc 			; <UNDEFINED> instruction: 0xfffffecc

00010920 <proto_new>:
   10920:	e1a0c00d 	mov	ip, sp
   10924:	e92dd830 	push	{r4, r5, fp, ip, lr, pc}
   10928:	e1a04000 	mov	r4, r0
   1092c:	e24cb004 	sub	fp, ip, #4
   10930:	e3a00094 	mov	r0, #148	; 0x94
   10934:	e1a05001 	mov	r5, r1
   10938:	eb00040a 	bl	11968 <malloc>
   1093c:	e3540000 	cmp	r4, #0
   10940:	13a03001 	movne	r3, #1
   10944:	03a03080 	moveq	r3, #128	; 0x80
   10948:	15803090 	strne	r3, [r0, #144]	; 0x90
   1094c:	05803088 	streq	r3, [r0, #136]	; 0x88
   10950:	e3a03000 	mov	r3, #0
   10954:	15804080 	strne	r4, [r0, #128]	; 0x80
   10958:	15805084 	strne	r5, [r0, #132]	; 0x84
   1095c:	15805088 	strne	r5, [r0, #136]	; 0x88
   10960:	05800080 	streq	r0, [r0, #128]	; 0x80
   10964:	05804084 	streq	r4, [r0, #132]	; 0x84
   10968:	05804090 	streq	r4, [r0, #144]	; 0x90
   1096c:	e580308c 	str	r3, [r0, #140]	; 0x8c
   10970:	e24bd014 	sub	sp, fp, #20
   10974:	e89d6830 	ldm	sp, {r4, r5, fp, sp, lr}
   10978:	e12fff1e 	bx	lr

0001097c <proto_reset>:
   1097c:	e3a03000 	mov	r3, #0
   10980:	e580308c 	str	r3, [r0, #140]	; 0x8c
   10984:	e12fff1e 	bx	lr

00010988 <proto_read>:
   10988:	e1a0c00d 	mov	ip, sp
   1098c:	e92dd8f0 	push	{r4, r5, r6, r7, fp, ip, lr, pc}
   10990:	e24cb004 	sub	fp, ip, #4
   10994:	e24dd008 	sub	sp, sp, #8
   10998:	e2516000 	subs	r6, r1, #0
   1099c:	13a03000 	movne	r3, #0
   109a0:	e1a04000 	mov	r4, r0
   109a4:	e5900080 	ldr	r0, [r0, #128]	; 0x80
   109a8:	15863000 	strne	r3, [r6]
   109ac:	e3500000 	cmp	r0, #0
   109b0:	0a000016 	beq	10a10 <proto_read+0x88>
   109b4:	e5943084 	ldr	r3, [r4, #132]	; 0x84
   109b8:	e3530000 	cmp	r3, #0
   109bc:	0a000013 	beq	10a10 <proto_read+0x88>
   109c0:	e594708c 	ldr	r7, [r4, #140]	; 0x8c
   109c4:	e1530007 	cmp	r3, r7
   109c8:	9a000010 	bls	10a10 <proto_read+0x88>
   109cc:	e0805007 	add	r5, r0, r7
   109d0:	e3a02004 	mov	r2, #4
   109d4:	e1a01005 	mov	r1, r5
   109d8:	e24b0020 	sub	r0, fp, #32
   109dc:	eb001419 	bl	15a48 <memcpy>
   109e0:	e51b2020 	ldr	r2, [fp, #-32]	; 0xffffffe0
   109e4:	e2823004 	add	r3, r2, #4
   109e8:	e3560000 	cmp	r6, #0
   109ec:	e0837007 	add	r7, r3, r7
   109f0:	e584708c 	str	r7, [r4, #140]	; 0x8c
   109f4:	15862000 	strne	r2, [r6]
   109f8:	e3520000 	cmp	r2, #0
   109fc:	0a000003 	beq	10a10 <proto_read+0x88>
   10a00:	e2850004 	add	r0, r5, #4
   10a04:	e24bd01c 	sub	sp, fp, #28
   10a08:	e89d68f0 	ldm	sp, {r4, r5, r6, r7, fp, sp, lr}
   10a0c:	e12fff1e 	bx	lr
   10a10:	e3a00000 	mov	r0, #0
   10a14:	e24bd01c 	sub	sp, fp, #28
   10a18:	e89d68f0 	ldm	sp, {r4, r5, r6, r7, fp, sp, lr}
   10a1c:	e12fff1e 	bx	lr

00010a20 <proto_read_to>:
   10a20:	e1a0c00d 	mov	ip, sp
   10a24:	e92dd9f0 	push	{r4, r5, r6, r7, r8, fp, ip, lr, pc}
   10a28:	e24cb004 	sub	fp, ip, #4
   10a2c:	e24dd00c 	sub	sp, sp, #12
   10a30:	e5903080 	ldr	r3, [r0, #128]	; 0x80
   10a34:	e3530000 	cmp	r3, #0
   10a38:	e1a06000 	mov	r6, r0
   10a3c:	e1a07001 	mov	r7, r1
   10a40:	e1a05002 	mov	r5, r2
   10a44:	0a00001d 	beq	10ac0 <proto_read_to+0xa0>
   10a48:	e5902084 	ldr	r2, [r0, #132]	; 0x84
   10a4c:	e3520000 	cmp	r2, #0
   10a50:	0a00001a 	beq	10ac0 <proto_read_to+0xa0>
   10a54:	e590808c 	ldr	r8, [r0, #140]	; 0x8c
   10a58:	e1520008 	cmp	r2, r8
   10a5c:	9a000017 	bls	10ac0 <proto_read_to+0xa0>
   10a60:	e0834008 	add	r4, r3, r8
   10a64:	e3a02004 	mov	r2, #4
   10a68:	e1a01004 	mov	r1, r4
   10a6c:	e24b0028 	sub	r0, fp, #40	; 0x28
   10a70:	eb0013f4 	bl	15a48 <memcpy>
   10a74:	e51b2028 	ldr	r2, [fp, #-40]	; 0xffffffd8
   10a78:	e2823004 	add	r3, r2, #4
   10a7c:	e0838008 	add	r8, r3, r8
   10a80:	e3520000 	cmp	r2, #0
   10a84:	e586808c 	str	r8, [r6, #140]	; 0x8c
   10a88:	0a00000c 	beq	10ac0 <proto_read_to+0xa0>
   10a8c:	e1550002 	cmp	r5, r2
   10a90:	a1a05002 	movge	r5, r2
   10a94:	e3550000 	cmp	r5, #0
   10a98:	13570000 	cmpne	r7, #0
   10a9c:	e2841004 	add	r1, r4, #4
   10aa0:	0a000006 	beq	10ac0 <proto_read_to+0xa0>
   10aa4:	e1a02005 	mov	r2, r5
   10aa8:	e1a00007 	mov	r0, r7
   10aac:	eb0013e5 	bl	15a48 <memcpy>
   10ab0:	e1a00005 	mov	r0, r5
   10ab4:	e24bd020 	sub	sp, fp, #32
   10ab8:	e89d69f0 	ldm	sp, {r4, r5, r6, r7, r8, fp, sp, lr}
   10abc:	e12fff1e 	bx	lr
   10ac0:	e3a05000 	mov	r5, #0
   10ac4:	e1a00005 	mov	r0, r5
   10ac8:	e24bd020 	sub	sp, fp, #32
   10acc:	e89d69f0 	ldm	sp, {r4, r5, r6, r7, r8, fp, sp, lr}
   10ad0:	e12fff1e 	bx	lr

00010ad4 <proto_read_proto>:
   10ad4:	e1a0c00d 	mov	ip, sp
   10ad8:	e92dd9f0 	push	{r4, r5, r6, r7, r8, fp, ip, lr, pc}
   10adc:	e24cb004 	sub	fp, ip, #4
   10ae0:	e24dd00c 	sub	sp, sp, #12
   10ae4:	e1a04001 	mov	r4, r1
   10ae8:	e5901080 	ldr	r1, [r0, #128]	; 0x80
   10aec:	e3510000 	cmp	r1, #0
   10af0:	e1a06000 	mov	r6, r0
   10af4:	0a00002d 	beq	10bb0 <proto_read_proto+0xdc>
   10af8:	e5903084 	ldr	r3, [r0, #132]	; 0x84
   10afc:	e3530000 	cmp	r3, #0
   10b00:	0a00002a 	beq	10bb0 <proto_read_proto+0xdc>
   10b04:	e590808c 	ldr	r8, [r0, #140]	; 0x8c
   10b08:	e1530008 	cmp	r3, r8
   10b0c:	9a000027 	bls	10bb0 <proto_read_proto+0xdc>
   10b10:	e0815008 	add	r5, r1, r8
   10b14:	e3a02004 	mov	r2, #4
   10b18:	e1a01005 	mov	r1, r5
   10b1c:	e24b0028 	sub	r0, fp, #40	; 0x28
   10b20:	eb0013c8 	bl	15a48 <memcpy>
   10b24:	e51b7028 	ldr	r7, [fp, #-40]	; 0xffffffd8
   10b28:	e2873004 	add	r3, r7, #4
   10b2c:	e0838008 	add	r8, r3, r8
   10b30:	e3570000 	cmp	r7, #0
   10b34:	e586808c 	str	r8, [r6, #140]	; 0x8c
   10b38:	0a00001c 	beq	10bb0 <proto_read_proto+0xdc>
   10b3c:	e5943090 	ldr	r3, [r4, #144]	; 0x90
   10b40:	e3530000 	cmp	r3, #0
   10b44:	e2855004 	add	r5, r5, #4
   10b48:	1a000007 	bne	10b6c <proto_read_proto+0x98>
   10b4c:	e5943088 	ldr	r3, [r4, #136]	; 0x88
   10b50:	e1570003 	cmp	r7, r3
   10b54:	e5940080 	ldr	r0, [r4, #128]	; 0x80
   10b58:	9a000009 	bls	10b84 <proto_read_proto+0xb0>
   10b5c:	e3500000 	cmp	r0, #0
   10b60:	0a000001 	beq	10b6c <proto_read_proto+0x98>
   10b64:	e1500004 	cmp	r0, r4
   10b68:	1b000375 	blne	11944 <free>
   10b6c:	e3a03080 	mov	r3, #128	; 0x80
   10b70:	e1570003 	cmp	r7, r3
   10b74:	91a00004 	movls	r0, r4
   10b78:	e5843088 	str	r3, [r4, #136]	; 0x88
   10b7c:	95844080 	strls	r4, [r4, #128]	; 0x80
   10b80:	8a00000e 	bhi	10bc0 <proto_read_proto+0xec>
   10b84:	e1a02007 	mov	r2, r7
   10b88:	e1a01005 	mov	r1, r5
   10b8c:	eb0013ad 	bl	15a48 <memcpy>
   10b90:	e3a03000 	mov	r3, #0
   10b94:	e1a00003 	mov	r0, r3
   10b98:	e5847084 	str	r7, [r4, #132]	; 0x84
   10b9c:	e584308c 	str	r3, [r4, #140]	; 0x8c
   10ba0:	e5843090 	str	r3, [r4, #144]	; 0x90
   10ba4:	e24bd020 	sub	sp, fp, #32
   10ba8:	e89d69f0 	ldm	sp, {r4, r5, r6, r7, r8, fp, sp, lr}
   10bac:	e12fff1e 	bx	lr
   10bb0:	e3e00000 	mvn	r0, #0
   10bb4:	e24bd020 	sub	sp, fp, #32
   10bb8:	e89d69f0 	ldm	sp, {r4, r5, r6, r7, r8, fp, sp, lr}
   10bbc:	e12fff1e 	bx	lr
   10bc0:	e1a00007 	mov	r0, r7
   10bc4:	eb000367 	bl	11968 <malloc>
   10bc8:	e5847088 	str	r7, [r4, #136]	; 0x88
   10bcc:	e5840080 	str	r0, [r4, #128]	; 0x80
   10bd0:	eaffffeb 	b	10b84 <proto_read_proto+0xb0>

00010bd4 <proto_read_int>:
   10bd4:	e1a0c00d 	mov	ip, sp
   10bd8:	e92dd870 	push	{r4, r5, r6, fp, ip, lr, pc}
   10bdc:	e24cb004 	sub	fp, ip, #4
   10be0:	e24dd00c 	sub	sp, sp, #12
   10be4:	e5901080 	ldr	r1, [r0, #128]	; 0x80
   10be8:	e3510000 	cmp	r1, #0
   10bec:	e1a04000 	mov	r4, r0
   10bf0:	0a000014 	beq	10c48 <proto_read_int+0x74>
   10bf4:	e5903084 	ldr	r3, [r0, #132]	; 0x84
   10bf8:	e3530000 	cmp	r3, #0
   10bfc:	0a000011 	beq	10c48 <proto_read_int+0x74>
   10c00:	e590608c 	ldr	r6, [r0, #140]	; 0x8c
   10c04:	e1530006 	cmp	r3, r6
   10c08:	9a00000e 	bls	10c48 <proto_read_int+0x74>
   10c0c:	e0815006 	add	r5, r1, r6
   10c10:	e3a02004 	mov	r2, #4
   10c14:	e1a01005 	mov	r1, r5
   10c18:	e24b0020 	sub	r0, fp, #32
   10c1c:	eb001389 	bl	15a48 <memcpy>
   10c20:	e51b2020 	ldr	r2, [fp, #-32]	; 0xffffffe0
   10c24:	e2823004 	add	r3, r2, #4
   10c28:	e0836006 	add	r6, r3, r6
   10c2c:	e3520000 	cmp	r2, #0
   10c30:	e584608c 	str	r6, [r4, #140]	; 0x8c
   10c34:	0a000003 	beq	10c48 <proto_read_int+0x74>
   10c38:	e5950004 	ldr	r0, [r5, #4]
   10c3c:	e24bd018 	sub	sp, fp, #24
   10c40:	e89d6870 	ldm	sp, {r4, r5, r6, fp, sp, lr}
   10c44:	e12fff1e 	bx	lr
   10c48:	e3a00000 	mov	r0, #0
   10c4c:	e24bd018 	sub	sp, fp, #24
   10c50:	e89d6870 	ldm	sp, {r4, r5, r6, fp, sp, lr}
   10c54:	e12fff1e 	bx	lr

00010c58 <proto_read_str>:
   10c58:	e1a0c00d 	mov	ip, sp
   10c5c:	e92dd870 	push	{r4, r5, r6, fp, ip, lr, pc}
   10c60:	e24cb004 	sub	fp, ip, #4
   10c64:	e24dd00c 	sub	sp, sp, #12
   10c68:	e5901080 	ldr	r1, [r0, #128]	; 0x80
   10c6c:	e3510000 	cmp	r1, #0
   10c70:	e1a04000 	mov	r4, r0
   10c74:	0a000014 	beq	10ccc <proto_read_str+0x74>
   10c78:	e5903084 	ldr	r3, [r0, #132]	; 0x84
   10c7c:	e3530000 	cmp	r3, #0
   10c80:	0a000011 	beq	10ccc <proto_read_str+0x74>
   10c84:	e590608c 	ldr	r6, [r0, #140]	; 0x8c
   10c88:	e1530006 	cmp	r3, r6
   10c8c:	9a00000e 	bls	10ccc <proto_read_str+0x74>
   10c90:	e0815006 	add	r5, r1, r6
   10c94:	e3a02004 	mov	r2, #4
   10c98:	e1a01005 	mov	r1, r5
   10c9c:	e24b0020 	sub	r0, fp, #32
   10ca0:	eb001368 	bl	15a48 <memcpy>
   10ca4:	e51b2020 	ldr	r2, [fp, #-32]	; 0xffffffe0
   10ca8:	e2823004 	add	r3, r2, #4
   10cac:	e0836006 	add	r6, r3, r6
   10cb0:	e3520000 	cmp	r2, #0
   10cb4:	e584608c 	str	r6, [r4, #140]	; 0x8c
   10cb8:	0a000003 	beq	10ccc <proto_read_str+0x74>
   10cbc:	e2850004 	add	r0, r5, #4
   10cc0:	e24bd018 	sub	sp, fp, #24
   10cc4:	e89d6870 	ldm	sp, {r4, r5, r6, fp, sp, lr}
   10cc8:	e12fff1e 	bx	lr
   10ccc:	e3a00000 	mov	r0, #0
   10cd0:	e24bd018 	sub	sp, fp, #24
   10cd4:	e89d6870 	ldm	sp, {r4, r5, r6, fp, sp, lr}
   10cd8:	e12fff1e 	bx	lr

00010cdc <proto_free>:
   10cdc:	e1a0c00d 	mov	ip, sp
   10ce0:	e5903090 	ldr	r3, [r0, #144]	; 0x90
   10ce4:	e3530000 	cmp	r3, #0
   10ce8:	e92dd830 	push	{r4, r5, fp, ip, lr, pc}
   10cec:	e1a04000 	mov	r4, r0
   10cf0:	e24cb004 	sub	fp, ip, #4
   10cf4:	1a000004 	bne	10d0c <proto_free+0x30>
   10cf8:	e5900080 	ldr	r0, [r0, #128]	; 0x80
   10cfc:	e3500000 	cmp	r0, #0
   10d00:	0a000001 	beq	10d0c <proto_free+0x30>
   10d04:	e1500004 	cmp	r0, r4
   10d08:	1b00030d 	blne	11944 <free>
   10d0c:	e1a00004 	mov	r0, r4
   10d10:	eb00030b 	bl	11944 <free>
   10d14:	e24bd014 	sub	sp, fp, #20
   10d18:	e89d6830 	ldm	sp, {r4, r5, fp, sp, lr}
   10d1c:	e12fff1e 	bx	lr

00010d20 <__aeabi_ldivmod>:
   10d20:	e92d5000 	push	{ip, lr}
   10d24:	e92d000f 	push	{r0, r1, r2, r3}
   10d28:	e1a0000d 	mov	r0, sp
   10d2c:	eb0000c3 	bl	11040 <__l_divmod>
   10d30:	e8bd000f 	pop	{r0, r1, r2, r3}
   10d34:	e8bd9000 	pop	{ip, pc}

00010d38 <__aeabi_uldivmod>:
   10d38:	e92d5000 	push	{ip, lr}
   10d3c:	e92d000f 	push	{r0, r1, r2, r3}
   10d40:	e1a0000d 	mov	r0, sp
   10d44:	eb000089 	bl	10f70 <__ul_divmod>
   10d48:	e8bd000f 	pop	{r0, r1, r2, r3}
   10d4c:	e8bd9000 	pop	{ip, pc}

00010d50 <uint_div_qr>:
   10d50:	e3510000 	cmp	r1, #0
   10d54:	0a00001c 	beq	10dcc <uint_div_qr+0x7c>
   10d58:	e3a03001 	mov	r3, #1
   10d5c:	ba000005 	blt	10d78 <uint_div_qr+0x28>
   10d60:	e1b01081 	lsls	r1, r1, #1
   10d64:	e1a03083 	lsl	r3, r3, #1
   10d68:	5afffffc 	bpl	10d60 <uint_div_qr+0x10>
   10d6c:	e3530000 	cmp	r3, #0
   10d70:	01a0c003 	moveq	ip, r3
   10d74:	0a000007 	beq	10d98 <uint_div_qr+0x48>
   10d78:	e3a0c000 	mov	ip, #0
   10d7c:	e1510000 	cmp	r1, r0
   10d80:	e1a0c08c 	lsl	ip, ip, #1
   10d84:	90400001 	subls	r0, r0, r1
   10d88:	928cc001 	addls	ip, ip, #1
   10d8c:	e1b030a3 	lsrs	r3, r3, #1
   10d90:	e1a010a1 	lsr	r1, r1, #1
   10d94:	1afffff8 	bne	10d7c <uint_div_qr+0x2c>
   10d98:	e5820004 	str	r0, [r2, #4]
   10d9c:	e582c000 	str	ip, [r2]
   10da0:	e5923008 	ldr	r3, [r2, #8]
   10da4:	e3530000 	cmp	r3, #0
   10da8:	15923000 	ldrne	r3, [r2]
   10dac:	12633000 	rsbne	r3, r3, #0
   10db0:	15823000 	strne	r3, [r2]
   10db4:	e592300c 	ldr	r3, [r2, #12]
   10db8:	e3530000 	cmp	r3, #0
   10dbc:	15923004 	ldrne	r3, [r2, #4]
   10dc0:	12633000 	rsbne	r3, r3, #0
   10dc4:	15823004 	strne	r3, [r2, #4]
   10dc8:	e12fff1e 	bx	lr
   10dcc:	e3e03000 	mvn	r3, #0
   10dd0:	e5823004 	str	r3, [r2, #4]
   10dd4:	eafffff1 	b	10da0 <uint_div_qr+0x50>

00010dd8 <__aeabi_uidiv>:
   10dd8:	e1a0c00d 	mov	ip, sp
   10ddc:	e3a03000 	mov	r3, #0
   10de0:	e92dd800 	push	{fp, ip, lr, pc}
   10de4:	e24cb004 	sub	fp, ip, #4
   10de8:	e24dd010 	sub	sp, sp, #16
   10dec:	e24b201c 	sub	r2, fp, #28
   10df0:	e50b301c 	str	r3, [fp, #-28]	; 0xffffffe4
   10df4:	e5823004 	str	r3, [r2, #4]
   10df8:	e5823008 	str	r3, [r2, #8]
   10dfc:	e582300c 	str	r3, [r2, #12]
   10e00:	ebffffd2 	bl	10d50 <uint_div_qr>
   10e04:	e51b001c 	ldr	r0, [fp, #-28]	; 0xffffffe4
   10e08:	e24bd00c 	sub	sp, fp, #12
   10e0c:	e89d6800 	ldm	sp, {fp, sp, lr}
   10e10:	e12fff1e 	bx	lr

00010e14 <__aeabi_uidivmod>:
   10e14:	e1a0c00d 	mov	ip, sp
   10e18:	e3a03000 	mov	r3, #0
   10e1c:	e92dd800 	push	{fp, ip, lr, pc}
   10e20:	e24cb004 	sub	fp, ip, #4
   10e24:	e24dd010 	sub	sp, sp, #16
   10e28:	e24b201c 	sub	r2, fp, #28
   10e2c:	e50b301c 	str	r3, [fp, #-28]	; 0xffffffe4
   10e30:	e5823004 	str	r3, [r2, #4]
   10e34:	e5823008 	str	r3, [r2, #8]
   10e38:	e582300c 	str	r3, [r2, #12]
   10e3c:	ebffffc3 	bl	10d50 <uint_div_qr>
   10e40:	e24b001c 	sub	r0, fp, #28
   10e44:	e8900003 	ldm	r0, {r0, r1}
   10e48:	eb000756 	bl	12ba8 <ret_uidivmod_values>
   10e4c:	e24bd00c 	sub	sp, fp, #12
   10e50:	e89d6800 	ldm	sp, {fp, sp, lr}
   10e54:	e12fff1e 	bx	lr

00010e58 <__aeabi_idiv>:
   10e58:	e3a03000 	mov	r3, #0
   10e5c:	e1a0c00d 	mov	ip, sp
   10e60:	e1510003 	cmp	r1, r3
   10e64:	e92dd800 	push	{fp, ip, lr, pc}
   10e68:	e24cb004 	sub	fp, ip, #4
   10e6c:	d3a0c000 	movle	ip, #0
   10e70:	c3a0c001 	movgt	ip, #1
   10e74:	e24b201c 	sub	r2, fp, #28
   10e78:	e24dd010 	sub	sp, sp, #16
   10e7c:	e50b301c 	str	r3, [fp, #-28]	; 0xffffffe4
   10e80:	e5823004 	str	r3, [r2, #4]
   10e84:	e5823008 	str	r3, [r2, #8]
   10e88:	e582300c 	str	r3, [r2, #12]
   10e8c:	e01c3fa0 	ands	r3, ip, r0, lsr #31
   10e90:	1a000005 	bne	10eac <__aeabi_idiv+0x54>
   10e94:	e1a03fa1 	lsr	r3, r1, #31
   10e98:	e3500000 	cmp	r0, #0
   10e9c:	d3a03000 	movle	r3, #0
   10ea0:	c2033001 	andgt	r3, r3, #1
   10ea4:	e3530000 	cmp	r3, #0
   10ea8:	0a000001 	beq	10eb4 <__aeabi_idiv+0x5c>
   10eac:	e3a03001 	mov	r3, #1
   10eb0:	e50b3014 	str	r3, [fp, #-20]	; 0xffffffec
   10eb4:	e3500000 	cmp	r0, #0
   10eb8:	b3a03001 	movlt	r3, #1
   10ebc:	b2600000 	rsblt	r0, r0, #0
   10ec0:	b50b3010 	strlt	r3, [fp, #-16]
   10ec4:	e3510000 	cmp	r1, #0
   10ec8:	b2611000 	rsblt	r1, r1, #0
   10ecc:	ebffff9f 	bl	10d50 <uint_div_qr>
   10ed0:	e51b001c 	ldr	r0, [fp, #-28]	; 0xffffffe4
   10ed4:	e24bd00c 	sub	sp, fp, #12
   10ed8:	e89d6800 	ldm	sp, {fp, sp, lr}
   10edc:	e12fff1e 	bx	lr

00010ee0 <__aeabi_idivmod>:
   10ee0:	e3a03000 	mov	r3, #0
   10ee4:	e1a0c00d 	mov	ip, sp
   10ee8:	e1510003 	cmp	r1, r3
   10eec:	e92dd800 	push	{fp, ip, lr, pc}
   10ef0:	e24cb004 	sub	fp, ip, #4
   10ef4:	d3a0c000 	movle	ip, #0
   10ef8:	c3a0c001 	movgt	ip, #1
   10efc:	e24b201c 	sub	r2, fp, #28
   10f00:	e24dd010 	sub	sp, sp, #16
   10f04:	e50b301c 	str	r3, [fp, #-28]	; 0xffffffe4
   10f08:	e5823004 	str	r3, [r2, #4]
   10f0c:	e5823008 	str	r3, [r2, #8]
   10f10:	e582300c 	str	r3, [r2, #12]
   10f14:	e01c3fa0 	ands	r3, ip, r0, lsr #31
   10f18:	1a000005 	bne	10f34 <__aeabi_idivmod+0x54>
   10f1c:	e1a03fa1 	lsr	r3, r1, #31
   10f20:	e3500000 	cmp	r0, #0
   10f24:	d3a03000 	movle	r3, #0
   10f28:	c2033001 	andgt	r3, r3, #1
   10f2c:	e3530000 	cmp	r3, #0
   10f30:	0a000001 	beq	10f3c <__aeabi_idivmod+0x5c>
   10f34:	e3a03001 	mov	r3, #1
   10f38:	e50b3014 	str	r3, [fp, #-20]	; 0xffffffec
   10f3c:	e3500000 	cmp	r0, #0
   10f40:	b3a03001 	movlt	r3, #1
   10f44:	b2600000 	rsblt	r0, r0, #0
   10f48:	b50b3010 	strlt	r3, [fp, #-16]
   10f4c:	e3510000 	cmp	r1, #0
   10f50:	b2611000 	rsblt	r1, r1, #0
   10f54:	ebffff7d 	bl	10d50 <uint_div_qr>
   10f58:	e24b001c 	sub	r0, fp, #28
   10f5c:	e8900003 	ldm	r0, {r0, r1}
   10f60:	eb00070f 	bl	12ba4 <ret_idivmod_values>
   10f64:	e24bd00c 	sub	sp, fp, #12
   10f68:	e89d6800 	ldm	sp, {fp, sp, lr}
   10f6c:	e12fff1e 	bx	lr

00010f70 <__ul_divmod>:
   10f70:	e5903008 	ldr	r3, [r0, #8]
   10f74:	e590100c 	ldr	r1, [r0, #12]
   10f78:	e1932001 	orrs	r2, r3, r1
   10f7c:	e92d40f0 	push	{r4, r5, r6, r7, lr}
   10f80:	e5907000 	ldr	r7, [r0]
   10f84:	e5906004 	ldr	r6, [r0, #4]
   10f88:	0a000026 	beq	11028 <__ul_divmod+0xb8>
   10f8c:	e3510000 	cmp	r1, #0
   10f90:	e3a0e001 	mov	lr, #1
   10f94:	e3a04000 	mov	r4, #0
   10f98:	ba000007 	blt	10fbc <__ul_divmod+0x4c>
   10f9c:	e09ee00e 	adds	lr, lr, lr
   10fa0:	e0a44004 	adc	r4, r4, r4
   10fa4:	e0933003 	adds	r3, r3, r3
   10fa8:	e0a11001 	adc	r1, r1, r1
   10fac:	e3510000 	cmp	r1, #0
   10fb0:	aafffff9 	bge	10f9c <__ul_divmod+0x2c>
   10fb4:	e19e2004 	orrs	r2, lr, r4
   10fb8:	0a00001d 	beq	11034 <__ul_divmod+0xc4>
   10fbc:	e1a02003 	mov	r2, r3
   10fc0:	e3a03000 	mov	r3, #0
   10fc4:	e1a05001 	mov	r5, r1
   10fc8:	e1a01003 	mov	r1, r3
   10fcc:	e0933003 	adds	r3, r3, r3
   10fd0:	e0a11001 	adc	r1, r1, r1
   10fd4:	e1570002 	cmp	r7, r2
   10fd8:	e1a0e0ae 	lsr	lr, lr, #1
   10fdc:	e0d6c005 	sbcs	ip, r6, r5
   10fe0:	e18eef84 	orr	lr, lr, r4, lsl #31
   10fe4:	e1a0c0a2 	lsr	ip, r2, #1
   10fe8:	e1a040a4 	lsr	r4, r4, #1
   10fec:	3a000004 	bcc	11004 <__ul_divmod+0x94>
   10ff0:	e0572002 	subs	r2, r7, r2
   10ff4:	e1a07002 	mov	r7, r2
   10ff8:	e0c66005 	sbc	r6, r6, r5
   10ffc:	e2933001 	adds	r3, r3, #1
   11000:	e2a11000 	adc	r1, r1, #0
   11004:	e19e2004 	orrs	r2, lr, r4
   11008:	e18c2f85 	orr	r2, ip, r5, lsl #31
   1100c:	e1a050a5 	lsr	r5, r5, #1
   11010:	1affffed 	bne	10fcc <__ul_divmod+0x5c>
   11014:	e9800082 	stmib	r0, {r1, r7}
   11018:	e580600c 	str	r6, [r0, #12]
   1101c:	e5803000 	str	r3, [r0]
   11020:	e8bd40f0 	pop	{r4, r5, r6, r7, lr}
   11024:	e12fff1e 	bx	lr
   11028:	e3e07000 	mvn	r7, #0
   1102c:	e1a06007 	mov	r6, r7
   11030:	eafffff7 	b	11014 <__ul_divmod+0xa4>
   11034:	e1a0300e 	mov	r3, lr
   11038:	e1a01004 	mov	r1, r4
   1103c:	eafffff4 	b	11014 <__ul_divmod+0xa4>

00011040 <__l_divmod>:
   11040:	e2803008 	add	r3, r0, #8
   11044:	e8931008 	ldm	r3, {r3, ip}
   11048:	e3530001 	cmp	r3, #1
   1104c:	e2dc2000 	sbcs	r2, ip, #0
   11050:	e92d43f0 	push	{r4, r5, r6, r7, r8, r9, lr}
   11054:	a3a07001 	movge	r7, #1
   11058:	b3a07000 	movlt	r7, #0
   1105c:	e8900060 	ldm	r0, {r5, r6}
   11060:	e0177fa6 	ands	r7, r7, r6, lsr #31
   11064:	1a000036 	bne	11144 <__l_divmod+0x104>
   11068:	e3550001 	cmp	r5, #1
   1106c:	e2d62000 	sbcs	r2, r6, #0
   11070:	e1a01fac 	lsr	r1, ip, #31
   11074:	b3a01000 	movlt	r1, #0
   11078:	a2011001 	andge	r1, r1, #1
   1107c:	e3510000 	cmp	r1, #0
   11080:	0a000036 	beq	11160 <__l_divmod+0x120>
   11084:	e3560000 	cmp	r6, #0
   11088:	ba00002d 	blt	11144 <__l_divmod+0x104>
   1108c:	e3a08001 	mov	r8, #1
   11090:	e1a02fcc 	asr	r2, ip, #31
   11094:	e0233fcc 	eor	r3, r3, ip, asr #31
   11098:	e0533002 	subs	r3, r3, r2
   1109c:	e02ccfcc 	eor	ip, ip, ip, asr #31
   110a0:	e0ccc002 	sbc	ip, ip, r2
   110a4:	e3a0e000 	mov	lr, #0
   110a8:	e3a02001 	mov	r2, #1
   110ac:	e0922002 	adds	r2, r2, r2
   110b0:	e0aee00e 	adc	lr, lr, lr
   110b4:	e0933003 	adds	r3, r3, r3
   110b8:	e0acc00c 	adc	ip, ip, ip
   110bc:	e35c0000 	cmp	ip, #0
   110c0:	aafffff9 	bge	110ac <__l_divmod+0x6c>
   110c4:	e192100e 	orrs	r1, r2, lr
   110c8:	0a000037 	beq	111ac <__l_divmod+0x16c>
   110cc:	e3a01000 	mov	r1, #0
   110d0:	e1a04001 	mov	r4, r1
   110d4:	e0911001 	adds	r1, r1, r1
   110d8:	e0a44004 	adc	r4, r4, r4
   110dc:	e1550003 	cmp	r5, r3
   110e0:	e1a020a2 	lsr	r2, r2, #1
   110e4:	e0d6900c 	sbcs	r9, r6, ip
   110e8:	e1822f8e 	orr	r2, r2, lr, lsl #31
   110ec:	e1a090a3 	lsr	r9, r3, #1
   110f0:	e1a0e0ae 	lsr	lr, lr, #1
   110f4:	3a000003 	bcc	11108 <__l_divmod+0xc8>
   110f8:	e0555003 	subs	r5, r5, r3
   110fc:	e0c6600c 	sbc	r6, r6, ip
   11100:	e2911001 	adds	r1, r1, #1
   11104:	e2a44000 	adc	r4, r4, #0
   11108:	e192300e 	orrs	r3, r2, lr
   1110c:	e1893f8c 	orr	r3, r9, ip, lsl #31
   11110:	e1a0c0ac 	lsr	ip, ip, #1
   11114:	1affffee 	bne	110d4 <__l_divmod+0x94>
   11118:	e3580000 	cmp	r8, #0
   1111c:	0a000001 	beq	11128 <__l_divmod+0xe8>
   11120:	e2711000 	rsbs	r1, r1, #0
   11124:	e2e44000 	rsc	r4, r4, #0
   11128:	e3570000 	cmp	r7, #0
   1112c:	0a000001 	beq	11138 <__l_divmod+0xf8>
   11130:	e2755000 	rsbs	r5, r5, #0
   11134:	e2e66000 	rsc	r6, r6, #0
   11138:	e8800072 	stm	r0, {r1, r4, r5, r6}
   1113c:	e8bd43f0 	pop	{r4, r5, r6, r7, r8, r9, lr}
   11140:	e12fff1e 	bx	lr
   11144:	e3a08001 	mov	r8, #1
   11148:	e2755000 	rsbs	r5, r5, #0
   1114c:	e2e66000 	rsc	r6, r6, #0
   11150:	e193200c 	orrs	r2, r3, ip
   11154:	0a00000e 	beq	11194 <__l_divmod+0x154>
   11158:	e3a07001 	mov	r7, #1
   1115c:	eaffffcb 	b	11090 <__l_divmod+0x50>
   11160:	e3560000 	cmp	r6, #0
   11164:	b1a08001 	movlt	r8, r1
   11168:	bafffff6 	blt	11148 <__l_divmod+0x108>
   1116c:	e193200c 	orrs	r2, r3, ip
   11170:	11a08001 	movne	r8, r1
   11174:	11a07008 	movne	r7, r8
   11178:	1affffc4 	bne	11090 <__l_divmod+0x50>
   1117c:	e3e05000 	mvn	r5, #0
   11180:	e1a04001 	mov	r4, r1
   11184:	e1a06005 	mov	r6, r5
   11188:	e8800072 	stm	r0, {r1, r4, r5, r6}
   1118c:	e8bd43f0 	pop	{r4, r5, r6, r7, r8, r9, lr}
   11190:	e12fff1e 	bx	lr
   11194:	e3e05000 	mvn	r5, #0
   11198:	e3a01000 	mov	r1, #0
   1119c:	e3a07001 	mov	r7, #1
   111a0:	e1a06005 	mov	r6, r5
   111a4:	e1a04001 	mov	r4, r1
   111a8:	eaffffda 	b	11118 <__l_divmod+0xd8>
   111ac:	e1a01002 	mov	r1, r2
   111b0:	e1a0400e 	mov	r4, lr
   111b4:	eaffffd7 	b	11118 <__l_divmod+0xd8>

000111b8 <shm_alloc>:
   111b8:	e1a0c00d 	mov	ip, sp
   111bc:	e1a03000 	mov	r3, r0
   111c0:	e92dd800 	push	{fp, ip, lr, pc}
   111c4:	e1a02001 	mov	r2, r1
   111c8:	e24cb004 	sub	fp, ip, #4
   111cc:	e1a01003 	mov	r1, r3
   111d0:	e3a0001a 	mov	r0, #26
   111d4:	eb000669 	bl	12b80 <syscall2>
   111d8:	e24bd00c 	sub	sp, fp, #12
   111dc:	e89d6800 	ldm	sp, {fp, sp, lr}
   111e0:	e12fff1e 	bx	lr

000111e4 <shm_map>:
   111e4:	e1a0c00d 	mov	ip, sp
   111e8:	e1a01000 	mov	r1, r0
   111ec:	e92dd800 	push	{fp, ip, lr, pc}
   111f0:	e3a0001b 	mov	r0, #27
   111f4:	e24cb004 	sub	fp, ip, #4
   111f8:	eb000662 	bl	12b88 <syscall1>
   111fc:	e24bd00c 	sub	sp, fp, #12
   11200:	e89d6800 	ldm	sp, {fp, sp, lr}
   11204:	e12fff1e 	bx	lr

00011208 <shm_unmap>:
   11208:	e1a0c00d 	mov	ip, sp
   1120c:	e1a01000 	mov	r1, r0
   11210:	e92dd800 	push	{fp, ip, lr, pc}
   11214:	e3a0001c 	mov	r0, #28
   11218:	e24cb004 	sub	fp, ip, #4
   1121c:	eb000659 	bl	12b88 <syscall1>
   11220:	e24bd00c 	sub	sp, fp, #12
   11224:	e89d6800 	ldm	sp, {fp, sp, lr}
   11228:	e12fff1e 	bx	lr

0001122c <proc_init>:
   1122c:	e1a0c00d 	mov	ip, sp
   11230:	e3e02000 	mvn	r2, #0
   11234:	e59f3024 	ldr	r3, [pc, #36]	; 11260 <proc_init+0x34>
   11238:	e92dd800 	push	{fp, ip, lr, pc}
   1123c:	e08f3003 	add	r3, pc, r3
   11240:	e24cb004 	sub	fp, ip, #4
   11244:	e5832000 	str	r2, [r3]
   11248:	e5832004 	str	r2, [r3, #4]
   1124c:	e5832008 	str	r2, [r3, #8]
   11250:	ebffee09 	bl	ca7c <vfs_init>
   11254:	e24bd00c 	sub	sp, fp, #12
   11258:	e89d6800 	ldm	sp, {fp, sp, lr}
   1125c:	e12fff1e 	bx	lr
   11260:	00017990 	muleq	r1, r0, r9

00011264 <get_vfsd_pid>:
   11264:	e1a0c00d 	mov	ip, sp
   11268:	e92dd830 	push	{r4, r5, fp, ip, lr, pc}
   1126c:	e59f4038 	ldr	r4, [pc, #56]	; 112ac <get_vfsd_pid+0x48>
   11270:	e08f4004 	add	r4, pc, r4
   11274:	e5940000 	ldr	r0, [r4]
   11278:	e3500000 	cmp	r0, #0
   1127c:	e24cb004 	sub	fp, ip, #4
   11280:	ba000002 	blt	11290 <get_vfsd_pid+0x2c>
   11284:	e24bd014 	sub	sp, fp, #20
   11288:	e89d6830 	ldm	sp, {r4, r5, fp, sp, lr}
   1128c:	e12fff1e 	bx	lr
   11290:	e59f0018 	ldr	r0, [pc, #24]	; 112b0 <get_vfsd_pid+0x4c>
   11294:	e08f0000 	add	r0, pc, r0
   11298:	ebfff7b6 	bl	f178 <ipc_serv_get>
   1129c:	e5840000 	str	r0, [r4]
   112a0:	e24bd014 	sub	sp, fp, #20
   112a4:	e89d6830 	ldm	sp, {r4, r5, fp, sp, lr}
   112a8:	e12fff1e 	bx	lr
   112ac:	0001795c 	andeq	r7, r1, ip, asr r9
   112b0:	00006880 	andeq	r6, r0, r0, lsl #17

000112b4 <get_cored_pid>:
   112b4:	e1a0c00d 	mov	ip, sp
   112b8:	e92dd830 	push	{r4, r5, fp, ip, lr, pc}
   112bc:	e59f4034 	ldr	r4, [pc, #52]	; 112f8 <get_cored_pid+0x44>
   112c0:	e08f4004 	add	r4, pc, r4
   112c4:	e5940004 	ldr	r0, [r4, #4]
   112c8:	e3500000 	cmp	r0, #0
   112cc:	e24cb004 	sub	fp, ip, #4
   112d0:	ba000002 	blt	112e0 <get_cored_pid+0x2c>
   112d4:	e24bd014 	sub	sp, fp, #20
   112d8:	e89d6830 	ldm	sp, {r4, r5, fp, sp, lr}
   112dc:	e12fff1e 	bx	lr
   112e0:	e3a0002d 	mov	r0, #45	; 0x2d
   112e4:	eb00062a 	bl	12b94 <syscall0>
   112e8:	e5840004 	str	r0, [r4, #4]
   112ec:	e24bd014 	sub	sp, fp, #20
   112f0:	e89d6830 	ldm	sp, {r4, r5, fp, sp, lr}
   112f4:	e12fff1e 	bx	lr
   112f8:	0001790c 	andeq	r7, r1, ip, lsl #18

000112fc <proc_getpid>:
   112fc:	e1a0c00d 	mov	ip, sp
   11300:	e2501000 	subs	r1, r0, #0
   11304:	e92dd830 	push	{r4, r5, fp, ip, lr, pc}
   11308:	e24cb004 	sub	fp, ip, #4
   1130c:	ba000004 	blt	11324 <proc_getpid+0x28>
   11310:	e3a00012 	mov	r0, #18
   11314:	eb00061b 	bl	12b88 <syscall1>
   11318:	e24bd014 	sub	sp, fp, #20
   1131c:	e89d6830 	ldm	sp, {r4, r5, fp, sp, lr}
   11320:	e12fff1e 	bx	lr
   11324:	e59f4024 	ldr	r4, [pc, #36]	; 11350 <proc_getpid+0x54>
   11328:	e08f4004 	add	r4, pc, r4
   1132c:	e5940008 	ldr	r0, [r4, #8]
   11330:	e3500000 	cmp	r0, #0
   11334:	aafffff7 	bge	11318 <proc_getpid+0x1c>
   11338:	e3a00012 	mov	r0, #18
   1133c:	eb000611 	bl	12b88 <syscall1>
   11340:	e5840008 	str	r0, [r4, #8]
   11344:	e24bd014 	sub	sp, fp, #20
   11348:	e89d6830 	ldm	sp, {r4, r5, fp, sp, lr}
   1134c:	e12fff1e 	bx	lr
   11350:	000178a4 	andeq	r7, r1, r4, lsr #17

00011354 <proc_detach>:
   11354:	e1a0c00d 	mov	ip, sp
   11358:	e3a0000c 	mov	r0, #12
   1135c:	e92dd800 	push	{fp, ip, lr, pc}
   11360:	e24cb004 	sub	fp, ip, #4
   11364:	eb00060a 	bl	12b94 <syscall0>
   11368:	e24bd00c 	sub	sp, fp, #12
   1136c:	e89d6800 	ldm	sp, {fp, sp, lr}
   11370:	e12fff1e 	bx	lr

00011374 <proc_ping>:
   11374:	e1a0c00d 	mov	ip, sp
   11378:	e1a01000 	mov	r1, r0
   1137c:	e92dd800 	push	{fp, ip, lr, pc}
   11380:	e3a00014 	mov	r0, #20
   11384:	e24cb004 	sub	fp, ip, #4
   11388:	eb0005fe 	bl	12b88 <syscall1>
   1138c:	e24bd00c 	sub	sp, fp, #12
   11390:	e89d6800 	ldm	sp, {fp, sp, lr}
   11394:	e12fff1e 	bx	lr

00011398 <proc_ready_ping>:
   11398:	e1a0c00d 	mov	ip, sp
   1139c:	e3a00015 	mov	r0, #21
   113a0:	e92dd800 	push	{fp, ip, lr, pc}
   113a4:	e24cb004 	sub	fp, ip, #4
   113a8:	eb0005f9 	bl	12b94 <syscall0>
   113ac:	e24bd00c 	sub	sp, fp, #12
   113b0:	e89d6800 	ldm	sp, {fp, sp, lr}
   113b4:	e12fff1e 	bx	lr

000113b8 <proc_wait_ready>:
   113b8:	e1a0c00d 	mov	ip, sp
   113bc:	e92dd830 	push	{r4, r5, fp, ip, lr, pc}
   113c0:	e1a04000 	mov	r4, r0
   113c4:	e59f502c 	ldr	r5, [pc, #44]	; 113f8 <proc_wait_ready+0x40>
   113c8:	e24cb004 	sub	fp, ip, #4
   113cc:	ea000001 	b	113d8 <proc_wait_ready+0x20>
   113d0:	e1a00005 	mov	r0, r5
   113d4:	eb0000d1 	bl	11720 <usleep>
   113d8:	e1a01004 	mov	r1, r4
   113dc:	e3a00014 	mov	r0, #20
   113e0:	eb0005e8 	bl	12b88 <syscall1>
   113e4:	e3500000 	cmp	r0, #0
   113e8:	1afffff8 	bne	113d0 <proc_wait_ready+0x18>
   113ec:	e24bd014 	sub	sp, fp, #20
   113f0:	e89d6830 	ldm	sp, {r4, r5, fp, sp, lr}
   113f4:	e12fff1e 	bx	lr
   113f8:	000186a0 	andeq	r8, r1, r0, lsr #13

000113fc <proc_block>:
   113fc:	e1a0c00d 	mov	ip, sp
   11400:	e1a03000 	mov	r3, r0
   11404:	e92dd800 	push	{fp, ip, lr, pc}
   11408:	e1a02001 	mov	r2, r1
   1140c:	e24cb004 	sub	fp, ip, #4
   11410:	e1a01003 	mov	r1, r3
   11414:	e3a0000d 	mov	r0, #13
   11418:	eb0005d8 	bl	12b80 <syscall2>
   1141c:	e24bd00c 	sub	sp, fp, #12
   11420:	e89d6800 	ldm	sp, {fp, sp, lr}
   11424:	e12fff1e 	bx	lr

00011428 <proc_wakeup>:
   11428:	e1a0c00d 	mov	ip, sp
   1142c:	e1a01000 	mov	r1, r0
   11430:	e92dd800 	push	{fp, ip, lr, pc}
   11434:	e3a0000e 	mov	r0, #14
   11438:	e24cb004 	sub	fp, ip, #4
   1143c:	eb0005d1 	bl	12b88 <syscall1>
   11440:	e24bd00c 	sub	sp, fp, #12
   11444:	e89d6800 	ldm	sp, {fp, sp, lr}
   11448:	e12fff1e 	bx	lr

0001144c <proc_exec_elf>:
   1144c:	e1a0c00d 	mov	ip, sp
   11450:	e92dd800 	push	{fp, ip, lr, pc}
   11454:	e24cb004 	sub	fp, ip, #4
   11458:	e1a0e000 	mov	lr, r0
   1145c:	e1a0c001 	mov	ip, r1
   11460:	e1a03002 	mov	r3, r2
   11464:	e1a0100e 	mov	r1, lr
   11468:	e1a0200c 	mov	r2, ip
   1146c:	e3a00005 	mov	r0, #5
   11470:	eb0005c1 	bl	12b7c <syscall3>
   11474:	e24bd00c 	sub	sp, fp, #12
   11478:	e89d6800 	ldm	sp, {fp, sp, lr}
   1147c:	e12fff1e 	bx	lr

00011480 <proc_check_uuid>:
   11480:	e1a0c00d 	mov	ip, sp
   11484:	e1a03000 	mov	r3, r0
   11488:	e92dd830 	push	{r4, r5, fp, ip, lr, pc}
   1148c:	e3a00034 	mov	r0, #52	; 0x34
   11490:	e1a04001 	mov	r4, r1
   11494:	e24cb004 	sub	fp, ip, #4
   11498:	e1a01003 	mov	r1, r3
   1149c:	eb0005b9 	bl	12b88 <syscall1>
   114a0:	e1500004 	cmp	r0, r4
   114a4:	01a00004 	moveq	r0, r4
   114a8:	13a00000 	movne	r0, #0
   114ac:	e24bd014 	sub	sp, fp, #20
   114b0:	e89d6830 	ldm	sp, {r4, r5, fp, sp, lr}
   114b4:	e12fff1e 	bx	lr

000114b8 <getcwd>:
   114b8:	e1a0c00d 	mov	ip, sp
   114bc:	e92dd870 	push	{r4, r5, r6, fp, ip, lr, pc}
   114c0:	e24cb004 	sub	fp, ip, #4
   114c4:	e24dd09c 	sub	sp, sp, #156	; 0x9c
   114c8:	e1a06001 	mov	r6, r1
   114cc:	e1a05000 	mov	r5, r0
   114d0:	ebfffcf1 	bl	1089c <get_proto_factor>
   114d4:	e1a03000 	mov	r3, r0
   114d8:	e24b40b0 	sub	r4, fp, #176	; 0xb0
   114dc:	e5933004 	ldr	r3, [r3, #4]
   114e0:	e1a00004 	mov	r0, r4
   114e4:	e1a0e00f 	mov	lr, pc
   114e8:	e12fff13 	bx	r3
   114ec:	ebffff70 	bl	112b4 <get_cored_pid>
   114f0:	e1a03004 	mov	r3, r4
   114f4:	e3a02000 	mov	r2, #0
   114f8:	e3a01004 	mov	r1, #4
   114fc:	ebfff651 	bl	ee48 <ipc_call>
   11500:	e3500000 	cmp	r0, #0
   11504:	0a000009 	beq	11530 <getcwd+0x78>
   11508:	ebfffce3 	bl	1089c <get_proto_factor>
   1150c:	e1a03000 	mov	r3, r0
   11510:	e1a00004 	mov	r0, r4
   11514:	e593300c 	ldr	r3, [r3, #12]
   11518:	e1a0e00f 	mov	lr, pc
   1151c:	e12fff13 	bx	r3
   11520:	e1a00005 	mov	r0, r5
   11524:	e24bd018 	sub	sp, fp, #24
   11528:	e89d6870 	ldm	sp, {r4, r5, r6, fp, sp, lr}
   1152c:	e12fff1e 	bx	lr
   11530:	e1a00004 	mov	r0, r4
   11534:	ebfffda6 	bl	10bd4 <proto_read_int>
   11538:	e3500000 	cmp	r0, #0
   1153c:	1afffff1 	bne	11508 <getcwd+0x50>
   11540:	e1a00004 	mov	r0, r4
   11544:	ebfffdc3 	bl	10c58 <proto_read_str>
   11548:	e2462001 	sub	r2, r6, #1
   1154c:	e1a01000 	mov	r1, r0
   11550:	e1a00005 	mov	r0, r5
   11554:	eb001592 	bl	16ba4 <strncpy>
   11558:	eaffffea 	b	11508 <getcwd+0x50>

0001155c <getpid>:
   1155c:	e1a0c00d 	mov	ip, sp
   11560:	e3e00000 	mvn	r0, #0
   11564:	e92dd800 	push	{fp, ip, lr, pc}
   11568:	e24cb004 	sub	fp, ip, #4
   1156c:	ebffff62 	bl	112fc <proc_getpid>
   11570:	e24bd00c 	sub	sp, fp, #12
   11574:	e89d6800 	ldm	sp, {fp, sp, lr}
   11578:	e12fff1e 	bx	lr

0001157c <read>:
   1157c:	e1a0c00d 	mov	ip, sp
   11580:	e92dd9f0 	push	{r4, r5, r6, r7, r8, fp, ip, lr, pc}
   11584:	e1a06002 	mov	r6, r2
   11588:	e3a02000 	mov	r2, #0
   1158c:	e24cb004 	sub	fp, ip, #4
   11590:	e24dd064 	sub	sp, sp, #100	; 0x64
   11594:	e1a05001 	mov	r5, r1
   11598:	e1a01002 	mov	r1, r2
   1159c:	e1a04000 	mov	r4, r0
   115a0:	eb0003c8 	bl	124c8 <fcntl>
   115a4:	e59f713c 	ldr	r7, [pc, #316]	; 116e8 <read+0x16c>
   115a8:	e3700001 	cmn	r0, #1
   115ac:	e08f7007 	add	r7, pc, r7
   115b0:	0a000013 	beq	11604 <read+0x88>
   115b4:	e2100008 	ands	r0, r0, #8
   115b8:	0a000014 	beq	11610 <read+0x94>
   115bc:	e3a02000 	mov	r2, #0
   115c0:	e59f3124 	ldr	r3, [pc, #292]	; 116ec <read+0x170>
   115c4:	e7973003 	ldr	r3, [r7, r3]
   115c8:	e24b7080 	sub	r7, fp, #128	; 0x80
   115cc:	e1a01007 	mov	r1, r7
   115d0:	e1a00004 	mov	r0, r4
   115d4:	e5832000 	str	r2, [r3]
   115d8:	ebffed34 	bl	cab0 <vfs_get_by_fd>
   115dc:	e2503000 	subs	r3, r0, #0
   115e0:	1a00003e 	bne	116e0 <read+0x164>
   115e4:	e51b203c 	ldr	r2, [fp, #-60]	; 0xffffffc4
   115e8:	e3520003 	cmp	r2, #3
   115ec:	0a000030 	beq	116b4 <read+0x138>
   115f0:	e1a03006 	mov	r3, r6
   115f4:	e1a02005 	mov	r2, r5
   115f8:	e1a01007 	mov	r1, r7
   115fc:	e1a00004 	mov	r0, r4
   11600:	ebfff40c 	bl	e638 <vfs_read>
   11604:	e24bd020 	sub	sp, fp, #32
   11608:	e89d69f0 	ldm	sp, {r4, r5, r6, r7, r8, fp, sp, lr}
   1160c:	e12fff1e 	bx	lr
   11610:	e59f30d4 	ldr	r3, [pc, #212]	; 116ec <read+0x170>
   11614:	e7977003 	ldr	r7, [r7, r3]
   11618:	e24b8080 	sub	r8, fp, #128	; 0x80
   1161c:	e5870000 	str	r0, [r7]
   11620:	e1a01008 	mov	r1, r8
   11624:	e1a00004 	mov	r0, r4
   11628:	ebffed20 	bl	cab0 <vfs_get_by_fd>
   1162c:	e3500000 	cmp	r0, #0
   11630:	1a00002a 	bne	116e0 <read+0x164>
   11634:	e51b303c 	ldr	r3, [fp, #-60]	; 0xffffffc4
   11638:	e3530003 	cmp	r3, #3
   1163c:	1a000005 	bne	11658 <read+0xdc>
   11640:	ea000013 	b	11694 <read+0x118>
   11644:	e5973000 	ldr	r3, [r7]
   11648:	e3530002 	cmp	r3, #2
   1164c:	0a000008 	beq	11674 <read+0xf8>
   11650:	e3530001 	cmp	r3, #1
   11654:	0a00001d 	beq	116d0 <read+0x154>
   11658:	e1a03006 	mov	r3, r6
   1165c:	e1a02005 	mov	r2, r5
   11660:	e1a01008 	mov	r1, r8
   11664:	e1a00004 	mov	r0, r4
   11668:	ebfff3f2 	bl	e638 <vfs_read>
   1166c:	e3500000 	cmp	r0, #0
   11670:	bafffff3 	blt	11644 <read+0xc8>
   11674:	e3a03001 	mov	r3, #1
   11678:	e5873000 	str	r3, [r7]
   1167c:	e24bd020 	sub	sp, fp, #32
   11680:	e89d69f0 	ldm	sp, {r4, r5, r6, r7, r8, fp, sp, lr}
   11684:	e12fff1e 	bx	lr
   11688:	e5973000 	ldr	r3, [r7]
   1168c:	e3530001 	cmp	r3, #1
   11690:	1affffdb 	bne	11604 <read+0x88>
   11694:	e3a03001 	mov	r3, #1
   11698:	e1a02006 	mov	r2, r6
   1169c:	e1a01005 	mov	r1, r5
   116a0:	e1a00008 	mov	r0, r8
   116a4:	ebfff3cf 	bl	e5e8 <vfs_read_pipe>
   116a8:	e3500000 	cmp	r0, #0
   116ac:	bafffff5 	blt	11688 <read+0x10c>
   116b0:	eaffffd3 	b	11604 <read+0x88>
   116b4:	e1a02006 	mov	r2, r6
   116b8:	e1a01005 	mov	r1, r5
   116bc:	e1a00007 	mov	r0, r7
   116c0:	ebfff3c8 	bl	e5e8 <vfs_read_pipe>
   116c4:	e24bd020 	sub	sp, fp, #32
   116c8:	e89d69f0 	ldm	sp, {r4, r5, r6, r7, r8, fp, sp, lr}
   116cc:	e12fff1e 	bx	lr
   116d0:	e3a01000 	mov	r1, #0
   116d4:	e51b002c 	ldr	r0, [fp, #-44]	; 0xffffffd4
   116d8:	ebffff47 	bl	113fc <proc_block>
   116dc:	eaffffdd 	b	11658 <read+0xdc>
   116e0:	e3e00000 	mvn	r0, #0
   116e4:	eaffffc6 	b	11604 <read+0x88>
   116e8:	00016638 	andeq	r6, r1, r8, lsr r6
   116ec:	00000020 	andeq	r0, r0, r0, lsr #32

000116f0 <sleep>:
   116f0:	e1a0c00d 	mov	ip, sp
   116f4:	e0603280 	rsb	r3, r0, r0, lsl #5
   116f8:	e0633303 	rsb	r3, r3, r3, lsl #6
   116fc:	e0800183 	add	r0, r0, r3, lsl #3
   11700:	e92dd800 	push	{fp, ip, lr, pc}
   11704:	e1a00300 	lsl	r0, r0, #6
   11708:	e24cb004 	sub	fp, ip, #4
   1170c:	eb000003 	bl	11720 <usleep>
   11710:	e3a00000 	mov	r0, #0
   11714:	e24bd00c 	sub	sp, fp, #12
   11718:	e89d6800 	ldm	sp, {fp, sp, lr}
   1171c:	e12fff1e 	bx	lr

00011720 <usleep>:
   11720:	e1a0c00d 	mov	ip, sp
   11724:	e2501000 	subs	r1, r0, #0
   11728:	e92dd800 	push	{fp, ip, lr, pc}
   1172c:	e24cb004 	sub	fp, ip, #4
   11730:	1a000005 	bne	1174c <usleep+0x2c>
   11734:	e3a00008 	mov	r0, #8
   11738:	eb000515 	bl	12b94 <syscall0>
   1173c:	e3a00000 	mov	r0, #0
   11740:	e24bd00c 	sub	sp, fp, #12
   11744:	e89d6800 	ldm	sp, {fp, sp, lr}
   11748:	e12fff1e 	bx	lr
   1174c:	e3a0000a 	mov	r0, #10
   11750:	eb00050c 	bl	12b88 <syscall1>
   11754:	e3a00000 	mov	r0, #0
   11758:	e24bd00c 	sub	sp, fp, #12
   1175c:	e89d6800 	ldm	sp, {fp, sp, lr}
   11760:	e12fff1e 	bx	lr

00011764 <atoi_base>:
   11764:	e92d4070 	push	{r4, r5, r6, lr}
   11768:	e5d03000 	ldrb	r3, [r0]
   1176c:	e3530000 	cmp	r3, #0
   11770:	0a000050 	beq	118b8 <atoi_base+0x154>
   11774:	e3a05000 	mov	r5, #0
   11778:	e1a0c000 	mov	ip, r0
   1177c:	e1a04005 	mov	r4, r5
   11780:	e1a00005 	mov	r0, r5
   11784:	e1a0e005 	mov	lr, r5
   11788:	ea00000a 	b	117b8 <atoi_base+0x54>
   1178c:	e3510008 	cmp	r1, #8
   11790:	0a000012 	beq	117e0 <atoi_base+0x7c>
   11794:	e351000a 	cmp	r1, #10
   11798:	0a000021 	beq	11824 <atoi_base+0xc0>
   1179c:	e3510010 	cmp	r1, #16
   117a0:	0a000027 	beq	11844 <atoi_base+0xe0>
   117a4:	e0800004 	add	r0, r0, r4
   117a8:	e5fc3001 	ldrb	r3, [ip, #1]!
   117ac:	e3530000 	cmp	r3, #0
   117b0:	e28ee001 	add	lr, lr, #1
   117b4:	0a000016 	beq	11814 <atoi_base+0xb0>
   117b8:	e3510002 	cmp	r1, #2
   117bc:	1afffff2 	bne	1178c <atoi_base+0x28>
   117c0:	e2433030 	sub	r3, r3, #48	; 0x30
   117c4:	e20320ff 	and	r2, r3, #255	; 0xff
   117c8:	e3520001 	cmp	r2, #1
   117cc:	91a04003 	movls	r4, r3
   117d0:	90840080 	addls	r0, r4, r0, lsl #1
   117d4:	9afffff3 	bls	117a8 <atoi_base+0x44>
   117d8:	e3a05001 	mov	r5, #1
   117dc:	eafffff0 	b	117a4 <atoi_base+0x40>
   117e0:	e3530030 	cmp	r3, #48	; 0x30
   117e4:	035e0000 	cmpeq	lr, #0
   117e8:	0a000030 	beq	118b0 <atoi_base+0x14c>
   117ec:	e2433030 	sub	r3, r3, #48	; 0x30
   117f0:	e20320ff 	and	r2, r3, #255	; 0xff
   117f4:	e3520007 	cmp	r2, #7
   117f8:	91a04003 	movls	r4, r3
   117fc:	90840180 	addls	r0, r4, r0, lsl #3
   11800:	8afffff4 	bhi	117d8 <atoi_base+0x74>
   11804:	e5fc3001 	ldrb	r3, [ip, #1]!
   11808:	e3530000 	cmp	r3, #0
   1180c:	e28ee001 	add	lr, lr, #1
   11810:	1affffe8 	bne	117b8 <atoi_base+0x54>
   11814:	e3550000 	cmp	r5, #0
   11818:	13a00000 	movne	r0, #0
   1181c:	e8bd4070 	pop	{r4, r5, r6, lr}
   11820:	e12fff1e 	bx	lr
   11824:	e2433030 	sub	r3, r3, #48	; 0x30
   11828:	e20320ff 	and	r2, r3, #255	; 0xff
   1182c:	e3520009 	cmp	r2, #9
   11830:	8affffe8 	bhi	117d8 <atoi_base+0x74>
   11834:	e0800100 	add	r0, r0, r0, lsl #2
   11838:	e1a04003 	mov	r4, r3
   1183c:	e0830080 	add	r0, r3, r0, lsl #1
   11840:	eaffffd8 	b	117a8 <atoi_base+0x44>
   11844:	e35e0000 	cmp	lr, #0
   11848:	1a000013 	bne	1189c <atoi_base+0x138>
   1184c:	e3530030 	cmp	r3, #48	; 0x30
   11850:	0a000016 	beq	118b0 <atoi_base+0x14c>
   11854:	e2436030 	sub	r6, r3, #48	; 0x30
   11858:	e20620ff 	and	r2, r6, #255	; 0xff
   1185c:	e3520009 	cmp	r2, #9
   11860:	9a000003 	bls	11874 <atoi_base+0x110>
   11864:	e3c32020 	bic	r2, r3, #32
   11868:	e2422041 	sub	r2, r2, #65	; 0x41
   1186c:	e3520005 	cmp	r2, #5
   11870:	8affffd8 	bhi	117d8 <atoi_base+0x74>
   11874:	e2432041 	sub	r2, r3, #65	; 0x41
   11878:	e3520005 	cmp	r2, #5
   1187c:	92434037 	subls	r4, r3, #55	; 0x37
   11880:	9a000003 	bls	11894 <atoi_base+0x130>
   11884:	e2432061 	sub	r2, r3, #97	; 0x61
   11888:	e3520005 	cmp	r2, #5
   1188c:	81a04006 	movhi	r4, r6
   11890:	92434057 	subls	r4, r3, #87	; 0x57
   11894:	e0840200 	add	r0, r4, r0, lsl #4
   11898:	eaffffc2 	b	117a8 <atoi_base+0x44>
   1189c:	e35e0001 	cmp	lr, #1
   118a0:	1affffeb 	bne	11854 <atoi_base+0xf0>
   118a4:	e20320df 	and	r2, r3, #223	; 0xdf
   118a8:	e3520058 	cmp	r2, #88	; 0x58
   118ac:	1affffe8 	bne	11854 <atoi_base+0xf0>
   118b0:	e3a04000 	mov	r4, #0
   118b4:	eaffffbb 	b	117a8 <atoi_base+0x44>
   118b8:	e1a00003 	mov	r0, r3
   118bc:	e8bd4070 	pop	{r4, r5, r6, lr}
   118c0:	e12fff1e 	bx	lr

000118c4 <atoi>:
   118c4:	e3a0100a 	mov	r1, #10
   118c8:	eaffffa5 	b	11764 <atoi_base>

000118cc <calloc>:
   118cc:	e1a0c00d 	mov	ip, sp
   118d0:	e92dd830 	push	{r4, r5, fp, ip, lr, pc}
   118d4:	e1a05000 	mov	r5, r0
   118d8:	e0050591 	mul	r5, r1, r5
   118dc:	e3a00002 	mov	r0, #2
   118e0:	e1a01005 	mov	r1, r5
   118e4:	e24cb004 	sub	fp, ip, #4
   118e8:	eb0004a6 	bl	12b88 <syscall1>
   118ec:	e2504000 	subs	r4, r0, #0
   118f0:	1a000003 	bne	11904 <calloc+0x38>
   118f4:	e1a00004 	mov	r0, r4
   118f8:	e24bd014 	sub	sp, fp, #20
   118fc:	e89d6830 	ldm	sp, {r4, r5, fp, sp, lr}
   11900:	e12fff1e 	bx	lr
   11904:	e1a02005 	mov	r2, r5
   11908:	e3a01000 	mov	r1, #0
   1190c:	eb0010eb 	bl	15cc0 <memset>
   11910:	e1a00004 	mov	r0, r4
   11914:	e24bd014 	sub	sp, fp, #20
   11918:	e89d6830 	ldm	sp, {r4, r5, fp, sp, lr}
   1191c:	e12fff1e 	bx	lr

00011920 <exit>:
   11920:	e1a0c00d 	mov	ip, sp
   11924:	e1a01000 	mov	r1, r0
   11928:	e92dd800 	push	{fp, ip, lr, pc}
   1192c:	e3a0000b 	mov	r0, #11
   11930:	e24cb004 	sub	fp, ip, #4
   11934:	eb000493 	bl	12b88 <syscall1>
   11938:	e24bd00c 	sub	sp, fp, #12
   1193c:	e89d6800 	ldm	sp, {fp, sp, lr}
   11940:	e12fff1e 	bx	lr

00011944 <free>:
   11944:	e1a0c00d 	mov	ip, sp
   11948:	e1a01000 	mov	r1, r0
   1194c:	e92dd800 	push	{fp, ip, lr, pc}
   11950:	e3a00004 	mov	r0, #4
   11954:	e24cb004 	sub	fp, ip, #4
   11958:	eb00048a 	bl	12b88 <syscall1>
   1195c:	e24bd00c 	sub	sp, fp, #12
   11960:	e89d6800 	ldm	sp, {fp, sp, lr}
   11964:	e12fff1e 	bx	lr

00011968 <malloc>:
   11968:	e1a0c00d 	mov	ip, sp
   1196c:	e1a01000 	mov	r1, r0
   11970:	e92dd800 	push	{fp, ip, lr, pc}
   11974:	e3a00002 	mov	r0, #2
   11978:	e24cb004 	sub	fp, ip, #4
   1197c:	eb000481 	bl	12b88 <syscall1>
   11980:	e24bd00c 	sub	sp, fp, #12
   11984:	e89d6800 	ldm	sp, {fp, sp, lr}
   11988:	e12fff1e 	bx	lr

0001198c <realloc>:
   1198c:	e1a0c00d 	mov	ip, sp
   11990:	e1a03000 	mov	r3, r0
   11994:	e92dd800 	push	{fp, ip, lr, pc}
   11998:	e1a02001 	mov	r2, r1
   1199c:	e24cb004 	sub	fp, ip, #4
   119a0:	e1a01003 	mov	r1, r3
   119a4:	e3a00003 	mov	r0, #3
   119a8:	eb000474 	bl	12b80 <syscall2>
   119ac:	e24bd00c 	sub	sp, fp, #12
   119b0:	e89d6800 	ldm	sp, {fp, sp, lr}
   119b4:	e12fff1e 	bx	lr

000119b8 <print_uint_in_base_raw>:
   119b8:	e1a0c00d 	mov	ip, sp
   119bc:	e92ddbf0 	push	{r4, r5, r6, r7, r8, r9, fp, ip, lr, pc}
   119c0:	e24cb004 	sub	fp, ip, #4
   119c4:	e3a0c01f 	mov	ip, #31
   119c8:	e3a07000 	mov	r7, #0
   119cc:	e3a08001 	mov	r8, #1
   119d0:	e1a05000 	mov	r5, r0
   119d4:	e1a06003 	mov	r6, r3
   119d8:	e1a04c31 	lsr	r4, r1, ip
   119dc:	ea000006 	b	119fc <print_uint_in_base_raw+0x44>
   119e0:	e111000e 	tst	r1, lr
   119e4:	13a00001 	movne	r0, #1
   119e8:	03a00000 	moveq	r0, #0
   119ec:	e1804084 	orr	r4, r0, r4, lsl #1
   119f0:	e1520004 	cmp	r2, r4
   119f4:	90444002 	subls	r4, r4, r2
   119f8:	9187700e 	orrls	r7, r7, lr
   119fc:	e24cc001 	sub	ip, ip, #1
   11a00:	e37c0001 	cmn	ip, #1
   11a04:	e1a0ec18 	lsl	lr, r8, ip
   11a08:	1afffff4 	bne	119e0 <print_uint_in_base_raw+0x28>
   11a0c:	e3570000 	cmp	r7, #0
   11a10:	1a00000f 	bne	11a54 <print_uint_in_base_raw+0x9c>
   11a14:	e3560000 	cmp	r6, #0
   11a18:	0a000006 	beq	11a38 <print_uint_in_base_raw+0x80>
   11a1c:	e59f3044 	ldr	r3, [pc, #68]	; 11a68 <print_uint_in_base_raw+0xb0>
   11a20:	e08f3003 	add	r3, pc, r3
   11a24:	e7d33004 	ldrb	r3, [r3, r4]
   11a28:	e5c53000 	strb	r3, [r5]
   11a2c:	e24bd024 	sub	sp, fp, #36	; 0x24
   11a30:	e89d6bf0 	ldm	sp, {r4, r5, r6, r7, r8, r9, fp, sp, lr}
   11a34:	e12fff1e 	bx	lr
   11a38:	e59f302c 	ldr	r3, [pc, #44]	; 11a6c <print_uint_in_base_raw+0xb4>
   11a3c:	e08f3003 	add	r3, pc, r3
   11a40:	e7d33004 	ldrb	r3, [r3, r4]
   11a44:	e5c53000 	strb	r3, [r5]
   11a48:	e24bd024 	sub	sp, fp, #36	; 0x24
   11a4c:	e89d6bf0 	ldm	sp, {r4, r5, r6, r7, r8, r9, fp, sp, lr}
   11a50:	e12fff1e 	bx	lr
   11a54:	e1a03006 	mov	r3, r6
   11a58:	e1a01007 	mov	r1, r7
   11a5c:	e2850001 	add	r0, r5, #1
   11a60:	ebffffd4 	bl	119b8 <print_uint_in_base_raw>
   11a64:	eaffffea 	b	11a14 <print_uint_in_base_raw+0x5c>
   11a68:	00006104 	andeq	r6, r0, r4, lsl #2
   11a6c:	000060fc 	strdeq	r6, [r0], -ip

00011a70 <print_uint_in_base>:
   11a70:	e1a0c00d 	mov	ip, sp
   11a74:	e92ddff0 	push	{r4, r5, r6, r7, r8, r9, sl, fp, ip, lr, pc}
   11a78:	e24cb004 	sub	fp, ip, #4
   11a7c:	e24dd02c 	sub	sp, sp, #44	; 0x2c
   11a80:	e1a06002 	mov	r6, r2
   11a84:	e1a09003 	mov	r9, r3
   11a88:	e24ba04c 	sub	sl, fp, #76	; 0x4c
   11a8c:	e5db300c 	ldrb	r3, [fp, #12]
   11a90:	e3a02020 	mov	r2, #32
   11a94:	e1a07000 	mov	r7, r0
   11a98:	e1a08001 	mov	r8, r1
   11a9c:	e1a0000a 	mov	r0, sl
   11aa0:	e3a01000 	mov	r1, #0
   11aa4:	e5db4008 	ldrb	r4, [fp, #8]
   11aa8:	e50b3050 	str	r3, [fp, #-80]	; 0xffffffb0
   11aac:	e59b5004 	ldr	r5, [fp, #4]
   11ab0:	eb001082 	bl	15cc0 <memset>
   11ab4:	e1a02009 	mov	r2, r9
   11ab8:	e1a01006 	mov	r1, r6
   11abc:	e1a0000a 	mov	r0, sl
   11ac0:	e51b3050 	ldr	r3, [fp, #-80]	; 0xffffffb0
   11ac4:	ebffffbb 	bl	119b8 <print_uint_in_base_raw>
   11ac8:	e1a0000a 	mov	r0, sl
   11acc:	eb00141c 	bl	16b44 <strlen>
   11ad0:	e3540000 	cmp	r4, #0
   11ad4:	0a00000c 	beq	11b0c <print_uint_in_base+0x9c>
   11ad8:	e0454000 	sub	r4, r5, r0
   11adc:	e3540000 	cmp	r4, #0
   11ae0:	da00002c 	ble	11b98 <print_uint_in_base+0x128>
   11ae4:	e3a09000 	mov	r9, #0
   11ae8:	e1a01008 	mov	r1, r8
   11aec:	e3a00030 	mov	r0, #48	; 0x30
   11af0:	e2899001 	add	r9, r9, #1
   11af4:	e1a0e00f 	mov	lr, pc
   11af8:	e12fff17 	bx	r7
   11afc:	e1540009 	cmp	r4, r9
   11b00:	1afffff8 	bne	11ae8 <print_uint_in_base+0x78>
   11b04:	e1a0000a 	mov	r0, sl
   11b08:	eb00140d 	bl	16b44 <strlen>
   11b0c:	e3500000 	cmp	r0, #0
   11b10:	e2409001 	sub	r9, r0, #1
   11b14:	108aa000 	addne	sl, sl, r0
   11b18:	10849009 	addne	r9, r4, r9
   11b1c:	1a00000e 	bne	11b5c <print_uint_in_base+0xec>
   11b20:	ea000010 	b	11b68 <print_uint_in_base+0xf8>
   11b24:	e3550000 	cmp	r5, #0
   11b28:	c3a03001 	movgt	r3, #1
   11b2c:	d3a03000 	movle	r3, #0
   11b30:	e1550004 	cmp	r5, r4
   11b34:	c3a03000 	movgt	r3, #0
   11b38:	e3530000 	cmp	r3, #0
   11b3c:	e2844001 	add	r4, r4, #1
   11b40:	1a000011 	bne	11b8c <print_uint_in_base+0x11c>
   11b44:	e1a01008 	mov	r1, r8
   11b48:	e1a0e00f 	mov	lr, pc
   11b4c:	e12fff17 	bx	r7
   11b50:	e0493004 	sub	r3, r9, r4
   11b54:	e3730001 	cmn	r3, #1
   11b58:	0a000002 	beq	11b68 <print_uint_in_base+0xf8>
   11b5c:	e57a0001 	ldrb	r0, [sl, #-1]!
   11b60:	e3500000 	cmp	r0, #0
   11b64:	1affffee 	bne	11b24 <print_uint_in_base+0xb4>
   11b68:	e1540005 	cmp	r4, r5
   11b6c:	aa000006 	bge	11b8c <print_uint_in_base+0x11c>
   11b70:	e1a01008 	mov	r1, r8
   11b74:	e3a00020 	mov	r0, #32
   11b78:	e2844001 	add	r4, r4, #1
   11b7c:	e1a0e00f 	mov	lr, pc
   11b80:	e12fff17 	bx	r7
   11b84:	e1550004 	cmp	r5, r4
   11b88:	1afffff8 	bne	11b70 <print_uint_in_base+0x100>
   11b8c:	e24bd028 	sub	sp, fp, #40	; 0x28
   11b90:	e89d6ff0 	ldm	sp, {r4, r5, r6, r7, r8, r9, sl, fp, sp, lr}
   11b94:	e12fff1e 	bx	lr
   11b98:	e3a04000 	mov	r4, #0
   11b9c:	eaffffda 	b	11b0c <print_uint_in_base+0x9c>

00011ba0 <v_printf>:
   11ba0:	e1a0c00d 	mov	ip, sp
   11ba4:	e92ddff0 	push	{r4, r5, r6, r7, r8, r9, sl, fp, ip, lr, pc}
   11ba8:	e24cb004 	sub	fp, ip, #4
   11bac:	e24dd02c 	sub	sp, sp, #44	; 0x2c
   11bb0:	e1a05000 	mov	r5, r0
   11bb4:	e5d20000 	ldrb	r0, [r2]
   11bb8:	e3500000 	cmp	r0, #0
   11bbc:	e1a09003 	mov	r9, r3
   11bc0:	124b3034 	subne	r3, fp, #52	; 0x34
   11bc4:	e1a08002 	mov	r8, r2
   11bc8:	e1a06001 	mov	r6, r1
   11bcc:	13a04000 	movne	r4, #0
   11bd0:	150b3038 	strne	r3, [fp, #-56]	; 0xffffffc8
   11bd4:	0a000077 	beq	11db8 <v_printf+0x218>
   11bd8:	e3500025 	cmp	r0, #37	; 0x25
   11bdc:	10887004 	addne	r7, r8, r4
   11be0:	0a000009 	beq	11c0c <v_printf+0x6c>
   11be4:	e1a01006 	mov	r1, r6
   11be8:	e1a0e00f 	mov	lr, pc
   11bec:	e12fff15 	bx	r5
   11bf0:	e5f70001 	ldrb	r0, [r7, #1]!
   11bf4:	e3500025 	cmp	r0, #37	; 0x25
   11bf8:	13500000 	cmpne	r0, #0
   11bfc:	e2844001 	add	r4, r4, #1
   11c00:	1afffff7 	bne	11be4 <v_printf+0x44>
   11c04:	e3500000 	cmp	r0, #0
   11c08:	0a00006a 	beq	11db8 <v_printf+0x218>
   11c0c:	e0883004 	add	r3, r8, r4
   11c10:	e5d30001 	ldrb	r0, [r3, #1]
   11c14:	e3500000 	cmp	r0, #0
   11c18:	0a000066 	beq	11db8 <v_printf+0x218>
   11c1c:	e3500025 	cmp	r0, #37	; 0x25
   11c20:	0a0000b3 	beq	11ef4 <v_printf+0x354>
   11c24:	e3500030 	cmp	r0, #48	; 0x30
   11c28:	02844002 	addeq	r4, r4, #2
   11c2c:	12844001 	addne	r4, r4, #1
   11c30:	e7d83004 	ldrb	r3, [r8, r4]
   11c34:	13a0a000 	movne	sl, #0
   11c38:	03a0a001 	moveq	sl, #1
   11c3c:	e353002d 	cmp	r3, #45	; 0x2d
   11c40:	00882004 	addeq	r2, r8, r4
   11c44:	13a02000 	movne	r2, #0
   11c48:	054b3034 	strbeq	r3, [fp, #-52]	; 0xffffffcc
   11c4c:	01a03002 	moveq	r3, r2
   11c50:	03a02001 	moveq	r2, #1
   11c54:	e51b0038 	ldr	r0, [fp, #-56]	; 0xffffffc8
   11c58:	e2821001 	add	r1, r2, #1
   11c5c:	e0811004 	add	r1, r1, r4
   11c60:	05d33001 	ldrbeq	r3, [r3, #1]
   11c64:	e0881001 	add	r1, r8, r1
   11c68:	e0800002 	add	r0, r0, r2
   11c6c:	ea000000 	b	11c74 <v_printf+0xd4>
   11c70:	e4d13001 	ldrb	r3, [r1], #1
   11c74:	e243c030 	sub	ip, r3, #48	; 0x30
   11c78:	e35c0009 	cmp	ip, #9
   11c7c:	8a000093 	bhi	11ed0 <v_printf+0x330>
   11c80:	e2822001 	add	r2, r2, #1
   11c84:	e3520008 	cmp	r2, #8
   11c88:	e4c03001 	strb	r3, [r0], #1
   11c8c:	1afffff7 	bne	11c70 <v_printf+0xd0>
   11c90:	e2844008 	add	r4, r4, #8
   11c94:	e7d83004 	ldrb	r3, [r8, r4]
   11c98:	e3a01000 	mov	r1, #0
   11c9c:	e242202c 	sub	r2, r2, #44	; 0x2c
   11ca0:	e082200b 	add	r2, r2, fp
   11ca4:	e5421008 	strb	r1, [r2, #-8]
   11ca8:	e55b2034 	ldrb	r2, [fp, #-52]	; 0xffffffcc
   11cac:	e352002d 	cmp	r2, #45	; 0x2d
   11cb0:	0a000088 	beq	11ed8 <v_printf+0x338>
   11cb4:	e3520000 	cmp	r2, #0
   11cb8:	e3a07001 	mov	r7, #1
   11cbc:	e51bc038 	ldr	ip, [fp, #-56]	; 0xffffffc8
   11cc0:	0a000089 	beq	11eec <v_printf+0x34c>
   11cc4:	e3a01000 	mov	r1, #0
   11cc8:	ea000003 	b	11cdc <v_printf+0x13c>
   11ccc:	e5fc2001 	ldrb	r2, [ip, #1]!
   11cd0:	e3520000 	cmp	r2, #0
   11cd4:	e080108e 	add	r1, r0, lr, lsl #1
   11cd8:	0a000004 	beq	11cf0 <v_printf+0x150>
   11cdc:	e2420030 	sub	r0, r2, #48	; 0x30
   11ce0:	e20020ff 	and	r2, r0, #255	; 0xff
   11ce4:	e3520009 	cmp	r2, #9
   11ce8:	e081e101 	add	lr, r1, r1, lsl #2
   11cec:	9afffff6 	bls	11ccc <v_printf+0x12c>
   11cf0:	e0070791 	mul	r7, r1, r7
   11cf4:	e2433058 	sub	r3, r3, #88	; 0x58
   11cf8:	e3530020 	cmp	r3, #32
   11cfc:	908ff103 	addls	pc, pc, r3, lsl #2
   11d00:	ea000028 	b	11da8 <v_printf+0x208>
   11d04:	ea000069 	b	11eb0 <v_printf+0x310>
   11d08:	ea000026 	b	11da8 <v_printf+0x208>
   11d0c:	ea000025 	b	11da8 <v_printf+0x208>
   11d10:	ea000024 	b	11da8 <v_printf+0x208>
   11d14:	ea000023 	b	11da8 <v_printf+0x208>
   11d18:	ea000022 	b	11da8 <v_printf+0x208>
   11d1c:	ea000021 	b	11da8 <v_printf+0x208>
   11d20:	ea000020 	b	11da8 <v_printf+0x208>
   11d24:	ea00001f 	b	11da8 <v_printf+0x208>
   11d28:	ea00001e 	b	11da8 <v_printf+0x208>
   11d2c:	ea00001d 	b	11da8 <v_printf+0x208>
   11d30:	ea000058 	b	11e98 <v_printf+0x2f8>
   11d34:	ea000043 	b	11e48 <v_printf+0x2a8>
   11d38:	ea00001a 	b	11da8 <v_printf+0x208>
   11d3c:	ea000019 	b	11da8 <v_printf+0x208>
   11d40:	ea000018 	b	11da8 <v_printf+0x208>
   11d44:	ea000017 	b	11da8 <v_printf+0x208>
   11d48:	ea000016 	b	11da8 <v_printf+0x208>
   11d4c:	ea000015 	b	11da8 <v_printf+0x208>
   11d50:	ea000014 	b	11da8 <v_printf+0x208>
   11d54:	ea000013 	b	11da8 <v_printf+0x208>
   11d58:	ea000012 	b	11da8 <v_printf+0x208>
   11d5c:	ea000011 	b	11da8 <v_printf+0x208>
   11d60:	ea000010 	b	11da8 <v_printf+0x208>
   11d64:	ea00000f 	b	11da8 <v_printf+0x208>
   11d68:	ea00000e 	b	11da8 <v_printf+0x208>
   11d6c:	ea00000d 	b	11da8 <v_printf+0x208>
   11d70:	ea000015 	b	11dcc <v_printf+0x22c>
   11d74:	ea00000b 	b	11da8 <v_printf+0x208>
   11d78:	ea000011 	b	11dc4 <v_printf+0x224>
   11d7c:	ea000009 	b	11da8 <v_printf+0x208>
   11d80:	ea000008 	b	11da8 <v_printf+0x208>
   11d84:	eaffffff 	b	11d88 <v_printf+0x1e8>
   11d88:	e3a03010 	mov	r3, #16
   11d8c:	e3a0c000 	mov	ip, #0
   11d90:	e4992004 	ldr	r2, [r9], #4
   11d94:	e1a01006 	mov	r1, r6
   11d98:	e1a00005 	mov	r0, r5
   11d9c:	e88d0480 	stm	sp, {r7, sl}
   11da0:	e58dc008 	str	ip, [sp, #8]
   11da4:	ebffff31 	bl	11a70 <print_uint_in_base>
   11da8:	e2844001 	add	r4, r4, #1
   11dac:	e7d80004 	ldrb	r0, [r8, r4]
   11db0:	e3500000 	cmp	r0, #0
   11db4:	1affff87 	bne	11bd8 <v_printf+0x38>
   11db8:	e24bd028 	sub	sp, fp, #40	; 0x28
   11dbc:	e89d6ff0 	ldm	sp, {r4, r5, r6, r7, r8, r9, sl, fp, sp, lr}
   11dc0:	e12fff1e 	bx	lr
   11dc4:	e3a0300a 	mov	r3, #10
   11dc8:	eaffffef 	b	11d8c <v_printf+0x1ec>
   11dcc:	e1a03009 	mov	r3, r9
   11dd0:	e4930004 	ldr	r0, [r3], #4
   11dd4:	e3570000 	cmp	r7, #0
   11dd8:	e50b003c 	str	r0, [fp, #-60]	; 0xffffffc4
   11ddc:	e50b3040 	str	r3, [fp, #-64]	; 0xffffffc0
   11de0:	ba000048 	blt	11f08 <v_printf+0x368>
   11de4:	e3a09000 	mov	r9, #0
   11de8:	e51b303c 	ldr	r3, [fp, #-60]	; 0xffffffc4
   11dec:	e243a001 	sub	sl, r3, #1
   11df0:	ea000006 	b	11e10 <v_printf+0x270>
   11df4:	e1a01006 	mov	r1, r6
   11df8:	e2899001 	add	r9, r9, #1
   11dfc:	e1a0e00f 	mov	lr, pc
   11e00:	e12fff15 	bx	r5
   11e04:	e1590007 	cmp	r9, r7
   11e08:	a3570000 	cmpge	r7, #0
   11e0c:	ca00000b 	bgt	11e40 <v_printf+0x2a0>
   11e10:	e5fa0001 	ldrb	r0, [sl, #1]!
   11e14:	e3500000 	cmp	r0, #0
   11e18:	1afffff5 	bne	11df4 <v_printf+0x254>
   11e1c:	e1590007 	cmp	r9, r7
   11e20:	aa000006 	bge	11e40 <v_printf+0x2a0>
   11e24:	e1a01006 	mov	r1, r6
   11e28:	e3a00020 	mov	r0, #32
   11e2c:	e2899001 	add	r9, r9, #1
   11e30:	e1a0e00f 	mov	lr, pc
   11e34:	e12fff15 	bx	r5
   11e38:	e1570009 	cmp	r7, r9
   11e3c:	1afffff8 	bne	11e24 <v_printf+0x284>
   11e40:	e51b9040 	ldr	r9, [fp, #-64]	; 0xffffffc0
   11e44:	eaffffd7 	b	11da8 <v_printf+0x208>
   11e48:	e4992004 	ldr	r2, [r9], #4
   11e4c:	e3520000 	cmp	r2, #0
   11e50:	aa00003a 	bge	11f40 <v_printf+0x3a0>
   11e54:	e1a01006 	mov	r1, r6
   11e58:	e50b203c 	str	r2, [fp, #-60]	; 0xffffffc4
   11e5c:	e3a0002d 	mov	r0, #45	; 0x2d
   11e60:	e1a0e00f 	mov	lr, pc
   11e64:	e12fff15 	bx	r5
   11e68:	e3a03000 	mov	r3, #0
   11e6c:	e51b203c 	ldr	r2, [fp, #-60]	; 0xffffffc4
   11e70:	e2477001 	sub	r7, r7, #1
   11e74:	e58d3008 	str	r3, [sp, #8]
   11e78:	e1a01006 	mov	r1, r6
   11e7c:	e3a0300a 	mov	r3, #10
   11e80:	e1a00005 	mov	r0, r5
   11e84:	e58da004 	str	sl, [sp, #4]
   11e88:	e58d7000 	str	r7, [sp]
   11e8c:	e2622000 	rsb	r2, r2, #0
   11e90:	ebfffef6 	bl	11a70 <print_uint_in_base>
   11e94:	eaffffc3 	b	11da8 <v_printf+0x208>
   11e98:	e4990004 	ldr	r0, [r9], #4
   11e9c:	e1a01006 	mov	r1, r6
   11ea0:	e20000ff 	and	r0, r0, #255	; 0xff
   11ea4:	e1a0e00f 	mov	lr, pc
   11ea8:	e12fff15 	bx	r5
   11eac:	eaffffbd 	b	11da8 <v_printf+0x208>
   11eb0:	e3a0c001 	mov	ip, #1
   11eb4:	e4992004 	ldr	r2, [r9], #4
   11eb8:	e3a03010 	mov	r3, #16
   11ebc:	e1a01006 	mov	r1, r6
   11ec0:	e1a00005 	mov	r0, r5
   11ec4:	e88d1480 	stm	sp, {r7, sl, ip}
   11ec8:	ebfffee8 	bl	11a70 <print_uint_in_base>
   11ecc:	eaffffb5 	b	11da8 <v_printf+0x208>
   11ed0:	e0844002 	add	r4, r4, r2
   11ed4:	eaffff6f 	b	11c98 <v_printf+0xf8>
   11ed8:	e55b2033 	ldrb	r2, [fp, #-51]	; 0xffffffcd
   11edc:	e3520000 	cmp	r2, #0
   11ee0:	e3e07000 	mvn	r7, #0
   11ee4:	e24bc033 	sub	ip, fp, #51	; 0x33
   11ee8:	1affff75 	bne	11cc4 <v_printf+0x124>
   11eec:	e1a07002 	mov	r7, r2
   11ef0:	eaffff7f 	b	11cf4 <v_printf+0x154>
   11ef4:	e1a01006 	mov	r1, r6
   11ef8:	e1a0e00f 	mov	lr, pc
   11efc:	e12fff15 	bx	r5
   11f00:	e2844002 	add	r4, r4, #2
   11f04:	eaffffa8 	b	11dac <v_printf+0x20c>
   11f08:	eb00130d 	bl	16b44 <strlen>
   11f0c:	e2677000 	rsb	r7, r7, #0
   11f10:	e0479000 	sub	r9, r7, r0
   11f14:	e3590000 	cmp	r9, #0
   11f18:	daffffb1 	ble	11de4 <v_printf+0x244>
   11f1c:	e3a0a000 	mov	sl, #0
   11f20:	e1a01006 	mov	r1, r6
   11f24:	e3a00020 	mov	r0, #32
   11f28:	e28aa001 	add	sl, sl, #1
   11f2c:	e1a0e00f 	mov	lr, pc
   11f30:	e12fff15 	bx	r5
   11f34:	e159000a 	cmp	r9, sl
   11f38:	1afffff8 	bne	11f20 <v_printf+0x380>
   11f3c:	eaffffa9 	b	11de8 <v_printf+0x248>
   11f40:	e3a03000 	mov	r3, #0
   11f44:	e1a01006 	mov	r1, r6
   11f48:	e58d3008 	str	r3, [sp, #8]
   11f4c:	e1a00005 	mov	r0, r5
   11f50:	e3a0300a 	mov	r3, #10
   11f54:	e88d0480 	stm	sp, {r7, sl}
   11f58:	ebfffec4 	bl	11a70 <print_uint_in_base>
   11f5c:	eaffff91 	b	11da8 <v_printf+0x208>

00011f60 <outc_sn>:
   11f60:	e5913004 	ldr	r3, [r1, #4]
   11f64:	e5912008 	ldr	r2, [r1, #8]
   11f68:	e1530002 	cmp	r3, r2
   11f6c:	35912000 	ldrcc	r2, [r1]
   11f70:	37c20003 	strbcc	r0, [r2, r3]
   11f74:	35913004 	ldrcc	r3, [r1, #4]
   11f78:	32833001 	addcc	r3, r3, #1
   11f7c:	35813004 	strcc	r3, [r1, #4]
   11f80:	e12fff1e 	bx	lr

00011f84 <snprintf>:
   11f84:	e1a0c00d 	mov	ip, sp
   11f88:	e92d000c 	push	{r2, r3}
   11f8c:	e92dd810 	push	{r4, fp, ip, lr, pc}
   11f90:	e24cb00c 	sub	fp, ip, #12
   11f94:	e1a0e000 	mov	lr, r0
   11f98:	e1a0c001 	mov	ip, r1
   11f9c:	e3a04000 	mov	r4, #0
   11fa0:	e24dd014 	sub	sp, sp, #20
   11fa4:	e59f003c 	ldr	r0, [pc, #60]	; 11fe8 <snprintf+0x64>
   11fa8:	e28b3008 	add	r3, fp, #8
   11fac:	e59b2004 	ldr	r2, [fp, #4]
   11fb0:	e08f0000 	add	r0, pc, r0
   11fb4:	e24b1020 	sub	r1, fp, #32
   11fb8:	e50b3024 	str	r3, [fp, #-36]	; 0xffffffdc
   11fbc:	e50be020 	str	lr, [fp, #-32]	; 0xffffffe0
   11fc0:	e50bc018 	str	ip, [fp, #-24]	; 0xffffffe8
   11fc4:	e50b401c 	str	r4, [fp, #-28]	; 0xffffffe4
   11fc8:	ebfffef4 	bl	11ba0 <v_printf>
   11fcc:	e24b2020 	sub	r2, fp, #32
   11fd0:	e892000c 	ldm	r2, {r2, r3}
   11fd4:	e7c24003 	strb	r4, [r2, r3]
   11fd8:	e51b001c 	ldr	r0, [fp, #-28]	; 0xffffffe4
   11fdc:	e24bd010 	sub	sp, fp, #16
   11fe0:	e89d6810 	ldm	sp, {r4, fp, sp, lr}
   11fe4:	e12fff1e 	bx	lr
   11fe8:	ffffffa8 			; <UNDEFINED> instruction: 0xffffffa8

00011fec <outc>:
   11fec:	e1a0c00d 	mov	ip, sp
   11ff0:	e1a03001 	mov	r3, r1
   11ff4:	e92dd800 	push	{fp, ip, lr, pc}
   11ff8:	e1a01000 	mov	r1, r0
   11ffc:	e24cb004 	sub	fp, ip, #4
   12000:	e1a00003 	mov	r0, r3
   12004:	ebffe713 	bl	bc58 <str_addc>
   12008:	e24bd00c 	sub	sp, fp, #12
   1200c:	e89d6800 	ldm	sp, {fp, sp, lr}
   12010:	e12fff1e 	bx	lr

00012014 <printf>:
   12014:	e1a0c00d 	mov	ip, sp
   12018:	e92d000f 	push	{r0, r1, r2, r3}
   1201c:	e92dd810 	push	{r4, fp, ip, lr, pc}
   12020:	e59f0050 	ldr	r0, [pc, #80]	; 12078 <printf+0x64>
   12024:	e24cb014 	sub	fp, ip, #20
   12028:	e24dd00c 	sub	sp, sp, #12
   1202c:	e08f0000 	add	r0, pc, r0
   12030:	ebffe6be 	bl	bb30 <str_new>
   12034:	e1a04000 	mov	r4, r0
   12038:	e59f003c 	ldr	r0, [pc, #60]	; 1207c <printf+0x68>
   1203c:	e28b3008 	add	r3, fp, #8
   12040:	e1a01004 	mov	r1, r4
   12044:	e59b2004 	ldr	r2, [fp, #4]
   12048:	e08f0000 	add	r0, pc, r0
   1204c:	e50b3018 	str	r3, [fp, #-24]	; 0xffffffe8
   12050:	ebfffed2 	bl	11ba0 <v_printf>
   12054:	e5942008 	ldr	r2, [r4, #8]
   12058:	e5941000 	ldr	r1, [r4]
   1205c:	e3a00001 	mov	r0, #1
   12060:	eb0002eb 	bl	12c14 <write>
   12064:	e1a00004 	mov	r0, r4
   12068:	ebffe723 	bl	bcfc <str_free>
   1206c:	e24bd010 	sub	sp, fp, #16
   12070:	e89d6810 	ldm	sp, {r4, fp, sp, lr}
   12074:	e12fff1e 	bx	lr
   12078:	00005a10 	andeq	r5, r0, r0, lsl sl
   1207c:	ffffff9c 			; <UNDEFINED> instruction: 0xffffff9c

00012080 <fopen>:
   12080:	e1a0c00d 	mov	ip, sp
   12084:	e92dd8f0 	push	{r4, r5, r6, r7, fp, ip, lr, pc}
   12088:	e1a07000 	mov	r7, r0
   1208c:	e24cb004 	sub	fp, ip, #4
   12090:	e3a00008 	mov	r0, #8
   12094:	e1a05001 	mov	r5, r1
   12098:	ebfffe32 	bl	11968 <malloc>
   1209c:	e2504000 	subs	r4, r0, #0
   120a0:	0a00001e 	beq	12120 <fopen+0xa0>
   120a4:	e5d53000 	ldrb	r3, [r5]
   120a8:	e3530072 	cmp	r3, #114	; 0x72
   120ac:	0a000011 	beq	120f8 <fopen+0x78>
   120b0:	e5d52000 	ldrb	r2, [r5]
   120b4:	e3520072 	cmp	r2, #114	; 0x72
   120b8:	1a000002 	bne	120c8 <fopen+0x48>
   120bc:	e5d51001 	ldrb	r1, [r5, #1]
   120c0:	e351002b 	cmp	r1, #43	; 0x2b
   120c4:	0a00001e 	beq	12144 <fopen+0xc4>
   120c8:	e3530077 	cmp	r3, #119	; 0x77
   120cc:	0a000017 	beq	12130 <fopen+0xb0>
   120d0:	e3520077 	cmp	r2, #119	; 0x77
   120d4:	1a000023 	bne	12168 <fopen+0xe8>
   120d8:	e5d53001 	ldrb	r3, [r5, #1]
   120dc:	e353002b 	cmp	r3, #43	; 0x2b
   120e0:	1a000020 	bne	12168 <fopen+0xe8>
   120e4:	e5d53002 	ldrb	r3, [r5, #2]
   120e8:	e3530000 	cmp	r3, #0
   120ec:	1a00001d 	bne	12168 <fopen+0xe8>
   120f0:	e3a06006 	mov	r6, #6
   120f4:	ea000002 	b	12104 <fopen+0x84>
   120f8:	e5d56001 	ldrb	r6, [r5, #1]
   120fc:	e3560000 	cmp	r6, #0
   12100:	1affffea 	bne	120b0 <fopen+0x30>
   12104:	e1a01006 	mov	r1, r6
   12108:	e1a00007 	mov	r0, r7
   1210c:	eb00004c 	bl	12244 <open>
   12110:	e3500000 	cmp	r0, #0
   12114:	e5840000 	str	r0, [r4]
   12118:	a5846004 	strge	r6, [r4, #4]
   1211c:	ba00000d 	blt	12158 <fopen+0xd8>
   12120:	e1a00004 	mov	r0, r4
   12124:	e24bd01c 	sub	sp, fp, #28
   12128:	e89d68f0 	ldm	sp, {r4, r5, r6, r7, fp, sp, lr}
   1212c:	e12fff1e 	bx	lr
   12130:	e5d53001 	ldrb	r3, [r5, #1]
   12134:	e3530000 	cmp	r3, #0
   12138:	03a06002 	moveq	r6, #2
   1213c:	0afffff0 	beq	12104 <fopen+0x84>
   12140:	eaffffe2 	b	120d0 <fopen+0x50>
   12144:	e5d51002 	ldrb	r1, [r5, #2]
   12148:	e3510000 	cmp	r1, #0
   1214c:	03a06003 	moveq	r6, #3
   12150:	0affffeb 	beq	12104 <fopen+0x84>
   12154:	eaffffdb 	b	120c8 <fopen+0x48>
   12158:	e1a00004 	mov	r0, r4
   1215c:	ebfffdf8 	bl	11944 <free>
   12160:	e3a04000 	mov	r4, #0
   12164:	eaffffed 	b	12120 <fopen+0xa0>
   12168:	e3a06000 	mov	r6, #0
   1216c:	eaffffe4 	b	12104 <fopen+0x84>

00012170 <fclose>:
   12170:	e1a0c00d 	mov	ip, sp
   12174:	e92dd830 	push	{r4, r5, fp, ip, lr, pc}
   12178:	e2504000 	subs	r4, r0, #0
   1217c:	e24cb004 	sub	fp, ip, #4
   12180:	0a000007 	beq	121a4 <fclose+0x34>
   12184:	e5940000 	ldr	r0, [r4]
   12188:	eb00009a 	bl	123f8 <close>
   1218c:	e1a00004 	mov	r0, r4
   12190:	ebfffdeb 	bl	11944 <free>
   12194:	e3a00000 	mov	r0, #0
   12198:	e24bd014 	sub	sp, fp, #20
   1219c:	e89d6830 	ldm	sp, {r4, r5, fp, sp, lr}
   121a0:	e12fff1e 	bx	lr
   121a4:	e3e00000 	mvn	r0, #0
   121a8:	eafffffa 	b	12198 <fclose+0x28>

000121ac <fread>:
   121ac:	e1a0c00d 	mov	ip, sp
   121b0:	e3530000 	cmp	r3, #0
   121b4:	13510000 	cmpne	r1, #0
   121b8:	e92dd830 	push	{r4, r5, fp, ip, lr, pc}
   121bc:	03a00000 	moveq	r0, #0
   121c0:	e1a04001 	mov	r4, r1
   121c4:	e24cb004 	sub	fp, ip, #4
   121c8:	0a000006 	beq	121e8 <fread+0x3c>
   121cc:	e0020291 	mul	r2, r1, r2
   121d0:	e1a01000 	mov	r1, r0
   121d4:	e5930000 	ldr	r0, [r3]
   121d8:	ebfffce7 	bl	1157c <read>
   121dc:	e1a01004 	mov	r1, r4
   121e0:	e1c00fc0 	bic	r0, r0, r0, asr #31
   121e4:	ebfffafb 	bl	10dd8 <__aeabi_uidiv>
   121e8:	e24bd014 	sub	sp, fp, #20
   121ec:	e89d6830 	ldm	sp, {r4, r5, fp, sp, lr}
   121f0:	e12fff1e 	bx	lr

000121f4 <ftell>:
   121f4:	e1a0c00d 	mov	ip, sp
   121f8:	e5900000 	ldr	r0, [r0]
   121fc:	e92dd800 	push	{fp, ip, lr, pc}
   12200:	e24cb004 	sub	fp, ip, #4
   12204:	ebffedd4 	bl	d95c <vfs_tell>
   12208:	e24bd00c 	sub	sp, fp, #12
   1220c:	e89d6800 	ldm	sp, {fp, sp, lr}
   12210:	e12fff1e 	bx	lr

00012214 <fseek>:
   12214:	e1a0c00d 	mov	ip, sp
   12218:	e3500000 	cmp	r0, #0
   1221c:	e92dd800 	push	{fp, ip, lr, pc}
   12220:	e24cb004 	sub	fp, ip, #4
   12224:	0a000004 	beq	1223c <fseek+0x28>
   12228:	e5900000 	ldr	r0, [r0]
   1222c:	eb00025e 	bl	12bac <lseek>
   12230:	e24bd00c 	sub	sp, fp, #12
   12234:	e89d6800 	ldm	sp, {fp, sp, lr}
   12238:	e12fff1e 	bx	lr
   1223c:	e3e00000 	mvn	r0, #0
   12240:	eafffffa 	b	12230 <fseek+0x1c>

00012244 <open>:
   12244:	e1a0c00d 	mov	ip, sp
   12248:	e92ddbf0 	push	{r4, r5, r6, r7, r8, r9, fp, ip, lr, pc}
   1224c:	e24cb004 	sub	fp, ip, #4
   12250:	e24dde19 	sub	sp, sp, #400	; 0x190
   12254:	e24b8f6a 	sub	r8, fp, #424	; 0x1a8
   12258:	e1a07001 	mov	r7, r1
   1225c:	e1a01008 	mov	r1, r8
   12260:	e1a04000 	mov	r4, r0
   12264:	ebffebdc 	bl	d1dc <vfs_get>
   12268:	e2506000 	subs	r6, r0, #0
   1226c:	0a000057 	beq	123d0 <open+0x18c>
   12270:	e3170004 	tst	r7, #4
   12274:	0a00005a 	beq	123e4 <open+0x1a0>
   12278:	e3a03000 	mov	r3, #0
   1227c:	e3a02001 	mov	r2, #1
   12280:	e1a01008 	mov	r1, r8
   12284:	e1a00004 	mov	r0, r4
   12288:	e58d3000 	str	r3, [sp]
   1228c:	ebffee94 	bl	dce4 <vfs_create>
   12290:	e3500000 	cmp	r0, #0
   12294:	1a000052 	bne	123e4 <open+0x1a0>
   12298:	e1a01007 	mov	r1, r7
   1229c:	e1a00008 	mov	r0, r8
   122a0:	ebffeaaa 	bl	cd50 <vfs_open>
   122a4:	e2504000 	subs	r4, r0, #0
   122a8:	a3a06001 	movge	r6, #1
   122ac:	ba00004e 	blt	123ec <open+0x1a8>
   122b0:	ebfff979 	bl	1089c <get_proto_factor>
   122b4:	e1a03000 	mov	r3, r0
   122b8:	e24b90b8 	sub	r9, fp, #184	; 0xb8
   122bc:	e5933004 	ldr	r3, [r3, #4]
   122c0:	e1a00009 	mov	r0, r9
   122c4:	e1a0e00f 	mov	lr, pc
   122c8:	e12fff13 	bx	r3
   122cc:	ebfff972 	bl	1089c <get_proto_factor>
   122d0:	e1a03000 	mov	r3, r0
   122d4:	e24b5f53 	sub	r5, fp, #332	; 0x14c
   122d8:	e5933004 	ldr	r3, [r3, #4]
   122dc:	e1a00005 	mov	r0, r5
   122e0:	e1a0e00f 	mov	lr, pc
   122e4:	e12fff13 	bx	r3
   122e8:	e1a03000 	mov	r3, r0
   122ec:	e1a01004 	mov	r1, r4
   122f0:	e5933014 	ldr	r3, [r3, #20]
   122f4:	e1a00005 	mov	r0, r5
   122f8:	e1a0e00f 	mov	lr, pc
   122fc:	e12fff13 	bx	r3
   12300:	e1a03000 	mov	r3, r0
   12304:	e3a0205c 	mov	r2, #92	; 0x5c
   12308:	e1a01008 	mov	r1, r8
   1230c:	e5933010 	ldr	r3, [r3, #16]
   12310:	e1a00005 	mov	r0, r5
   12314:	e1a0e00f 	mov	lr, pc
   12318:	e12fff13 	bx	r3
   1231c:	e1a03000 	mov	r3, r0
   12320:	e1a01007 	mov	r1, r7
   12324:	e5933014 	ldr	r3, [r3, #20]
   12328:	e1a00005 	mov	r0, r5
   1232c:	e1a0e00f 	mov	lr, pc
   12330:	e12fff13 	bx	r3
   12334:	e1a03009 	mov	r3, r9
   12338:	e1a02005 	mov	r2, r5
   1233c:	e3a01001 	mov	r1, #1
   12340:	e51b0154 	ldr	r0, [fp, #-340]	; 0xfffffeac
   12344:	ebfff2bf 	bl	ee48 <ipc_call>
   12348:	e3500000 	cmp	r0, #0
   1234c:	0a000014 	beq	123a4 <open+0x160>
   12350:	e1a00004 	mov	r0, r4
   12354:	ebffeb04 	bl	cf6c <vfs_close>
   12358:	e3560000 	cmp	r6, #0
   1235c:	1a000018 	bne	123c4 <open+0x180>
   12360:	e3e04000 	mvn	r4, #0
   12364:	ebfff94c 	bl	1089c <get_proto_factor>
   12368:	e1a03000 	mov	r3, r0
   1236c:	e1a00005 	mov	r0, r5
   12370:	e593300c 	ldr	r3, [r3, #12]
   12374:	e1a0e00f 	mov	lr, pc
   12378:	e12fff13 	bx	r3
   1237c:	ebfff946 	bl	1089c <get_proto_factor>
   12380:	e1a03000 	mov	r3, r0
   12384:	e1a00009 	mov	r0, r9
   12388:	e593300c 	ldr	r3, [r3, #12]
   1238c:	e1a0e00f 	mov	lr, pc
   12390:	e12fff13 	bx	r3
   12394:	e1a00004 	mov	r0, r4
   12398:	e24bd024 	sub	sp, fp, #36	; 0x24
   1239c:	e89d6bf0 	ldm	sp, {r4, r5, r6, r7, r8, r9, fp, sp, lr}
   123a0:	e12fff1e 	bx	lr
   123a4:	e1a00009 	mov	r0, r9
   123a8:	ebfffa09 	bl	10bd4 <proto_read_int>
   123ac:	e3500000 	cmp	r0, #0
   123b0:	0affffeb 	beq	12364 <open+0x120>
   123b4:	e1a00004 	mov	r0, r4
   123b8:	ebffeaeb 	bl	cf6c <vfs_close>
   123bc:	e3560000 	cmp	r6, #0
   123c0:	0affffe6 	beq	12360 <open+0x11c>
   123c4:	e1a00008 	mov	r0, r8
   123c8:	ebffec7d 	bl	d5c4 <vfs_del>
   123cc:	eaffffe3 	b	12360 <open+0x11c>
   123d0:	e1a01007 	mov	r1, r7
   123d4:	e1a00008 	mov	r0, r8
   123d8:	ebffea5c 	bl	cd50 <vfs_open>
   123dc:	e2504000 	subs	r4, r0, #0
   123e0:	aaffffb2 	bge	122b0 <open+0x6c>
   123e4:	e3e04000 	mvn	r4, #0
   123e8:	eaffffe9 	b	12394 <open+0x150>
   123ec:	e1a00008 	mov	r0, r8
   123f0:	ebffec73 	bl	d5c4 <vfs_del>
   123f4:	eafffffa 	b	123e4 <open+0x1a0>

000123f8 <close>:
   123f8:	e1a0c00d 	mov	ip, sp
   123fc:	e92dd8f0 	push	{r4, r5, r6, r7, fp, ip, lr, pc}
   12400:	e24cb004 	sub	fp, ip, #4
   12404:	e24dd0f0 	sub	sp, sp, #240	; 0xf0
   12408:	e24b6f43 	sub	r6, fp, #268	; 0x10c
   1240c:	e1a01006 	mov	r1, r6
   12410:	e1a07000 	mov	r7, r0
   12414:	ebffe9a5 	bl	cab0 <vfs_get_by_fd>
   12418:	e2504000 	subs	r4, r0, #0
   1241c:	1a000026 	bne	124bc <close+0xc4>
   12420:	ebfff91d 	bl	1089c <get_proto_factor>
   12424:	e1a03000 	mov	r3, r0
   12428:	e24b50b0 	sub	r5, fp, #176	; 0xb0
   1242c:	e5933004 	ldr	r3, [r3, #4]
   12430:	e1a00005 	mov	r0, r5
   12434:	e1a0e00f 	mov	lr, pc
   12438:	e12fff13 	bx	r3
   1243c:	e1a03000 	mov	r3, r0
   12440:	e1a01007 	mov	r1, r7
   12444:	e5933014 	ldr	r3, [r3, #20]
   12448:	e1a00005 	mov	r0, r5
   1244c:	e1a0e00f 	mov	lr, pc
   12450:	e12fff13 	bx	r3
   12454:	e1a03000 	mov	r3, r0
   12458:	e3e01000 	mvn	r1, #0
   1245c:	e5933014 	ldr	r3, [r3, #20]
   12460:	e1a00005 	mov	r0, r5
   12464:	e1a0e00f 	mov	lr, pc
   12468:	e12fff13 	bx	r3
   1246c:	e1a03000 	mov	r3, r0
   12470:	e1a01006 	mov	r1, r6
   12474:	e3a0205c 	mov	r2, #92	; 0x5c
   12478:	e5933010 	ldr	r3, [r3, #16]
   1247c:	e1a00005 	mov	r0, r5
   12480:	e1a0e00f 	mov	lr, pc
   12484:	e12fff13 	bx	r3
   12488:	e1a03004 	mov	r3, r4
   1248c:	e1a02005 	mov	r2, r5
   12490:	e3a01003 	mov	r1, #3
   12494:	e51b00b8 	ldr	r0, [fp, #-184]	; 0xffffff48
   12498:	ebfff26a 	bl	ee48 <ipc_call>
   1249c:	ebfff8fe 	bl	1089c <get_proto_factor>
   124a0:	e1a03000 	mov	r3, r0
   124a4:	e1a00005 	mov	r0, r5
   124a8:	e593300c 	ldr	r3, [r3, #12]
   124ac:	e1a0e00f 	mov	lr, pc
   124b0:	e12fff13 	bx	r3
   124b4:	e1a00007 	mov	r0, r7
   124b8:	ebffeaab 	bl	cf6c <vfs_close>
   124bc:	e24bd01c 	sub	sp, fp, #28
   124c0:	e89d68f0 	ldm	sp, {r4, r5, r6, r7, fp, sp, lr}
   124c4:	e12fff1e 	bx	lr

000124c8 <fcntl>:
   124c8:	e1a0c00d 	mov	ip, sp
   124cc:	e92dd8f0 	push	{r4, r5, r6, r7, fp, ip, lr, pc}
   124d0:	e24cb004 	sub	fp, ip, #4
   124d4:	e24ddf4a 	sub	sp, sp, #296	; 0x128
   124d8:	e1a04001 	mov	r4, r1
   124dc:	e1a06002 	mov	r6, r2
   124e0:	e1a07000 	mov	r7, r0
   124e4:	ebfff8ec 	bl	1089c <get_proto_factor>
   124e8:	e1a03000 	mov	r3, r0
   124ec:	e24b50b0 	sub	r5, fp, #176	; 0xb0
   124f0:	e1a00005 	mov	r0, r5
   124f4:	e5933004 	ldr	r3, [r3, #4]
   124f8:	e1a0e00f 	mov	lr, pc
   124fc:	e12fff13 	bx	r3
   12500:	e3540000 	cmp	r4, #0
   12504:	0a000031 	beq	125d0 <fcntl+0x108>
   12508:	e3540001 	cmp	r4, #1
   1250c:	124b4f51 	subne	r4, fp, #324	; 0x144
   12510:	1a00004a 	bne	12640 <fcntl+0x178>
   12514:	ebfff8e0 	bl	1089c <get_proto_factor>
   12518:	e1a03000 	mov	r3, r0
   1251c:	e24b4f51 	sub	r4, fp, #324	; 0x144
   12520:	e5933004 	ldr	r3, [r3, #4]
   12524:	e1a00004 	mov	r0, r4
   12528:	e1a0e00f 	mov	lr, pc
   1252c:	e12fff13 	bx	r3
   12530:	e1a03000 	mov	r3, r0
   12534:	e1a01007 	mov	r1, r7
   12538:	e5933014 	ldr	r3, [r3, #20]
   1253c:	e1a00004 	mov	r0, r4
   12540:	e1a0e00f 	mov	lr, pc
   12544:	e12fff13 	bx	r3
   12548:	e1a03000 	mov	r3, r0
   1254c:	e1a01006 	mov	r1, r6
   12550:	e5933014 	ldr	r3, [r3, #20]
   12554:	e1a00004 	mov	r0, r4
   12558:	e1a0e00f 	mov	lr, pc
   1255c:	e12fff13 	bx	r3
   12560:	ebfffb3f 	bl	11264 <get_vfsd_pid>
   12564:	e1a03005 	mov	r3, r5
   12568:	e1a02004 	mov	r2, r4
   1256c:	e3a01014 	mov	r1, #20
   12570:	ebfff234 	bl	ee48 <ipc_call>
   12574:	e3500000 	cmp	r0, #0
   12578:	1a000030 	bne	12640 <fcntl+0x178>
   1257c:	e1a00005 	mov	r0, r5
   12580:	ebfff993 	bl	10bd4 <proto_read_int>
   12584:	e2506000 	subs	r6, r0, #0
   12588:	13a06001 	movne	r6, #1
   1258c:	e2666000 	rsb	r6, r6, #0
   12590:	ebfff8c1 	bl	1089c <get_proto_factor>
   12594:	e1a03000 	mov	r3, r0
   12598:	e1a00005 	mov	r0, r5
   1259c:	e593300c 	ldr	r3, [r3, #12]
   125a0:	e1a0e00f 	mov	lr, pc
   125a4:	e12fff13 	bx	r3
   125a8:	ebfff8bb 	bl	1089c <get_proto_factor>
   125ac:	e1a03000 	mov	r3, r0
   125b0:	e1a00004 	mov	r0, r4
   125b4:	e593300c 	ldr	r3, [r3, #12]
   125b8:	e1a0e00f 	mov	lr, pc
   125bc:	e12fff13 	bx	r3
   125c0:	e1a00006 	mov	r0, r6
   125c4:	e24bd01c 	sub	sp, fp, #28
   125c8:	e89d68f0 	ldm	sp, {r4, r5, r6, r7, fp, sp, lr}
   125cc:	e12fff1e 	bx	lr
   125d0:	ebfff8b1 	bl	1089c <get_proto_factor>
   125d4:	e1a03000 	mov	r3, r0
   125d8:	e24b4f51 	sub	r4, fp, #324	; 0x144
   125dc:	e5933004 	ldr	r3, [r3, #4]
   125e0:	e1a00004 	mov	r0, r4
   125e4:	e1a0e00f 	mov	lr, pc
   125e8:	e12fff13 	bx	r3
   125ec:	e1a03000 	mov	r3, r0
   125f0:	e1a01007 	mov	r1, r7
   125f4:	e5933014 	ldr	r3, [r3, #20]
   125f8:	e1a00004 	mov	r0, r4
   125fc:	e1a0e00f 	mov	lr, pc
   12600:	e12fff13 	bx	r3
   12604:	ebfffb16 	bl	11264 <get_vfsd_pid>
   12608:	e1a03005 	mov	r3, r5
   1260c:	e1a02004 	mov	r2, r4
   12610:	e3a01013 	mov	r1, #19
   12614:	ebfff20b 	bl	ee48 <ipc_call>
   12618:	e3500000 	cmp	r0, #0
   1261c:	1a000007 	bne	12640 <fcntl+0x178>
   12620:	e1a00005 	mov	r0, r5
   12624:	ebfff96a 	bl	10bd4 <proto_read_int>
   12628:	e3500000 	cmp	r0, #0
   1262c:	1a000003 	bne	12640 <fcntl+0x178>
   12630:	e1a00005 	mov	r0, r5
   12634:	ebfff966 	bl	10bd4 <proto_read_int>
   12638:	e1a06000 	mov	r6, r0
   1263c:	eaffffd3 	b	12590 <fcntl+0xc8>
   12640:	e3e06000 	mvn	r6, #0
   12644:	eaffffd1 	b	12590 <fcntl+0xc8>

00012648 <__aeabi_dadd>:
   12648:	e92d40f0 	push	{r4, r5, r6, r7, lr}
   1264c:	e1a06000 	mov	r6, r0
   12650:	e1a04002 	mov	r4, r2
   12654:	e1a05003 	mov	r5, r3
   12658:	e24dd014 	sub	sp, sp, #20
   1265c:	e1a03001 	mov	r3, r1
   12660:	e28d0008 	add	r0, sp, #8
   12664:	e1a02006 	mov	r2, r6
   12668:	e88d0030 	stm	sp, {r4, r5}
   1266c:	eb000688 	bl	14094 <f64_add>
   12670:	e28d1008 	add	r1, sp, #8
   12674:	e8910003 	ldm	r1, {r0, r1}
   12678:	e28dd014 	add	sp, sp, #20
   1267c:	e8bd40f0 	pop	{r4, r5, r6, r7, lr}
   12680:	e12fff1e 	bx	lr

00012684 <__aeabi_ddiv>:
   12684:	e92d40f0 	push	{r4, r5, r6, r7, lr}
   12688:	e1a06000 	mov	r6, r0
   1268c:	e1a04002 	mov	r4, r2
   12690:	e1a05003 	mov	r5, r3
   12694:	e24dd014 	sub	sp, sp, #20
   12698:	e1a03001 	mov	r3, r1
   1269c:	e28d0008 	add	r0, sp, #8
   126a0:	e1a02006 	mov	r2, r6
   126a4:	e88d0030 	stm	sp, {r4, r5}
   126a8:	eb000724 	bl	14340 <f64_div>
   126ac:	e28d1008 	add	r1, sp, #8
   126b0:	e8910003 	ldm	r1, {r0, r1}
   126b4:	e28dd014 	add	sp, sp, #20
   126b8:	e8bd40f0 	pop	{r4, r5, r6, r7, lr}
   126bc:	e12fff1e 	bx	lr

000126c0 <__aeabi_dmul>:
   126c0:	e92d40f0 	push	{r4, r5, r6, r7, lr}
   126c4:	e1a06000 	mov	r6, r0
   126c8:	e1a04002 	mov	r4, r2
   126cc:	e1a05003 	mov	r5, r3
   126d0:	e24dd014 	sub	sp, sp, #20
   126d4:	e1a03001 	mov	r3, r1
   126d8:	e28d0008 	add	r0, sp, #8
   126dc:	e1a02006 	mov	r2, r6
   126e0:	e88d0030 	stm	sp, {r4, r5}
   126e4:	eb00069c 	bl	1415c <f64_mul>
   126e8:	e28d1008 	add	r1, sp, #8
   126ec:	e8910003 	ldm	r1, {r0, r1}
   126f0:	e28dd014 	add	sp, sp, #20
   126f4:	e8bd40f0 	pop	{r4, r5, r6, r7, lr}
   126f8:	e12fff1e 	bx	lr

000126fc <__aeabi_drsub>:
   126fc:	e92d4030 	push	{r4, r5, lr}
   12700:	e1a05001 	mov	r5, r1
   12704:	e1a04000 	mov	r4, r0
   12708:	e24dd014 	sub	sp, sp, #20
   1270c:	e28d0008 	add	r0, sp, #8
   12710:	e88d0030 	stm	sp, {r4, r5}
   12714:	eb000677 	bl	140f8 <f64_sub>
   12718:	e28d1008 	add	r1, sp, #8
   1271c:	e8910003 	ldm	r1, {r0, r1}
   12720:	e28dd014 	add	sp, sp, #20
   12724:	e8bd4030 	pop	{r4, r5, lr}
   12728:	e12fff1e 	bx	lr

0001272c <__aeabi_dsub>:
   1272c:	e92d40f0 	push	{r4, r5, r6, r7, lr}
   12730:	e1a06000 	mov	r6, r0
   12734:	e1a04002 	mov	r4, r2
   12738:	e1a05003 	mov	r5, r3
   1273c:	e24dd014 	sub	sp, sp, #20
   12740:	e1a03001 	mov	r3, r1
   12744:	e28d0008 	add	r0, sp, #8
   12748:	e1a02006 	mov	r2, r6
   1274c:	e88d0030 	stm	sp, {r4, r5}
   12750:	eb000668 	bl	140f8 <f64_sub>
   12754:	e28d1008 	add	r1, sp, #8
   12758:	e8910003 	ldm	r1, {r0, r1}
   1275c:	e28dd014 	add	sp, sp, #20
   12760:	e8bd40f0 	pop	{r4, r5, r6, r7, lr}
   12764:	e12fff1e 	bx	lr

00012768 <__aeabi_dcmpeq>:
   12768:	e92d4010 	push	{r4, lr}
   1276c:	eb000789 	bl	14598 <f64_eq>
   12770:	e8bd4010 	pop	{r4, lr}
   12774:	e12fff1e 	bx	lr

00012778 <__aeabi_dcmplt>:
   12778:	e92d4010 	push	{r4, lr}
   1277c:	eb0007ea 	bl	1472c <f64_lt>
   12780:	e8bd4010 	pop	{r4, lr}
   12784:	e12fff1e 	bx	lr

00012788 <__aeabi_dcmple>:
   12788:	e92d4010 	push	{r4, lr}
   1278c:	eb0007ba 	bl	1467c <f64_le>
   12790:	e8bd4010 	pop	{r4, lr}
   12794:	e12fff1e 	bx	lr

00012798 <__aeabi_dcmpge>:
   12798:	e92d4070 	push	{r4, r5, r6, lr}
   1279c:	e1a04000 	mov	r4, r0
   127a0:	e1a05001 	mov	r5, r1
   127a4:	e1a00002 	mov	r0, r2
   127a8:	e1a01003 	mov	r1, r3
   127ac:	e1a02004 	mov	r2, r4
   127b0:	e1a03005 	mov	r3, r5
   127b4:	eb0007b0 	bl	1467c <f64_le>
   127b8:	e8bd4070 	pop	{r4, r5, r6, lr}
   127bc:	e12fff1e 	bx	lr

000127c0 <__aeabi_dcmpgt>:
   127c0:	e92d4070 	push	{r4, r5, r6, lr}
   127c4:	e1a04000 	mov	r4, r0
   127c8:	e1a05001 	mov	r5, r1
   127cc:	e1a00002 	mov	r0, r2
   127d0:	e1a01003 	mov	r1, r3
   127d4:	e1a02004 	mov	r2, r4
   127d8:	e1a03005 	mov	r3, r5
   127dc:	eb0007d2 	bl	1472c <f64_lt>
   127e0:	e8bd4070 	pop	{r4, r5, r6, lr}
   127e4:	e12fff1e 	bx	lr

000127e8 <__aeabi_fadd>:
   127e8:	e92d4010 	push	{r4, lr}
   127ec:	eb000369 	bl	13598 <f32_add>
   127f0:	e8bd4010 	pop	{r4, lr}
   127f4:	e12fff1e 	bx	lr

000127f8 <__aeabi_fdiv>:
   127f8:	e92d4010 	push	{r4, lr}
   127fc:	eb0003c8 	bl	13724 <f32_div>
   12800:	e8bd4010 	pop	{r4, lr}
   12804:	e12fff1e 	bx	lr

00012808 <__aeabi_fmul>:
   12808:	e92d4010 	push	{r4, lr}
   1280c:	eb000373 	bl	135e0 <f32_mul>
   12810:	e8bd4010 	pop	{r4, lr}
   12814:	e12fff1e 	bx	lr

00012818 <__aeabi_frsub>:
   12818:	e1a03001 	mov	r3, r1
   1281c:	e92d4010 	push	{r4, lr}
   12820:	e1a01000 	mov	r1, r0
   12824:	e1a00003 	mov	r0, r3
   12828:	eb000363 	bl	135bc <f32_sub>
   1282c:	e8bd4010 	pop	{r4, lr}
   12830:	e12fff1e 	bx	lr

00012834 <__aeabi_fsub>:
   12834:	e92d4010 	push	{r4, lr}
   12838:	eb00035f 	bl	135bc <f32_sub>
   1283c:	e8bd4010 	pop	{r4, lr}
   12840:	e12fff1e 	bx	lr

00012844 <__aeabi_fcmpeq>:
   12844:	e92d4010 	push	{r4, lr}
   12848:	eb000417 	bl	138ac <f32_eq>
   1284c:	e8bd4010 	pop	{r4, lr}
   12850:	e12fff1e 	bx	lr

00012854 <__aeabi_fcmplt>:
   12854:	e92d4010 	push	{r4, lr}
   12858:	eb00046f 	bl	13a1c <f32_lt>
   1285c:	e8bd4010 	pop	{r4, lr}
   12860:	e12fff1e 	bx	lr

00012864 <__aeabi_fcmple>:
   12864:	e92d4010 	push	{r4, lr}
   12868:	eb000443 	bl	1397c <f32_le>
   1286c:	e8bd4010 	pop	{r4, lr}
   12870:	e12fff1e 	bx	lr

00012874 <__aeabi_fcmpge>:
   12874:	e1a03001 	mov	r3, r1
   12878:	e92d4010 	push	{r4, lr}
   1287c:	e1a01000 	mov	r1, r0
   12880:	e1a00003 	mov	r0, r3
   12884:	eb00043c 	bl	1397c <f32_le>
   12888:	e8bd4010 	pop	{r4, lr}
   1288c:	e12fff1e 	bx	lr

00012890 <__aeabi_fcmpgt>:
   12890:	e1a03001 	mov	r3, r1
   12894:	e92d4010 	push	{r4, lr}
   12898:	e1a01000 	mov	r1, r0
   1289c:	e1a00003 	mov	r0, r3
   128a0:	eb00045d 	bl	13a1c <f32_lt>
   128a4:	e8bd4010 	pop	{r4, lr}
   128a8:	e12fff1e 	bx	lr

000128ac <__aeabi_d2iz>:
   128ac:	e92d4010 	push	{r4, lr}
   128b0:	e3a02000 	mov	r2, #0
   128b4:	eb000515 	bl	13d10 <f64_to_i32_r_minMag>
   128b8:	e8bd4010 	pop	{r4, lr}
   128bc:	e12fff1e 	bx	lr

000128c0 <__aeabi_d2uiz>:
   128c0:	e92d4010 	push	{r4, lr}
   128c4:	e3a02000 	mov	r2, #0
   128c8:	eb00047c 	bl	13ac0 <f64_to_ui32_r_minMag>
   128cc:	e8bd4010 	pop	{r4, lr}
   128d0:	e12fff1e 	bx	lr

000128d4 <__aeabi_d2lz>:
   128d4:	e92d4010 	push	{r4, lr}
   128d8:	e3a02000 	mov	r2, #0
   128dc:	eb000569 	bl	13e88 <f64_to_i64_r_minMag>
   128e0:	e8bd4010 	pop	{r4, lr}
   128e4:	e12fff1e 	bx	lr

000128e8 <__aeabi_d2ulz>:
   128e8:	e92d4010 	push	{r4, lr}
   128ec:	e3a02000 	mov	r2, #0
   128f0:	eb0004b4 	bl	13bc8 <f64_to_ui64_r_minMag>
   128f4:	e8bd4010 	pop	{r4, lr}
   128f8:	e12fff1e 	bx	lr

000128fc <__aeabi_f2iz>:
   128fc:	e92d4010 	push	{r4, lr}
   12900:	e3a01000 	mov	r1, #0
   12904:	eb00027b 	bl	132f8 <f32_to_i32_r_minMag>
   12908:	e8bd4010 	pop	{r4, lr}
   1290c:	e12fff1e 	bx	lr

00012910 <__aeabi_f2uiz>:
   12910:	e92d4010 	push	{r4, lr}
   12914:	e3a01000 	mov	r1, #0
   12918:	eb00020e 	bl	13158 <f32_to_ui32_r_minMag>
   1291c:	e8bd4010 	pop	{r4, lr}
   12920:	e12fff1e 	bx	lr

00012924 <__aeabi_f2lz>:
   12924:	e92d4010 	push	{r4, lr}
   12928:	e3a01000 	mov	r1, #0
   1292c:	eb0002a8 	bl	133d4 <f32_to_i64_r_minMag>
   12930:	e8bd4010 	pop	{r4, lr}
   12934:	e12fff1e 	bx	lr

00012938 <__aeabi_f2ulz>:
   12938:	e92d4010 	push	{r4, lr}
   1293c:	e3a01000 	mov	r1, #0
   12940:	eb000233 	bl	13214 <f32_to_ui64_r_minMag>
   12944:	e8bd4010 	pop	{r4, lr}
   12948:	e12fff1e 	bx	lr

0001294c <__aeabi_d2f>:
   1294c:	e92d4010 	push	{r4, lr}
   12950:	eb0005a6 	bl	13ff0 <f64_to_f32>
   12954:	e8bd4010 	pop	{r4, lr}
   12958:	e12fff1e 	bx	lr

0001295c <__aeabi_f2d>:
   1295c:	e52de004 	push	{lr}		; (str lr, [sp, #-4]!)
   12960:	e24dd00c 	sub	sp, sp, #12
   12964:	e1a01000 	mov	r1, r0
   12968:	e1a0000d 	mov	r0, sp
   1296c:	eb0002db 	bl	134e0 <f32_to_f64>
   12970:	e89d0003 	ldm	sp, {r0, r1}
   12974:	e28dd00c 	add	sp, sp, #12
   12978:	e49de004 	pop	{lr}		; (ldr lr, [sp], #4)
   1297c:	e12fff1e 	bx	lr

00012980 <__aeabi_i2d>:
   12980:	e52de004 	push	{lr}		; (str lr, [sp, #-4]!)
   12984:	e24dd00c 	sub	sp, sp, #12
   12988:	e1a01000 	mov	r1, r0
   1298c:	e1a0000d 	mov	r0, sp
   12990:	eb00017b 	bl	12f84 <i32_to_f64>
   12994:	e89d0003 	ldm	sp, {r0, r1}
   12998:	e28dd00c 	add	sp, sp, #12
   1299c:	e49de004 	pop	{lr}		; (ldr lr, [sp], #4)
   129a0:	e12fff1e 	bx	lr

000129a4 <__aeabi_ui2d>:
   129a4:	e52de004 	push	{lr}		; (str lr, [sp, #-4]!)
   129a8:	e24dd00c 	sub	sp, sp, #12
   129ac:	e1a01000 	mov	r1, r0
   129b0:	e1a0000d 	mov	r0, sp
   129b4:	eb000105 	bl	12dd0 <ui32_to_f64>
   129b8:	e89d0003 	ldm	sp, {r0, r1}
   129bc:	e28dd00c 	add	sp, sp, #12
   129c0:	e49de004 	pop	{lr}		; (ldr lr, [sp], #4)
   129c4:	e12fff1e 	bx	lr

000129c8 <__aeabi_l2d>:
   129c8:	e52de004 	push	{lr}		; (str lr, [sp, #-4]!)
   129cc:	e24dd00c 	sub	sp, sp, #12
   129d0:	e1a02000 	mov	r2, r0
   129d4:	e1a03001 	mov	r3, r1
   129d8:	e1a0000d 	mov	r0, sp
   129dc:	eb0001bb 	bl	130d0 <i64_to_f64>
   129e0:	e89d0003 	ldm	sp, {r0, r1}
   129e4:	e28dd00c 	add	sp, sp, #12
   129e8:	e49de004 	pop	{lr}		; (ldr lr, [sp], #4)
   129ec:	e12fff1e 	bx	lr

000129f0 <__aeabi_ul2d>:
   129f0:	e52de004 	push	{lr}		; (str lr, [sp, #-4]!)
   129f4:	e24dd00c 	sub	sp, sp, #12
   129f8:	e1a02000 	mov	r2, r0
   129fc:	e1a03001 	mov	r3, r1
   12a00:	e1a0000d 	mov	r0, sp
   12a04:	eb00012b 	bl	12eb8 <ui64_to_f64>
   12a08:	e89d0003 	ldm	sp, {r0, r1}
   12a0c:	e28dd00c 	add	sp, sp, #12
   12a10:	e49de004 	pop	{lr}		; (ldr lr, [sp], #4)
   12a14:	e12fff1e 	bx	lr

00012a18 <__aeabi_i2f>:
   12a18:	e92d4010 	push	{r4, lr}
   12a1c:	eb00014a 	bl	12f4c <i32_to_f32>
   12a20:	e8bd4010 	pop	{r4, lr}
   12a24:	e12fff1e 	bx	lr

00012a28 <__aeabi_ui2f>:
   12a28:	e92d4010 	push	{r4, lr}
   12a2c:	eb0000d5 	bl	12d88 <ui32_to_f32>
   12a30:	e8bd4010 	pop	{r4, lr}
   12a34:	e12fff1e 	bx	lr

00012a38 <__aeabi_l2f>:
   12a38:	e92d4010 	push	{r4, lr}
   12a3c:	eb000169 	bl	12fe8 <i64_to_f32>
   12a40:	e8bd4010 	pop	{r4, lr}
   12a44:	e12fff1e 	bx	lr

00012a48 <__aeabi_ul2f>:
   12a48:	e92d4010 	push	{r4, lr}
   12a4c:	eb0000f4 	bl	12e24 <ui64_to_f32>
   12a50:	e8bd4010 	pop	{r4, lr}
   12a54:	e12fff1e 	bx	lr

00012a58 <__clzsi2>:
   12a58:	e3a02005 	mov	r2, #5
   12a5c:	e3a03010 	mov	r3, #16
   12a60:	e3a01020 	mov	r1, #32
   12a64:	e1b0c350 	asrs	ip, r0, r3
   12a68:	0a000003 	beq	12a7c <__clzsi2+0x24>
   12a6c:	e3530001 	cmp	r3, #1
   12a70:	0a000006 	beq	12a90 <__clzsi2+0x38>
   12a74:	e1a0000c 	mov	r0, ip
   12a78:	e0411003 	sub	r1, r1, r3
   12a7c:	e2522001 	subs	r2, r2, #1
   12a80:	e1a030c3 	asr	r3, r3, #1
   12a84:	1afffff6 	bne	12a64 <__clzsi2+0xc>
   12a88:	e0410000 	sub	r0, r1, r0
   12a8c:	e12fff1e 	bx	lr
   12a90:	e2410002 	sub	r0, r1, #2
   12a94:	e12fff1e 	bx	lr

00012a98 <__clzdi2>:
   12a98:	e1913fc1 	orrs	r3, r1, r1, asr #31
   12a9c:	e3a02005 	mov	r2, #5
   12aa0:	0a00000c 	beq	12ad8 <__clzdi2+0x40>
   12aa4:	e3a00020 	mov	r0, #32
   12aa8:	e3a03010 	mov	r3, #16
   12aac:	e1b0c351 	asrs	ip, r1, r3
   12ab0:	0a000003 	beq	12ac4 <__clzdi2+0x2c>
   12ab4:	e3530001 	cmp	r3, #1
   12ab8:	0a000017 	beq	12b1c <__clzdi2+0x84>
   12abc:	e1a0100c 	mov	r1, ip
   12ac0:	e0400003 	sub	r0, r0, r3
   12ac4:	e2522001 	subs	r2, r2, #1
   12ac8:	e1a030c3 	asr	r3, r3, #1
   12acc:	1afffff6 	bne	12aac <__clzdi2+0x14>
   12ad0:	e0400001 	sub	r0, r0, r1
   12ad4:	e12fff1e 	bx	lr
   12ad8:	e3a01020 	mov	r1, #32
   12adc:	e3a03010 	mov	r3, #16
   12ae0:	e1b0c350 	asrs	ip, r0, r3
   12ae4:	0a000003 	beq	12af8 <__clzdi2+0x60>
   12ae8:	e3530001 	cmp	r3, #1
   12aec:	0a000007 	beq	12b10 <__clzdi2+0x78>
   12af0:	e1a0000c 	mov	r0, ip
   12af4:	e0411003 	sub	r1, r1, r3
   12af8:	e2522001 	subs	r2, r2, #1
   12afc:	e1a030c3 	asr	r3, r3, #1
   12b00:	1afffff6 	bne	12ae0 <__clzdi2+0x48>
   12b04:	e0410000 	sub	r0, r1, r0
   12b08:	e2800020 	add	r0, r0, #32
   12b0c:	e12fff1e 	bx	lr
   12b10:	e2410002 	sub	r0, r1, #2
   12b14:	e2800020 	add	r0, r0, #32
   12b18:	e12fff1e 	bx	lr
   12b1c:	e2400002 	sub	r0, r0, #2
   12b20:	e12fff1e 	bx	lr

00012b24 <syscall3_raw>:
   12b24:	e92d4030 	push	{r4, r5, lr}
   12b28:	e1a0c000 	mov	ip, r0
   12b2c:	e24dd00c 	sub	sp, sp, #12
   12b30:	e1a0e001 	mov	lr, r1
   12b34:	e1a04002 	mov	r4, r2
   12b38:	e1a05003 	mov	r5, r3
   12b3c:	e92d4000 	stmfd	sp!, {lr}
   12b40:	e10f0000 	mrs	r0, CPSR
   12b44:	e92d0001 	stmfd	sp!, {r0}
   12b48:	e1a0000c 	mov	r0, ip
   12b4c:	e1a0100e 	mov	r1, lr
   12b50:	e1a02004 	mov	r2, r4
   12b54:	e1a03005 	mov	r3, r5
   12b58:	ef000000 	svc	0x00000000
   12b5c:	e1a0c000 	mov	ip, r0
   12b60:	e8bd0002 	ldmfd	sp!, {r1}
   12b64:	e8bd4000 	ldmfd	sp!, {lr}
   12b68:	e58dc004 	str	ip, [sp, #4]
   12b6c:	e59d0004 	ldr	r0, [sp, #4]
   12b70:	e28dd00c 	add	sp, sp, #12
   12b74:	e8bd4030 	pop	{r4, r5, lr}
   12b78:	e12fff1e 	bx	lr

00012b7c <syscall3>:
   12b7c:	eaffffe8 	b	12b24 <syscall3_raw>

00012b80 <syscall2>:
   12b80:	e3a03000 	mov	r3, #0
   12b84:	eaffffe6 	b	12b24 <syscall3_raw>

00012b88 <syscall1>:
   12b88:	e3a03000 	mov	r3, #0
   12b8c:	e1a02003 	mov	r2, r3
   12b90:	eaffffe3 	b	12b24 <syscall3_raw>

00012b94 <syscall0>:
   12b94:	e3a03000 	mov	r3, #0
   12b98:	e1a02003 	mov	r2, r3
   12b9c:	e1a01003 	mov	r1, r3
   12ba0:	eaffffdf 	b	12b24 <syscall3_raw>

00012ba4 <ret_idivmod_values>:
   12ba4:	e12fff1e 	bx	lr

00012ba8 <ret_uidivmod_values>:
   12ba8:	e12fff1e 	bx	lr

00012bac <lseek>:
   12bac:	e1a0c00d 	mov	ip, sp
   12bb0:	e92dd830 	push	{r4, r5, fp, ip, lr, pc}
   12bb4:	e3520001 	cmp	r2, #1
   12bb8:	e24cb004 	sub	fp, ip, #4
   12bbc:	e24dd060 	sub	sp, sp, #96	; 0x60
   12bc0:	e1a05000 	mov	r5, r0
   12bc4:	e1a04001 	mov	r4, r1
   12bc8:	0a000007 	beq	12bec <lseek+0x40>
   12bcc:	e3520002 	cmp	r2, #2
   12bd0:	0a000009 	beq	12bfc <lseek+0x50>
   12bd4:	e1a01004 	mov	r1, r4
   12bd8:	e1a00005 	mov	r0, r5
   12bdc:	ebffeb93 	bl	da30 <vfs_seek>
   12be0:	e24bd014 	sub	sp, fp, #20
   12be4:	e89d6830 	ldm	sp, {r4, r5, fp, sp, lr}
   12be8:	e12fff1e 	bx	lr
   12bec:	ebffeb5a 	bl	d95c <vfs_tell>
   12bf0:	e3500000 	cmp	r0, #0
   12bf4:	a0844000 	addge	r4, r4, r0
   12bf8:	eafffff5 	b	12bd4 <lseek+0x28>
   12bfc:	e24b1070 	sub	r1, fp, #112	; 0x70
   12c00:	ebffe7aa 	bl	cab0 <vfs_get_by_fd>
   12c04:	e3500000 	cmp	r0, #0
   12c08:	051b3028 	ldreq	r3, [fp, #-40]	; 0xffffffd8
   12c0c:	00844003 	addeq	r4, r4, r3
   12c10:	eaffffef 	b	12bd4 <lseek+0x28>

00012c14 <write>:
   12c14:	e1a0c00d 	mov	ip, sp
   12c18:	e92dd9f0 	push	{r4, r5, r6, r7, r8, fp, ip, lr, pc}
   12c1c:	e1a06002 	mov	r6, r2
   12c20:	e3a02000 	mov	r2, #0
   12c24:	e24cb004 	sub	fp, ip, #4
   12c28:	e24dd064 	sub	sp, sp, #100	; 0x64
   12c2c:	e1a05001 	mov	r5, r1
   12c30:	e1a01002 	mov	r1, r2
   12c34:	e1a04000 	mov	r4, r0
   12c38:	ebfffe22 	bl	124c8 <fcntl>
   12c3c:	e59f713c 	ldr	r7, [pc, #316]	; 12d80 <write+0x16c>
   12c40:	e3700001 	cmn	r0, #1
   12c44:	e08f7007 	add	r7, pc, r7
   12c48:	0a000013 	beq	12c9c <write+0x88>
   12c4c:	e2100008 	ands	r0, r0, #8
   12c50:	0a000014 	beq	12ca8 <write+0x94>
   12c54:	e3a02000 	mov	r2, #0
   12c58:	e59f3124 	ldr	r3, [pc, #292]	; 12d84 <write+0x170>
   12c5c:	e7973003 	ldr	r3, [r7, r3]
   12c60:	e24b7080 	sub	r7, fp, #128	; 0x80
   12c64:	e1a01007 	mov	r1, r7
   12c68:	e1a00004 	mov	r0, r4
   12c6c:	e5832000 	str	r2, [r3]
   12c70:	ebffe78e 	bl	cab0 <vfs_get_by_fd>
   12c74:	e2503000 	subs	r3, r0, #0
   12c78:	1a00003e 	bne	12d78 <write+0x164>
   12c7c:	e51b203c 	ldr	r2, [fp, #-60]	; 0xffffffc4
   12c80:	e3520003 	cmp	r2, #3
   12c84:	0a000030 	beq	12d4c <write+0x138>
   12c88:	e1a03006 	mov	r3, r6
   12c8c:	e1a02005 	mov	r2, r5
   12c90:	e1a01007 	mov	r1, r7
   12c94:	e1a00004 	mov	r0, r4
   12c98:	ebffef12 	bl	e8e8 <vfs_write>
   12c9c:	e24bd020 	sub	sp, fp, #32
   12ca0:	e89d69f0 	ldm	sp, {r4, r5, r6, r7, r8, fp, sp, lr}
   12ca4:	e12fff1e 	bx	lr
   12ca8:	e59f30d4 	ldr	r3, [pc, #212]	; 12d84 <write+0x170>
   12cac:	e7977003 	ldr	r7, [r7, r3]
   12cb0:	e24b8080 	sub	r8, fp, #128	; 0x80
   12cb4:	e5870000 	str	r0, [r7]
   12cb8:	e1a01008 	mov	r1, r8
   12cbc:	e1a00004 	mov	r0, r4
   12cc0:	ebffe77a 	bl	cab0 <vfs_get_by_fd>
   12cc4:	e3500000 	cmp	r0, #0
   12cc8:	1a00002a 	bne	12d78 <write+0x164>
   12ccc:	e51b303c 	ldr	r3, [fp, #-60]	; 0xffffffc4
   12cd0:	e3530003 	cmp	r3, #3
   12cd4:	1a000005 	bne	12cf0 <write+0xdc>
   12cd8:	ea000013 	b	12d2c <write+0x118>
   12cdc:	e5973000 	ldr	r3, [r7]
   12ce0:	e3530002 	cmp	r3, #2
   12ce4:	0a000008 	beq	12d0c <write+0xf8>
   12ce8:	e3530001 	cmp	r3, #1
   12cec:	0a00001d 	beq	12d68 <write+0x154>
   12cf0:	e1a03006 	mov	r3, r6
   12cf4:	e1a02005 	mov	r2, r5
   12cf8:	e1a01008 	mov	r1, r8
   12cfc:	e1a00004 	mov	r0, r4
   12d00:	ebffeef8 	bl	e8e8 <vfs_write>
   12d04:	e3500000 	cmp	r0, #0
   12d08:	bafffff3 	blt	12cdc <write+0xc8>
   12d0c:	e3a03001 	mov	r3, #1
   12d10:	e5873000 	str	r3, [r7]
   12d14:	e24bd020 	sub	sp, fp, #32
   12d18:	e89d69f0 	ldm	sp, {r4, r5, r6, r7, r8, fp, sp, lr}
   12d1c:	e12fff1e 	bx	lr
   12d20:	e5973000 	ldr	r3, [r7]
   12d24:	e3530001 	cmp	r3, #1
   12d28:	1affffdb 	bne	12c9c <write+0x88>
   12d2c:	e3a03001 	mov	r3, #1
   12d30:	e1a02006 	mov	r2, r6
   12d34:	e1a01005 	mov	r1, r5
   12d38:	e1a00008 	mov	r0, r8
   12d3c:	ebffeed5 	bl	e898 <vfs_write_pipe>
   12d40:	e3500000 	cmp	r0, #0
   12d44:	bafffff5 	blt	12d20 <write+0x10c>
   12d48:	eaffffd3 	b	12c9c <write+0x88>
   12d4c:	e1a02006 	mov	r2, r6
   12d50:	e1a01005 	mov	r1, r5
   12d54:	e1a00007 	mov	r0, r7
   12d58:	ebffeece 	bl	e898 <vfs_write_pipe>
   12d5c:	e24bd020 	sub	sp, fp, #32
   12d60:	e89d69f0 	ldm	sp, {r4, r5, r6, r7, r8, fp, sp, lr}
   12d64:	e12fff1e 	bx	lr
   12d68:	e3a01000 	mov	r1, #0
   12d6c:	e51b002c 	ldr	r0, [fp, #-44]	; 0xffffffd4
   12d70:	ebfff9a1 	bl	113fc <proc_block>
   12d74:	eaffffdd 	b	12cf0 <write+0xdc>
   12d78:	e3e00000 	mvn	r0, #0
   12d7c:	eaffffc6 	b	12c9c <write+0x88>
   12d80:	00014fa0 	andeq	r4, r1, r0, lsr #31
   12d84:	00000020 	andeq	r0, r0, r0, lsr #32

00012d88 <ui32_to_f32>:
   12d88:	e2502000 	subs	r2, r0, #0
   12d8c:	0a00000d 	beq	12dc8 <ui32_to_f32+0x40>
   12d90:	e92d4010 	push	{r4, lr}
   12d94:	ba000004 	blt	12dac <ui32_to_f32+0x24>
   12d98:	e3a0109c 	mov	r1, #156	; 0x9c
   12d9c:	e3a00000 	mov	r0, #0
   12da0:	eb0007ee 	bl	14d60 <softfloat_normRoundPackToF32>
   12da4:	e8bd4010 	pop	{r4, lr}
   12da8:	e12fff1e 	bx	lr
   12dac:	e2023001 	and	r3, r2, #1
   12db0:	e3a0109d 	mov	r1, #157	; 0x9d
   12db4:	e3a00000 	mov	r0, #0
   12db8:	e18320a2 	orr	r2, r3, r2, lsr #1
   12dbc:	eb000786 	bl	14bdc <softfloat_roundPackToF32>
   12dc0:	e8bd4010 	pop	{r4, lr}
   12dc4:	e12fff1e 	bx	lr
   12dc8:	e1a00002 	mov	r0, r2
   12dcc:	e12fff1e 	bx	lr

00012dd0 <ui32_to_f64>:
   12dd0:	e92d4070 	push	{r4, r5, r6, lr}
   12dd4:	e2514000 	subs	r4, r1, #0
   12dd8:	e1a05000 	mov	r5, r0
   12ddc:	01a03004 	moveq	r3, r4
   12de0:	0a00000a 	beq	12e10 <ui32_to_f64+0x40>
   12de4:	e1a00004 	mov	r0, r4
   12de8:	ebffff1a 	bl	12a58 <__clzsi2>
   12dec:	e240300b 	sub	r3, r0, #11
   12df0:	e2602e41 	rsb	r2, r0, #1040	; 0x410
   12df4:	e1a03314 	lsl	r3, r4, r3
   12df8:	e2801015 	add	r1, r0, #21
   12dfc:	e260000b 	rsb	r0, r0, #11
   12e00:	e1833034 	orr	r3, r3, r4, lsr r0
   12e04:	e282200d 	add	r2, r2, #13
   12e08:	e1a04114 	lsl	r4, r4, r1
   12e0c:	e0833a02 	add	r3, r3, r2, lsl #20
   12e10:	e1a00005 	mov	r0, r5
   12e14:	e5854000 	str	r4, [r5]
   12e18:	e5853004 	str	r3, [r5, #4]
   12e1c:	e8bd4070 	pop	{r4, r5, r6, lr}
   12e20:	e12fff1e 	bx	lr

00012e24 <ui64_to_f32>:
   12e24:	e1903001 	orrs	r3, r0, r1
   12e28:	0a000020 	beq	12eb0 <ui64_to_f32+0x8c>
   12e2c:	e92d4070 	push	{r4, r5, r6, lr}
   12e30:	e1a04000 	mov	r4, r0
   12e34:	e1a05001 	mov	r5, r1
   12e38:	ebffff16 	bl	12a98 <__clzdi2>
   12e3c:	e2503028 	subs	r3, r0, #40	; 0x28
   12e40:	5a000015 	bpl	12e9c <ui64_to_f32+0x78>
   12e44:	e250c021 	subs	ip, r0, #33	; 0x21
   12e48:	51a02c14 	lslpl	r2, r4, ip
   12e4c:	5a00000d 	bpl	12e88 <ui64_to_f32+0x64>
   12e50:	e3e03000 	mvn	r3, #0
   12e54:	e26c1000 	rsb	r1, ip, #0
   12e58:	e2416020 	sub	r6, r1, #32
   12e5c:	e261e020 	rsb	lr, r1, #32
   12e60:	e1a02134 	lsr	r2, r4, r1
   12e64:	e1c40113 	bic	r0, r4, r3, lsl r1
   12e68:	e1a01113 	lsl	r1, r3, r1
   12e6c:	e1811613 	orr	r1, r1, r3, lsl r6
   12e70:	e1822e15 	orr	r2, r2, r5, lsl lr
   12e74:	e1811e33 	orr	r1, r1, r3, lsr lr
   12e78:	e1822635 	orr	r2, r2, r5, lsr r6
   12e7c:	e1c55001 	bic	r5, r5, r1
   12e80:	e1903005 	orrs	r3, r0, r5
   12e84:	13822001 	orrne	r2, r2, #1
   12e88:	e3a00000 	mov	r0, #0
   12e8c:	e26c109c 	rsb	r1, ip, #156	; 0x9c
   12e90:	eb000751 	bl	14bdc <softfloat_roundPackToF32>
   12e94:	e8bd4070 	pop	{r4, r5, r6, lr}
   12e98:	e12fff1e 	bx	lr
   12e9c:	e1a00314 	lsl	r0, r4, r3
   12ea0:	e2632095 	rsb	r2, r3, #149	; 0x95
   12ea4:	e0800b82 	add	r0, r0, r2, lsl #23
   12ea8:	e8bd4070 	pop	{r4, r5, r6, lr}
   12eac:	e12fff1e 	bx	lr
   12eb0:	e3a00000 	mov	r0, #0
   12eb4:	e12fff1e 	bx	lr

00012eb8 <ui64_to_f64>:
   12eb8:	e92d4010 	push	{r4, lr}
   12ebc:	e1921003 	orrs	r1, r2, r3
   12ec0:	e1a04000 	mov	r4, r0
   12ec4:	e24dd008 	sub	sp, sp, #8
   12ec8:	0a000016 	beq	12f28 <ui64_to_f64+0x70>
   12ecc:	e3530000 	cmp	r3, #0
   12ed0:	ba000007 	blt	12ef4 <ui64_to_f64+0x3c>
   12ed4:	e88d000c 	stm	sp, {r2, r3}
   12ed8:	e3a01000 	mov	r1, #0
   12edc:	e59f2060 	ldr	r2, [pc, #96]	; 12f44 <ui64_to_f64+0x8c>
   12ee0:	eb00093c 	bl	153d8 <softfloat_normRoundPackToF64>
   12ee4:	e1a00004 	mov	r0, r4
   12ee8:	e28dd008 	add	sp, sp, #8
   12eec:	e8bd4010 	pop	{r4, lr}
   12ef0:	e12fff1e 	bx	lr
   12ef4:	e1a010a2 	lsr	r1, r2, #1
   12ef8:	e1811f83 	orr	r1, r1, r3, lsl #31
   12efc:	e2022001 	and	r2, r2, #1
   12f00:	e1812002 	orr	r2, r1, r2
   12f04:	e1a030a3 	lsr	r3, r3, #1
   12f08:	e88d000c 	stm	sp, {r2, r3}
   12f0c:	e3a01000 	mov	r1, #0
   12f10:	e59f2030 	ldr	r2, [pc, #48]	; 12f48 <ui64_to_f64+0x90>
   12f14:	eb00089d 	bl	15190 <softfloat_roundPackToF64>
   12f18:	e1a00004 	mov	r0, r4
   12f1c:	e28dd008 	add	sp, sp, #8
   12f20:	e8bd4010 	pop	{r4, lr}
   12f24:	e12fff1e 	bx	lr
   12f28:	e3a02000 	mov	r2, #0
   12f2c:	e3a03000 	mov	r3, #0
   12f30:	e880000c 	stm	r0, {r2, r3}
   12f34:	e1a00004 	mov	r0, r4
   12f38:	e28dd008 	add	sp, sp, #8
   12f3c:	e8bd4010 	pop	{r4, lr}
   12f40:	e12fff1e 	bx	lr
   12f44:	0000043c 	andeq	r0, r0, ip, lsr r4
   12f48:	0000043d 	andeq	r0, r0, sp, lsr r4

00012f4c <i32_to_f32>:
   12f4c:	e3d03102 	bics	r3, r0, #-2147483648	; 0x80000000
   12f50:	0a000007 	beq	12f74 <i32_to_f32+0x28>
   12f54:	e92d4010 	push	{r4, lr}
   12f58:	e0202fc0 	eor	r2, r0, r0, asr #31
   12f5c:	e0422fc0 	sub	r2, r2, r0, asr #31
   12f60:	e3a0109c 	mov	r1, #156	; 0x9c
   12f64:	e1a00fa0 	lsr	r0, r0, #31
   12f68:	eb00077c 	bl	14d60 <softfloat_normRoundPackToF32>
   12f6c:	e8bd4010 	pop	{r4, lr}
   12f70:	e12fff1e 	bx	lr
   12f74:	e3500000 	cmp	r0, #0
   12f78:	b3a004cf 	movlt	r0, #-822083584	; 0xcf000000
   12f7c:	a3a00000 	movge	r0, #0
   12f80:	e12fff1e 	bx	lr

00012f84 <i32_to_f64>:
   12f84:	e3510000 	cmp	r1, #0
   12f88:	e92d4070 	push	{r4, r5, r6, lr}
   12f8c:	e1a04000 	mov	r4, r0
   12f90:	01a00001 	moveq	r0, r1
   12f94:	0a00000e 	beq	12fd4 <i32_to_f64+0x50>
   12f98:	a1a05001 	movge	r5, r1
   12f9c:	b2615000 	rsblt	r5, r1, #0
   12fa0:	e1a00005 	mov	r0, r5
   12fa4:	e1a06fa1 	lsr	r6, r1, #31
   12fa8:	ebfffeaa 	bl	12a58 <__clzsi2>
   12fac:	e2803015 	add	r3, r0, #21
   12fb0:	e1a01315 	lsl	r1, r5, r3
   12fb4:	e240300b 	sub	r3, r0, #11
   12fb8:	e260200b 	rsb	r2, r0, #11
   12fbc:	e1a03315 	lsl	r3, r5, r3
   12fc0:	e1833235 	orr	r3, r3, r5, lsr r2
   12fc4:	e2602e41 	rsb	r2, r0, #1040	; 0x410
   12fc8:	e282200d 	add	r2, r2, #13
   12fcc:	e0830f86 	add	r0, r3, r6, lsl #31
   12fd0:	e0800a02 	add	r0, r0, r2, lsl #20
   12fd4:	e5840004 	str	r0, [r4, #4]
   12fd8:	e5841000 	str	r1, [r4]
   12fdc:	e1a00004 	mov	r0, r4
   12fe0:	e8bd4070 	pop	{r4, r5, r6, lr}
   12fe4:	e12fff1e 	bx	lr

00012fe8 <i64_to_f32>:
   12fe8:	e3510000 	cmp	r1, #0
   12fec:	e92d41f0 	push	{r4, r5, r6, r7, r8, lr}
   12ff0:	e1a05001 	mov	r5, r1
   12ff4:	e1a06000 	mov	r6, r0
   12ff8:	e1a07fa1 	lsr	r7, r1, #31
   12ffc:	ba00001f 	blt	13080 <i64_to_f32+0x98>
   13000:	e1903001 	orrs	r3, r0, r1
   13004:	e1a04000 	mov	r4, r0
   13008:	e1a08001 	mov	r8, r1
   1300c:	1a000002 	bne	1301c <i64_to_f32+0x34>
   13010:	e3a00000 	mov	r0, #0
   13014:	e8bd41f0 	pop	{r4, r5, r6, r7, r8, lr}
   13018:	e12fff1e 	bx	lr
   1301c:	ebfffe9d 	bl	12a98 <__clzdi2>
   13020:	e2503028 	subs	r3, r0, #40	; 0x28
   13024:	5a000022 	bpl	130b4 <i64_to_f32+0xcc>
   13028:	e2501021 	subs	r1, r0, #33	; 0x21
   1302c:	51a02114 	lslpl	r2, r4, r1
   13030:	5a00000d 	bpl	1306c <i64_to_f32+0x84>
   13034:	e3e00000 	mvn	r0, #0
   13038:	e2613000 	rsb	r3, r1, #0
   1303c:	e243e020 	sub	lr, r3, #32
   13040:	e263c020 	rsb	ip, r3, #32
   13044:	e1a02334 	lsr	r2, r4, r3
   13048:	e1c44310 	bic	r4, r4, r0, lsl r3
   1304c:	e1a03310 	lsl	r3, r0, r3
   13050:	e1833e10 	orr	r3, r3, r0, lsl lr
   13054:	e1822c18 	orr	r2, r2, r8, lsl ip
   13058:	e1833c30 	orr	r3, r3, r0, lsr ip
   1305c:	e1822e38 	orr	r2, r2, r8, lsr lr
   13060:	e1c88003 	bic	r8, r8, r3
   13064:	e1943008 	orrs	r3, r4, r8
   13068:	13822001 	orrne	r2, r2, #1
   1306c:	e1a00007 	mov	r0, r7
   13070:	e261109c 	rsb	r1, r1, #156	; 0x9c
   13074:	eb0006d8 	bl	14bdc <softfloat_roundPackToF32>
   13078:	e8bd41f0 	pop	{r4, r5, r6, r7, r8, lr}
   1307c:	e12fff1e 	bx	lr
   13080:	e2704000 	rsbs	r4, r0, #0
   13084:	e2e18000 	rsc	r8, r1, #0
   13088:	e1a00004 	mov	r0, r4
   1308c:	e1a01008 	mov	r1, r8
   13090:	ebfffe80 	bl	12a98 <__clzdi2>
   13094:	e2503028 	subs	r3, r0, #40	; 0x28
   13098:	4affffe2 	bmi	13028 <i64_to_f32+0x40>
   1309c:	e1a00314 	lsl	r0, r4, r3
   130a0:	e0800f87 	add	r0, r0, r7, lsl #31
   130a4:	e2633095 	rsb	r3, r3, #149	; 0x95
   130a8:	e0800b83 	add	r0, r0, r3, lsl #23
   130ac:	e8bd41f0 	pop	{r4, r5, r6, r7, r8, lr}
   130b0:	e12fff1e 	bx	lr
   130b4:	e1962005 	orrs	r2, r6, r5
   130b8:	0affffd4 	beq	13010 <i64_to_f32+0x28>
   130bc:	e1a00314 	lsl	r0, r4, r3
   130c0:	e0800f87 	add	r0, r0, r7, lsl #31
   130c4:	e2633095 	rsb	r3, r3, #149	; 0x95
   130c8:	e0800b83 	add	r0, r0, r3, lsl #23
   130cc:	eafffff6 	b	130ac <i64_to_f32+0xc4>

000130d0 <i64_to_f64>:
   130d0:	e92d4010 	push	{r4, lr}
   130d4:	e3c31102 	bic	r1, r3, #-2147483648	; 0x80000000
   130d8:	e1a04000 	mov	r4, r0
   130dc:	e1920001 	orrs	r0, r2, r1
   130e0:	e24dd008 	sub	sp, sp, #8
   130e4:	0a00000f 	beq	13128 <i64_to_f64+0x58>
   130e8:	e3530000 	cmp	r3, #0
   130ec:	e1a0e003 	mov	lr, r3
   130f0:	e1a0c002 	mov	ip, r2
   130f4:	ba000008 	blt	1311c <i64_to_f64+0x4c>
   130f8:	e1a00004 	mov	r0, r4
   130fc:	e88d5000 	stm	sp, {ip, lr}
   13100:	e59f2048 	ldr	r2, [pc, #72]	; 13150 <i64_to_f64+0x80>
   13104:	e1a01fa3 	lsr	r1, r3, #31
   13108:	eb0008b2 	bl	153d8 <softfloat_normRoundPackToF64>
   1310c:	e1a00004 	mov	r0, r4
   13110:	e28dd008 	add	sp, sp, #8
   13114:	e8bd4010 	pop	{r4, lr}
   13118:	e12fff1e 	bx	lr
   1311c:	e272c000 	rsbs	ip, r2, #0
   13120:	e2e3e000 	rsc	lr, r3, #0
   13124:	eafffff3 	b	130f8 <i64_to_f64+0x28>
   13128:	e59f0024 	ldr	r0, [pc, #36]	; 13154 <i64_to_f64+0x84>
   1312c:	e3530000 	cmp	r3, #0
   13130:	b1a01000 	movlt	r1, r0
   13134:	b3a02000 	movlt	r2, #0
   13138:	e1a00004 	mov	r0, r4
   1313c:	e5842000 	str	r2, [r4]
   13140:	e5841004 	str	r1, [r4, #4]
   13144:	e28dd008 	add	sp, sp, #8
   13148:	e8bd4010 	pop	{r4, lr}
   1314c:	e12fff1e 	bx	lr
   13150:	0000043c 	andeq	r0, r0, ip, lsr r4
   13154:	c3e00000 	mvngt	r0, #0

00013158 <f32_to_ui32_r_minMag>:
   13158:	e92d4070 	push	{r4, r5, r6, lr}
   1315c:	e1a05000 	mov	r5, r0
   13160:	e1a00ba0 	lsr	r0, r0, #23
   13164:	e20060ff 	and	r6, r0, #255	; 0xff
   13168:	e266309e 	rsb	r3, r6, #158	; 0x9e
   1316c:	e3c544ff 	bic	r4, r5, #-16777216	; 0xff000000
   13170:	e353001f 	cmp	r3, #31
   13174:	e3c44502 	bic	r4, r4, #8388608	; 0x800000
   13178:	ca00000d 	bgt	131b4 <f32_to_ui32_r_minMag+0x5c>
   1317c:	e1932005 	orrs	r2, r3, r5
   13180:	4a000016 	bmi	131e0 <f32_to_ui32_r_minMag+0x88>
   13184:	e1a04404 	lsl	r4, r4, #8
   13188:	e3844102 	orr	r4, r4, #-2147483648	; 0x80000000
   1318c:	e3510000 	cmp	r1, #0
   13190:	e1a00334 	lsr	r0, r4, r3
   13194:	0a000004 	beq	131ac <f32_to_ui32_r_minMag+0x54>
   13198:	e1540310 	cmp	r4, r0, lsl r3
   1319c:	159f206c 	ldrne	r2, [pc, #108]	; 13210 <f32_to_ui32_r_minMag+0xb8>
   131a0:	15923000 	ldrne	r3, [r2]
   131a4:	13833001 	orrne	r3, r3, #1
   131a8:	15823000 	strne	r3, [r2]
   131ac:	e8bd4070 	pop	{r4, r5, r6, lr}
   131b0:	e12fff1e 	bx	lr
   131b4:	e3510000 	cmp	r1, #0
   131b8:	01a00001 	moveq	r0, r1
   131bc:	0afffffa 	beq	131ac <f32_to_ui32_r_minMag+0x54>
   131c0:	e1960004 	orrs	r0, r6, r4
   131c4:	0afffff8 	beq	131ac <f32_to_ui32_r_minMag+0x54>
   131c8:	e59f2040 	ldr	r2, [pc, #64]	; 13210 <f32_to_ui32_r_minMag+0xb8>
   131cc:	e5923000 	ldr	r3, [r2]
   131d0:	e3833001 	orr	r3, r3, #1
   131d4:	e3a00000 	mov	r0, #0
   131d8:	e5823000 	str	r3, [r2]
   131dc:	eafffff2 	b	131ac <f32_to_ui32_r_minMag+0x54>
   131e0:	e3a00010 	mov	r0, #16
   131e4:	eb0005b8 	bl	148cc <softfloat_raiseFlags>
   131e8:	e2744001 	rsbs	r4, r4, #1
   131ec:	33a04000 	movcc	r4, #0
   131f0:	e35600ff 	cmp	r6, #255	; 0xff
   131f4:	13844001 	orrne	r4, r4, #1
   131f8:	e3550000 	cmp	r5, #0
   131fc:	b3a04000 	movlt	r4, #0
   13200:	a2044001 	andge	r4, r4, #1
   13204:	e2640000 	rsb	r0, r4, #0
   13208:	e8bd4070 	pop	{r4, r5, r6, lr}
   1320c:	e12fff1e 	bx	lr
   13210:	00028be4 	andeq	r8, r2, r4, ror #23

00013214 <f32_to_ui64_r_minMag>:
   13214:	e92d4070 	push	{r4, r5, r6, lr}
   13218:	e1a04ba0 	lsr	r4, r0, #23
   1321c:	e20440ff 	and	r4, r4, #255	; 0xff
   13220:	e26430be 	rsb	r3, r4, #190	; 0xbe
   13224:	e3c054ff 	bic	r5, r0, #-16777216	; 0xff000000
   13228:	e353003f 	cmp	r3, #63	; 0x3f
   1322c:	e3c55502 	bic	r5, r5, #8388608	; 0x800000
   13230:	ca000014 	bgt	13288 <f32_to_ui64_r_minMag+0x74>
   13234:	e1932000 	orrs	r2, r3, r0
   13238:	e1a06000 	mov	r6, r0
   1323c:	4a00001f 	bmi	132c0 <f32_to_ui64_r_minMag+0xac>
   13240:	e3855502 	orr	r5, r5, #8388608	; 0x800000
   13244:	e1a02405 	lsl	r2, r5, #8
   13248:	e2444096 	sub	r4, r4, #150	; 0x96
   1324c:	e2630020 	rsb	r0, r3, #32
   13250:	e0111fa4 	ands	r1, r1, r4, lsr #31
   13254:	e1a00012 	lsl	r0, r2, r0
   13258:	e2431020 	sub	r1, r3, #32
   1325c:	e1800132 	orr	r0, r0, r2, lsr r1
   13260:	e1a01332 	lsr	r1, r2, r3
   13264:	0a000005 	beq	13280 <f32_to_ui64_r_minMag+0x6c>
   13268:	e204401f 	and	r4, r4, #31
   1326c:	e1b03415 	lsls	r3, r5, r4
   13270:	159f207c 	ldrne	r2, [pc, #124]	; 132f4 <f32_to_ui64_r_minMag+0xe0>
   13274:	15923000 	ldrne	r3, [r2]
   13278:	13833001 	orrne	r3, r3, #1
   1327c:	15823000 	strne	r3, [r2]
   13280:	e8bd4070 	pop	{r4, r5, r6, lr}
   13284:	e12fff1e 	bx	lr
   13288:	e3510000 	cmp	r1, #0
   1328c:	01a00001 	moveq	r0, r1
   13290:	01a01000 	moveq	r1, r0
   13294:	0afffff9 	beq	13280 <f32_to_ui64_r_minMag+0x6c>
   13298:	e1940005 	orrs	r0, r4, r5
   1329c:	01a01000 	moveq	r1, r0
   132a0:	0afffff6 	beq	13280 <f32_to_ui64_r_minMag+0x6c>
   132a4:	e3a00000 	mov	r0, #0
   132a8:	e59f2044 	ldr	r2, [pc, #68]	; 132f4 <f32_to_ui64_r_minMag+0xe0>
   132ac:	e5923000 	ldr	r3, [r2]
   132b0:	e3833001 	orr	r3, r3, #1
   132b4:	e1a01000 	mov	r1, r0
   132b8:	e5823000 	str	r3, [r2]
   132bc:	eaffffef 	b	13280 <f32_to_ui64_r_minMag+0x6c>
   132c0:	e3a00010 	mov	r0, #16
   132c4:	eb000580 	bl	148cc <softfloat_raiseFlags>
   132c8:	e2755001 	rsbs	r5, r5, #1
   132cc:	33a05000 	movcc	r5, #0
   132d0:	e35400ff 	cmp	r4, #255	; 0xff
   132d4:	13855001 	orrne	r5, r5, #1
   132d8:	e3560000 	cmp	r6, #0
   132dc:	b3a05000 	movlt	r5, #0
   132e0:	a2055001 	andge	r5, r5, #1
   132e4:	e2650000 	rsb	r0, r5, #0
   132e8:	e1a01000 	mov	r1, r0
   132ec:	e8bd4070 	pop	{r4, r5, r6, lr}
   132f0:	e12fff1e 	bx	lr
   132f4:	00028be4 	andeq	r8, r2, r4, ror #23

000132f8 <f32_to_i32_r_minMag>:
   132f8:	e92d4070 	push	{r4, r5, r6, lr}
   132fc:	e1a06ba0 	lsr	r6, r0, #23
   13300:	e20660ff 	and	r6, r6, #255	; 0xff
   13304:	e266309e 	rsb	r3, r6, #158	; 0x9e
   13308:	e3c044ff 	bic	r4, r0, #-16777216	; 0xff000000
   1330c:	e353001f 	cmp	r3, #31
   13310:	e3c44502 	bic	r4, r4, #8388608	; 0x800000
   13314:	ca00001a 	bgt	13384 <f32_to_i32_r_minMag+0x8c>
   13318:	e3530000 	cmp	r3, #0
   1331c:	e1a05000 	mov	r5, r0
   13320:	da000008 	ble	13348 <f32_to_i32_r_minMag+0x50>
   13324:	e1a04404 	lsl	r4, r4, #8
   13328:	e3844102 	orr	r4, r4, #-2147483648	; 0x80000000
   1332c:	e3510000 	cmp	r1, #0
   13330:	e1a00334 	lsr	r0, r4, r3
   13334:	1a000017 	bne	13398 <f32_to_i32_r_minMag+0xa0>
   13338:	e3550000 	cmp	r5, #0
   1333c:	b2600000 	rsblt	r0, r0, #0
   13340:	e8bd4070 	pop	{r4, r5, r6, lr}
   13344:	e12fff1e 	bx	lr
   13348:	e35004cf 	cmp	r0, #-822083584	; 0xcf000000
   1334c:	0a00000a 	beq	1337c <f32_to_i32_r_minMag+0x84>
   13350:	e3a00010 	mov	r0, #16
   13354:	eb00055c 	bl	148cc <softfloat_raiseFlags>
   13358:	e2744001 	rsbs	r4, r4, #1
   1335c:	33a04000 	movcc	r4, #0
   13360:	e35600ff 	cmp	r6, #255	; 0xff
   13364:	13844001 	orrne	r4, r4, #1
   13368:	e3540000 	cmp	r4, #0
   1336c:	0a000006 	beq	1338c <f32_to_i32_r_minMag+0x94>
   13370:	e3550000 	cmp	r5, #0
   13374:	a3e00102 	mvnge	r0, #-2147483648	; 0x80000000
   13378:	aafffff0 	bge	13340 <f32_to_i32_r_minMag+0x48>
   1337c:	e3a00102 	mov	r0, #-2147483648	; 0x80000000
   13380:	eaffffee 	b	13340 <f32_to_i32_r_minMag+0x48>
   13384:	e3510000 	cmp	r1, #0
   13388:	1a000008 	bne	133b0 <f32_to_i32_r_minMag+0xb8>
   1338c:	e3a00000 	mov	r0, #0
   13390:	e8bd4070 	pop	{r4, r5, r6, lr}
   13394:	e12fff1e 	bx	lr
   13398:	e1540310 	cmp	r4, r0, lsl r3
   1339c:	159f202c 	ldrne	r2, [pc, #44]	; 133d0 <f32_to_i32_r_minMag+0xd8>
   133a0:	15923000 	ldrne	r3, [r2]
   133a4:	13833001 	orrne	r3, r3, #1
   133a8:	15823000 	strne	r3, [r2]
   133ac:	eaffffe1 	b	13338 <f32_to_i32_r_minMag+0x40>
   133b0:	e1963004 	orrs	r3, r6, r4
   133b4:	0afffff4 	beq	1338c <f32_to_i32_r_minMag+0x94>
   133b8:	e59f2010 	ldr	r2, [pc, #16]	; 133d0 <f32_to_i32_r_minMag+0xd8>
   133bc:	e5923000 	ldr	r3, [r2]
   133c0:	e3833001 	orr	r3, r3, #1
   133c4:	e3a00000 	mov	r0, #0
   133c8:	e5823000 	str	r3, [r2]
   133cc:	eaffffdb 	b	13340 <f32_to_i32_r_minMag+0x48>
   133d0:	00028be4 	andeq	r8, r2, r4, ror #23

000133d4 <f32_to_i64_r_minMag>:
   133d4:	e92d4070 	push	{r4, r5, r6, lr}
   133d8:	e1a04ba0 	lsr	r4, r0, #23
   133dc:	e20440ff 	and	r4, r4, #255	; 0xff
   133e0:	e26430be 	rsb	r3, r4, #190	; 0xbe
   133e4:	e3c054ff 	bic	r5, r0, #-16777216	; 0xff000000
   133e8:	e353003f 	cmp	r3, #63	; 0x3f
   133ec:	e3c55502 	bic	r5, r5, #8388608	; 0x800000
   133f0:	ca000023 	bgt	13484 <f32_to_i64_r_minMag+0xb0>
   133f4:	e3530000 	cmp	r3, #0
   133f8:	e1a06000 	mov	r6, r0
   133fc:	da00000f 	ble	13440 <f32_to_i64_r_minMag+0x6c>
   13400:	e3855502 	orr	r5, r5, #8388608	; 0x800000
   13404:	e2444096 	sub	r4, r4, #150	; 0x96
   13408:	e0112fa4 	ands	r2, r1, r4, lsr #31
   1340c:	e2630020 	rsb	r0, r3, #32
   13410:	e1a01405 	lsl	r1, r5, #8
   13414:	e1a00011 	lsl	r0, r1, r0
   13418:	e2432020 	sub	r2, r3, #32
   1341c:	e1800231 	orr	r0, r0, r1, lsr r2
   13420:	e1a01331 	lsr	r1, r1, r3
   13424:	1a00001c 	bne	1349c <f32_to_i64_r_minMag+0xc8>
   13428:	e3560000 	cmp	r6, #0
   1342c:	aa000001 	bge	13438 <f32_to_i64_r_minMag+0x64>
   13430:	e2700000 	rsbs	r0, r0, #0
   13434:	e2e11000 	rsc	r1, r1, #0
   13438:	e8bd4070 	pop	{r4, r5, r6, lr}
   1343c:	e12fff1e 	bx	lr
   13440:	e35004df 	cmp	r0, #-553648128	; 0xdf000000
   13444:	0a00000b 	beq	13478 <f32_to_i64_r_minMag+0xa4>
   13448:	e3a00010 	mov	r0, #16
   1344c:	eb00051e 	bl	148cc <softfloat_raiseFlags>
   13450:	e2755001 	rsbs	r5, r5, #1
   13454:	33a05000 	movcc	r5, #0
   13458:	e35400ff 	cmp	r4, #255	; 0xff
   1345c:	13855001 	orrne	r5, r5, #1
   13460:	e3550000 	cmp	r5, #0
   13464:	0a000008 	beq	1348c <f32_to_i64_r_minMag+0xb8>
   13468:	e3560000 	cmp	r6, #0
   1346c:	a3e00000 	mvnge	r0, #0
   13470:	a3e01102 	mvnge	r1, #-2147483648	; 0x80000000
   13474:	aaffffef 	bge	13438 <f32_to_i64_r_minMag+0x64>
   13478:	e3a00000 	mov	r0, #0
   1347c:	e3a01102 	mov	r1, #-2147483648	; 0x80000000
   13480:	eaffffec 	b	13438 <f32_to_i64_r_minMag+0x64>
   13484:	e3510000 	cmp	r1, #0
   13488:	1a00000a 	bne	134b8 <f32_to_i64_r_minMag+0xe4>
   1348c:	e3a00000 	mov	r0, #0
   13490:	e8bd4070 	pop	{r4, r5, r6, lr}
   13494:	e1a01000 	mov	r1, r0
   13498:	e12fff1e 	bx	lr
   1349c:	e204401f 	and	r4, r4, #31
   134a0:	e1b03415 	lsls	r3, r5, r4
   134a4:	159f2030 	ldrne	r2, [pc, #48]	; 134dc <f32_to_i64_r_minMag+0x108>
   134a8:	15923000 	ldrne	r3, [r2]
   134ac:	13833001 	orrne	r3, r3, #1
   134b0:	15823000 	strne	r3, [r2]
   134b4:	eaffffdb 	b	13428 <f32_to_i64_r_minMag+0x54>
   134b8:	e1943005 	orrs	r3, r4, r5
   134bc:	0afffff2 	beq	1348c <f32_to_i64_r_minMag+0xb8>
   134c0:	e3a00000 	mov	r0, #0
   134c4:	e59f2010 	ldr	r2, [pc, #16]	; 134dc <f32_to_i64_r_minMag+0x108>
   134c8:	e5923000 	ldr	r3, [r2]
   134cc:	e3833001 	orr	r3, r3, #1
   134d0:	e1a01000 	mov	r1, r0
   134d4:	e5823000 	str	r3, [r2]
   134d8:	eaffffd6 	b	13438 <f32_to_i64_r_minMag+0x64>
   134dc:	00028be4 	andeq	r8, r2, r4, ror #23

000134e0 <f32_to_f64>:
   134e0:	e1a02001 	mov	r2, r1
   134e4:	e92d4030 	push	{r4, r5, lr}
   134e8:	e1a03ba1 	lsr	r3, r1, #23
   134ec:	e20330ff 	and	r3, r3, #255	; 0xff
   134f0:	e3c114ff 	bic	r1, r1, #-16777216	; 0xff000000
   134f4:	e35300ff 	cmp	r3, #255	; 0xff
   134f8:	e1a04000 	mov	r4, r0
   134fc:	e24dd024 	sub	sp, sp, #36	; 0x24
   13500:	e1a05fa2 	lsr	r5, r2, #31
   13504:	e3c11502 	bic	r1, r1, #8388608	; 0x800000
   13508:	0a000014 	beq	13560 <f32_to_f64+0x80>
   1350c:	e3530000 	cmp	r3, #0
   13510:	0a000009 	beq	1353c <f32_to_f64+0x5c>
   13514:	e1a021a1 	lsr	r2, r1, #3
   13518:	e0822f85 	add	r2, r2, r5, lsl #31
   1351c:	e2833d0e 	add	r3, r3, #896	; 0x380
   13520:	e1a01e81 	lsl	r1, r1, #29
   13524:	e0823a03 	add	r3, r2, r3, lsl #20
   13528:	e1a00004 	mov	r0, r4
   1352c:	e884000a 	stm	r4, {r1, r3}
   13530:	e28dd024 	add	sp, sp, #36	; 0x24
   13534:	e8bd4030 	pop	{r4, r5, lr}
   13538:	e12fff1e 	bx	lr
   1353c:	e3510000 	cmp	r1, #0
   13540:	01a03f85 	lsleq	r3, r5, #31
   13544:	0afffff7 	beq	13528 <f32_to_f64+0x48>
   13548:	e1a0000d 	mov	r0, sp
   1354c:	eb000592 	bl	14b9c <softfloat_normSubnormalF32Sig>
   13550:	e59d3000 	ldr	r3, [sp]
   13554:	e59d1004 	ldr	r1, [sp, #4]
   13558:	e2433001 	sub	r3, r3, #1
   1355c:	eaffffec 	b	13514 <f32_to_f64+0x34>
   13560:	e3510000 	cmp	r1, #0
   13564:	059f0028 	ldreq	r0, [pc, #40]	; 13594 <f32_to_f64+0xb4>
   13568:	00803f85 	addeq	r3, r0, r5, lsl #31
   1356c:	0affffed 	beq	13528 <f32_to_f64+0x48>
   13570:	e1a00002 	mov	r0, r2
   13574:	e28d1008 	add	r1, sp, #8
   13578:	eb0004d9 	bl	148e4 <softfloat_f32UIToCommonNaN>
   1357c:	e28d0008 	add	r0, sp, #8
   13580:	eb000547 	bl	14aa4 <softfloat_commonNaNToF64UI>
   13584:	e1a02001 	mov	r2, r1
   13588:	e1a01000 	mov	r1, r0
   1358c:	e1a03002 	mov	r3, r2
   13590:	eaffffe4 	b	13528 <f32_to_f64+0x48>
   13594:	7ff00000 	svcvc	0x00f00000	; IMB

00013598 <f32_add>:
   13598:	e1300001 	teq	r0, r1
   1359c:	e92d4010 	push	{r4, lr}
   135a0:	4a000002 	bmi	135b0 <f32_add+0x18>
   135a4:	eb00060f 	bl	14de8 <softfloat_addMagsF32>
   135a8:	e8bd4010 	pop	{r4, lr}
   135ac:	e12fff1e 	bx	lr
   135b0:	eb000676 	bl	14f90 <softfloat_subMagsF32>
   135b4:	e8bd4010 	pop	{r4, lr}
   135b8:	e12fff1e 	bx	lr

000135bc <f32_sub>:
   135bc:	e1300001 	teq	r0, r1
   135c0:	e92d4010 	push	{r4, lr}
   135c4:	4a000002 	bmi	135d4 <f32_sub+0x18>
   135c8:	eb000670 	bl	14f90 <softfloat_subMagsF32>
   135cc:	e8bd4010 	pop	{r4, lr}
   135d0:	e12fff1e 	bx	lr
   135d4:	eb000603 	bl	14de8 <softfloat_addMagsF32>
   135d8:	e8bd4010 	pop	{r4, lr}
   135dc:	e12fff1e 	bx	lr

000135e0 <f32_mul>:
   135e0:	e92d41f0 	push	{r4, r5, r6, r7, r8, lr}
   135e4:	e1a06ba0 	lsr	r6, r0, #23
   135e8:	e59f312c 	ldr	r3, [pc, #300]	; 1371c <f32_mul+0x13c>
   135ec:	e20660ff 	and	r6, r6, #255	; 0xff
   135f0:	e1a07ba1 	lsr	r7, r1, #23
   135f4:	e1a04fa1 	lsr	r4, r1, #31
   135f8:	e35600ff 	cmp	r6, #255	; 0xff
   135fc:	e24dd008 	sub	sp, sp, #8
   13600:	e0005003 	and	r5, r0, r3
   13604:	e0018003 	and	r8, r1, r3
   13608:	e20770ff 	and	r7, r7, #255	; 0xff
   1360c:	e0244fa0 	eor	r4, r4, r0, lsr #31
   13610:	0a000010 	beq	13658 <f32_mul+0x78>
   13614:	e35700ff 	cmp	r7, #255	; 0xff
   13618:	0a000007 	beq	1363c <f32_mul+0x5c>
   1361c:	e3560000 	cmp	r6, #0
   13620:	1a000024 	bne	136b8 <f32_mul+0xd8>
   13624:	e3550000 	cmp	r5, #0
   13628:	1a00001d 	bne	136a4 <f32_mul+0xc4>
   1362c:	e1a00f84 	lsl	r0, r4, #31
   13630:	e28dd008 	add	sp, sp, #8
   13634:	e8bd41f0 	pop	{r4, r5, r6, r7, r8, lr}
   13638:	e12fff1e 	bx	lr
   1363c:	e3580000 	cmp	r8, #0
   13640:	01861005 	orreq	r1, r6, r5
   13644:	0a00000d 	beq	13680 <f32_mul+0xa0>
   13648:	eb0004ca 	bl	14978 <softfloat_propagateNaNF32UI>
   1364c:	e28dd008 	add	sp, sp, #8
   13650:	e8bd41f0 	pop	{r4, r5, r6, r7, r8, lr}
   13654:	e12fff1e 	bx	lr
   13658:	e3550000 	cmp	r5, #0
   1365c:	1afffff9 	bne	13648 <f32_mul+0x68>
   13660:	e24720ff 	sub	r2, r7, #255	; 0xff
   13664:	e2723000 	rsbs	r3, r2, #0
   13668:	e0a33002 	adc	r3, r3, r2
   1366c:	e3580000 	cmp	r8, #0
   13670:	03a03000 	moveq	r3, #0
   13674:	e3530000 	cmp	r3, #0
   13678:	01871008 	orreq	r1, r7, r8
   1367c:	1afffff1 	bne	13648 <f32_mul+0x68>
   13680:	e3510000 	cmp	r1, #0
   13684:	11a00f84 	lslne	r0, r4, #31
   13688:	1280047f 	addne	r0, r0, #2130706432	; 0x7f000000
   1368c:	12800502 	addne	r0, r0, #8388608	; 0x800000
   13690:	1affffed 	bne	1364c <f32_mul+0x6c>
   13694:	e3a00010 	mov	r0, #16
   13698:	eb00048b 	bl	148cc <softfloat_raiseFlags>
   1369c:	e59f007c 	ldr	r0, [pc, #124]	; 13720 <f32_mul+0x140>
   136a0:	eaffffe9 	b	1364c <f32_mul+0x6c>
   136a4:	e1a01005 	mov	r1, r5
   136a8:	e1a0000d 	mov	r0, sp
   136ac:	eb00053a 	bl	14b9c <softfloat_normSubnormalF32Sig>
   136b0:	e59d6000 	ldr	r6, [sp]
   136b4:	e59d5004 	ldr	r5, [sp, #4]
   136b8:	e3570000 	cmp	r7, #0
   136bc:	1a000005 	bne	136d8 <f32_mul+0xf8>
   136c0:	e3580000 	cmp	r8, #0
   136c4:	0affffd8 	beq	1362c <f32_mul+0x4c>
   136c8:	e1a01008 	mov	r1, r8
   136cc:	e1a0000d 	mov	r0, sp
   136d0:	eb000531 	bl	14b9c <softfloat_normSubnormalF32Sig>
   136d4:	e89d0180 	ldm	sp, {r7, r8}
   136d8:	e1a03408 	lsl	r3, r8, #8
   136dc:	e1a05385 	lsl	r5, r5, #7
   136e0:	e3833102 	orr	r3, r3, #-2147483648	; 0x80000000
   136e4:	e3855101 	orr	r5, r5, #1073741824	; 0x40000000
   136e8:	e0820395 	umull	r0, r2, r5, r3
   136ec:	e3500000 	cmp	r0, #0
   136f0:	13822001 	orrne	r2, r2, #1
   136f4:	e0861007 	add	r1, r6, r7
   136f8:	e3720107 	cmn	r2, #-1073741823	; 0xc0000001
   136fc:	e1a00004 	mov	r0, r4
   13700:	8241107f 	subhi	r1, r1, #127	; 0x7f
   13704:	92411080 	subls	r1, r1, #128	; 0x80
   13708:	91a02082 	lslls	r2, r2, #1
   1370c:	eb000532 	bl	14bdc <softfloat_roundPackToF32>
   13710:	e28dd008 	add	sp, sp, #8
   13714:	e8bd41f0 	pop	{r4, r5, r6, r7, r8, lr}
   13718:	e12fff1e 	bx	lr
   1371c:	007fffff 	ldrshteq	pc, [pc], #-255	; <UNPREDICTABLE>
   13720:	7fc00000 	svcvc	0x00c00000

00013724 <f32_div>:
   13724:	e92d41f0 	push	{r4, r5, r6, r7, r8, lr}
   13728:	e1a06ba0 	lsr	r6, r0, #23
   1372c:	e59f3170 	ldr	r3, [pc, #368]	; 138a4 <f32_div+0x180>
   13730:	e20660ff 	and	r6, r6, #255	; 0xff
   13734:	e1a07ba1 	lsr	r7, r1, #23
   13738:	e1a04fa1 	lsr	r4, r1, #31
   1373c:	e35600ff 	cmp	r6, #255	; 0xff
   13740:	e24dd008 	sub	sp, sp, #8
   13744:	e0008003 	and	r8, r0, r3
   13748:	e0015003 	and	r5, r1, r3
   1374c:	e20770ff 	and	r7, r7, #255	; 0xff
   13750:	e0244fa0 	eor	r4, r4, r0, lsr #31
   13754:	0a000013 	beq	137a8 <f32_div+0x84>
   13758:	e35700ff 	cmp	r7, #255	; 0xff
   1375c:	0a00000b 	beq	13790 <f32_div+0x6c>
   13760:	e3570000 	cmp	r7, #0
   13764:	1a00001b 	bne	137d8 <f32_div+0xb4>
   13768:	e3550000 	cmp	r5, #0
   1376c:	1a000014 	bne	137c4 <f32_div+0xa0>
   13770:	e1963008 	orrs	r3, r6, r8
   13774:	1a000042 	bne	13884 <f32_div+0x160>
   13778:	e3a00010 	mov	r0, #16
   1377c:	eb000452 	bl	148cc <softfloat_raiseFlags>
   13780:	e59f0120 	ldr	r0, [pc, #288]	; 138a8 <f32_div+0x184>
   13784:	e28dd008 	add	sp, sp, #8
   13788:	e8bd41f0 	pop	{r4, r5, r6, r7, r8, lr}
   1378c:	e12fff1e 	bx	lr
   13790:	e3550000 	cmp	r5, #0
   13794:	0a000036 	beq	13874 <f32_div+0x150>
   13798:	eb000476 	bl	14978 <softfloat_propagateNaNF32UI>
   1379c:	e28dd008 	add	sp, sp, #8
   137a0:	e8bd41f0 	pop	{r4, r5, r6, r7, r8, lr}
   137a4:	e12fff1e 	bx	lr
   137a8:	e3580000 	cmp	r8, #0
   137ac:	1afffff9 	bne	13798 <f32_div+0x74>
   137b0:	e35700ff 	cmp	r7, #255	; 0xff
   137b4:	1a000034 	bne	1388c <f32_div+0x168>
   137b8:	e3550000 	cmp	r5, #0
   137bc:	1afffff5 	bne	13798 <f32_div+0x74>
   137c0:	eaffffec 	b	13778 <f32_div+0x54>
   137c4:	e1a01005 	mov	r1, r5
   137c8:	e1a0000d 	mov	r0, sp
   137cc:	eb0004f2 	bl	14b9c <softfloat_normSubnormalF32Sig>
   137d0:	e59d7000 	ldr	r7, [sp]
   137d4:	e59d5004 	ldr	r5, [sp, #4]
   137d8:	e3560000 	cmp	r6, #0
   137dc:	1a000005 	bne	137f8 <f32_div+0xd4>
   137e0:	e3580000 	cmp	r8, #0
   137e4:	0a000022 	beq	13874 <f32_div+0x150>
   137e8:	e1a01008 	mov	r1, r8
   137ec:	e1a0000d 	mov	r0, sp
   137f0:	eb0004e9 	bl	14b9c <softfloat_normSubnormalF32Sig>
   137f4:	e89d0140 	ldm	sp, {r6, r8}
   137f8:	e3853502 	orr	r3, r5, #8388608	; 0x800000
   137fc:	e3888502 	orr	r8, r8, #8388608	; 0x800000
   13800:	e1a05403 	lsl	r5, r3, #8
   13804:	e1580003 	cmp	r8, r3
   13808:	e0466007 	sub	r6, r6, r7
   1380c:	e1a00005 	mov	r0, r5
   13810:	31a08408 	lslcc	r8, r8, #8
   13814:	21a08388 	lslcs	r8, r8, #7
   13818:	3286607d 	addcc	r6, r6, #125	; 0x7d
   1381c:	2286607e 	addcs	r6, r6, #126	; 0x7e
   13820:	eb00040c 	bl	14858 <softfloat_approxRecip32_1>
   13824:	e0823098 	umull	r3, r2, r8, r0
   13828:	e2822002 	add	r2, r2, #2
   1382c:	e312003e 	tst	r2, #62	; 0x3e
   13830:	1a000009 	bne	1385c <f32_div+0x138>
   13834:	e3c22003 	bic	r2, r2, #3
   13838:	e1a01082 	lsl	r1, r2, #1
   1383c:	e0803591 	umull	r3, r0, r1, r5
   13840:	e2733000 	rsbs	r3, r3, #0
   13844:	e0c88000 	sbc	r8, r8, r0
   13848:	e3580000 	cmp	r8, #0
   1384c:	b2422004 	sublt	r2, r2, #4
   13850:	ba000001 	blt	1385c <f32_div+0x138>
   13854:	e1933008 	orrs	r3, r3, r8
   13858:	13822001 	orrne	r2, r2, #1
   1385c:	e1a01006 	mov	r1, r6
   13860:	e1a00004 	mov	r0, r4
   13864:	eb0004dc 	bl	14bdc <softfloat_roundPackToF32>
   13868:	e28dd008 	add	sp, sp, #8
   1386c:	e8bd41f0 	pop	{r4, r5, r6, r7, r8, lr}
   13870:	e12fff1e 	bx	lr
   13874:	e1a00f84 	lsl	r0, r4, #31
   13878:	e28dd008 	add	sp, sp, #8
   1387c:	e8bd41f0 	pop	{r4, r5, r6, r7, r8, lr}
   13880:	e12fff1e 	bx	lr
   13884:	e3a00008 	mov	r0, #8
   13888:	eb00040f 	bl	148cc <softfloat_raiseFlags>
   1388c:	e1a00f84 	lsl	r0, r4, #31
   13890:	e280047f 	add	r0, r0, #2130706432	; 0x7f000000
   13894:	e2800502 	add	r0, r0, #8388608	; 0x800000
   13898:	e28dd008 	add	sp, sp, #8
   1389c:	e8bd41f0 	pop	{r4, r5, r6, r7, r8, lr}
   138a0:	e12fff1e 	bx	lr
   138a4:	007fffff 	ldrshteq	pc, [pc], #-255	; <UNPREDICTABLE>
   138a8:	7fc00000 	svcvc	0x00c00000

000138ac <f32_eq>:
   138ac:	e59f30c0 	ldr	r3, [pc, #192]	; 13974 <f32_eq+0xc8>
   138b0:	e1d33000 	bics	r3, r3, r0
   138b4:	1a000003 	bne	138c8 <f32_eq+0x1c>
   138b8:	e3c034ff 	bic	r3, r0, #-16777216	; 0xff000000
   138bc:	e3c33502 	bic	r3, r3, #8388608	; 0x800000
   138c0:	e3530000 	cmp	r3, #0
   138c4:	1a00000f 	bne	13908 <f32_eq+0x5c>
   138c8:	e59f30a4 	ldr	r3, [pc, #164]	; 13974 <f32_eq+0xc8>
   138cc:	e1d33001 	bics	r3, r3, r1
   138d0:	1a000003 	bne	138e4 <f32_eq+0x38>
   138d4:	e3c134ff 	bic	r3, r1, #-16777216	; 0xff000000
   138d8:	e3c33502 	bic	r3, r3, #8388608	; 0x800000
   138dc:	e3530000 	cmp	r3, #0
   138e0:	1a000008 	bne	13908 <f32_eq+0x5c>
   138e4:	e1500001 	cmp	r0, r1
   138e8:	0a000004 	beq	13900 <f32_eq+0x54>
   138ec:	e1800001 	orr	r0, r0, r1
   138f0:	e1b03080 	lsls	r3, r0, #1
   138f4:	03a00001 	moveq	r0, #1
   138f8:	13a00000 	movne	r0, #0
   138fc:	e12fff1e 	bx	lr
   13900:	e3a00001 	mov	r0, #1
   13904:	e12fff1e 	bx	lr
   13908:	e59f3068 	ldr	r3, [pc, #104]	; 13978 <f32_eq+0xcc>
   1390c:	e59f2060 	ldr	r2, [pc, #96]	; 13974 <f32_eq+0xc8>
   13910:	e0033000 	and	r3, r3, r0
   13914:	e1530002 	cmp	r3, r2
   13918:	0a000010 	beq	13960 <f32_eq+0xb4>
   1391c:	e59f3054 	ldr	r3, [pc, #84]	; 13978 <f32_eq+0xcc>
   13920:	e59f204c 	ldr	r2, [pc, #76]	; 13974 <f32_eq+0xc8>
   13924:	e0033001 	and	r3, r3, r1
   13928:	e1530002 	cmp	r3, r2
   1392c:	0a000001 	beq	13938 <f32_eq+0x8c>
   13930:	e3a00000 	mov	r0, #0
   13934:	e12fff1e 	bx	lr
   13938:	e3c104ff 	bic	r0, r1, #-16777216	; 0xff000000
   1393c:	e3c00503 	bic	r0, r0, #12582912	; 0xc00000
   13940:	e3500000 	cmp	r0, #0
   13944:	012fff1e 	bxeq	lr
   13948:	e92d4010 	push	{r4, lr}
   1394c:	e3a00010 	mov	r0, #16
   13950:	eb0003dd 	bl	148cc <softfloat_raiseFlags>
   13954:	e3a00000 	mov	r0, #0
   13958:	e8bd4010 	pop	{r4, lr}
   1395c:	e12fff1e 	bx	lr
   13960:	e3c004ff 	bic	r0, r0, #-16777216	; 0xff000000
   13964:	e3c00503 	bic	r0, r0, #12582912	; 0xc00000
   13968:	e3500000 	cmp	r0, #0
   1396c:	1afffff5 	bne	13948 <f32_eq+0x9c>
   13970:	eaffffe9 	b	1391c <f32_eq+0x70>
   13974:	7f800000 	svcvc	0x00800000
   13978:	7fc00000 	svcvc	0x00c00000

0001397c <f32_le>:
   1397c:	e59f3094 	ldr	r3, [pc, #148]	; 13a18 <f32_le+0x9c>
   13980:	e1d33000 	bics	r3, r3, r0
   13984:	1a000003 	bne	13998 <f32_le+0x1c>
   13988:	e3c034ff 	bic	r3, r0, #-16777216	; 0xff000000
   1398c:	e3c33502 	bic	r3, r3, #8388608	; 0x800000
   13990:	e3530000 	cmp	r3, #0
   13994:	1a000017 	bne	139f8 <f32_le+0x7c>
   13998:	e59f3078 	ldr	r3, [pc, #120]	; 13a18 <f32_le+0x9c>
   1399c:	e1d33001 	bics	r3, r3, r1
   139a0:	1a000003 	bne	139b4 <f32_le+0x38>
   139a4:	e3c134ff 	bic	r3, r1, #-16777216	; 0xff000000
   139a8:	e3c33502 	bic	r3, r3, #8388608	; 0x800000
   139ac:	e3530000 	cmp	r3, #0
   139b0:	1a000010 	bne	139f8 <f32_le+0x7c>
   139b4:	e1a03fa1 	lsr	r3, r1, #31
   139b8:	e1530fa0 	cmp	r3, r0, lsr #31
   139bc:	e1a03fa0 	lsr	r3, r0, #31
   139c0:	0a000006 	beq	139e0 <f32_le+0x64>
   139c4:	e3500000 	cmp	r0, #0
   139c8:	ba000010 	blt	13a10 <f32_le+0x94>
   139cc:	e1800001 	orr	r0, r0, r1
   139d0:	e1b03080 	lsls	r3, r0, #1
   139d4:	03a00001 	moveq	r0, #1
   139d8:	13a00000 	movne	r0, #0
   139dc:	e12fff1e 	bx	lr
   139e0:	e1500001 	cmp	r0, r1
   139e4:	0a000009 	beq	13a10 <f32_le+0x94>
   139e8:	33a00001 	movcc	r0, #1
   139ec:	23a00000 	movcs	r0, #0
   139f0:	e0200003 	eor	r0, r0, r3
   139f4:	e12fff1e 	bx	lr
   139f8:	e92d4010 	push	{r4, lr}
   139fc:	e3a00010 	mov	r0, #16
   13a00:	eb0003b1 	bl	148cc <softfloat_raiseFlags>
   13a04:	e3a00000 	mov	r0, #0
   13a08:	e8bd4010 	pop	{r4, lr}
   13a0c:	e12fff1e 	bx	lr
   13a10:	e3a00001 	mov	r0, #1
   13a14:	e12fff1e 	bx	lr
   13a18:	7f800000 	svcvc	0x00800000

00013a1c <f32_lt>:
   13a1c:	e59f3098 	ldr	r3, [pc, #152]	; 13abc <f32_lt+0xa0>
   13a20:	e1d33000 	bics	r3, r3, r0
   13a24:	1a000003 	bne	13a38 <f32_lt+0x1c>
   13a28:	e3c034ff 	bic	r3, r0, #-16777216	; 0xff000000
   13a2c:	e3c33502 	bic	r3, r3, #8388608	; 0x800000
   13a30:	e3530000 	cmp	r3, #0
   13a34:	1a000015 	bne	13a90 <f32_lt+0x74>
   13a38:	e59f307c 	ldr	r3, [pc, #124]	; 13abc <f32_lt+0xa0>
   13a3c:	e1d33001 	bics	r3, r3, r1
   13a40:	1a000003 	bne	13a54 <f32_lt+0x38>
   13a44:	e3c134ff 	bic	r3, r1, #-16777216	; 0xff000000
   13a48:	e3c33502 	bic	r3, r3, #8388608	; 0x800000
   13a4c:	e3530000 	cmp	r3, #0
   13a50:	1a00000e 	bne	13a90 <f32_lt+0x74>
   13a54:	e1a03fa1 	lsr	r3, r1, #31
   13a58:	e1530fa0 	cmp	r3, r0, lsr #31
   13a5c:	e1a03fa0 	lsr	r3, r0, #31
   13a60:	0a000003 	beq	13a74 <f32_lt+0x58>
   13a64:	e3500000 	cmp	r0, #0
   13a68:	ba00000e 	blt	13aa8 <f32_lt+0x8c>
   13a6c:	e3a00000 	mov	r0, #0
   13a70:	e12fff1e 	bx	lr
   13a74:	e1500001 	cmp	r0, r1
   13a78:	0afffffb 	beq	13a6c <f32_lt+0x50>
   13a7c:	33a00001 	movcc	r0, #1
   13a80:	23a00000 	movcs	r0, #0
   13a84:	e0500003 	subs	r0, r0, r3
   13a88:	13a00001 	movne	r0, #1
   13a8c:	e12fff1e 	bx	lr
   13a90:	e92d4010 	push	{r4, lr}
   13a94:	e3a00010 	mov	r0, #16
   13a98:	eb00038b 	bl	148cc <softfloat_raiseFlags>
   13a9c:	e3a00000 	mov	r0, #0
   13aa0:	e8bd4010 	pop	{r4, lr}
   13aa4:	e12fff1e 	bx	lr
   13aa8:	e1800001 	orr	r0, r0, r1
   13aac:	e1b03080 	lsls	r3, r0, #1
   13ab0:	13a00001 	movne	r0, #1
   13ab4:	03a00000 	moveq	r0, #0
   13ab8:	e12fff1e 	bx	lr
   13abc:	7f800000 	svcvc	0x00800000

00013ac0 <f64_to_ui32_r_minMag>:
   13ac0:	e92d41f0 	push	{r4, r5, r6, r7, r8, lr}
   13ac4:	e59f80f4 	ldr	r8, [pc, #244]	; 13bc0 <f64_to_ui32_r_minMag+0x100>
   13ac8:	e0085a21 	and	r5, r8, r1, lsr #20
   13acc:	e2653e43 	rsb	r3, r5, #1072	; 0x430
   13ad0:	e2833003 	add	r3, r3, #3
   13ad4:	e3c144ff 	bic	r4, r1, #-16777216	; 0xff000000
   13ad8:	e3530034 	cmp	r3, #52	; 0x34
   13adc:	e1a06000 	mov	r6, r0
   13ae0:	e3c4460f 	bic	r4, r4, #15728640	; 0xf00000
   13ae4:	ca00001a 	bgt	13b54 <f64_to_ui32_r_minMag+0x94>
   13ae8:	e3530014 	cmp	r3, #20
   13aec:	e1a07001 	mov	r7, r1
   13af0:	c3a00000 	movgt	r0, #0
   13af4:	d3a00001 	movle	r0, #1
   13af8:	e1901fa7 	orrs	r1, r0, r7, lsr #31
   13afc:	1a000022 	bne	13b8c <f64_to_ui32_r_minMag+0xcc>
   13b00:	e3844601 	orr	r4, r4, #1048576	; 0x100000
   13b04:	e3520000 	cmp	r2, #0
   13b08:	e2631020 	rsb	r1, r3, #32
   13b0c:	e1a02336 	lsr	r2, r6, r3
   13b10:	e1822114 	orr	r2, r2, r4, lsl r1
   13b14:	e243c020 	sub	ip, r3, #32
   13b18:	e1820c34 	orr	r0, r2, r4, lsr ip
   13b1c:	e1a02334 	lsr	r2, r4, r3
   13b20:	0a000009 	beq	13b4c <f64_to_ui32_r_minMag+0x8c>
   13b24:	e1a02312 	lsl	r2, r2, r3
   13b28:	e1822c10 	orr	r2, r2, r0, lsl ip
   13b2c:	e1822130 	orr	r2, r2, r0, lsr r1
   13b30:	e1a03310 	lsl	r3, r0, r3
   13b34:	e1520004 	cmp	r2, r4
   13b38:	01530006 	cmpeq	r3, r6
   13b3c:	159f2080 	ldrne	r2, [pc, #128]	; 13bc4 <f64_to_ui32_r_minMag+0x104>
   13b40:	15923000 	ldrne	r3, [r2]
   13b44:	13833001 	orrne	r3, r3, #1
   13b48:	15823000 	strne	r3, [r2]
   13b4c:	e8bd41f0 	pop	{r4, r5, r6, r7, r8, lr}
   13b50:	e12fff1e 	bx	lr
   13b54:	e3520000 	cmp	r2, #0
   13b58:	0a000008 	beq	13b80 <f64_to_ui32_r_minMag+0xc0>
   13b5c:	e1855000 	orr	r5, r5, r0
   13b60:	e1953004 	orrs	r3, r5, r4
   13b64:	0a000005 	beq	13b80 <f64_to_ui32_r_minMag+0xc0>
   13b68:	e59f2054 	ldr	r2, [pc, #84]	; 13bc4 <f64_to_ui32_r_minMag+0x104>
   13b6c:	e5923000 	ldr	r3, [r2]
   13b70:	e3833001 	orr	r3, r3, #1
   13b74:	e3a00000 	mov	r0, #0
   13b78:	e5823000 	str	r3, [r2]
   13b7c:	eafffff2 	b	13b4c <f64_to_ui32_r_minMag+0x8c>
   13b80:	e3a00000 	mov	r0, #0
   13b84:	e8bd41f0 	pop	{r4, r5, r6, r7, r8, lr}
   13b88:	e12fff1e 	bx	lr
   13b8c:	e3a00010 	mov	r0, #16
   13b90:	eb00034d 	bl	148cc <softfloat_raiseFlags>
   13b94:	e1943006 	orrs	r3, r4, r6
   13b98:	03a00001 	moveq	r0, #1
   13b9c:	13a00000 	movne	r0, #0
   13ba0:	e1550008 	cmp	r5, r8
   13ba4:	13800001 	orrne	r0, r0, #1
   13ba8:	e3570000 	cmp	r7, #0
   13bac:	b3a00000 	movlt	r0, #0
   13bb0:	a2000001 	andge	r0, r0, #1
   13bb4:	e8bd41f0 	pop	{r4, r5, r6, r7, r8, lr}
   13bb8:	e2600000 	rsb	r0, r0, #0
   13bbc:	e12fff1e 	bx	lr
   13bc0:	000007ff 	strdeq	r0, [r0], -pc	; <UNPREDICTABLE>
   13bc4:	00028be4 	andeq	r8, r2, r4, ror #23

00013bc8 <f64_to_ui64_r_minMag>:
   13bc8:	e92d41f0 	push	{r4, r5, r6, r7, r8, lr}
   13bcc:	e59f7134 	ldr	r7, [pc, #308]	; 13d08 <f64_to_ui64_r_minMag+0x140>
   13bd0:	e0076a21 	and	r6, r7, r1, lsr #20
   13bd4:	e266ce43 	rsb	ip, r6, #1072	; 0x430
   13bd8:	e28cc003 	add	ip, ip, #3
   13bdc:	e3c144ff 	bic	r4, r1, #-16777216	; 0xff000000
   13be0:	e35c0034 	cmp	ip, #52	; 0x34
   13be4:	e1a05000 	mov	r5, r0
   13be8:	e3c4460f 	bic	r4, r4, #15728640	; 0xf00000
   13bec:	ca00001b 	bgt	13c60 <f64_to_ui64_r_minMag+0x98>
   13bf0:	e3510000 	cmp	r1, #0
   13bf4:	ba000026 	blt	13c94 <f64_to_ui64_r_minMag+0xcc>
   13bf8:	e35c0000 	cmp	ip, #0
   13bfc:	da00002a 	ble	13cac <f64_to_ui64_r_minMag+0xe4>
   13c00:	e3843601 	orr	r3, r4, #1048576	; 0x100000
   13c04:	e26c1020 	rsb	r1, ip, #32
   13c08:	e1a00c30 	lsr	r0, r0, ip
   13c0c:	e1800113 	orr	r0, r0, r3, lsl r1
   13c10:	e3520000 	cmp	r2, #0
   13c14:	e24c1020 	sub	r1, ip, #32
   13c18:	e1800133 	orr	r0, r0, r3, lsr r1
   13c1c:	e1a01c33 	lsr	r1, r3, ip
   13c20:	0a00000c 	beq	13c58 <f64_to_ui64_r_minMag+0x90>
   13c24:	e246ce43 	sub	ip, r6, #1072	; 0x430
   13c28:	e24cc003 	sub	ip, ip, #3
   13c2c:	e20cc03f 	and	ip, ip, #63	; 0x3f
   13c30:	e24c2020 	sub	r2, ip, #32
   13c34:	e1a03c13 	lsl	r3, r3, ip
   13c38:	e1833215 	orr	r3, r3, r5, lsl r2
   13c3c:	e26c2020 	rsb	r2, ip, #32
   13c40:	e1833235 	orr	r3, r3, r5, lsr r2
   13c44:	e1933c15 	orrs	r3, r3, r5, lsl ip
   13c48:	159f20bc 	ldrne	r2, [pc, #188]	; 13d0c <f64_to_ui64_r_minMag+0x144>
   13c4c:	15923000 	ldrne	r3, [r2]
   13c50:	13833001 	orrne	r3, r3, #1
   13c54:	15823000 	strne	r3, [r2]
   13c58:	e8bd41f0 	pop	{r4, r5, r6, r7, r8, lr}
   13c5c:	e12fff1e 	bx	lr
   13c60:	e3520000 	cmp	r2, #0
   13c64:	0a00000c 	beq	13c9c <f64_to_ui64_r_minMag+0xd4>
   13c68:	e1860000 	orr	r0, r6, r0
   13c6c:	e1903004 	orrs	r3, r0, r4
   13c70:	e1a01004 	mov	r1, r4
   13c74:	0afffff7 	beq	13c58 <f64_to_ui64_r_minMag+0x90>
   13c78:	e3a00000 	mov	r0, #0
   13c7c:	e59f2088 	ldr	r2, [pc, #136]	; 13d0c <f64_to_ui64_r_minMag+0x144>
   13c80:	e5923000 	ldr	r3, [r2]
   13c84:	e3833001 	orr	r3, r3, #1
   13c88:	e1a01000 	mov	r1, r0
   13c8c:	e5823000 	str	r3, [r2]
   13c90:	eafffff0 	b	13c58 <f64_to_ui64_r_minMag+0x90>
   13c94:	e3a00010 	mov	r0, #16
   13c98:	eb00030b 	bl	148cc <softfloat_raiseFlags>
   13c9c:	e3a00000 	mov	r0, #0
   13ca0:	e8bd41f0 	pop	{r4, r5, r6, r7, r8, lr}
   13ca4:	e1a01000 	mov	r1, r0
   13ca8:	e12fff1e 	bx	lr
   13cac:	e37c000b 	cmn	ip, #11
   13cb0:	ba00000a 	blt	13ce0 <f64_to_ui64_r_minMag+0x118>
   13cb4:	e246ce43 	sub	ip, r6, #1072	; 0x430
   13cb8:	e24c2003 	sub	r2, ip, #3
   13cbc:	e3844601 	orr	r4, r4, #1048576	; 0x100000
   13cc0:	e24c3023 	sub	r3, ip, #35	; 0x23
   13cc4:	e1a01214 	lsl	r1, r4, r2
   13cc8:	e1811310 	orr	r1, r1, r0, lsl r3
   13ccc:	e26cc023 	rsb	ip, ip, #35	; 0x23
   13cd0:	e1811c30 	orr	r1, r1, r0, lsr ip
   13cd4:	e8bd41f0 	pop	{r4, r5, r6, r7, r8, lr}
   13cd8:	e1a00210 	lsl	r0, r0, r2
   13cdc:	e12fff1e 	bx	lr
   13ce0:	e3a00010 	mov	r0, #16
   13ce4:	eb0002f8 	bl	148cc <softfloat_raiseFlags>
   13ce8:	e1943005 	orrs	r3, r4, r5
   13cec:	03a04001 	moveq	r4, #1
   13cf0:	13a04000 	movne	r4, #0
   13cf4:	e1560007 	cmp	r6, r7
   13cf8:	13844001 	orrne	r4, r4, #1
   13cfc:	e2640000 	rsb	r0, r4, #0
   13d00:	e1a01000 	mov	r1, r0
   13d04:	eaffffd3 	b	13c58 <f64_to_ui64_r_minMag+0x90>
   13d08:	000007ff 	strdeq	r0, [r0], -pc	; <UNPREDICTABLE>
   13d0c:	00028be4 	andeq	r8, r2, r4, ror #23

00013d10 <f64_to_i32_r_minMag>:
   13d10:	e92d41f0 	push	{r4, r5, r6, r7, r8, lr}
   13d14:	e59f8160 	ldr	r8, [pc, #352]	; 13e7c <f64_to_i32_r_minMag+0x16c>
   13d18:	e0087a21 	and	r7, r8, r1, lsr #20
   13d1c:	e2673e43 	rsb	r3, r7, #1072	; 0x430
   13d20:	e2833003 	add	r3, r3, #3
   13d24:	e3c154ff 	bic	r5, r1, #-16777216	; 0xff000000
   13d28:	e3530034 	cmp	r3, #52	; 0x34
   13d2c:	e1a06000 	mov	r6, r0
   13d30:	e3c5560f 	bic	r5, r5, #15728640	; 0xf00000
   13d34:	ca00001f 	bgt	13db8 <f64_to_i32_r_minMag+0xa8>
   13d38:	e3530015 	cmp	r3, #21
   13d3c:	e1a04001 	mov	r4, r1
   13d40:	ca00000e 	bgt	13d80 <f64_to_i32_r_minMag+0x70>
   13d44:	e59f1134 	ldr	r1, [pc, #308]	; 13e80 <f64_to_i32_r_minMag+0x170>
   13d48:	e1a03fa4 	lsr	r3, r4, #31
   13d4c:	e1570001 	cmp	r7, r1
   13d50:	13a03000 	movne	r3, #0
   13d54:	02033001 	andeq	r3, r3, #1
   13d58:	e3530000 	cmp	r3, #0
   13d5c:	0a000020 	beq	13de4 <f64_to_i32_r_minMag+0xd4>
   13d60:	e1a03aa0 	lsr	r3, r0, #21
   13d64:	e1a03a83 	lsl	r3, r3, #21
   13d68:	e1933005 	orrs	r3, r3, r5
   13d6c:	0a000037 	beq	13e50 <f64_to_i32_r_minMag+0x140>
   13d70:	e3a00010 	mov	r0, #16
   13d74:	eb0002d4 	bl	148cc <softfloat_raiseFlags>
   13d78:	e3a00102 	mov	r0, #-2147483648	; 0x80000000
   13d7c:	ea00000b 	b	13db0 <f64_to_i32_r_minMag+0xa0>
   13d80:	e3855601 	orr	r5, r5, #1048576	; 0x100000
   13d84:	e3520000 	cmp	r2, #0
   13d88:	e263c020 	rsb	ip, r3, #32
   13d8c:	e1a02330 	lsr	r2, r0, r3
   13d90:	e1822c15 	orr	r2, r2, r5, lsl ip
   13d94:	e243e020 	sub	lr, r3, #32
   13d98:	e1822e35 	orr	r2, r2, r5, lsr lr
   13d9c:	e1a00002 	mov	r0, r2
   13da0:	e1a01335 	lsr	r1, r5, r3
   13da4:	1a00001a 	bne	13e14 <f64_to_i32_r_minMag+0x104>
   13da8:	e3540000 	cmp	r4, #0
   13dac:	b2620000 	rsblt	r0, r2, #0
   13db0:	e8bd41f0 	pop	{r4, r5, r6, r7, r8, lr}
   13db4:	e12fff1e 	bx	lr
   13db8:	e3520000 	cmp	r2, #0
   13dbc:	0a000011 	beq	13e08 <f64_to_i32_r_minMag+0xf8>
   13dc0:	e1876000 	orr	r6, r7, r0
   13dc4:	e1963005 	orrs	r3, r6, r5
   13dc8:	0a00000e 	beq	13e08 <f64_to_i32_r_minMag+0xf8>
   13dcc:	e59f20b0 	ldr	r2, [pc, #176]	; 13e84 <f64_to_i32_r_minMag+0x174>
   13dd0:	e5923000 	ldr	r3, [r2]
   13dd4:	e3833001 	orr	r3, r3, #1
   13dd8:	e3a00000 	mov	r0, #0
   13ddc:	e5823000 	str	r3, [r2]
   13de0:	eafffff2 	b	13db0 <f64_to_i32_r_minMag+0xa0>
   13de4:	e3a00010 	mov	r0, #16
   13de8:	eb0002b7 	bl	148cc <softfloat_raiseFlags>
   13dec:	e1953006 	orrs	r3, r5, r6
   13df0:	03a03001 	moveq	r3, #1
   13df4:	13a03000 	movne	r3, #0
   13df8:	e1570008 	cmp	r7, r8
   13dfc:	13833001 	orrne	r3, r3, #1
   13e00:	e3530000 	cmp	r3, #0
   13e04:	1a00000d 	bne	13e40 <f64_to_i32_r_minMag+0x130>
   13e08:	e3a00000 	mov	r0, #0
   13e0c:	e8bd41f0 	pop	{r4, r5, r6, r7, r8, lr}
   13e10:	e12fff1e 	bx	lr
   13e14:	e1a01311 	lsl	r1, r1, r3
   13e18:	e1811e12 	orr	r1, r1, r2, lsl lr
   13e1c:	e1811c32 	orr	r1, r1, r2, lsr ip
   13e20:	e1a03312 	lsl	r3, r2, r3
   13e24:	e1510005 	cmp	r1, r5
   13e28:	01530006 	cmpeq	r3, r6
   13e2c:	159f1050 	ldrne	r1, [pc, #80]	; 13e84 <f64_to_i32_r_minMag+0x174>
   13e30:	15913000 	ldrne	r3, [r1]
   13e34:	13833001 	orrne	r3, r3, #1
   13e38:	15813000 	strne	r3, [r1]
   13e3c:	eaffffd9 	b	13da8 <f64_to_i32_r_minMag+0x98>
   13e40:	e3540000 	cmp	r4, #0
   13e44:	baffffcb 	blt	13d78 <f64_to_i32_r_minMag+0x68>
   13e48:	e3e00102 	mvn	r0, #-2147483648	; 0x80000000
   13e4c:	eaffffd7 	b	13db0 <f64_to_i32_r_minMag+0xa0>
   13e50:	e1953000 	orrs	r3, r5, r0
   13e54:	03a02000 	moveq	r2, #0
   13e58:	12022001 	andne	r2, r2, #1
   13e5c:	e3520000 	cmp	r2, #0
   13e60:	0affffc4 	beq	13d78 <f64_to_i32_r_minMag+0x68>
   13e64:	e59f2018 	ldr	r2, [pc, #24]	; 13e84 <f64_to_i32_r_minMag+0x174>
   13e68:	e5923000 	ldr	r3, [r2]
   13e6c:	e3833001 	orr	r3, r3, #1
   13e70:	e3a00102 	mov	r0, #-2147483648	; 0x80000000
   13e74:	e5823000 	str	r3, [r2]
   13e78:	eaffffcc 	b	13db0 <f64_to_i32_r_minMag+0xa0>
   13e7c:	000007ff 	strdeq	r0, [r0], -pc	; <UNPREDICTABLE>
   13e80:	0000041e 	andeq	r0, r0, lr, lsl r4
   13e84:	00028be4 	andeq	r8, r2, r4, ror #23

00013e88 <f64_to_i64_r_minMag>:
   13e88:	e92d41f0 	push	{r4, r5, r6, r7, r8, lr}
   13e8c:	e59f8150 	ldr	r8, [pc, #336]	; 13fe4 <f64_to_i64_r_minMag+0x15c>
   13e90:	e0087a21 	and	r7, r8, r1, lsr #20
   13e94:	e2673e43 	rsb	r3, r7, #1072	; 0x430
   13e98:	e2833003 	add	r3, r3, #3
   13e9c:	e3c144ff 	bic	r4, r1, #-16777216	; 0xff000000
   13ea0:	e3530000 	cmp	r3, #0
   13ea4:	e1a05001 	mov	r5, r1
   13ea8:	e1a06000 	mov	r6, r0
   13eac:	e3c4460f 	bic	r4, r4, #15728640	; 0xf00000
   13eb0:	da00001c 	ble	13f28 <f64_to_i64_r_minMag+0xa0>
   13eb4:	e3530034 	cmp	r3, #52	; 0x34
   13eb8:	ca00000e 	bgt	13ef8 <f64_to_i64_r_minMag+0x70>
   13ebc:	e3844601 	orr	r4, r4, #1048576	; 0x100000
   13ec0:	e263c020 	rsb	ip, r3, #32
   13ec4:	e1a00330 	lsr	r0, r0, r3
   13ec8:	e1800c14 	orr	r0, r0, r4, lsl ip
   13ecc:	e243e020 	sub	lr, r3, #32
   13ed0:	e3520000 	cmp	r2, #0
   13ed4:	e1800e34 	orr	r0, r0, r4, lsr lr
   13ed8:	e1a01334 	lsr	r1, r4, r3
   13edc:	1a00002e 	bne	13f9c <f64_to_i64_r_minMag+0x114>
   13ee0:	e3550000 	cmp	r5, #0
   13ee4:	aa000001 	bge	13ef0 <f64_to_i64_r_minMag+0x68>
   13ee8:	e2700000 	rsbs	r0, r0, #0
   13eec:	e2e11000 	rsc	r1, r1, #0
   13ef0:	e8bd41f0 	pop	{r4, r5, r6, r7, r8, lr}
   13ef4:	e12fff1e 	bx	lr
   13ef8:	e3520000 	cmp	r2, #0
   13efc:	0a000018 	beq	13f64 <f64_to_i64_r_minMag+0xdc>
   13f00:	e1876000 	orr	r6, r7, r0
   13f04:	e1963004 	orrs	r3, r6, r4
   13f08:	0a000015 	beq	13f64 <f64_to_i64_r_minMag+0xdc>
   13f0c:	e3a00000 	mov	r0, #0
   13f10:	e59f20d0 	ldr	r2, [pc, #208]	; 13fe8 <f64_to_i64_r_minMag+0x160>
   13f14:	e5923000 	ldr	r3, [r2]
   13f18:	e3833001 	orr	r3, r3, #1
   13f1c:	e1a01000 	mov	r1, r0
   13f20:	e5823000 	str	r3, [r2]
   13f24:	eafffff1 	b	13ef0 <f64_to_i64_r_minMag+0x68>
   13f28:	e373000a 	cmn	r3, #10
   13f2c:	aa000010 	bge	13f74 <f64_to_i64_r_minMag+0xec>
   13f30:	e59f30b4 	ldr	r3, [pc, #180]	; 13fec <f64_to_i64_r_minMag+0x164>
   13f34:	e1530001 	cmp	r3, r1
   13f38:	03500000 	cmpeq	r0, #0
   13f3c:	0a000025 	beq	13fd8 <f64_to_i64_r_minMag+0x150>
   13f40:	e3a00010 	mov	r0, #16
   13f44:	eb000260 	bl	148cc <softfloat_raiseFlags>
   13f48:	e1943006 	orrs	r3, r4, r6
   13f4c:	03a03001 	moveq	r3, #1
   13f50:	13a03000 	movne	r3, #0
   13f54:	e1570008 	cmp	r7, r8
   13f58:	13833001 	orrne	r3, r3, #1
   13f5c:	e3530000 	cmp	r3, #0
   13f60:	1a000018 	bne	13fc8 <f64_to_i64_r_minMag+0x140>
   13f64:	e3a00000 	mov	r0, #0
   13f68:	e8bd41f0 	pop	{r4, r5, r6, r7, r8, lr}
   13f6c:	e1a01000 	mov	r1, r0
   13f70:	e12fff1e 	bx	lr
   13f74:	e2477e43 	sub	r7, r7, #1072	; 0x430
   13f78:	e2470003 	sub	r0, r7, #3
   13f7c:	e3844601 	orr	r4, r4, #1048576	; 0x100000
   13f80:	e1a01014 	lsl	r1, r4, r0
   13f84:	e2473023 	sub	r3, r7, #35	; 0x23
   13f88:	e1811316 	orr	r1, r1, r6, lsl r3
   13f8c:	e2677023 	rsb	r7, r7, #35	; 0x23
   13f90:	e1a00016 	lsl	r0, r6, r0
   13f94:	e1811736 	orr	r1, r1, r6, lsr r7
   13f98:	eaffffd0 	b	13ee0 <f64_to_i64_r_minMag+0x58>
   13f9c:	e1a02311 	lsl	r2, r1, r3
   13fa0:	e1822e10 	orr	r2, r2, r0, lsl lr
   13fa4:	e1822c30 	orr	r2, r2, r0, lsr ip
   13fa8:	e1a03310 	lsl	r3, r0, r3
   13fac:	e1520004 	cmp	r2, r4
   13fb0:	01530006 	cmpeq	r3, r6
   13fb4:	159f202c 	ldrne	r2, [pc, #44]	; 13fe8 <f64_to_i64_r_minMag+0x160>
   13fb8:	15923000 	ldrne	r3, [r2]
   13fbc:	13833001 	orrne	r3, r3, #1
   13fc0:	15823000 	strne	r3, [r2]
   13fc4:	eaffffc5 	b	13ee0 <f64_to_i64_r_minMag+0x58>
   13fc8:	e3550000 	cmp	r5, #0
   13fcc:	a3e00000 	mvnge	r0, #0
   13fd0:	a3e01102 	mvnge	r1, #-2147483648	; 0x80000000
   13fd4:	aaffffc5 	bge	13ef0 <f64_to_i64_r_minMag+0x68>
   13fd8:	e3a00000 	mov	r0, #0
   13fdc:	e3a01102 	mov	r1, #-2147483648	; 0x80000000
   13fe0:	eaffffc2 	b	13ef0 <f64_to_i64_r_minMag+0x68>
   13fe4:	000007ff 	strdeq	r0, [r0], -pc	; <UNPREDICTABLE>
   13fe8:	00028be4 	andeq	r8, r2, r4, ror #23
   13fec:	c3e00000 	mvngt	r0, #0

00013ff0 <f64_to_f32>:
   13ff0:	e52de004 	push	{lr}		; (str lr, [sp, #-4]!)
   13ff4:	e59f2094 	ldr	r2, [pc, #148]	; 14090 <f64_to_f32+0xa0>
   13ff8:	e1a03000 	mov	r3, r0
   13ffc:	e3c1e4ff 	bic	lr, r1, #-16777216	; 0xff000000
   14000:	e1d20a21 	bics	r0, r2, r1, lsr #20
   14004:	e24dd01c 	sub	sp, sp, #28
   14008:	e1a00fa1 	lsr	r0, r1, #31
   1400c:	e002ca21 	and	ip, r2, r1, lsr #20
   14010:	e3cee60f 	bic	lr, lr, #15728640	; 0xf00000
   14014:	0a000012 	beq	14064 <f64_to_f32+0x74>
   14018:	e3c314ff 	bic	r1, r3, #-16777216	; 0xff000000
   1401c:	e1a02b23 	lsr	r2, r3, #22
   14020:	e182250e 	orr	r2, r2, lr, lsl #10
   14024:	e3c11503 	bic	r1, r1, #12582912	; 0xc00000
   14028:	e3510000 	cmp	r1, #0
   1402c:	13822001 	orrne	r2, r2, #1
   14030:	e19c3002 	orrs	r3, ip, r2
   14034:	01a00f80 	lsleq	r0, r0, #31
   14038:	1a000002 	bne	14048 <f64_to_f32+0x58>
   1403c:	e28dd01c 	add	sp, sp, #28
   14040:	e49de004 	pop	{lr}		; (ldr lr, [sp], #4)
   14044:	e12fff1e 	bx	lr
   14048:	e24c1d0e 	sub	r1, ip, #896	; 0x380
   1404c:	e3822101 	orr	r2, r2, #1073741824	; 0x40000000
   14050:	e2411001 	sub	r1, r1, #1
   14054:	eb0002e0 	bl	14bdc <softfloat_roundPackToF32>
   14058:	e28dd01c 	add	sp, sp, #28
   1405c:	e49de004 	pop	{lr}		; (ldr lr, [sp], #4)
   14060:	e12fff1e 	bx	lr
   14064:	e19e2003 	orrs	r2, lr, r3
   14068:	01a00f80 	lsleq	r0, r0, #31
   1406c:	0280047f 	addeq	r0, r0, #2130706432	; 0x7f000000
   14070:	02800502 	addeq	r0, r0, #8388608	; 0x800000
   14074:	0afffff0 	beq	1403c <f64_to_f32+0x4c>
   14078:	e1a00003 	mov	r0, r3
   1407c:	e1a0200d 	mov	r2, sp
   14080:	eb000268 	bl	14a28 <softfloat_f64UIToCommonNaN>
   14084:	e1a0000d 	mov	r0, sp
   14088:	eb000232 	bl	14958 <softfloat_commonNaNToF32UI>
   1408c:	eaffffea 	b	1403c <f64_to_f32+0x4c>
   14090:	000007ff 	strdeq	r0, [r0], -pc	; <UNPREDICTABLE>

00014094 <f64_add>:
   14094:	e92d4030 	push	{r4, r5, lr}
   14098:	e24dd014 	sub	sp, sp, #20
   1409c:	e59d1024 	ldr	r1, [sp, #36]	; 0x24
   140a0:	e1a0cfa1 	lsr	ip, r1, #31
   140a4:	e15c0fa3 	cmp	ip, r3, lsr #31
   140a8:	e1a04000 	mov	r4, r0
   140ac:	e59de020 	ldr	lr, [sp, #32]
   140b0:	0a000008 	beq	140d8 <f64_add+0x44>
   140b4:	e1a05fa3 	lsr	r5, r3, #31
   140b8:	e58d5008 	str	r5, [sp, #8]
   140bc:	e58de000 	str	lr, [sp]
   140c0:	e58d1004 	str	r1, [sp, #4]
   140c4:	eb0005a7 	bl	15768 <softfloat_subMagsF64>
   140c8:	e1a00004 	mov	r0, r4
   140cc:	e28dd014 	add	sp, sp, #20
   140d0:	e8bd4030 	pop	{r4, r5, lr}
   140d4:	e12fff1e 	bx	lr
   140d8:	e58dc008 	str	ip, [sp, #8]
   140dc:	e58de000 	str	lr, [sp]
   140e0:	e58d1004 	str	r1, [sp, #4]
   140e4:	eb0004fc 	bl	154dc <softfloat_addMagsF64>
   140e8:	e1a00004 	mov	r0, r4
   140ec:	e28dd014 	add	sp, sp, #20
   140f0:	e8bd4030 	pop	{r4, r5, lr}
   140f4:	e12fff1e 	bx	lr

000140f8 <f64_sub>:
   140f8:	e92d4030 	push	{r4, r5, lr}
   140fc:	e24dd014 	sub	sp, sp, #20
   14100:	e59d1024 	ldr	r1, [sp, #36]	; 0x24
   14104:	e1a0cfa1 	lsr	ip, r1, #31
   14108:	e15c0fa3 	cmp	ip, r3, lsr #31
   1410c:	e1a04000 	mov	r4, r0
   14110:	e59de020 	ldr	lr, [sp, #32]
   14114:	0a000008 	beq	1413c <f64_sub+0x44>
   14118:	e1a05fa3 	lsr	r5, r3, #31
   1411c:	e58d5008 	str	r5, [sp, #8]
   14120:	e58de000 	str	lr, [sp]
   14124:	e58d1004 	str	r1, [sp, #4]
   14128:	eb0004eb 	bl	154dc <softfloat_addMagsF64>
   1412c:	e1a00004 	mov	r0, r4
   14130:	e28dd014 	add	sp, sp, #20
   14134:	e8bd4030 	pop	{r4, r5, lr}
   14138:	e12fff1e 	bx	lr
   1413c:	e58dc008 	str	ip, [sp, #8]
   14140:	e58de000 	str	lr, [sp]
   14144:	e58d1004 	str	r1, [sp, #4]
   14148:	eb000586 	bl	15768 <softfloat_subMagsF64>
   1414c:	e1a00004 	mov	r0, r4
   14150:	e28dd014 	add	sp, sp, #20
   14154:	e8bd4030 	pop	{r4, r5, lr}
   14158:	e12fff1e 	bx	lr

0001415c <f64_mul>:
   1415c:	e1a0c003 	mov	ip, r3
   14160:	e92d4ff0 	push	{r4, r5, r6, r7, r8, r9, sl, fp, lr}
   14164:	e24dd034 	sub	sp, sp, #52	; 0x34
   14168:	e59d305c 	ldr	r3, [sp, #92]	; 0x5c
   1416c:	e1a0e002 	mov	lr, r2
   14170:	e59f21bc 	ldr	r2, [pc, #444]	; 14334 <f64_mul+0x1d8>
   14174:	e1a05000 	mov	r5, r0
   14178:	e3c364ff 	bic	r6, r3, #-16777216	; 0xff000000
   1417c:	e1a04fa3 	lsr	r4, r3, #31
   14180:	e3cc74ff 	bic	r7, ip, #-16777216	; 0xff000000
   14184:	e1d20a2c 	bics	r0, r2, ip, lsr #20
   14188:	e59d9058 	ldr	r9, [sp, #88]	; 0x58
   1418c:	e3c6660f 	bic	r6, r6, #15728640	; 0xf00000
   14190:	e002aa23 	and	sl, r2, r3, lsr #20
   14194:	e0244fac 	eor	r4, r4, ip, lsr #31
   14198:	e3c7760f 	bic	r7, r7, #15728640	; 0xf00000
   1419c:	e0028a2c 	and	r8, r2, ip, lsr #20
   141a0:	0a000018 	beq	14208 <f64_mul+0xac>
   141a4:	e15a0002 	cmp	sl, r2
   141a8:	0a000009 	beq	141d4 <f64_mul+0x78>
   141ac:	e3580000 	cmp	r8, #0
   141b0:	e1a01009 	mov	r1, r9
   141b4:	e1a0b00e 	mov	fp, lr
   141b8:	1a00002b 	bne	1426c <f64_mul+0x110>
   141bc:	e197300e 	orrs	r3, r7, lr
   141c0:	e58d900c 	str	r9, [sp, #12]
   141c4:	1a000020 	bne	1424c <f64_mul+0xf0>
   141c8:	e3a00000 	mov	r0, #0
   141cc:	e1a01f84 	lsl	r1, r4, #31
   141d0:	ea000007 	b	141f4 <f64_mul+0x98>
   141d4:	e1962009 	orrs	r2, r6, r9
   141d8:	0188e00e 	orreq	lr, r8, lr
   141dc:	01876fc8 	orreq	r6, r7, r8, asr #31
   141e0:	0a000013 	beq	14234 <f64_mul+0xd8>
   141e4:	e1a02009 	mov	r2, r9
   141e8:	e1a0000e 	mov	r0, lr
   141ec:	e1a0100c 	mov	r1, ip
   141f0:	eb000235 	bl	14acc <softfloat_propagateNaNF64UI>
   141f4:	e8850003 	stm	r5, {r0, r1}
   141f8:	e1a00005 	mov	r0, r5
   141fc:	e28dd034 	add	sp, sp, #52	; 0x34
   14200:	e8bd4ff0 	pop	{r4, r5, r6, r7, r8, r9, sl, fp, lr}
   14204:	e12fff1e 	bx	lr
   14208:	e197200e 	orrs	r2, r7, lr
   1420c:	1afffff4 	bne	141e4 <f64_mul+0x88>
   14210:	e04a1008 	sub	r1, sl, r8
   14214:	e2718000 	rsbs	r8, r1, #0
   14218:	e1862009 	orr	r2, r6, r9
   1421c:	e0a88001 	adc	r8, r8, r1
   14220:	e3520000 	cmp	r2, #0
   14224:	03a08000 	moveq	r8, #0
   14228:	e3580000 	cmp	r8, #0
   1422c:	018ae009 	orreq	lr, sl, r9
   14230:	1affffeb 	bne	141e4 <f64_mul+0x88>
   14234:	e19e3006 	orrs	r3, lr, r6
   14238:	0a000038 	beq	14320 <f64_mul+0x1c4>
   1423c:	e59f10f4 	ldr	r1, [pc, #244]	; 14338 <f64_mul+0x1dc>
   14240:	e3a00000 	mov	r0, #0
   14244:	e0811f84 	add	r1, r1, r4, lsl #31
   14248:	eaffffe9 	b	141f4 <f64_mul+0x98>
   1424c:	e1a03007 	mov	r3, r7
   14250:	e1a0200e 	mov	r2, lr
   14254:	e28d0010 	add	r0, sp, #16
   14258:	eb0003b2 	bl	15128 <softfloat_normSubnormalF64Sig>
   1425c:	e59d8010 	ldr	r8, [sp, #16]
   14260:	e59db018 	ldr	fp, [sp, #24]
   14264:	e59d701c 	ldr	r7, [sp, #28]
   14268:	e59d100c 	ldr	r1, [sp, #12]
   1426c:	e35a0000 	cmp	sl, #0
   14270:	1a000008 	bne	14298 <f64_mul+0x13c>
   14274:	e1963009 	orrs	r3, r6, r9
   14278:	0affffd2 	beq	141c8 <f64_mul+0x6c>
   1427c:	e1a03006 	mov	r3, r6
   14280:	e1a02009 	mov	r2, r9
   14284:	e28d0010 	add	r0, sp, #16
   14288:	eb0003a6 	bl	15128 <softfloat_normSubnormalF64Sig>
   1428c:	e28d1018 	add	r1, sp, #24
   14290:	e59da010 	ldr	sl, [sp, #16]
   14294:	e8910042 	ldm	r1, {r1, r6}
   14298:	e1a07507 	lsl	r7, r7, #10
   1429c:	e1a03586 	lsl	r3, r6, #11
   142a0:	e28dc020 	add	ip, sp, #32
   142a4:	e1833aa1 	orr	r3, r3, r1, lsr #21
   142a8:	e1877b2b 	orr	r7, r7, fp, lsr #22
   142ac:	e1a02581 	lsl	r2, r1, #11
   142b0:	e58dc000 	str	ip, [sp]
   142b4:	e3833102 	orr	r3, r3, #-2147483648	; 0x80000000
   142b8:	e3871101 	orr	r1, r7, #1073741824	; 0x40000000
   142bc:	e1a0050b 	lsl	r0, fp, #10
   142c0:	eb000146 	bl	147e0 <softfloat_mul64To128M>
   142c4:	e28d1024 	add	r1, sp, #36	; 0x24
   142c8:	e891100a 	ldm	r1, {r1, r3, ip}
   142cc:	e59d2020 	ldr	r2, [sp, #32]
   142d0:	e1912002 	orrs	r2, r1, r2
   142d4:	e088800a 	add	r8, r8, sl
   142d8:	13833001 	orrne	r3, r3, #1
   142dc:	e37c0107 	cmn	ip, #-1073741823	; 0xc0000001
   142e0:	82482fff 	subhi	r2, r8, #1020	; 0x3fc
   142e4:	82422003 	subhi	r2, r2, #3
   142e8:	9a000008 	bls	14310 <f64_mul+0x1b4>
   142ec:	e1a00005 	mov	r0, r5
   142f0:	e1a01004 	mov	r1, r4
   142f4:	e58d3000 	str	r3, [sp]
   142f8:	e58dc004 	str	ip, [sp, #4]
   142fc:	eb0003a3 	bl	15190 <softfloat_roundPackToF64>
   14300:	e1a00005 	mov	r0, r5
   14304:	e28dd034 	add	sp, sp, #52	; 0x34
   14308:	e8bd4ff0 	pop	{r4, r5, r6, r7, r8, r9, sl, fp, lr}
   1430c:	e12fff1e 	bx	lr
   14310:	e0933003 	adds	r3, r3, r3
   14314:	e0acc00c 	adc	ip, ip, ip
   14318:	e2482b01 	sub	r2, r8, #1024	; 0x400
   1431c:	eafffff2 	b	142ec <f64_mul+0x190>
   14320:	e3a00010 	mov	r0, #16
   14324:	eb000168 	bl	148cc <softfloat_raiseFlags>
   14328:	e3a00000 	mov	r0, #0
   1432c:	e59f1008 	ldr	r1, [pc, #8]	; 1433c <f64_mul+0x1e0>
   14330:	eaffffaf 	b	141f4 <f64_mul+0x98>
   14334:	000007ff 	strdeq	r0, [r0], -pc	; <UNPREDICTABLE>
   14338:	7ff00000 	svcvc	0x00f00000	; IMB
   1433c:	7ff80000 	svcvc	0x00f80000

00014340 <f64_div>:
   14340:	e1a0c003 	mov	ip, r3
   14344:	e92d4ff0 	push	{r4, r5, r6, r7, r8, r9, sl, fp, lr}
   14348:	e24dd024 	sub	sp, sp, #36	; 0x24
   1434c:	e59d304c 	ldr	r3, [sp, #76]	; 0x4c
   14350:	e59fe234 	ldr	lr, [pc, #564]	; 1458c <f64_div+0x24c>
   14354:	e1a05000 	mov	r5, r0
   14358:	e3c374ff 	bic	r7, r3, #-16777216	; 0xff000000
   1435c:	e1a06fa3 	lsr	r6, r3, #31
   14360:	e3cc44ff 	bic	r4, ip, #-16777216	; 0xff000000
   14364:	e1de0a2c 	bics	r0, lr, ip, lsr #20
   14368:	e1a0a002 	mov	sl, r2
   1436c:	e3c7760f 	bic	r7, r7, #15728640	; 0xf00000
   14370:	e59d2048 	ldr	r2, [sp, #72]	; 0x48
   14374:	e00e1a23 	and	r1, lr, r3, lsr #20
   14378:	e0266fac 	eor	r6, r6, ip, lsr #31
   1437c:	e3c4460f 	bic	r4, r4, #15728640	; 0xf00000
   14380:	e00eba2c 	and	fp, lr, ip, lsr #20
   14384:	0a00001a 	beq	143f4 <f64_div+0xb4>
   14388:	e151000e 	cmp	r1, lr
   1438c:	0a00000e 	beq	143cc <f64_div+0x8c>
   14390:	e3510000 	cmp	r1, #0
   14394:	e1a09002 	mov	r9, r2
   14398:	e1a0800a 	mov	r8, sl
   1439c:	1a000021 	bne	14428 <f64_div+0xe8>
   143a0:	e1973002 	orrs	r3, r7, r2
   143a4:	1a000019 	bne	14410 <f64_div+0xd0>
   143a8:	e18ba00a 	orr	sl, fp, sl
   143ac:	e1844fcb 	orr	r4, r4, fp, asr #31
   143b0:	e19a3004 	orrs	r3, sl, r4
   143b4:	1a00006b 	bne	14568 <f64_div+0x228>
   143b8:	e3a00010 	mov	r0, #16
   143bc:	eb000142 	bl	148cc <softfloat_raiseFlags>
   143c0:	e3a00000 	mov	r0, #0
   143c4:	e59f11c4 	ldr	r1, [pc, #452]	; 14590 <f64_div+0x250>
   143c8:	ea000004 	b	143e0 <f64_div+0xa0>
   143cc:	e1971002 	orrs	r1, r7, r2
   143d0:	0a000061 	beq	1455c <f64_div+0x21c>
   143d4:	e1a0000a 	mov	r0, sl
   143d8:	e1a0100c 	mov	r1, ip
   143dc:	eb0001ba 	bl	14acc <softfloat_propagateNaNF64UI>
   143e0:	e8850003 	stm	r5, {r0, r1}
   143e4:	e1a00005 	mov	r0, r5
   143e8:	e28dd024 	add	sp, sp, #36	; 0x24
   143ec:	e8bd4ff0 	pop	{r4, r5, r6, r7, r8, r9, sl, fp, lr}
   143f0:	e12fff1e 	bx	lr
   143f4:	e194000a 	orrs	r0, r4, sl
   143f8:	1afffff5 	bne	143d4 <f64_div+0x94>
   143fc:	e151000b 	cmp	r1, fp
   14400:	1a00005a 	bne	14570 <f64_div+0x230>
   14404:	e1971002 	orrs	r1, r7, r2
   14408:	1afffff1 	bne	143d4 <f64_div+0x94>
   1440c:	eaffffe9 	b	143b8 <f64_div+0x78>
   14410:	e1a03007 	mov	r3, r7
   14414:	e28d0010 	add	r0, sp, #16
   14418:	eb000342 	bl	15128 <softfloat_normSubnormalF64Sig>
   1441c:	e59d1010 	ldr	r1, [sp, #16]
   14420:	e59d9018 	ldr	r9, [sp, #24]
   14424:	e59d701c 	ldr	r7, [sp, #28]
   14428:	e35b0000 	cmp	fp, #0
   1442c:	1a00000a 	bne	1445c <f64_div+0x11c>
   14430:	e194300a 	orrs	r3, r4, sl
   14434:	e58d100c 	str	r1, [sp, #12]
   14438:	0a000047 	beq	1455c <f64_div+0x21c>
   1443c:	e1a03004 	mov	r3, r4
   14440:	e1a0200a 	mov	r2, sl
   14444:	e28d0010 	add	r0, sp, #16
   14448:	eb000336 	bl	15128 <softfloat_normSubnormalF64Sig>
   1444c:	e59db010 	ldr	fp, [sp, #16]
   14450:	e59d8018 	ldr	r8, [sp, #24]
   14454:	e59d401c 	ldr	r4, [sp, #28]
   14458:	e59d100c 	ldr	r1, [sp, #12]
   1445c:	e3873601 	orr	r3, r7, #1048576	; 0x100000
   14460:	e3844601 	orr	r4, r4, #1048576	; 0x100000
   14464:	e1580009 	cmp	r8, r9
   14468:	e1a07583 	lsl	r7, r3, #11
   1446c:	e0d42003 	sbcs	r2, r4, r3
   14470:	e04bb001 	sub	fp, fp, r1
   14474:	e1877aa9 	orr	r7, r7, r9, lsr #21
   14478:	31a04584 	lslcc	r4, r4, #11
   1447c:	21a04504 	lslcs	r4, r4, #10
   14480:	e28bbfff 	add	fp, fp, #1020	; 0x3fc
   14484:	e1a00007 	mov	r0, r7
   14488:	31844aa8 	orrcc	r4, r4, r8, lsr #21
   1448c:	21844b28 	orrcs	r4, r4, r8, lsr #22
   14490:	328bb001 	addcc	fp, fp, #1
   14494:	31a08588 	lslcc	r8, r8, #11
   14498:	228bb002 	addcs	fp, fp, #2
   1449c:	21a08508 	lslcs	r8, r8, #10
   144a0:	eb0000ec 	bl	14858 <softfloat_approxRecip32_1>
   144a4:	e2400002 	sub	r0, r0, #2
   144a8:	e0832094 	umull	r2, r3, r4, r0
   144ac:	e1a02083 	lsl	r2, r3, #1
   144b0:	e08c1792 	umull	r1, ip, r2, r7
   144b4:	e1a09589 	lsl	r9, r9, #11
   144b8:	e0588001 	subs	r8, r8, r1
   144bc:	e1a09229 	lsr	r9, r9, #4
   144c0:	e0c4400c 	sbc	r4, r4, ip
   144c4:	e08c1992 	umull	r1, ip, r2, r9
   144c8:	e1a04e04 	lsl	r4, r4, #28
   144cc:	e1844228 	orr	r4, r4, r8, lsr #4
   144d0:	e1a08e08 	lsl	r8, r8, #28
   144d4:	e0588001 	subs	r8, r8, r1
   144d8:	e0c4400c 	sbc	r4, r4, ip
   144dc:	e0821094 	umull	r1, r2, r4, r0
   144e0:	e2822004 	add	r2, r2, #4
   144e4:	e1a00202 	lsl	r0, r2, #4
   144e8:	e3100d07 	tst	r0, #448	; 0x1c0
   144ec:	e0833e22 	add	r3, r3, r2, lsr #28
   144f0:	1a00000f 	bne	14534 <f64_div+0x1f4>
   144f4:	e1a02082 	lsl	r2, r2, #1
   144f8:	e3c2200f 	bic	r2, r2, #15
   144fc:	e08c1792 	umull	r1, ip, r2, r7
   14500:	e0588001 	subs	r8, r8, r1
   14504:	e0c4400c 	sbc	r4, r4, ip
   14508:	e08c1299 	umull	r1, ip, r9, r2
   1450c:	e1a04e04 	lsl	r4, r4, #28
   14510:	e1844228 	orr	r4, r4, r8, lsr #4
   14514:	e1a08e08 	lsl	r8, r8, #28
   14518:	e0588001 	subs	r8, r8, r1
   1451c:	e0c4400c 	sbc	r4, r4, ip
   14520:	e3540000 	cmp	r4, #0
   14524:	e3c0007f 	bic	r0, r0, #127	; 0x7f
   14528:	ba000014 	blt	14580 <f64_div+0x240>
   1452c:	e1982004 	orrs	r2, r8, r4
   14530:	13800001 	orrne	r0, r0, #1
   14534:	e58d0000 	str	r0, [sp]
   14538:	e1a0200b 	mov	r2, fp
   1453c:	e1a00005 	mov	r0, r5
   14540:	e1a01006 	mov	r1, r6
   14544:	e58d3004 	str	r3, [sp, #4]
   14548:	eb000310 	bl	15190 <softfloat_roundPackToF64>
   1454c:	e1a00005 	mov	r0, r5
   14550:	e28dd024 	add	sp, sp, #36	; 0x24
   14554:	e8bd4ff0 	pop	{r4, r5, r6, r7, r8, r9, sl, fp, lr}
   14558:	e12fff1e 	bx	lr
   1455c:	e3a00000 	mov	r0, #0
   14560:	e1a01f86 	lsl	r1, r6, #31
   14564:	eaffff9d 	b	143e0 <f64_div+0xa0>
   14568:	e3a00008 	mov	r0, #8
   1456c:	eb0000d6 	bl	148cc <softfloat_raiseFlags>
   14570:	e59f101c 	ldr	r1, [pc, #28]	; 14594 <f64_div+0x254>
   14574:	e3a00000 	mov	r0, #0
   14578:	e0811f86 	add	r1, r1, r6, lsl #31
   1457c:	eaffff97 	b	143e0 <f64_div+0xa0>
   14580:	e2500080 	subs	r0, r0, #128	; 0x80
   14584:	e2c33000 	sbc	r3, r3, #0
   14588:	eaffffe9 	b	14534 <f64_div+0x1f4>
   1458c:	000007ff 	strdeq	r0, [r0], -pc	; <UNPREDICTABLE>
   14590:	7ff80000 	svcvc	0x00f80000
   14594:	7ff00000 	svcvc	0x00f00000	; IMB

00014598 <f64_eq>:
   14598:	e59fc0d8 	ldr	ip, [pc, #216]	; 14678 <f64_eq+0xe0>
   1459c:	e1dcc001 	bics	ip, ip, r1
   145a0:	1a000003 	bne	145b4 <f64_eq+0x1c>
   145a4:	e3c1c4ff 	bic	ip, r1, #-16777216	; 0xff000000
   145a8:	e3ccc60f 	bic	ip, ip, #15728640	; 0xf00000
   145ac:	e19cc000 	orrs	ip, ip, r0
   145b0:	1a000012 	bne	14600 <f64_eq+0x68>
   145b4:	e59fc0bc 	ldr	ip, [pc, #188]	; 14678 <f64_eq+0xe0>
   145b8:	e1dcc003 	bics	ip, ip, r3
   145bc:	1a000003 	bne	145d0 <f64_eq+0x38>
   145c0:	e3c3c4ff 	bic	ip, r3, #-16777216	; 0xff000000
   145c4:	e3ccc60f 	bic	ip, ip, #15728640	; 0xf00000
   145c8:	e19cc002 	orrs	ip, ip, r2
   145cc:	1a00000b 	bne	14600 <f64_eq+0x68>
   145d0:	e1510003 	cmp	r1, r3
   145d4:	01500002 	cmpeq	r0, r2
   145d8:	0a000006 	beq	145f8 <f64_eq+0x60>
   145dc:	e1833001 	orr	r3, r3, r1
   145e0:	e1820000 	orr	r0, r2, r0
   145e4:	e3c33102 	bic	r3, r3, #-2147483648	; 0x80000000
   145e8:	e1903003 	orrs	r3, r0, r3
   145ec:	03a00001 	moveq	r0, #1
   145f0:	13a00000 	movne	r0, #0
   145f4:	e12fff1e 	bx	lr
   145f8:	e3a00001 	mov	r0, #1
   145fc:	e12fff1e 	bx	lr
   14600:	e3c1c102 	bic	ip, r1, #-2147483648	; 0x80000000
   14604:	e92d4010 	push	{r4, lr}
   14608:	e1a0c9ac 	lsr	ip, ip, #19
   1460c:	e59fe064 	ldr	lr, [pc, #100]	; 14678 <f64_eq+0xe0>
   14610:	e1a0c98c 	lsl	ip, ip, #19
   14614:	e15c000e 	cmp	ip, lr
   14618:	0a000011 	beq	14664 <f64_eq+0xcc>
   1461c:	e3a00000 	mov	r0, #0
   14620:	e3c31102 	bic	r1, r3, #-2147483648	; 0x80000000
   14624:	e59fc04c 	ldr	ip, [pc, #76]	; 14678 <f64_eq+0xe0>
   14628:	e1a019a1 	lsr	r1, r1, #19
   1462c:	e1a01981 	lsl	r1, r1, #19
   14630:	e151000c 	cmp	r1, ip
   14634:	01500000 	cmpeq	r0, r0
   14638:	0a000001 	beq	14644 <f64_eq+0xac>
   1463c:	e8bd4010 	pop	{r4, lr}
   14640:	e12fff1e 	bx	lr
   14644:	e3c334ff 	bic	r3, r3, #-16777216	; 0xff000000
   14648:	e3c3373e 	bic	r3, r3, #16252928	; 0xf80000
   1464c:	e1933002 	orrs	r3, r3, r2
   14650:	0afffff9 	beq	1463c <f64_eq+0xa4>
   14654:	e3a00010 	mov	r0, #16
   14658:	eb00009b 	bl	148cc <softfloat_raiseFlags>
   1465c:	e3a00000 	mov	r0, #0
   14660:	eafffff5 	b	1463c <f64_eq+0xa4>
   14664:	e3c114ff 	bic	r1, r1, #-16777216	; 0xff000000
   14668:	e3c1173e 	bic	r1, r1, #16252928	; 0xf80000
   1466c:	e1911000 	orrs	r1, r1, r0
   14670:	1afffff7 	bne	14654 <f64_eq+0xbc>
   14674:	eaffffe8 	b	1461c <f64_eq+0x84>
   14678:	7ff00000 	svcvc	0x00f00000	; IMB

0001467c <f64_le>:
   1467c:	e59fc0a4 	ldr	ip, [pc, #164]	; 14728 <f64_le+0xac>
   14680:	e1dcc001 	bics	ip, ip, r1
   14684:	1a000003 	bne	14698 <f64_le+0x1c>
   14688:	e3c1c4ff 	bic	ip, r1, #-16777216	; 0xff000000
   1468c:	e3ccc60f 	bic	ip, ip, #15728640	; 0xf00000
   14690:	e19cc000 	orrs	ip, ip, r0
   14694:	1a00001b 	bne	14708 <f64_le+0x8c>
   14698:	e59fc088 	ldr	ip, [pc, #136]	; 14728 <f64_le+0xac>
   1469c:	e1dcc003 	bics	ip, ip, r3
   146a0:	1a000003 	bne	146b4 <f64_le+0x38>
   146a4:	e3c3c4ff 	bic	ip, r3, #-16777216	; 0xff000000
   146a8:	e3ccc60f 	bic	ip, ip, #15728640	; 0xf00000
   146ac:	e19cc002 	orrs	ip, ip, r2
   146b0:	1a000014 	bne	14708 <f64_le+0x8c>
   146b4:	e1a0cfa3 	lsr	ip, r3, #31
   146b8:	e15c0fa1 	cmp	ip, r1, lsr #31
   146bc:	0a000008 	beq	146e4 <f64_le+0x68>
   146c0:	e3510000 	cmp	r1, #0
   146c4:	ba000015 	blt	14720 <f64_le+0xa4>
   146c8:	e1833001 	orr	r3, r3, r1
   146cc:	e1822000 	orr	r2, r2, r0
   146d0:	e3c33102 	bic	r3, r3, #-2147483648	; 0x80000000
   146d4:	e1923003 	orrs	r3, r2, r3
   146d8:	03a00001 	moveq	r0, #1
   146dc:	13a00000 	movne	r0, #0
   146e0:	e12fff1e 	bx	lr
   146e4:	e1510003 	cmp	r1, r3
   146e8:	01500002 	cmpeq	r0, r2
   146ec:	0a00000b 	beq	14720 <f64_le+0xa4>
   146f0:	e1500002 	cmp	r0, r2
   146f4:	e0d13003 	sbcs	r3, r1, r3
   146f8:	33a00001 	movcc	r0, #1
   146fc:	23a00000 	movcs	r0, #0
   14700:	e020000c 	eor	r0, r0, ip
   14704:	e12fff1e 	bx	lr
   14708:	e92d4010 	push	{r4, lr}
   1470c:	e3a00010 	mov	r0, #16
   14710:	eb00006d 	bl	148cc <softfloat_raiseFlags>
   14714:	e3a00000 	mov	r0, #0
   14718:	e8bd4010 	pop	{r4, lr}
   1471c:	e12fff1e 	bx	lr
   14720:	e3a00001 	mov	r0, #1
   14724:	e12fff1e 	bx	lr
   14728:	7ff00000 	svcvc	0x00f00000	; IMB

0001472c <f64_lt>:
   1472c:	e59fc0a8 	ldr	ip, [pc, #168]	; 147dc <f64_lt+0xb0>
   14730:	e1dcc001 	bics	ip, ip, r1
   14734:	1a000003 	bne	14748 <f64_lt+0x1c>
   14738:	e3c1c4ff 	bic	ip, r1, #-16777216	; 0xff000000
   1473c:	e3ccc60f 	bic	ip, ip, #15728640	; 0xf00000
   14740:	e19cc000 	orrs	ip, ip, r0
   14744:	1a000017 	bne	147a8 <f64_lt+0x7c>
   14748:	e59fc08c 	ldr	ip, [pc, #140]	; 147dc <f64_lt+0xb0>
   1474c:	e1dcc003 	bics	ip, ip, r3
   14750:	1a000003 	bne	14764 <f64_lt+0x38>
   14754:	e3c3c4ff 	bic	ip, r3, #-16777216	; 0xff000000
   14758:	e3ccc60f 	bic	ip, ip, #15728640	; 0xf00000
   1475c:	e19cc002 	orrs	ip, ip, r2
   14760:	1a000010 	bne	147a8 <f64_lt+0x7c>
   14764:	e1a0cfa3 	lsr	ip, r3, #31
   14768:	e15c0fa1 	cmp	ip, r1, lsr #31
   1476c:	0a000003 	beq	14780 <f64_lt+0x54>
   14770:	e3510000 	cmp	r1, #0
   14774:	ba000011 	blt	147c0 <f64_lt+0x94>
   14778:	e3a00000 	mov	r0, #0
   1477c:	e12fff1e 	bx	lr
   14780:	e1510003 	cmp	r1, r3
   14784:	01500002 	cmpeq	r0, r2
   14788:	0afffffa 	beq	14778 <f64_lt+0x4c>
   1478c:	e1500002 	cmp	r0, r2
   14790:	e0d13003 	sbcs	r3, r1, r3
   14794:	33a00001 	movcc	r0, #1
   14798:	23a00000 	movcs	r0, #0
   1479c:	e050000c 	subs	r0, r0, ip
   147a0:	13a00001 	movne	r0, #1
   147a4:	e12fff1e 	bx	lr
   147a8:	e92d4010 	push	{r4, lr}
   147ac:	e3a00010 	mov	r0, #16
   147b0:	eb000045 	bl	148cc <softfloat_raiseFlags>
   147b4:	e3a00000 	mov	r0, #0
   147b8:	e8bd4010 	pop	{r4, lr}
   147bc:	e12fff1e 	bx	lr
   147c0:	e1833001 	orr	r3, r3, r1
   147c4:	e1822000 	orr	r2, r2, r0
   147c8:	e3c33102 	bic	r3, r3, #-2147483648	; 0x80000000
   147cc:	e1923003 	orrs	r3, r2, r3
   147d0:	13a00001 	movne	r0, #1
   147d4:	03a00000 	moveq	r0, #0
   147d8:	e12fff1e 	bx	lr
   147dc:	7ff00000 	svcvc	0x00f00000	; IMB

000147e0 <softfloat_mul64To128M>:
   147e0:	e92d43f0 	push	{r4, r5, r6, r7, r8, r9, lr}
   147e4:	e1a0e000 	mov	lr, r0
   147e8:	e3a07000 	mov	r7, #0
   147ec:	e0809291 	umull	r9, r0, r1, r2
   147f0:	e086529e 	umull	r5, r6, lr, r2
   147f4:	e082ce93 	umull	ip, r2, r3, lr
   147f8:	e09cc009 	adds	ip, ip, r9
   147fc:	e0b22000 	adcs	r2, r2, r0
   14800:	e1a08007 	mov	r8, r7
   14804:	23a07001 	movcs	r7, #1
   14808:	e1980007 	orrs	r0, r8, r7
   1480c:	13a07000 	movne	r7, #0
   14810:	e1a00008 	mov	r0, r8
   14814:	e08e8391 	umull	r8, lr, r1, r3
   14818:	e1823007 	orr	r3, r2, r7
   1481c:	e3a02000 	mov	r2, #0
   14820:	13a00001 	movne	r0, #1
   14824:	e0955002 	adds	r5, r5, r2
   14828:	e0b6c00c 	adcs	ip, r6, ip
   1482c:	23a02001 	movcs	r2, #1
   14830:	e0922008 	adds	r2, r2, r8
   14834:	e59d401c 	ldr	r4, [sp, #28]
   14838:	e2aee000 	adc	lr, lr, #0
   1483c:	e0933002 	adds	r3, r3, r2
   14840:	e0a0000e 	adc	r0, r0, lr
   14844:	e8841020 	stm	r4, {r5, ip}
   14848:	e584000c 	str	r0, [r4, #12]
   1484c:	e5843008 	str	r3, [r4, #8]
   14850:	e8bd43f0 	pop	{r4, r5, r6, r7, r8, r9, lr}
   14854:	e12fff1e 	bx	lr

00014858 <softfloat_approxRecip32_1>:
   14858:	e1a01d20 	lsr	r1, r0, #26
   1485c:	e59f205c 	ldr	r2, [pc, #92]	; 148c0 <softfloat_approxRecip32_1+0x68>
   14860:	e201101e 	and	r1, r1, #30
   14864:	e59f3058 	ldr	r3, [pc, #88]	; 148c4 <softfloat_approxRecip32_1+0x6c>
   14868:	e19220b1 	ldrh	r2, [r2, r1]
   1486c:	e00335a0 	and	r3, r3, r0, lsr #11
   14870:	e0030392 	mul	r3, r2, r3
   14874:	e59fc04c 	ldr	ip, [pc, #76]	; 148c8 <softfloat_approxRecip32_1+0x70>
   14878:	e19c20b1 	ldrh	r2, [ip, r1]
   1487c:	e0422a23 	sub	r2, r2, r3, lsr #20
   14880:	e1a02802 	lsl	r2, r2, #16
   14884:	e1a02822 	lsr	r2, r2, #16
   14888:	e0813092 	umull	r3, r1, r2, r0
   1488c:	e1a033a3 	lsr	r3, r3, #7
   14890:	e1833c81 	orr	r3, r3, r1, lsl #25
   14894:	e1e03003 	mvn	r3, r3
   14898:	e08c0392 	umull	r0, ip, r2, r3
   1489c:	e52de004 	push	{lr}		; (str lr, [sp, #-4]!)
   148a0:	e081e393 	umull	lr, r1, r3, r3
   148a4:	e1a00c20 	lsr	r0, r0, #24
   148a8:	e180040c 	orr	r0, r0, ip, lsl #8
   148ac:	e0802802 	add	r2, r0, r2, lsl #16
   148b0:	e0803291 	umull	r3, r0, r1, r2
   148b4:	e49de004 	pop	{lr}		; (ldr lr, [sp], #4)
   148b8:	e0820820 	add	r0, r2, r0, lsr #16
   148bc:	e12fff1e 	bx	lr
   148c0:	00017b54 	andeq	r7, r1, r4, asr fp
   148c4:	0000ffff 	strdeq	pc, [r0], -pc	; <UNPREDICTABLE>
   148c8:	00017b74 	andeq	r7, r1, r4, ror fp

000148cc <softfloat_raiseFlags>:
   148cc:	e59f200c 	ldr	r2, [pc, #12]	; 148e0 <softfloat_raiseFlags+0x14>
   148d0:	e5923000 	ldr	r3, [r2]
   148d4:	e1833000 	orr	r3, r3, r0
   148d8:	e5823000 	str	r3, [r2]
   148dc:	e12fff1e 	bx	lr
   148e0:	00028be4 	andeq	r8, r2, r4, ror #23

000148e4 <softfloat_f32UIToCommonNaN>:
   148e4:	e59f3064 	ldr	r3, [pc, #100]	; 14950 <softfloat_f32UIToCommonNaN+0x6c>
   148e8:	e59f2064 	ldr	r2, [pc, #100]	; 14954 <softfloat_f32UIToCommonNaN+0x70>
   148ec:	e0033000 	and	r3, r3, r0
   148f0:	e1530002 	cmp	r3, r2
   148f4:	e92d4070 	push	{r4, r5, r6, lr}
   148f8:	e1a04000 	mov	r4, r0
   148fc:	e1a05001 	mov	r5, r1
   14900:	0a00000b 	beq	14934 <softfloat_f32UIToCommonNaN+0x50>
   14904:	e3a01000 	mov	r1, #0
   14908:	e3a02000 	mov	r2, #0
   1490c:	e3a03000 	mov	r3, #0
   14910:	e1a00fa4 	lsr	r0, r4, #31
   14914:	e1a04484 	lsl	r4, r4, #9
   14918:	e5852008 	str	r2, [r5, #8]
   1491c:	e585300c 	str	r3, [r5, #12]
   14920:	e5c50000 	strb	r0, [r5]
   14924:	e5854014 	str	r4, [r5, #20]
   14928:	e5851010 	str	r1, [r5, #16]
   1492c:	e8bd4070 	pop	{r4, r5, r6, lr}
   14930:	e12fff1e 	bx	lr
   14934:	e3c034ff 	bic	r3, r0, #-16777216	; 0xff000000
   14938:	e3c33503 	bic	r3, r3, #12582912	; 0xc00000
   1493c:	e3530000 	cmp	r3, #0
   14940:	0affffef 	beq	14904 <softfloat_f32UIToCommonNaN+0x20>
   14944:	e3a00010 	mov	r0, #16
   14948:	ebffffdf 	bl	148cc <softfloat_raiseFlags>
   1494c:	eaffffec 	b	14904 <softfloat_f32UIToCommonNaN+0x20>
   14950:	7fc00000 	svcvc	0x00c00000
   14954:	7f800000 	svcvc	0x00800000

00014958 <softfloat_commonNaNToF32UI>:
   14958:	e1a03000 	mov	r3, r0
   1495c:	e5d00000 	ldrb	r0, [r0]
   14960:	e5933014 	ldr	r3, [r3, #20]
   14964:	e1a00f80 	lsl	r0, r0, #31
   14968:	e18004a3 	orr	r0, r0, r3, lsr #9
   1496c:	e380047f 	orr	r0, r0, #2130706432	; 0x7f000000
   14970:	e3800503 	orr	r0, r0, #12582912	; 0xc00000
   14974:	e12fff1e 	bx	lr

00014978 <softfloat_propagateNaNF32UI>:
   14978:	e59f30a0 	ldr	r3, [pc, #160]	; 14a20 <softfloat_propagateNaNF32UI+0xa8>
   1497c:	e59f20a0 	ldr	r2, [pc, #160]	; 14a24 <softfloat_propagateNaNF32UI+0xac>
   14980:	e0033000 	and	r3, r3, r0
   14984:	e1530002 	cmp	r3, r2
   14988:	e92d4070 	push	{r4, r5, r6, lr}
   1498c:	e1a05000 	mov	r5, r0
   14990:	e1a04001 	mov	r4, r1
   14994:	0a00000f 	beq	149d8 <softfloat_propagateNaNF32UI+0x60>
   14998:	e59f3080 	ldr	r3, [pc, #128]	; 14a20 <softfloat_propagateNaNF32UI+0xa8>
   1499c:	e59f2080 	ldr	r2, [pc, #128]	; 14a24 <softfloat_propagateNaNF32UI+0xac>
   149a0:	e0033004 	and	r3, r3, r4
   149a4:	e1530002 	cmp	r3, r2
   149a8:	0a000013 	beq	149fc <softfloat_propagateNaNF32UI+0x84>
   149ac:	e59f3070 	ldr	r3, [pc, #112]	; 14a24 <softfloat_propagateNaNF32UI+0xac>
   149b0:	e1d33005 	bics	r3, r3, r5
   149b4:	11a00004 	movne	r0, r4
   149b8:	1a000004 	bne	149d0 <softfloat_propagateNaNF32UI+0x58>
   149bc:	e3c534ff 	bic	r3, r5, #-16777216	; 0xff000000
   149c0:	e3c33502 	bic	r3, r3, #8388608	; 0x800000
   149c4:	e3530000 	cmp	r3, #0
   149c8:	11a00005 	movne	r0, r5
   149cc:	01a00004 	moveq	r0, r4
   149d0:	e8bd4070 	pop	{r4, r5, r6, lr}
   149d4:	e12fff1e 	bx	lr
   149d8:	e3c034ff 	bic	r3, r0, #-16777216	; 0xff000000
   149dc:	e3c33503 	bic	r3, r3, #12582912	; 0xc00000
   149e0:	e3530000 	cmp	r3, #0
   149e4:	0affffeb 	beq	14998 <softfloat_propagateNaNF32UI+0x20>
   149e8:	e3a00010 	mov	r0, #16
   149ec:	ebffffb6 	bl	148cc <softfloat_raiseFlags>
   149f0:	e3850501 	orr	r0, r5, #4194304	; 0x400000
   149f4:	e8bd4070 	pop	{r4, r5, r6, lr}
   149f8:	e12fff1e 	bx	lr
   149fc:	e3c434ff 	bic	r3, r4, #-16777216	; 0xff000000
   14a00:	e3c33503 	bic	r3, r3, #12582912	; 0xc00000
   14a04:	e3530000 	cmp	r3, #0
   14a08:	0affffe7 	beq	149ac <softfloat_propagateNaNF32UI+0x34>
   14a0c:	e3a00010 	mov	r0, #16
   14a10:	ebffffad 	bl	148cc <softfloat_raiseFlags>
   14a14:	e3840501 	orr	r0, r4, #4194304	; 0x400000
   14a18:	e8bd4070 	pop	{r4, r5, r6, lr}
   14a1c:	e12fff1e 	bx	lr
   14a20:	7fc00000 	svcvc	0x00c00000
   14a24:	7f800000 	svcvc	0x00800000

00014a28 <softfloat_f64UIToCommonNaN>:
   14a28:	e59f306c 	ldr	r3, [pc, #108]	; 14a9c <softfloat_f64UIToCommonNaN+0x74>
   14a2c:	e59fc06c 	ldr	ip, [pc, #108]	; 14aa0 <softfloat_f64UIToCommonNaN+0x78>
   14a30:	e0033001 	and	r3, r3, r1
   14a34:	e153000c 	cmp	r3, ip
   14a38:	e92d4070 	push	{r4, r5, r6, lr}
   14a3c:	e1a04001 	mov	r4, r1
   14a40:	e1a05000 	mov	r5, r0
   14a44:	e1a06002 	mov	r6, r2
   14a48:	0a00000c 	beq	14a80 <softfloat_f64UIToCommonNaN+0x58>
   14a4c:	e3a00000 	mov	r0, #0
   14a50:	e3a01000 	mov	r1, #0
   14a54:	e1a03604 	lsl	r3, r4, #12
   14a58:	e1833a25 	orr	r3, r3, r5, lsr #20
   14a5c:	e1a04fa4 	lsr	r4, r4, #31
   14a60:	e1a05605 	lsl	r5, r5, #12
   14a64:	e5860008 	str	r0, [r6, #8]
   14a68:	e586100c 	str	r1, [r6, #12]
   14a6c:	e5c64000 	strb	r4, [r6]
   14a70:	e5865010 	str	r5, [r6, #16]
   14a74:	e5863014 	str	r3, [r6, #20]
   14a78:	e8bd4070 	pop	{r4, r5, r6, lr}
   14a7c:	e12fff1e 	bx	lr
   14a80:	e3c134ff 	bic	r3, r1, #-16777216	; 0xff000000
   14a84:	e3c3373e 	bic	r3, r3, #16252928	; 0xf80000
   14a88:	e1903003 	orrs	r3, r0, r3
   14a8c:	0affffee 	beq	14a4c <softfloat_f64UIToCommonNaN+0x24>
   14a90:	e3a00010 	mov	r0, #16
   14a94:	ebffff8c 	bl	148cc <softfloat_raiseFlags>
   14a98:	eaffffeb 	b	14a4c <softfloat_f64UIToCommonNaN+0x24>
   14a9c:	7ff80000 	svcvc	0x00f80000
   14aa0:	7ff00000 	svcvc	0x00f00000	; IMB

00014aa4 <softfloat_commonNaNToF64UI>:
   14aa4:	e5d01000 	ldrb	r1, [r0]
   14aa8:	e5902014 	ldr	r2, [r0, #20]
   14aac:	e5903010 	ldr	r3, [r0, #16]
   14ab0:	e1a01f81 	lsl	r1, r1, #31
   14ab4:	e1811622 	orr	r1, r1, r2, lsr #12
   14ab8:	e1a03623 	lsr	r3, r3, #12
   14abc:	e381147f 	orr	r1, r1, #2130706432	; 0x7f000000
   14ac0:	e1830a02 	orr	r0, r3, r2, lsl #20
   14ac4:	e381173e 	orr	r1, r1, #16252928	; 0xf80000
   14ac8:	e12fff1e 	bx	lr

00014acc <softfloat_propagateNaNF64UI>:
   14acc:	e59fc0c0 	ldr	ip, [pc, #192]	; 14b94 <softfloat_propagateNaNF64UI+0xc8>
   14ad0:	e92d41f0 	push	{r4, r5, r6, r7, r8, lr}
   14ad4:	e59fe0bc 	ldr	lr, [pc, #188]	; 14b98 <softfloat_propagateNaNF64UI+0xcc>
   14ad8:	e00cc001 	and	ip, ip, r1
   14adc:	e15c000e 	cmp	ip, lr
   14ae0:	e1a06001 	mov	r6, r1
   14ae4:	e1a07000 	mov	r7, r0
   14ae8:	e1a05002 	mov	r5, r2
   14aec:	e1a04003 	mov	r4, r3
   14af0:	0a000013 	beq	14b44 <softfloat_propagateNaNF64UI+0x78>
   14af4:	e59fc098 	ldr	ip, [pc, #152]	; 14b94 <softfloat_propagateNaNF64UI+0xc8>
   14af8:	e59f3098 	ldr	r3, [pc, #152]	; 14b98 <softfloat_propagateNaNF64UI+0xcc>
   14afc:	e00cc004 	and	ip, ip, r4
   14b00:	e15c0003 	cmp	ip, r3
   14b04:	0a000018 	beq	14b6c <softfloat_propagateNaNF64UI+0xa0>
   14b08:	e59f3088 	ldr	r3, [pc, #136]	; 14b98 <softfloat_propagateNaNF64UI+0xcc>
   14b0c:	e1d33006 	bics	r3, r3, r6
   14b10:	0a000003 	beq	14b24 <softfloat_propagateNaNF64UI+0x58>
   14b14:	e1a00005 	mov	r0, r5
   14b18:	e1a01004 	mov	r1, r4
   14b1c:	e8bd41f0 	pop	{r4, r5, r6, r7, r8, lr}
   14b20:	e12fff1e 	bx	lr
   14b24:	e3c634ff 	bic	r3, r6, #-16777216	; 0xff000000
   14b28:	e3c3360f 	bic	r3, r3, #15728640	; 0xf00000
   14b2c:	e1973003 	orrs	r3, r7, r3
   14b30:	11a00007 	movne	r0, r7
   14b34:	11a01006 	movne	r1, r6
   14b38:	0afffff5 	beq	14b14 <softfloat_propagateNaNF64UI+0x48>
   14b3c:	e8bd41f0 	pop	{r4, r5, r6, r7, r8, lr}
   14b40:	e12fff1e 	bx	lr
   14b44:	e3c134ff 	bic	r3, r1, #-16777216	; 0xff000000
   14b48:	e3c3373e 	bic	r3, r3, #16252928	; 0xf80000
   14b4c:	e1903003 	orrs	r3, r0, r3
   14b50:	0affffe7 	beq	14af4 <softfloat_propagateNaNF64UI+0x28>
   14b54:	e3a00010 	mov	r0, #16
   14b58:	ebffff5b 	bl	148cc <softfloat_raiseFlags>
   14b5c:	e1a00007 	mov	r0, r7
   14b60:	e3861702 	orr	r1, r6, #524288	; 0x80000
   14b64:	e8bd41f0 	pop	{r4, r5, r6, r7, r8, lr}
   14b68:	e12fff1e 	bx	lr
   14b6c:	e3c434ff 	bic	r3, r4, #-16777216	; 0xff000000
   14b70:	e3c3373e 	bic	r3, r3, #16252928	; 0xf80000
   14b74:	e1953003 	orrs	r3, r5, r3
   14b78:	0affffe2 	beq	14b08 <softfloat_propagateNaNF64UI+0x3c>
   14b7c:	e3a00010 	mov	r0, #16
   14b80:	ebffff51 	bl	148cc <softfloat_raiseFlags>
   14b84:	e1a00005 	mov	r0, r5
   14b88:	e3841702 	orr	r1, r4, #524288	; 0x80000
   14b8c:	e8bd41f0 	pop	{r4, r5, r6, r7, r8, lr}
   14b90:	e12fff1e 	bx	lr
   14b94:	7ff80000 	svcvc	0x00f80000
   14b98:	7ff00000 	svcvc	0x00f00000	; IMB

00014b9c <softfloat_normSubnormalF32Sig>:
   14b9c:	e92d4070 	push	{r4, r5, r6, lr}
   14ba0:	e2514000 	subs	r4, r1, #0
   14ba4:	e1a05000 	mov	r5, r0
   14ba8:	0a000008 	beq	14bd0 <softfloat_normSubnormalF32Sig+0x34>
   14bac:	e1a00004 	mov	r0, r4
   14bb0:	ebfff7a8 	bl	12a58 <__clzsi2>
   14bb4:	e2401008 	sub	r1, r0, #8
   14bb8:	e2600009 	rsb	r0, r0, #9
   14bbc:	e1a01114 	lsl	r1, r4, r1
   14bc0:	e8850003 	stm	r5, {r0, r1}
   14bc4:	e1a00005 	mov	r0, r5
   14bc8:	e8bd4070 	pop	{r4, r5, r6, lr}
   14bcc:	e12fff1e 	bx	lr
   14bd0:	e3a01018 	mov	r1, #24
   14bd4:	e3e00016 	mvn	r0, #22
   14bd8:	eafffff7 	b	14bbc <softfloat_normSubnormalF32Sig+0x20>

00014bdc <softfloat_roundPackToF32>:
   14bdc:	e59f3170 	ldr	r3, [pc, #368]	; 14d54 <softfloat_roundPackToF32+0x178>
   14be0:	e92d41f0 	push	{r4, r5, r6, r7, r8, lr}
   14be4:	e5936000 	ldr	r6, [r3]
   14be8:	e3d63004 	bics	r3, r6, #4
   14bec:	e1a05000 	mov	r5, r0
   14bf0:	03a07040 	moveq	r7, #64	; 0x40
   14bf4:	0a000005 	beq	14c10 <softfloat_roundPackToF32+0x34>
   14bf8:	e3500000 	cmp	r0, #0
   14bfc:	13a04002 	movne	r4, #2
   14c00:	03a04003 	moveq	r4, #3
   14c04:	e1540006 	cmp	r4, r6
   14c08:	03a0707f 	moveq	r7, #127	; 0x7f
   14c0c:	13a07000 	movne	r7, #0
   14c10:	e35100fc 	cmp	r1, #252	; 0xfc
   14c14:	e202807f 	and	r8, r2, #127	; 0x7f
   14c18:	9a00000e 	bls	14c58 <softfloat_roundPackToF32+0x7c>
   14c1c:	e3510000 	cmp	r1, #0
   14c20:	ba000017 	blt	14c84 <softfloat_roundPackToF32+0xa8>
   14c24:	e35100fd 	cmp	r1, #253	; 0xfd
   14c28:	1a000001 	bne	14c34 <softfloat_roundPackToF32+0x58>
   14c2c:	e0972002 	adds	r2, r7, r2
   14c30:	5a000009 	bpl	14c5c <softfloat_roundPackToF32+0x80>
   14c34:	e3a00005 	mov	r0, #5
   14c38:	ebffff23 	bl	148cc <softfloat_raiseFlags>
   14c3c:	e1a00f85 	lsl	r0, r5, #31
   14c40:	e280047f 	add	r0, r0, #2130706432	; 0x7f000000
   14c44:	e2800502 	add	r0, r0, #8388608	; 0x800000
   14c48:	e3570000 	cmp	r7, #0
   14c4c:	02400001 	subeq	r0, r0, #1
   14c50:	e8bd41f0 	pop	{r4, r5, r6, r7, r8, lr}
   14c54:	e12fff1e 	bx	lr
   14c58:	e0872002 	add	r2, r7, r2
   14c5c:	e3580000 	cmp	r8, #0
   14c60:	e1a023a2 	lsr	r2, r2, #7
   14c64:	1a00001c 	bne	14cdc <softfloat_roundPackToF32+0x100>
   14c68:	e3520000 	cmp	r2, #0
   14c6c:	01a01002 	moveq	r1, r2
   14c70:	11a01b81 	lslne	r1, r1, #23
   14c74:	e0822001 	add	r2, r2, r1
   14c78:	e0820f85 	add	r0, r2, r5, lsl #31
   14c7c:	e8bd41f0 	pop	{r4, r5, r6, r7, r8, lr}
   14c80:	e12fff1e 	bx	lr
   14c84:	e2913001 	adds	r3, r1, #1
   14c88:	13a03001 	movne	r3, #1
   14c8c:	e59f00c4 	ldr	r0, [pc, #196]	; 14d58 <softfloat_roundPackToF32+0x17c>
   14c90:	e5900000 	ldr	r0, [r0]
   14c94:	e3500000 	cmp	r0, #0
   14c98:	03833001 	orreq	r3, r3, #1
   14c9c:	e3530000 	cmp	r3, #0
   14ca0:	0a000026 	beq	14d40 <softfloat_roundPackToF32+0x164>
   14ca4:	e371001e 	cmn	r1, #30
   14ca8:	aa00001a 	bge	14d18 <softfloat_roundPackToF32+0x13c>
   14cac:	e2521000 	subs	r1, r2, #0
   14cb0:	13a01001 	movne	r1, #1
   14cb4:	e1a04001 	mov	r4, r1
   14cb8:	e1a08001 	mov	r8, r1
   14cbc:	e3510000 	cmp	r1, #0
   14cc0:	00872004 	addeq	r2, r7, r4
   14cc4:	0affffe4 	beq	14c5c <softfloat_roundPackToF32+0x80>
   14cc8:	e3a00002 	mov	r0, #2
   14ccc:	ebfffefe 	bl	148cc <softfloat_raiseFlags>
   14cd0:	e3a01000 	mov	r1, #0
   14cd4:	e0874004 	add	r4, r7, r4
   14cd8:	e1a023a4 	lsr	r2, r4, #7
   14cdc:	e59f0078 	ldr	r0, [pc, #120]	; 14d5c <softfloat_roundPackToF32+0x180>
   14ce0:	e5903000 	ldr	r3, [r0]
   14ce4:	e3560006 	cmp	r6, #6
   14ce8:	e3833001 	orr	r3, r3, #1
   14cec:	e5803000 	str	r3, [r0]
   14cf0:	0a000005 	beq	14d0c <softfloat_roundPackToF32+0x130>
   14cf4:	e3560000 	cmp	r6, #0
   14cf8:	03580040 	cmpeq	r8, #64	; 0x40
   14cfc:	03a03001 	moveq	r3, #1
   14d00:	13a03000 	movne	r3, #0
   14d04:	e1c22003 	bic	r2, r2, r3
   14d08:	eaffffd6 	b	14c68 <softfloat_roundPackToF32+0x8c>
   14d0c:	e3822001 	orr	r2, r2, #1
   14d10:	e1a01b81 	lsl	r1, r1, #23
   14d14:	eaffffd6 	b	14c74 <softfloat_roundPackToF32+0x98>
   14d18:	e2614000 	rsb	r4, r1, #0
   14d1c:	e201101f 	and	r1, r1, #31
   14d20:	e1b01112 	lsls	r1, r2, r1
   14d24:	e1a02432 	lsr	r2, r2, r4
   14d28:	01a04002 	moveq	r4, r2
   14d2c:	13824001 	orrne	r4, r2, #1
   14d30:	e214807f 	ands	r8, r4, #127	; 0x7f
   14d34:	03a01000 	moveq	r1, #0
   14d38:	12031001 	andne	r1, r3, #1
   14d3c:	eaffffde 	b	14cbc <softfloat_roundPackToF32+0xe0>
   14d40:	e0873002 	add	r3, r7, r2
   14d44:	e1e03003 	mvn	r3, r3
   14d48:	e3a04001 	mov	r4, #1
   14d4c:	e1a03fa3 	lsr	r3, r3, #31
   14d50:	eafffff1 	b	14d1c <softfloat_roundPackToF32+0x140>
   14d54:	00028bec 	andeq	r8, r2, ip, ror #23
   14d58:	00028be8 	andeq	r8, r2, r8, ror #23
   14d5c:	00028be4 	andeq	r8, r2, r4, ror #23

00014d60 <softfloat_normRoundPackToF32>:
   14d60:	e92d4070 	push	{r4, r5, r6, lr}
   14d64:	e2526000 	subs	r6, r2, #0
   14d68:	e1a04000 	mov	r4, r0
   14d6c:	e1a05001 	mov	r5, r1
   14d70:	0a000015 	beq	14dcc <softfloat_normRoundPackToF32+0x6c>
   14d74:	e1a00006 	mov	r0, r6
   14d78:	ebfff736 	bl	12a58 <__clzsi2>
   14d7c:	e2402001 	sub	r2, r0, #1
   14d80:	e3520006 	cmp	r2, #6
   14d84:	e0451002 	sub	r1, r5, r2
   14d88:	d3a03000 	movle	r3, #0
   14d8c:	c3a03001 	movgt	r3, #1
   14d90:	e35100fc 	cmp	r1, #252	; 0xfc
   14d94:	83a03000 	movhi	r3, #0
   14d98:	e3530000 	cmp	r3, #0
   14d9c:	0a000005 	beq	14db8 <softfloat_normRoundPackToF32+0x58>
   14da0:	e1a04f84 	lsl	r4, r4, #31
   14da4:	e0844b81 	add	r4, r4, r1, lsl #23
   14da8:	e2400008 	sub	r0, r0, #8
   14dac:	e0840016 	add	r0, r4, r6, lsl r0
   14db0:	e8bd4070 	pop	{r4, r5, r6, lr}
   14db4:	e12fff1e 	bx	lr
   14db8:	e1a00004 	mov	r0, r4
   14dbc:	e1a02216 	lsl	r2, r6, r2
   14dc0:	ebffff85 	bl	14bdc <softfloat_roundPackToF32>
   14dc4:	e8bd4070 	pop	{r4, r5, r6, lr}
   14dc8:	e12fff1e 	bx	lr
   14dcc:	e241101f 	sub	r1, r1, #31
   14dd0:	e35100fc 	cmp	r1, #252	; 0xfc
   14dd4:	83a0201f 	movhi	r2, #31
   14dd8:	8afffff6 	bhi	14db8 <softfloat_normRoundPackToF32+0x58>
   14ddc:	e3a00018 	mov	r0, #24
   14de0:	e1a04f84 	lsl	r4, r4, #31
   14de4:	eafffff0 	b	14dac <softfloat_normRoundPackToF32+0x4c>

00014de8 <softfloat_addMagsF32>:
   14de8:	e1a03001 	mov	r3, r1
   14dec:	e1a01ba0 	lsr	r1, r0, #23
   14df0:	e1a02ba3 	lsr	r2, r3, #23
   14df4:	e20110ff 	and	r1, r1, #255	; 0xff
   14df8:	e20220ff 	and	r2, r2, #255	; 0xff
   14dfc:	e92d4070 	push	{r4, r5, r6, lr}
   14e00:	e59fe184 	ldr	lr, [pc, #388]	; 14f8c <softfloat_addMagsF32+0x1a4>
   14e04:	e0414002 	sub	r4, r1, r2
   14e08:	e3540000 	cmp	r4, #0
   14e0c:	e000500e 	and	r5, r0, lr
   14e10:	e003c00e 	and	ip, r3, lr
   14e14:	1a000015 	bne	14e70 <softfloat_addMagsF32+0x88>
   14e18:	e3510000 	cmp	r1, #0
   14e1c:	0080000c 	addeq	r0, r0, ip
   14e20:	0a000010 	beq	14e68 <softfloat_addMagsF32+0x80>
   14e24:	e35100ff 	cmp	r1, #255	; 0xff
   14e28:	0a000048 	beq	14f50 <softfloat_addMagsF32+0x168>
   14e2c:	e28c2401 	add	r2, ip, #16777216	; 0x1000000
   14e30:	e0822005 	add	r2, r2, r5
   14e34:	e1e03002 	mvn	r3, r2
   14e38:	e35100fe 	cmp	r1, #254	; 0xfe
   14e3c:	03a03000 	moveq	r3, #0
   14e40:	12033001 	andne	r3, r3, #1
   14e44:	e3530000 	cmp	r3, #0
   14e48:	e1a0efa0 	lsr	lr, r0, #31
   14e4c:	11a020a2 	lsrne	r2, r2, #1
   14e50:	10820f8e 	addne	r0, r2, lr, lsl #31
   14e54:	10800b81 	addne	r0, r0, r1, lsl #23
   14e58:	01a02302 	lsleq	r2, r2, #6
   14e5c:	1a000001 	bne	14e68 <softfloat_addMagsF32+0x80>
   14e60:	e1a0000e 	mov	r0, lr
   14e64:	ebffff5c 	bl	14bdc <softfloat_roundPackToF32>
   14e68:	e8bd4070 	pop	{r4, r5, r6, lr}
   14e6c:	e12fff1e 	bx	lr
   14e70:	e1a05305 	lsl	r5, r5, #6
   14e74:	e1a0c30c 	lsl	ip, ip, #6
   14e78:	e1a0efa0 	lsr	lr, r0, #31
   14e7c:	ba000016 	blt	14edc <softfloat_addMagsF32+0xf4>
   14e80:	e35100ff 	cmp	r1, #255	; 0xff
   14e84:	0a000025 	beq	14f20 <softfloat_addMagsF32+0x138>
   14e88:	e3520000 	cmp	r2, #0
   14e8c:	01a0200c 	moveq	r2, ip
   14e90:	13a02202 	movne	r2, #536870912	; 0x20000000
   14e94:	e354001e 	cmp	r4, #30
   14e98:	e082200c 	add	r2, r2, ip
   14e9c:	ca00002f 	bgt	14f60 <softfloat_addMagsF32+0x178>
   14ea0:	e2643000 	rsb	r3, r4, #0
   14ea4:	e203301f 	and	r3, r3, #31
   14ea8:	e1b03312 	lsls	r3, r2, r3
   14eac:	e1a02432 	lsr	r2, r2, r4
   14eb0:	01a0c002 	moveq	ip, r2
   14eb4:	1382c001 	orrne	ip, r2, #1
   14eb8:	e085200c 	add	r2, r5, ip
   14ebc:	e2822202 	add	r2, r2, #536870912	; 0x20000000
   14ec0:	e3720107 	cmn	r2, #-1073741823	; 0xc0000001
   14ec4:	8affffe5 	bhi	14e60 <softfloat_addMagsF32+0x78>
   14ec8:	e2411001 	sub	r1, r1, #1
   14ecc:	e1a02082 	lsl	r2, r2, #1
   14ed0:	e1a0000e 	mov	r0, lr
   14ed4:	ebffff40 	bl	14bdc <softfloat_roundPackToF32>
   14ed8:	eaffffe2 	b	14e68 <softfloat_addMagsF32+0x80>
   14edc:	e35200ff 	cmp	r2, #255	; 0xff
   14ee0:	0a000014 	beq	14f38 <softfloat_addMagsF32+0x150>
   14ee4:	e3510000 	cmp	r1, #0
   14ee8:	01a03005 	moveq	r3, r5
   14eec:	13a03202 	movne	r3, #536870912	; 0x20000000
   14ef0:	e0420001 	sub	r0, r2, r1
   14ef4:	e350001e 	cmp	r0, #30
   14ef8:	e0835005 	add	r5, r3, r5
   14efc:	8a00001e 	bhi	14f7c <softfloat_addMagsF32+0x194>
   14f00:	e2603000 	rsb	r3, r0, #0
   14f04:	e203301f 	and	r3, r3, #31
   14f08:	e1b03315 	lsls	r3, r5, r3
   14f0c:	e1a01002 	mov	r1, r2
   14f10:	e1a02035 	lsr	r2, r5, r0
   14f14:	01a05002 	moveq	r5, r2
   14f18:	13825001 	orrne	r5, r2, #1
   14f1c:	eaffffe5 	b	14eb8 <softfloat_addMagsF32+0xd0>
   14f20:	e3550000 	cmp	r5, #0
   14f24:	0affffcf 	beq	14e68 <softfloat_addMagsF32+0x80>
   14f28:	e1a01003 	mov	r1, r3
   14f2c:	ebfffe91 	bl	14978 <softfloat_propagateNaNF32UI>
   14f30:	e8bd4070 	pop	{r4, r5, r6, lr}
   14f34:	e12fff1e 	bx	lr
   14f38:	e35c0000 	cmp	ip, #0
   14f3c:	1afffff9 	bne	14f28 <softfloat_addMagsF32+0x140>
   14f40:	e1a00f8e 	lsl	r0, lr, #31
   14f44:	e280047f 	add	r0, r0, #2130706432	; 0x7f000000
   14f48:	e2800502 	add	r0, r0, #8388608	; 0x800000
   14f4c:	eaffffc5 	b	14e68 <softfloat_addMagsF32+0x80>
   14f50:	e1802003 	orr	r2, r0, r3
   14f54:	e112000e 	tst	r2, lr
   14f58:	1afffff2 	bne	14f28 <softfloat_addMagsF32+0x140>
   14f5c:	eaffffc1 	b	14e68 <softfloat_addMagsF32+0x80>
   14f60:	e252c000 	subs	ip, r2, #0
   14f64:	13a0c001 	movne	ip, #1
   14f68:	e085200c 	add	r2, r5, ip
   14f6c:	e2822202 	add	r2, r2, #536870912	; 0x20000000
   14f70:	e2411001 	sub	r1, r1, #1
   14f74:	e1a02082 	lsl	r2, r2, #1
   14f78:	eaffffd4 	b	14ed0 <softfloat_addMagsF32+0xe8>
   14f7c:	e2555000 	subs	r5, r5, #0
   14f80:	13a05001 	movne	r5, #1
   14f84:	e1a01002 	mov	r1, r2
   14f88:	eafffff6 	b	14f68 <softfloat_addMagsF32+0x180>
   14f8c:	007fffff 	ldrshteq	pc, [pc], #-255	; <UNPREDICTABLE>

00014f90 <softfloat_subMagsF32>:
   14f90:	e92d4070 	push	{r4, r5, r6, lr}
   14f94:	e1a03ba1 	lsr	r3, r1, #23
   14f98:	e1a05ba0 	lsr	r5, r0, #23
   14f9c:	e20550ff 	and	r5, r5, #255	; 0xff
   14fa0:	e20330ff 	and	r3, r3, #255	; 0xff
   14fa4:	e59fc170 	ldr	ip, [pc, #368]	; 1511c <softfloat_subMagsF32+0x18c>
   14fa8:	e045e003 	sub	lr, r5, r3
   14fac:	e35e0000 	cmp	lr, #0
   14fb0:	e000200c 	and	r2, r0, ip
   14fb4:	e001600c 	and	r6, r1, ip
   14fb8:	1a000015 	bne	15014 <softfloat_subMagsF32+0x84>
   14fbc:	e35500ff 	cmp	r5, #255	; 0xff
   14fc0:	0a000035 	beq	1509c <softfloat_subMagsF32+0x10c>
   14fc4:	e0526006 	subs	r6, r2, r6
   14fc8:	0a000039 	beq	150b4 <softfloat_subMagsF32+0x124>
   14fcc:	e3550000 	cmp	r5, #0
   14fd0:	12455001 	subne	r5, r5, #1
   14fd4:	e3560000 	cmp	r6, #0
   14fd8:	a1a04fa0 	lsrge	r4, r0, #31
   14fdc:	b1e04000 	mvnlt	r4, r0
   14fe0:	b2666000 	rsblt	r6, r6, #0
   14fe4:	b1a04fa4 	lsrlt	r4, r4, #31
   14fe8:	e1a00006 	mov	r0, r6
   14fec:	ebfff699 	bl	12a58 <__clzsi2>
   14ff0:	e2400008 	sub	r0, r0, #8
   14ff4:	e0553000 	subs	r3, r5, r0
   14ff8:	51a05000 	movpl	r5, r0
   14ffc:	51a00b83 	lslpl	r0, r3, #23
   15000:	43a00000 	movmi	r0, #0
   15004:	e0800f84 	add	r0, r0, r4, lsl #31
   15008:	e0800516 	add	r0, r0, r6, lsl r5
   1500c:	e8bd4070 	pop	{r4, r5, r6, lr}
   15010:	e12fff1e 	bx	lr
   15014:	e1a02382 	lsl	r2, r2, #7
   15018:	e1a06386 	lsl	r6, r6, #7
   1501c:	ba000014 	blt	15074 <softfloat_subMagsF32+0xe4>
   15020:	e35500ff 	cmp	r5, #255	; 0xff
   15024:	0a000029 	beq	150d0 <softfloat_subMagsF32+0x140>
   15028:	e3530000 	cmp	r3, #0
   1502c:	e3824101 	orr	r4, r2, #1073741824	; 0x40000000
   15030:	01a02006 	moveq	r2, r6
   15034:	13a02101 	movne	r2, #1073741824	; 0x40000000
   15038:	e35e001e 	cmp	lr, #30
   1503c:	e2451001 	sub	r1, r5, #1
   15040:	e1a0cfa0 	lsr	ip, r0, #31
   15044:	e0826006 	add	r6, r2, r6
   15048:	8a00002c 	bhi	15100 <softfloat_subMagsF32+0x170>
   1504c:	e26e3000 	rsb	r3, lr, #0
   15050:	e203301f 	and	r3, r3, #31
   15054:	e1b03316 	lsls	r3, r6, r3
   15058:	e1a06e36 	lsr	r6, r6, lr
   1505c:	13866001 	orrne	r6, r6, #1
   15060:	e0442006 	sub	r2, r4, r6
   15064:	e1a0000c 	mov	r0, ip
   15068:	ebffff3c 	bl	14d60 <softfloat_normRoundPackToF32>
   1506c:	e8bd4070 	pop	{r4, r5, r6, lr}
   15070:	e12fff1e 	bx	lr
   15074:	e1e0c000 	mvn	ip, r0
   15078:	e35300ff 	cmp	r3, #255	; 0xff
   1507c:	e1a0cfac 	lsr	ip, ip, #31
   15080:	1a000015 	bne	150dc <softfloat_subMagsF32+0x14c>
   15084:	e3560000 	cmp	r6, #0
   15088:	1a000006 	bne	150a8 <softfloat_subMagsF32+0x118>
   1508c:	e1a00f8c 	lsl	r0, ip, #31
   15090:	e280047f 	add	r0, r0, #2130706432	; 0x7f000000
   15094:	e2800502 	add	r0, r0, #8388608	; 0x800000
   15098:	ea000003 	b	150ac <softfloat_subMagsF32+0x11c>
   1509c:	e1803001 	orr	r3, r0, r1
   150a0:	e113000c 	tst	r3, ip
   150a4:	0a000018 	beq	1510c <softfloat_subMagsF32+0x17c>
   150a8:	ebfffe32 	bl	14978 <softfloat_propagateNaNF32UI>
   150ac:	e8bd4070 	pop	{r4, r5, r6, lr}
   150b0:	e12fff1e 	bx	lr
   150b4:	e59f3064 	ldr	r3, [pc, #100]	; 15120 <softfloat_subMagsF32+0x190>
   150b8:	e5933000 	ldr	r3, [r3]
   150bc:	e3530002 	cmp	r3, #2
   150c0:	03a00102 	moveq	r0, #-2147483648	; 0x80000000
   150c4:	13a00000 	movne	r0, #0
   150c8:	e8bd4070 	pop	{r4, r5, r6, lr}
   150cc:	e12fff1e 	bx	lr
   150d0:	e3520000 	cmp	r2, #0
   150d4:	1afffff3 	bne	150a8 <softfloat_subMagsF32+0x118>
   150d8:	eafffff3 	b	150ac <softfloat_subMagsF32+0x11c>
   150dc:	e3550000 	cmp	r5, #0
   150e0:	e3864101 	orr	r4, r6, #1073741824	; 0x40000000
   150e4:	01a06002 	moveq	r6, r2
   150e8:	13a06101 	movne	r6, #1073741824	; 0x40000000
   150ec:	e043e005 	sub	lr, r3, r5
   150f0:	e35e001e 	cmp	lr, #30
   150f4:	e2431001 	sub	r1, r3, #1
   150f8:	e0866002 	add	r6, r6, r2
   150fc:	9affffd2 	bls	1504c <softfloat_subMagsF32+0xbc>
   15100:	e2566000 	subs	r6, r6, #0
   15104:	13a06001 	movne	r6, #1
   15108:	eaffffd4 	b	15060 <softfloat_subMagsF32+0xd0>
   1510c:	e3a00010 	mov	r0, #16
   15110:	ebfffded 	bl	148cc <softfloat_raiseFlags>
   15114:	e59f0008 	ldr	r0, [pc, #8]	; 15124 <softfloat_subMagsF32+0x194>
   15118:	eaffffe3 	b	150ac <softfloat_subMagsF32+0x11c>
   1511c:	007fffff 	ldrshteq	pc, [pc], #-255	; <UNPREDICTABLE>
   15120:	00028bec 	andeq	r8, r2, ip, ror #23
   15124:	7fc00000 	svcvc	0x00c00000

00015128 <softfloat_normSubnormalF64Sig>:
   15128:	e92d4070 	push	{r4, r5, r6, lr}
   1512c:	e1a04003 	mov	r4, r3
   15130:	e1923004 	orrs	r3, r2, r4
   15134:	e1a05002 	mov	r5, r2
   15138:	e1a06000 	mov	r6, r0
   1513c:	0a000010 	beq	15184 <softfloat_normSubnormalF64Sig+0x5c>
   15140:	e1a00002 	mov	r0, r2
   15144:	e1a01004 	mov	r1, r4
   15148:	ebfff652 	bl	12a98 <__clzdi2>
   1514c:	e240200b 	sub	r2, r0, #11
   15150:	e260000c 	rsb	r0, r0, #12
   15154:	e1a03214 	lsl	r3, r4, r2
   15158:	e2421020 	sub	r1, r2, #32
   1515c:	e1833115 	orr	r3, r3, r5, lsl r1
   15160:	e1a01215 	lsl	r1, r5, r2
   15164:	e2622020 	rsb	r2, r2, #32
   15168:	e1833235 	orr	r3, r3, r5, lsr r2
   1516c:	e5860000 	str	r0, [r6]
   15170:	e5861008 	str	r1, [r6, #8]
   15174:	e1a00006 	mov	r0, r6
   15178:	e586300c 	str	r3, [r6, #12]
   1517c:	e8bd4070 	pop	{r4, r5, r6, lr}
   15180:	e12fff1e 	bx	lr
   15184:	e3a02035 	mov	r2, #53	; 0x35
   15188:	e3e00033 	mvn	r0, #51	; 0x33
   1518c:	eafffff0 	b	15154 <softfloat_normSubnormalF64Sig+0x2c>

00015190 <softfloat_roundPackToF64>:
   15190:	e92d4ff8 	push	{r3, r4, r5, r6, r7, r8, r9, sl, fp, lr}
   15194:	e59f3220 	ldr	r3, [pc, #544]	; 153bc <softfloat_roundPackToF64+0x22c>
   15198:	e5938000 	ldr	r8, [r3]
   1519c:	e28dc028 	add	ip, sp, #40	; 0x28
   151a0:	e3d83004 	bics	r3, r8, #4
   151a4:	e1a05000 	mov	r5, r0
   151a8:	e1a06001 	mov	r6, r1
   151ac:	03a07c02 	moveq	r7, #512	; 0x200
   151b0:	e89c5000 	ldm	ip, {ip, lr}
   151b4:	0a000006 	beq	151d4 <softfloat_roundPackToF64+0x44>
   151b8:	e3510000 	cmp	r1, #0
   151bc:	13a01002 	movne	r1, #2
   151c0:	03a01003 	moveq	r1, #3
   151c4:	e59f31f4 	ldr	r3, [pc, #500]	; 153c0 <softfloat_roundPackToF64+0x230>
   151c8:	e1510008 	cmp	r1, r8
   151cc:	01a07003 	moveq	r7, r3
   151d0:	13a07000 	movne	r7, #0
   151d4:	e59f11e8 	ldr	r1, [pc, #488]	; 153c4 <softfloat_roundPackToF64+0x234>
   151d8:	e1a03802 	lsl	r3, r2, #16
   151dc:	e1a03823 	lsr	r3, r3, #16
   151e0:	e1a09b0c 	lsl	r9, ip, #22
   151e4:	e1530001 	cmp	r3, r1
   151e8:	e1a09b29 	lsr	r9, r9, #22
   151ec:	9a000015 	bls	15248 <softfloat_roundPackToF64+0xb8>
   151f0:	e3520000 	cmp	r2, #0
   151f4:	ba00003a 	blt	152e4 <softfloat_roundPackToF64+0x154>
   151f8:	e59f31c8 	ldr	r3, [pc, #456]	; 153c8 <softfloat_roundPackToF64+0x238>
   151fc:	e1520003 	cmp	r2, r3
   15200:	1a000003 	bne	15214 <softfloat_roundPackToF64+0x84>
   15204:	e097300c 	adds	r3, r7, ip
   15208:	e2ae1000 	adc	r1, lr, #0
   1520c:	e3510000 	cmp	r1, #0
   15210:	aa00000e 	bge	15250 <softfloat_roundPackToF64+0xc0>
   15214:	e3a00005 	mov	r0, #5
   15218:	ebfffdab 	bl	148cc <softfloat_raiseFlags>
   1521c:	e59fc1a8 	ldr	ip, [pc, #424]	; 153cc <softfloat_roundPackToF64+0x23c>
   15220:	e3570000 	cmp	r7, #0
   15224:	e08ccf86 	add	ip, ip, r6, lsl #31
   15228:	13a03000 	movne	r3, #0
   1522c:	03e03000 	mvneq	r3, #0
   15230:	e3570000 	cmp	r7, #0
   15234:	024cc001 	subeq	ip, ip, #1
   15238:	e1a00005 	mov	r0, r5
   1523c:	e8851008 	stm	r5, {r3, ip}
   15240:	e8bd4ff8 	pop	{r3, r4, r5, r6, r7, r8, r9, sl, fp, lr}
   15244:	e12fff1e 	bx	lr
   15248:	e097300c 	adds	r3, r7, ip
   1524c:	e2ae1000 	adc	r1, lr, #0
   15250:	e1a03523 	lsr	r3, r3, #10
   15254:	e3590000 	cmp	r9, #0
   15258:	e1833b01 	orr	r3, r3, r1, lsl #22
   1525c:	e1a0c521 	lsr	ip, r1, #10
   15260:	1a000013 	bne	152b4 <softfloat_roundPackToF64+0x124>
   15264:	e193100c 	orrs	r1, r3, ip
   15268:	13a01000 	movne	r1, #0
   1526c:	01a01003 	moveq	r1, r3
   15270:	01a0200c 	moveq	r2, ip
   15274:	11a02a02 	lslne	r2, r2, #20
   15278:	e0933001 	adds	r3, r3, r1
   1527c:	e0acc002 	adc	ip, ip, r2
   15280:	e08ccf86 	add	ip, ip, r6, lsl #31
   15284:	e1a00005 	mov	r0, r5
   15288:	e8851008 	stm	r5, {r3, ip}
   1528c:	e8bd4ff8 	pop	{r3, r4, r5, r6, r7, r8, r9, sl, fp, lr}
   15290:	e12fff1e 	bx	lr
   15294:	e3a00002 	mov	r0, #2
   15298:	ebfffd8b 	bl	148cc <softfloat_raiseFlags>
   1529c:	e3a02000 	mov	r2, #0
   152a0:	e0943007 	adds	r3, r4, r7
   152a4:	e0ab100a 	adc	r1, fp, sl
   152a8:	e1a03523 	lsr	r3, r3, #10
   152ac:	e1833b01 	orr	r3, r3, r1, lsl #22
   152b0:	e1a0c521 	lsr	ip, r1, #10
   152b4:	e59f0114 	ldr	r0, [pc, #276]	; 153d0 <softfloat_roundPackToF64+0x240>
   152b8:	e5901000 	ldr	r1, [r0]
   152bc:	e3580006 	cmp	r8, #6
   152c0:	e3811001 	orr	r1, r1, #1
   152c4:	e5801000 	str	r1, [r0]
   152c8:	0a00001e 	beq	15348 <softfloat_roundPackToF64+0x1b8>
   152cc:	e3580000 	cmp	r8, #0
   152d0:	03590c02 	cmpeq	r9, #512	; 0x200
   152d4:	03a08001 	moveq	r8, #1
   152d8:	13a08000 	movne	r8, #0
   152dc:	e1c33008 	bic	r3, r3, r8
   152e0:	eaffffdf 	b	15264 <softfloat_roundPackToF64+0xd4>
   152e4:	e2920001 	adds	r0, r2, #1
   152e8:	13a00001 	movne	r0, #1
   152ec:	e59f30e0 	ldr	r3, [pc, #224]	; 153d4 <softfloat_roundPackToF64+0x244>
   152f0:	e5933000 	ldr	r3, [r3]
   152f4:	e3530000 	cmp	r3, #0
   152f8:	03800001 	orreq	r0, r0, #1
   152fc:	e3500000 	cmp	r0, #0
   15300:	0a000026 	beq	153a0 <softfloat_roundPackToF64+0x210>
   15304:	e372003e 	cmn	r2, #62	; 0x3e
   15308:	aa000012 	bge	15358 <softfloat_roundPackToF64+0x1c8>
   1530c:	e3a0b000 	mov	fp, #0
   15310:	e19c300e 	orrs	r3, ip, lr
   15314:	13a04001 	movne	r4, #1
   15318:	01a0400b 	moveq	r4, fp
   1531c:	e1a0a00b 	mov	sl, fp
   15320:	e1a09b04 	lsl	r9, r4, #22
   15324:	e1a09b29 	lsr	r9, r9, #22
   15328:	e3590000 	cmp	r9, #0
   1532c:	03a02000 	moveq	r2, #0
   15330:	12002001 	andne	r2, r0, #1
   15334:	e3520000 	cmp	r2, #0
   15338:	1affffd5 	bne	15294 <softfloat_roundPackToF64+0x104>
   1533c:	e0943007 	adds	r3, r4, r7
   15340:	e0ab100a 	adc	r1, fp, sl
   15344:	eaffffc1 	b	15250 <softfloat_roundPackToF64+0xc0>
   15348:	e3a01000 	mov	r1, #0
   1534c:	e3833001 	orr	r3, r3, #1
   15350:	e1a02a02 	lsl	r2, r2, #20
   15354:	eaffffc7 	b	15278 <softfloat_roundPackToF64+0xe8>
   15358:	e3a0a000 	mov	sl, #0
   1535c:	e2621000 	rsb	r1, r2, #0
   15360:	e202203f 	and	r2, r2, #63	; 0x3f
   15364:	e2424020 	sub	r4, r2, #32
   15368:	e1a0321e 	lsl	r3, lr, r2
   1536c:	e183341c 	orr	r3, r3, ip, lsl r4
   15370:	e2624020 	rsb	r4, r2, #32
   15374:	e183343c 	orr	r3, r3, ip, lsr r4
   15378:	e193321c 	orrs	r3, r3, ip, lsl r2
   1537c:	e2612020 	rsb	r2, r1, #32
   15380:	e1a0313c 	lsr	r3, ip, r1
   15384:	e183321e 	orr	r3, r3, lr, lsl r2
   15388:	e2412020 	sub	r2, r1, #32
   1538c:	e183323e 	orr	r3, r3, lr, lsr r2
   15390:	01a04003 	moveq	r4, r3
   15394:	e1a0b13e 	lsr	fp, lr, r1
   15398:	13834001 	orrne	r4, r3, #1
   1539c:	eaffffdf 	b	15320 <softfloat_roundPackToF64+0x190>
   153a0:	e097300c 	adds	r3, r7, ip
   153a4:	e1a0a000 	mov	sl, r0
   153a8:	e2ae0000 	adc	r0, lr, #0
   153ac:	e1e00000 	mvn	r0, r0
   153b0:	e3a01001 	mov	r1, #1
   153b4:	e1a00fa0 	lsr	r0, r0, #31
   153b8:	eaffffe8 	b	15360 <softfloat_roundPackToF64+0x1d0>
   153bc:	00028bec 	andeq	r8, r2, ip, ror #23
   153c0:	000003ff 	strdeq	r0, [r0], -pc	; <UNPREDICTABLE>
   153c4:	000007fc 	strdeq	r0, [r0], -ip
   153c8:	000007fd 	strdeq	r0, [r0], -sp
   153cc:	7ff00000 	svcvc	0x00f00000	; IMB
   153d0:	00028be4 	andeq	r8, r2, r4, ror #23
   153d4:	00028be8 	andeq	r8, r2, r8, ror #23

000153d8 <softfloat_normRoundPackToF64>:
   153d8:	e92d41f0 	push	{r4, r5, r6, r7, r8, lr}
   153dc:	e24dd008 	sub	sp, sp, #8
   153e0:	e59d8020 	ldr	r8, [sp, #32]
   153e4:	e59d4024 	ldr	r4, [sp, #36]	; 0x24
   153e8:	e1983004 	orrs	r3, r8, r4
   153ec:	e1a06000 	mov	r6, r0
   153f0:	e1a05001 	mov	r5, r1
   153f4:	e1a07002 	mov	r7, r2
   153f8:	0a00002d 	beq	154b4 <softfloat_normRoundPackToF64+0xdc>
   153fc:	e1a01004 	mov	r1, r4
   15400:	e1a00008 	mov	r0, r8
   15404:	ebfff5a3 	bl	12a98 <__clzdi2>
   15408:	e59fc0c8 	ldr	ip, [pc, #200]	; 154d8 <softfloat_normRoundPackToF64+0x100>
   1540c:	e2403001 	sub	r3, r0, #1
   15410:	e3530009 	cmp	r3, #9
   15414:	e0472003 	sub	r2, r7, r3
   15418:	d3a01000 	movle	r1, #0
   1541c:	c3a01001 	movgt	r1, #1
   15420:	e152000c 	cmp	r2, ip
   15424:	83a01000 	movhi	r1, #0
   15428:	e3510000 	cmp	r1, #0
   1542c:	0a000011 	beq	15478 <softfloat_normRoundPackToF64+0xa0>
   15430:	e3a01000 	mov	r1, #0
   15434:	e1a05f85 	lsl	r5, r5, #31
   15438:	e0852a02 	add	r2, r5, r2, lsl #20
   1543c:	e240300b 	sub	r3, r0, #11
   15440:	e2430020 	sub	r0, r3, #32
   15444:	e1a04314 	lsl	r4, r4, r3
   15448:	e1844018 	orr	r4, r4, r8, lsl r0
   1544c:	e2630020 	rsb	r0, r3, #32
   15450:	e1844038 	orr	r4, r4, r8, lsr r0
   15454:	e1a00006 	mov	r0, r6
   15458:	e1a03318 	lsl	r3, r8, r3
   1545c:	e0933001 	adds	r3, r3, r1
   15460:	e0a22004 	adc	r2, r2, r4
   15464:	e5863000 	str	r3, [r6]
   15468:	e5862004 	str	r2, [r6, #4]
   1546c:	e28dd008 	add	sp, sp, #8
   15470:	e8bd41f0 	pop	{r4, r5, r6, r7, r8, lr}
   15474:	e12fff1e 	bx	lr
   15478:	e2430020 	sub	r0, r3, #32
   1547c:	e1a04314 	lsl	r4, r4, r3
   15480:	e1844018 	orr	r4, r4, r8, lsl r0
   15484:	e2630020 	rsb	r0, r3, #32
   15488:	e1844038 	orr	r4, r4, r8, lsr r0
   1548c:	e1a03318 	lsl	r3, r8, r3
   15490:	e1a00006 	mov	r0, r6
   15494:	e1a01005 	mov	r1, r5
   15498:	e58d3000 	str	r3, [sp]
   1549c:	e58d4004 	str	r4, [sp, #4]
   154a0:	ebffff3a 	bl	15190 <softfloat_roundPackToF64>
   154a4:	e1a00006 	mov	r0, r6
   154a8:	e28dd008 	add	sp, sp, #8
   154ac:	e8bd41f0 	pop	{r4, r5, r6, r7, r8, lr}
   154b0:	e12fff1e 	bx	lr
   154b4:	e59f301c 	ldr	r3, [pc, #28]	; 154d8 <softfloat_normRoundPackToF64+0x100>
   154b8:	e242203f 	sub	r2, r2, #63	; 0x3f
   154bc:	e1520003 	cmp	r2, r3
   154c0:	83a0303f 	movhi	r3, #63	; 0x3f
   154c4:	8affffeb 	bhi	15478 <softfloat_normRoundPackToF64+0xa0>
   154c8:	e3a01000 	mov	r1, #0
   154cc:	e3a03035 	mov	r3, #53	; 0x35
   154d0:	e1a02f85 	lsl	r2, r5, #31
   154d4:	eaffffd9 	b	15440 <softfloat_normRoundPackToF64+0x68>
   154d8:	000007fc 	strdeq	r0, [r0], -ip

000154dc <softfloat_addMagsF64>:
   154dc:	e92d4ff0 	push	{r4, r5, r6, r7, r8, r9, sl, fp, lr}
   154e0:	e24dd014 	sub	sp, sp, #20
   154e4:	e59d803c 	ldr	r8, [sp, #60]	; 0x3c
   154e8:	e59f6270 	ldr	r6, [pc, #624]	; 15760 <softfloat_addMagsF64+0x284>
   154ec:	e1a04000 	mov	r4, r0
   154f0:	e006ba28 	and	fp, r6, r8, lsr #20
   154f4:	e1a00002 	mov	r0, r2
   154f8:	e0062a23 	and	r2, r6, r3, lsr #20
   154fc:	e5dd1040 	ldrb	r1, [sp, #64]	; 0x40
   15500:	e042a00b 	sub	sl, r2, fp
   15504:	e3c854ff 	bic	r5, r8, #-16777216	; 0xff000000
   15508:	e3c374ff 	bic	r7, r3, #-16777216	; 0xff000000
   1550c:	e35a0000 	cmp	sl, #0
   15510:	e59de038 	ldr	lr, [sp, #56]	; 0x38
   15514:	e58d1008 	str	r1, [sp, #8]
   15518:	e3c5560f 	bic	r5, r5, #15728640	; 0xf00000
   1551c:	e3c7760f 	bic	r7, r7, #15728640	; 0xf00000
   15520:	1a000012 	bne	15570 <softfloat_addMagsF64+0x94>
   15524:	e3520000 	cmp	r2, #0
   15528:	0a000059 	beq	15694 <softfloat_addMagsF64+0x1b8>
   1552c:	e1520006 	cmp	r2, r6
   15530:	0a00006f 	beq	156f4 <softfloat_addMagsF64+0x218>
   15534:	e09e0000 	adds	r0, lr, r0
   15538:	e285c602 	add	ip, r5, #2097152	; 0x200000
   1553c:	e0a7c00c 	adc	ip, r7, ip
   15540:	e1a0c48c 	lsl	ip, ip, #9
   15544:	e18ccba0 	orr	ip, ip, r0, lsr #23
   15548:	e1a00480 	lsl	r0, r0, #9
   1554c:	e58d0000 	str	r0, [sp]
   15550:	e59d1008 	ldr	r1, [sp, #8]
   15554:	e1a00004 	mov	r0, r4
   15558:	e58dc004 	str	ip, [sp, #4]
   1555c:	ebffff0b 	bl	15190 <softfloat_roundPackToF64>
   15560:	e1a00004 	mov	r0, r4
   15564:	e28dd014 	add	sp, sp, #20
   15568:	e8bd4ff0 	pop	{r4, r5, r6, r7, r8, r9, sl, fp, lr}
   1556c:	e12fff1e 	bx	lr
   15570:	e1a01480 	lsl	r1, r0, #9
   15574:	e1a0c487 	lsl	ip, r7, #9
   15578:	e1a09485 	lsl	r9, r5, #9
   1557c:	e58d100c 	str	r1, [sp, #12]
   15580:	e18ccba0 	orr	ip, ip, r0, lsr #23
   15584:	e1899bae 	orr	r9, r9, lr, lsr #23
   15588:	e1a0148e 	lsl	r1, lr, #9
   1558c:	ba000023 	blt	15620 <softfloat_addMagsF64+0x144>
   15590:	e1520006 	cmp	r2, r6
   15594:	0a000045 	beq	156b0 <softfloat_addMagsF64+0x1d4>
   15598:	e35b0000 	cmp	fp, #0
   1559c:	01a09505 	lsleq	r9, r5, #10
   155a0:	01899b2e 	orreq	r9, r9, lr, lsr #22
   155a4:	11a0e001 	movne	lr, r1
   155a8:	12899202 	addne	r9, r9, #536870912	; 0x20000000
   155ac:	01a0e50e 	lsleq	lr, lr, #10
   155b0:	e35a003e 	cmp	sl, #62	; 0x3e
   155b4:	ca000055 	bgt	15710 <softfloat_addMagsF64+0x234>
   155b8:	e26a3000 	rsb	r3, sl, #0
   155bc:	e203303f 	and	r3, r3, #63	; 0x3f
   155c0:	e2435020 	sub	r5, r3, #32
   155c4:	e1a00319 	lsl	r0, r9, r3
   155c8:	e180051e 	orr	r0, r0, lr, lsl r5
   155cc:	e2635020 	rsb	r5, r3, #32
   155d0:	e180053e 	orr	r0, r0, lr, lsr r5
   155d4:	e190331e 	orrs	r3, r0, lr, lsl r3
   155d8:	e26a3020 	rsb	r3, sl, #32
   155dc:	e1a0ea3e 	lsr	lr, lr, sl
   155e0:	e18ee319 	orr	lr, lr, r9, lsl r3
   155e4:	e24a3020 	sub	r3, sl, #32
   155e8:	e18ee339 	orr	lr, lr, r9, lsr r3
   155ec:	138ee001 	orrne	lr, lr, #1
   155f0:	e1a0100e 	mov	r1, lr
   155f4:	e1a09a39 	lsr	r9, r9, sl
   155f8:	e59d300c 	ldr	r3, [sp, #12]
   155fc:	e0930001 	adds	r0, r3, r1
   15600:	e0acc009 	adc	ip, ip, r9
   15604:	e28cc202 	add	ip, ip, #536870912	; 0x20000000
   15608:	e37c0107 	cmn	ip, #-1073741823	; 0xc0000001
   1560c:	8affffce 	bhi	1554c <softfloat_addMagsF64+0x70>
   15610:	e0900000 	adds	r0, r0, r0
   15614:	e0acc00c 	adc	ip, ip, ip
   15618:	e2422001 	sub	r2, r2, #1
   1561c:	eaffffca 	b	1554c <softfloat_addMagsF64+0x70>
   15620:	e15b0006 	cmp	fp, r6
   15624:	0a00002a 	beq	156d4 <softfloat_addMagsF64+0x1f8>
   15628:	e3520000 	cmp	r2, #0
   1562c:	01a0c507 	lsleq	ip, r7, #10
   15630:	e04be002 	sub	lr, fp, r2
   15634:	018ccb20 	orreq	ip, ip, r0, lsr #22
   15638:	159d000c 	ldrne	r0, [sp, #12]
   1563c:	128cc202 	addne	ip, ip, #536870912	; 0x20000000
   15640:	01a00500 	lsleq	r0, r0, #10
   15644:	e35e003e 	cmp	lr, #62	; 0x3e
   15648:	8a00003d 	bhi	15744 <softfloat_addMagsF64+0x268>
   1564c:	e26e3000 	rsb	r3, lr, #0
   15650:	e203303f 	and	r3, r3, #63	; 0x3f
   15654:	e2436020 	sub	r6, r3, #32
   15658:	e1a0531c 	lsl	r5, ip, r3
   1565c:	e1855610 	orr	r5, r5, r0, lsl r6
   15660:	e2636020 	rsb	r6, r3, #32
   15664:	e1855630 	orr	r5, r5, r0, lsr r6
   15668:	e1953310 	orrs	r3, r5, r0, lsl r3
   1566c:	e26e3020 	rsb	r3, lr, #32
   15670:	e1a00e30 	lsr	r0, r0, lr
   15674:	e180031c 	orr	r0, r0, ip, lsl r3
   15678:	e24e3020 	sub	r3, lr, #32
   1567c:	e180033c 	orr	r0, r0, ip, lsr r3
   15680:	13800001 	orrne	r0, r0, #1
   15684:	e1a0200b 	mov	r2, fp
   15688:	e58d000c 	str	r0, [sp, #12]
   1568c:	e1a0ce3c 	lsr	ip, ip, lr
   15690:	eaffffd8 	b	155f8 <softfloat_addMagsF64+0x11c>
   15694:	e090000e 	adds	r0, r0, lr
   15698:	e0a53003 	adc	r3, r5, r3
   1569c:	e8840009 	stm	r4, {r0, r3}
   156a0:	e1a00004 	mov	r0, r4
   156a4:	e28dd014 	add	sp, sp, #20
   156a8:	e8bd4ff0 	pop	{r4, r5, r6, r7, r8, r9, sl, fp, lr}
   156ac:	e12fff1e 	bx	lr
   156b0:	e1a02480 	lsl	r2, r0, #9
   156b4:	e192200c 	orrs	r2, r2, ip
   156b8:	0afffff7 	beq	1569c <softfloat_addMagsF64+0x1c0>
   156bc:	e1a01003 	mov	r1, r3
   156c0:	e1a0200e 	mov	r2, lr
   156c4:	e1a03008 	mov	r3, r8
   156c8:	ebfffcff 	bl	14acc <softfloat_propagateNaNF64UI>
   156cc:	e1a03001 	mov	r3, r1
   156d0:	eafffff1 	b	1569c <softfloat_addMagsF64+0x1c0>
   156d4:	e1a02001 	mov	r2, r1
   156d8:	e1922009 	orrs	r2, r2, r9
   156dc:	1afffff6 	bne	156bc <softfloat_addMagsF64+0x1e0>
   156e0:	e59f307c 	ldr	r3, [pc, #124]	; 15764 <softfloat_addMagsF64+0x288>
   156e4:	e59d2008 	ldr	r2, [sp, #8]
   156e8:	e3a00000 	mov	r0, #0
   156ec:	e0833f82 	add	r3, r3, r2, lsl #31
   156f0:	eaffffe9 	b	1569c <softfloat_addMagsF64+0x1c0>
   156f4:	e1832008 	orr	r2, r3, r8
   156f8:	e3c224ff 	bic	r2, r2, #-16777216	; 0xff000000
   156fc:	e3c2260f 	bic	r2, r2, #15728640	; 0xf00000
   15700:	e180100e 	orr	r1, r0, lr
   15704:	e1912002 	orrs	r2, r1, r2
   15708:	1affffeb 	bne	156bc <softfloat_addMagsF64+0x1e0>
   1570c:	eaffffe2 	b	1569c <softfloat_addMagsF64+0x1c0>
   15710:	e19e3009 	orrs	r3, lr, r9
   15714:	13a03001 	movne	r3, #1
   15718:	03a03000 	moveq	r3, #0
   1571c:	e3a09000 	mov	r9, #0
   15720:	e1a01003 	mov	r1, r3
   15724:	e59d300c 	ldr	r3, [sp, #12]
   15728:	e0930001 	adds	r0, r3, r1
   1572c:	e0acc009 	adc	ip, ip, r9
   15730:	e28cc202 	add	ip, ip, #536870912	; 0x20000000
   15734:	e0900000 	adds	r0, r0, r0
   15738:	e0acc00c 	adc	ip, ip, ip
   1573c:	e2422001 	sub	r2, r2, #1
   15740:	eaffff81 	b	1554c <softfloat_addMagsF64+0x70>
   15744:	e190300c 	orrs	r3, r0, ip
   15748:	13a03001 	movne	r3, #1
   1574c:	03a03000 	moveq	r3, #0
   15750:	e1a0200b 	mov	r2, fp
   15754:	e3a0c000 	mov	ip, #0
   15758:	e58d300c 	str	r3, [sp, #12]
   1575c:	eafffff0 	b	15724 <softfloat_addMagsF64+0x248>
   15760:	000007ff 	strdeq	r0, [r0], -pc	; <UNPREDICTABLE>
   15764:	7ff00000 	svcvc	0x00f00000	; IMB

00015768 <softfloat_subMagsF64>:
   15768:	e92d4ff0 	push	{r4, r5, r6, r7, r8, r9, sl, fp, lr}
   1576c:	e24dd00c 	sub	sp, sp, #12
   15770:	e59d8034 	ldr	r8, [sp, #52]	; 0x34
   15774:	e59fb2bc 	ldr	fp, [pc, #700]	; 15a38 <softfloat_subMagsF64+0x2d0>
   15778:	e00baa28 	and	sl, fp, r8, lsr #20
   1577c:	e00b5a23 	and	r5, fp, r3, lsr #20
   15780:	e045700a 	sub	r7, r5, sl
   15784:	e3c8e4ff 	bic	lr, r8, #-16777216	; 0xff000000
   15788:	e3c3c4ff 	bic	ip, r3, #-16777216	; 0xff000000
   1578c:	e3570000 	cmp	r7, #0
   15790:	e1a04000 	mov	r4, r0
   15794:	e1a01003 	mov	r1, r3
   15798:	e1a00002 	mov	r0, r2
   1579c:	e59d9030 	ldr	r9, [sp, #48]	; 0x30
   157a0:	e5dd6038 	ldrb	r6, [sp, #56]	; 0x38
   157a4:	e3cee60f 	bic	lr, lr, #15728640	; 0xf00000
   157a8:	e3ccc60f 	bic	ip, ip, #15728640	; 0xf00000
   157ac:	1a000022 	bne	1583c <softfloat_subMagsF64+0xd4>
   157b0:	e155000b 	cmp	r5, fp
   157b4:	0a00006f 	beq	15978 <softfloat_subMagsF64+0x210>
   157b8:	e0520009 	subs	r0, r2, r9
   157bc:	e0cc100e 	sbc	r1, ip, lr
   157c0:	e1903001 	orrs	r3, r0, r1
   157c4:	e1a09000 	mov	r9, r0
   157c8:	e1a08001 	mov	r8, r1
   157cc:	0a000077 	beq	159b0 <softfloat_subMagsF64+0x248>
   157d0:	e3550000 	cmp	r5, #0
   157d4:	12455001 	subne	r5, r5, #1
   157d8:	e3510000 	cmp	r1, #0
   157dc:	aa000005 	bge	157f8 <softfloat_subMagsF64+0x90>
   157e0:	e2703000 	rsbs	r3, r0, #0
   157e4:	e2e18000 	rsc	r8, r1, #0
   157e8:	e1a09003 	mov	r9, r3
   157ec:	e1a01008 	mov	r1, r8
   157f0:	e1a00003 	mov	r0, r3
   157f4:	e2266001 	eor	r6, r6, #1
   157f8:	ebfff4a6 	bl	12a98 <__clzdi2>
   157fc:	e240000b 	sub	r0, r0, #11
   15800:	e0551000 	subs	r1, r5, r0
   15804:	4a00007e 	bmi	15a04 <softfloat_subMagsF64+0x29c>
   15808:	e1a05000 	mov	r5, r0
   1580c:	e3a00000 	mov	r0, #0
   15810:	e1a01a01 	lsl	r1, r1, #20
   15814:	e0816f86 	add	r6, r1, r6, lsl #31
   15818:	e2453020 	sub	r3, r5, #32
   1581c:	e1a01518 	lsl	r1, r8, r5
   15820:	e1811319 	orr	r1, r1, r9, lsl r3
   15824:	e2653020 	rsb	r3, r5, #32
   15828:	e1811339 	orr	r1, r1, r9, lsr r3
   1582c:	e1a03519 	lsl	r3, r9, r5
   15830:	e0900003 	adds	r0, r0, r3
   15834:	e0a61001 	adc	r1, r6, r1
   15838:	ea000057 	b	1599c <softfloat_subMagsF64+0x234>
   1583c:	e1a0c50c 	lsl	ip, ip, #10
   15840:	e1a0e50e 	lsl	lr, lr, #10
   15844:	e18ccb22 	orr	ip, ip, r2, lsr #22
   15848:	e1a03502 	lsl	r3, r2, #10
   1584c:	e18eeb29 	orr	lr, lr, r9, lsr #22
   15850:	e1a02509 	lsl	r2, r9, #10
   15854:	ba000026 	blt	158f4 <softfloat_subMagsF64+0x18c>
   15858:	e155000b 	cmp	r5, fp
   1585c:	0a00005a 	beq	159cc <softfloat_subMagsF64+0x264>
   15860:	e35a0000 	cmp	sl, #0
   15864:	01a00002 	moveq	r0, r2
   15868:	13a00000 	movne	r0, #0
   1586c:	01a0100e 	moveq	r1, lr
   15870:	13a01101 	movne	r1, #1073741824	; 0x40000000
   15874:	e0902002 	adds	r2, r0, r2
   15878:	e0a1e00e 	adc	lr, r1, lr
   1587c:	e357003e 	cmp	r7, #62	; 0x3e
   15880:	ca00005a 	bgt	159f0 <softfloat_subMagsF64+0x288>
   15884:	e2671000 	rsb	r1, r7, #0
   15888:	e201103f 	and	r1, r1, #63	; 0x3f
   1588c:	e2418020 	sub	r8, r1, #32
   15890:	e1a0011e 	lsl	r0, lr, r1
   15894:	e1800812 	orr	r0, r0, r2, lsl r8
   15898:	e2618020 	rsb	r8, r1, #32
   1589c:	e1800832 	orr	r0, r0, r2, lsr r8
   158a0:	e1901112 	orrs	r1, r0, r2, lsl r1
   158a4:	e2671020 	rsb	r1, r7, #32
   158a8:	e1a02732 	lsr	r2, r2, r7
   158ac:	e182211e 	orr	r2, r2, lr, lsl r1
   158b0:	e2471020 	sub	r1, r7, #32
   158b4:	e182213e 	orr	r2, r2, lr, lsr r1
   158b8:	e1a0773e 	lsr	r7, lr, r7
   158bc:	13822001 	orrne	r2, r2, #1
   158c0:	e0533002 	subs	r3, r3, r2
   158c4:	e38cc101 	orr	ip, ip, #1073741824	; 0x40000000
   158c8:	e0ccc007 	sbc	ip, ip, r7
   158cc:	e1a00004 	mov	r0, r4
   158d0:	e1a01006 	mov	r1, r6
   158d4:	e58d3000 	str	r3, [sp]
   158d8:	e58dc004 	str	ip, [sp, #4]
   158dc:	e2452001 	sub	r2, r5, #1
   158e0:	ebfffebc 	bl	153d8 <softfloat_normRoundPackToF64>
   158e4:	e1a00004 	mov	r0, r4
   158e8:	e28dd00c 	add	sp, sp, #12
   158ec:	e8bd4ff0 	pop	{r4, r5, r6, r7, r8, r9, sl, fp, lr}
   158f0:	e12fff1e 	bx	lr
   158f4:	e15a000b 	cmp	sl, fp
   158f8:	e2266001 	eor	r6, r6, #1
   158fc:	0a000035 	beq	159d8 <softfloat_subMagsF64+0x270>
   15900:	e3550000 	cmp	r5, #0
   15904:	01a01003 	moveq	r1, r3
   15908:	13a01000 	movne	r1, #0
   1590c:	01a0000c 	moveq	r0, ip
   15910:	13a00101 	movne	r0, #1073741824	; 0x40000000
   15914:	e04a5005 	sub	r5, sl, r5
   15918:	e0913003 	adds	r3, r1, r3
   1591c:	e0a0c00c 	adc	ip, r0, ip
   15920:	e355003e 	cmp	r5, #62	; 0x3e
   15924:	8a00003e 	bhi	15a24 <softfloat_subMagsF64+0x2bc>
   15928:	e2651000 	rsb	r1, r5, #0
   1592c:	e201103f 	and	r1, r1, #63	; 0x3f
   15930:	e2417020 	sub	r7, r1, #32
   15934:	e1a0011c 	lsl	r0, ip, r1
   15938:	e1800713 	orr	r0, r0, r3, lsl r7
   1593c:	e2617020 	rsb	r7, r1, #32
   15940:	e1800733 	orr	r0, r0, r3, lsr r7
   15944:	e1901113 	orrs	r1, r0, r3, lsl r1
   15948:	e2651020 	rsb	r1, r5, #32
   1594c:	e1a03533 	lsr	r3, r3, r5
   15950:	e183311c 	orr	r3, r3, ip, lsl r1
   15954:	e2451020 	sub	r1, r5, #32
   15958:	e183313c 	orr	r3, r3, ip, lsr r1
   1595c:	13833001 	orrne	r3, r3, #1
   15960:	e1a0c53c 	lsr	ip, ip, r5
   15964:	e0523003 	subs	r3, r2, r3
   15968:	e38ee101 	orr	lr, lr, #1073741824	; 0x40000000
   1596c:	e1a0500a 	mov	r5, sl
   15970:	e0cec00c 	sbc	ip, lr, ip
   15974:	eaffffd4 	b	158cc <softfloat_subMagsF64+0x164>
   15978:	e1833008 	orr	r3, r3, r8
   1597c:	e3c334ff 	bic	r3, r3, #-16777216	; 0xff000000
   15980:	e3c3360f 	bic	r3, r3, #15728640	; 0xf00000
   15984:	e1822009 	orr	r2, r2, r9
   15988:	e1923003 	orrs	r3, r2, r3
   1598c:	0a00001f 	beq	15a10 <softfloat_subMagsF64+0x2a8>
   15990:	e1a02009 	mov	r2, r9
   15994:	e1a03008 	mov	r3, r8
   15998:	ebfffc4b 	bl	14acc <softfloat_propagateNaNF64UI>
   1599c:	e8840003 	stm	r4, {r0, r1}
   159a0:	e1a00004 	mov	r0, r4
   159a4:	e28dd00c 	add	sp, sp, #12
   159a8:	e8bd4ff0 	pop	{r4, r5, r6, r7, r8, r9, sl, fp, lr}
   159ac:	e12fff1e 	bx	lr
   159b0:	e59f3084 	ldr	r3, [pc, #132]	; 15a3c <softfloat_subMagsF64+0x2d4>
   159b4:	e5933000 	ldr	r3, [r3]
   159b8:	e3530002 	cmp	r3, #2
   159bc:	e1a00007 	mov	r0, r7
   159c0:	11a01007 	movne	r1, r7
   159c4:	03a01102 	moveq	r1, #-2147483648	; 0x80000000
   159c8:	eafffff3 	b	1599c <softfloat_subMagsF64+0x234>
   159cc:	e193300c 	orrs	r3, r3, ip
   159d0:	1affffee 	bne	15990 <softfloat_subMagsF64+0x228>
   159d4:	eafffff0 	b	1599c <softfloat_subMagsF64+0x234>
   159d8:	e192300e 	orrs	r3, r2, lr
   159dc:	1affffeb 	bne	15990 <softfloat_subMagsF64+0x228>
   159e0:	e59f1058 	ldr	r1, [pc, #88]	; 15a40 <softfloat_subMagsF64+0x2d8>
   159e4:	e3a00000 	mov	r0, #0
   159e8:	e0811f86 	add	r1, r1, r6, lsl #31
   159ec:	eaffffea 	b	1599c <softfloat_subMagsF64+0x234>
   159f0:	e192200e 	orrs	r2, r2, lr
   159f4:	13a02001 	movne	r2, #1
   159f8:	03a02000 	moveq	r2, #0
   159fc:	e3a07000 	mov	r7, #0
   15a00:	eaffffae 	b	158c0 <softfloat_subMagsF64+0x158>
   15a04:	e3a00000 	mov	r0, #0
   15a08:	e1a01000 	mov	r1, r0
   15a0c:	eaffff80 	b	15814 <softfloat_subMagsF64+0xac>
   15a10:	e3a00010 	mov	r0, #16
   15a14:	ebfffbac 	bl	148cc <softfloat_raiseFlags>
   15a18:	e1a00007 	mov	r0, r7
   15a1c:	e59f1020 	ldr	r1, [pc, #32]	; 15a44 <softfloat_subMagsF64+0x2dc>
   15a20:	eaffffdd 	b	1599c <softfloat_subMagsF64+0x234>
   15a24:	e193300c 	orrs	r3, r3, ip
   15a28:	13a03001 	movne	r3, #1
   15a2c:	03a03000 	moveq	r3, #0
   15a30:	e3a0c000 	mov	ip, #0
   15a34:	eaffffca 	b	15964 <softfloat_subMagsF64+0x1fc>
   15a38:	000007ff 	strdeq	r0, [r0], -pc	; <UNPREDICTABLE>
   15a3c:	00028bec 	andeq	r8, r2, ip, ror #23
   15a40:	7ff00000 	svcvc	0x00f00000	; IMB
   15a44:	7ff80000 	svcvc	0x00f80000

00015a48 <memcpy>:
   15a48:	e352000f 	cmp	r2, #15
   15a4c:	9a000036 	bls	15b2c <memcpy+0xe4>
   15a50:	e1803001 	orr	r3, r0, r1
   15a54:	e3130003 	tst	r3, #3
   15a58:	1a00003f 	bne	15b5c <memcpy+0x114>
   15a5c:	e242c010 	sub	ip, r2, #16
   15a60:	e92d40f0 	push	{r4, r5, r6, r7, lr}
   15a64:	e2814020 	add	r4, r1, #32
   15a68:	e3cce00f 	bic	lr, ip, #15
   15a6c:	e2813010 	add	r3, r1, #16
   15a70:	e2806010 	add	r6, r0, #16
   15a74:	e084400e 	add	r4, r4, lr
   15a78:	e1a0522c 	lsr	r5, ip, #4
   15a7c:	e513e00c 	ldr	lr, [r3, #-12]
   15a80:	e513c008 	ldr	ip, [r3, #-8]
   15a84:	e5137010 	ldr	r7, [r3, #-16]
   15a88:	e506e00c 	str	lr, [r6, #-12]
   15a8c:	e2833010 	add	r3, r3, #16
   15a90:	e513e014 	ldr	lr, [r3, #-20]	; 0xffffffec
   15a94:	e1530004 	cmp	r3, r4
   15a98:	e9065000 	stmdb	r6, {ip, lr}
   15a9c:	e5067010 	str	r7, [r6, #-16]
   15aa0:	e2866010 	add	r6, r6, #16
   15aa4:	1afffff4 	bne	15a7c <memcpy+0x34>
   15aa8:	e285c001 	add	ip, r5, #1
   15aac:	e312000c 	tst	r2, #12
   15ab0:	e202300f 	and	r3, r2, #15
   15ab4:	e081120c 	add	r1, r1, ip, lsl #4
   15ab8:	01a02003 	moveq	r2, r3
   15abc:	e080c20c 	add	ip, r0, ip, lsl #4
   15ac0:	0a00000d 	beq	15afc <memcpy+0xb4>
   15ac4:	e1a04001 	mov	r4, r1
   15ac8:	e2433004 	sub	r3, r3, #4
   15acc:	e3c36003 	bic	r6, r3, #3
   15ad0:	e1a0e123 	lsr	lr, r3, #2
   15ad4:	e08c6006 	add	r6, ip, r6
   15ad8:	e24c3004 	sub	r3, ip, #4
   15adc:	e4945004 	ldr	r5, [r4], #4
   15ae0:	e5a35004 	str	r5, [r3, #4]!
   15ae4:	e1530006 	cmp	r3, r6
   15ae8:	1afffffb 	bne	15adc <memcpy+0x94>
   15aec:	e28e3001 	add	r3, lr, #1
   15af0:	e2022003 	and	r2, r2, #3
   15af4:	e08cc103 	add	ip, ip, r3, lsl #2
   15af8:	e0811103 	add	r1, r1, r3, lsl #2
   15afc:	e3520000 	cmp	r2, #0
   15b00:	e2423001 	sub	r3, r2, #1
   15b04:	12833001 	addne	r3, r3, #1
   15b08:	124c2001 	subne	r2, ip, #1
   15b0c:	10813003 	addne	r3, r1, r3
   15b10:	0a000003 	beq	15b24 <memcpy+0xdc>
   15b14:	e4d1c001 	ldrb	ip, [r1], #1
   15b18:	e1510003 	cmp	r1, r3
   15b1c:	e5e2c001 	strb	ip, [r2, #1]!
   15b20:	1afffffb 	bne	15b14 <memcpy+0xcc>
   15b24:	e8bd40f0 	pop	{r4, r5, r6, r7, lr}
   15b28:	e12fff1e 	bx	lr
   15b2c:	e3520000 	cmp	r2, #0
   15b30:	e1a0c000 	mov	ip, r0
   15b34:	e2423001 	sub	r3, r2, #1
   15b38:	012fff1e 	bxeq	lr
   15b3c:	e2833001 	add	r3, r3, #1
   15b40:	e24c2001 	sub	r2, ip, #1
   15b44:	e0813003 	add	r3, r1, r3
   15b48:	e4d1c001 	ldrb	ip, [r1], #1
   15b4c:	e1510003 	cmp	r1, r3
   15b50:	e5e2c001 	strb	ip, [r2, #1]!
   15b54:	1afffffb 	bne	15b48 <memcpy+0x100>
   15b58:	e12fff1e 	bx	lr
   15b5c:	e1a0c000 	mov	ip, r0
   15b60:	e2423001 	sub	r3, r2, #1
   15b64:	eafffff4 	b	15b3c <memcpy+0xf4>

00015b68 <memmove>:
   15b68:	e1500001 	cmp	r0, r1
   15b6c:	9a00000a 	bls	15b9c <memmove+0x34>
   15b70:	e0813002 	add	r3, r1, r2
   15b74:	e1530000 	cmp	r3, r0
   15b78:	9a000007 	bls	15b9c <memmove+0x34>
   15b7c:	e3520000 	cmp	r2, #0
   15b80:	e0802002 	add	r2, r0, r2
   15b84:	012fff1e 	bxeq	lr
   15b88:	e573c001 	ldrb	ip, [r3, #-1]!
   15b8c:	e1510003 	cmp	r1, r3
   15b90:	e562c001 	strb	ip, [r2, #-1]!
   15b94:	1afffffb 	bne	15b88 <memmove+0x20>
   15b98:	e12fff1e 	bx	lr
   15b9c:	e352000f 	cmp	r2, #15
   15ba0:	8a00000b 	bhi	15bd4 <memmove+0x6c>
   15ba4:	e3520000 	cmp	r2, #0
   15ba8:	e1a0c000 	mov	ip, r0
   15bac:	e2422001 	sub	r2, r2, #1
   15bb0:	012fff1e 	bxeq	lr
   15bb4:	e2822001 	add	r2, r2, #1
   15bb8:	e24cc001 	sub	ip, ip, #1
   15bbc:	e0813002 	add	r3, r1, r2
   15bc0:	e4d12001 	ldrb	r2, [r1], #1
   15bc4:	e1510003 	cmp	r1, r3
   15bc8:	e5ec2001 	strb	r2, [ip, #1]!
   15bcc:	1afffffb 	bne	15bc0 <memmove+0x58>
   15bd0:	e12fff1e 	bx	lr
   15bd4:	e1803001 	orr	r3, r0, r1
   15bd8:	e3130003 	tst	r3, #3
   15bdc:	1a000034 	bne	15cb4 <memmove+0x14c>
   15be0:	e242c010 	sub	ip, r2, #16
   15be4:	e92d4070 	push	{r4, r5, r6, lr}
   15be8:	e3cc300f 	bic	r3, ip, #15
   15bec:	e281e020 	add	lr, r1, #32
   15bf0:	e2814010 	add	r4, r1, #16
   15bf4:	e2805010 	add	r5, r0, #16
   15bf8:	e08ee003 	add	lr, lr, r3
   15bfc:	e1a0c22c 	lsr	ip, ip, #4
   15c00:	e5143010 	ldr	r3, [r4, #-16]
   15c04:	e5053010 	str	r3, [r5, #-16]
   15c08:	e514300c 	ldr	r3, [r4, #-12]
   15c0c:	e505300c 	str	r3, [r5, #-12]
   15c10:	e5143008 	ldr	r3, [r4, #-8]
   15c14:	e5053008 	str	r3, [r5, #-8]
   15c18:	e2844010 	add	r4, r4, #16
   15c1c:	e5143014 	ldr	r3, [r4, #-20]	; 0xffffffec
   15c20:	e154000e 	cmp	r4, lr
   15c24:	e5053004 	str	r3, [r5, #-4]
   15c28:	e2855010 	add	r5, r5, #16
   15c2c:	1afffff3 	bne	15c00 <memmove+0x98>
   15c30:	e28cc001 	add	ip, ip, #1
   15c34:	e312000c 	tst	r2, #12
   15c38:	e202300f 	and	r3, r2, #15
   15c3c:	e081120c 	add	r1, r1, ip, lsl #4
   15c40:	01a02003 	moveq	r2, r3
   15c44:	e080c20c 	add	ip, r0, ip, lsl #4
   15c48:	0a00000d 	beq	15c84 <memmove+0x11c>
   15c4c:	e1a04001 	mov	r4, r1
   15c50:	e2433004 	sub	r3, r3, #4
   15c54:	e3c36003 	bic	r6, r3, #3
   15c58:	e1a0e123 	lsr	lr, r3, #2
   15c5c:	e08c6006 	add	r6, ip, r6
   15c60:	e24c3004 	sub	r3, ip, #4
   15c64:	e4945004 	ldr	r5, [r4], #4
   15c68:	e5a35004 	str	r5, [r3, #4]!
   15c6c:	e1530006 	cmp	r3, r6
   15c70:	1afffffb 	bne	15c64 <memmove+0xfc>
   15c74:	e28e3001 	add	r3, lr, #1
   15c78:	e2022003 	and	r2, r2, #3
   15c7c:	e08cc103 	add	ip, ip, r3, lsl #2
   15c80:	e0811103 	add	r1, r1, r3, lsl #2
   15c84:	e3520000 	cmp	r2, #0
   15c88:	e2422001 	sub	r2, r2, #1
   15c8c:	12822001 	addne	r2, r2, #1
   15c90:	124cc001 	subne	ip, ip, #1
   15c94:	10813002 	addne	r3, r1, r2
   15c98:	0a000003 	beq	15cac <memmove+0x144>
   15c9c:	e4d12001 	ldrb	r2, [r1], #1
   15ca0:	e1510003 	cmp	r1, r3
   15ca4:	e5ec2001 	strb	r2, [ip, #1]!
   15ca8:	1afffffb 	bne	15c9c <memmove+0x134>
   15cac:	e8bd4070 	pop	{r4, r5, r6, lr}
   15cb0:	e12fff1e 	bx	lr
   15cb4:	e1a0c000 	mov	ip, r0
   15cb8:	e2422001 	sub	r2, r2, #1
   15cbc:	eaffffbc 	b	15bb4 <memmove+0x4c>

00015cc0 <memset>:
   15cc0:	e3100003 	tst	r0, #3
   15cc4:	0a000040 	beq	15dcc <memset+0x10c>
   15cc8:	e3520000 	cmp	r2, #0
   15ccc:	e2422001 	sub	r2, r2, #1
   15cd0:	012fff1e 	bxeq	lr
   15cd4:	e1a03000 	mov	r3, r0
   15cd8:	e201c0ff 	and	ip, r1, #255	; 0xff
   15cdc:	ea000002 	b	15cec <memset+0x2c>
   15ce0:	e2422001 	sub	r2, r2, #1
   15ce4:	e3720001 	cmn	r2, #1
   15ce8:	012fff1e 	bxeq	lr
   15cec:	e4c3c001 	strb	ip, [r3], #1
   15cf0:	e3130003 	tst	r3, #3
   15cf4:	1afffff9 	bne	15ce0 <memset+0x20>
   15cf8:	e3520003 	cmp	r2, #3
   15cfc:	9a000028 	bls	15da4 <memset+0xe4>
   15d00:	e92d4030 	push	{r4, r5, lr}
   15d04:	e201e0ff 	and	lr, r1, #255	; 0xff
   15d08:	e18ee40e 	orr	lr, lr, lr, lsl #8
   15d0c:	e352000f 	cmp	r2, #15
   15d10:	e18ee80e 	orr	lr, lr, lr, lsl #16
   15d14:	9a00002e 	bls	15dd4 <memset+0x114>
   15d18:	e242c010 	sub	ip, r2, #16
   15d1c:	e3cc400f 	bic	r4, ip, #15
   15d20:	e2835020 	add	r5, r3, #32
   15d24:	e0855004 	add	r5, r5, r4
   15d28:	e1a0422c 	lsr	r4, ip, #4
   15d2c:	e283c010 	add	ip, r3, #16
   15d30:	e50ce010 	str	lr, [ip, #-16]
   15d34:	e50ce00c 	str	lr, [ip, #-12]
   15d38:	e50ce008 	str	lr, [ip, #-8]
   15d3c:	e50ce004 	str	lr, [ip, #-4]
   15d40:	e28cc010 	add	ip, ip, #16
   15d44:	e15c0005 	cmp	ip, r5
   15d48:	1afffff8 	bne	15d30 <memset+0x70>
   15d4c:	e284c001 	add	ip, r4, #1
   15d50:	e312000c 	tst	r2, #12
   15d54:	e083c20c 	add	ip, r3, ip, lsl #4
   15d58:	e202200f 	and	r2, r2, #15
   15d5c:	0a000018 	beq	15dc4 <memset+0x104>
   15d60:	e2423004 	sub	r3, r2, #4
   15d64:	e3c33003 	bic	r3, r3, #3
   15d68:	e2833004 	add	r3, r3, #4
   15d6c:	e08c3003 	add	r3, ip, r3
   15d70:	e48ce004 	str	lr, [ip], #4
   15d74:	e153000c 	cmp	r3, ip
   15d78:	1afffffc 	bne	15d70 <memset+0xb0>
   15d7c:	e2022003 	and	r2, r2, #3
   15d80:	e3520000 	cmp	r2, #0
   15d84:	0a000004 	beq	15d9c <memset+0xdc>
   15d88:	e20110ff 	and	r1, r1, #255	; 0xff
   15d8c:	e0832002 	add	r2, r3, r2
   15d90:	e4c31001 	strb	r1, [r3], #1
   15d94:	e1520003 	cmp	r2, r3
   15d98:	1afffffc 	bne	15d90 <memset+0xd0>
   15d9c:	e8bd4030 	pop	{r4, r5, lr}
   15da0:	e12fff1e 	bx	lr
   15da4:	e3520000 	cmp	r2, #0
   15da8:	012fff1e 	bxeq	lr
   15dac:	e20110ff 	and	r1, r1, #255	; 0xff
   15db0:	e0832002 	add	r2, r3, r2
   15db4:	e4c31001 	strb	r1, [r3], #1
   15db8:	e1520003 	cmp	r2, r3
   15dbc:	1afffffc 	bne	15db4 <memset+0xf4>
   15dc0:	e12fff1e 	bx	lr
   15dc4:	e1a0300c 	mov	r3, ip
   15dc8:	eaffffec 	b	15d80 <memset+0xc0>
   15dcc:	e1a03000 	mov	r3, r0
   15dd0:	eaffffc8 	b	15cf8 <memset+0x38>
   15dd4:	e1a0c003 	mov	ip, r3
   15dd8:	eaffffe0 	b	15d60 <memset+0xa0>

00015ddc <qsort>:
   15ddc:	e92d4ff0 	push	{r4, r5, r6, r7, r8, r9, sl, fp, lr}
   15de0:	e1a0a003 	mov	sl, r3
   15de4:	e1803002 	orr	r3, r0, r2
   15de8:	e24dd06c 	sub	sp, sp, #108	; 0x6c
   15dec:	e3130003 	tst	r3, #3
   15df0:	e1a09000 	mov	r9, r0
   15df4:	13a0b002 	movne	fp, #2
   15df8:	e58d2000 	str	r2, [sp]
   15dfc:	e58d1010 	str	r1, [sp, #16]
   15e00:	1a000001 	bne	15e0c <qsort+0x30>
   15e04:	e252b004 	subs	fp, r2, #4
   15e08:	13a0b001 	movne	fp, #1
   15e0c:	e3a03000 	mov	r3, #0
   15e10:	e58d3014 	str	r3, [sp, #20]
   15e14:	e59d3000 	ldr	r3, [sp]
   15e18:	e1a02123 	lsr	r2, r3, #2
   15e1c:	e1a03083 	lsl	r3, r3, #1
   15e20:	e58d2008 	str	r2, [sp, #8]
   15e24:	e58d301c 	str	r3, [sp, #28]
   15e28:	e59d3010 	ldr	r3, [sp, #16]
   15e2c:	e3530006 	cmp	r3, #6
   15e30:	9a0000af 	bls	160f4 <qsort+0x318>
   15e34:	e59d3010 	ldr	r3, [sp, #16]
   15e38:	e1a060a3 	lsr	r6, r3, #1
   15e3c:	e3530007 	cmp	r3, #7
   15e40:	e59d3000 	ldr	r3, [sp]
   15e44:	e0239396 	mla	r3, r6, r3, r9
   15e48:	e1a06003 	mov	r6, r3
   15e4c:	0a000177 	beq	16430 <qsort+0x654>
   15e50:	e59d2010 	ldr	r2, [sp, #16]
   15e54:	e59d8000 	ldr	r8, [sp]
   15e58:	e2423001 	sub	r3, r2, #1
   15e5c:	e0289893 	mla	r8, r3, r8, r9
   15e60:	e3520028 	cmp	r2, #40	; 0x28
   15e64:	91a04008 	movls	r4, r8
   15e68:	91a05009 	movls	r5, r9
   15e6c:	8a0001ae 	bhi	1652c <qsort+0x750>
   15e70:	e1a01006 	mov	r1, r6
   15e74:	e1a00005 	mov	r0, r5
   15e78:	e1a0e00f 	mov	lr, pc
   15e7c:	e12fff1a 	bx	sl
   15e80:	e3500000 	cmp	r0, #0
   15e84:	e1a01004 	mov	r1, r4
   15e88:	e1a00006 	mov	r0, r6
   15e8c:	ba00019a 	blt	164fc <qsort+0x720>
   15e90:	e1a0e00f 	mov	lr, pc
   15e94:	e12fff1a 	bx	sl
   15e98:	e3500000 	cmp	r0, #0
   15e9c:	ca000006 	bgt	15ebc <qsort+0xe0>
   15ea0:	e1a01004 	mov	r1, r4
   15ea4:	e1a00005 	mov	r0, r5
   15ea8:	e1a0e00f 	mov	lr, pc
   15eac:	e12fff1a 	bx	sl
   15eb0:	e3500000 	cmp	r0, #0
   15eb4:	b1a06005 	movlt	r6, r5
   15eb8:	a1a06004 	movge	r6, r4
   15ebc:	e35b0000 	cmp	fp, #0
   15ec0:	1a000160 	bne	16448 <qsort+0x66c>
   15ec4:	e1a03009 	mov	r3, r9
   15ec8:	e5961000 	ldr	r1, [r6]
   15ecc:	e59d0000 	ldr	r0, [sp]
   15ed0:	e5992000 	ldr	r2, [r9]
   15ed4:	e6831000 	str	r1, [r3], r0
   15ed8:	e5862000 	str	r2, [r6]
   15edc:	e58d3020 	str	r3, [sp, #32]
   15ee0:	e59d3020 	ldr	r3, [sp, #32]
   15ee4:	e1530008 	cmp	r3, r8
   15ee8:	e58d3024 	str	r3, [sp, #36]	; 0x24
   15eec:	8a0000f1 	bhi	162b8 <qsort+0x4dc>
   15ef0:	e1a05003 	mov	r5, r3
   15ef4:	e58d3018 	str	r3, [sp, #24]
   15ef8:	e3a03000 	mov	r3, #0
   15efc:	e1a04008 	mov	r4, r8
   15f00:	e58db004 	str	fp, [sp, #4]
   15f04:	e1a0b009 	mov	fp, r9
   15f08:	e1a09008 	mov	r9, r8
   15f0c:	e1a08003 	mov	r8, r3
   15f10:	e59d2000 	ldr	r2, [sp]
   15f14:	e2627000 	rsb	r7, r2, #0
   15f18:	e1a0100b 	mov	r1, fp
   15f1c:	e1a00005 	mov	r0, r5
   15f20:	e1a0e00f 	mov	lr, pc
   15f24:	e12fff1a 	bx	sl
   15f28:	e3500000 	cmp	r0, #0
   15f2c:	e1a06005 	mov	r6, r5
   15f30:	da0000c3 	ble	16244 <qsort+0x468>
   15f34:	e1590005 	cmp	r9, r5
   15f38:	3a000035 	bcc	16014 <qsort+0x238>
   15f3c:	e1a06004 	mov	r6, r4
   15f40:	e58d500c 	str	r5, [sp, #12]
   15f44:	e1a04008 	mov	r4, r8
   15f48:	e59d8004 	ldr	r8, [sp, #4]
   15f4c:	ea000008 	b	15f74 <qsort+0x198>
   15f50:	e5993000 	ldr	r3, [r9]
   15f54:	e5961000 	ldr	r1, [r6]
   15f58:	e5891000 	str	r1, [r9]
   15f5c:	e5863000 	str	r3, [r6]
   15f60:	e3a04001 	mov	r4, #1
   15f64:	e0866007 	add	r6, r6, r7
   15f68:	e0899007 	add	r9, r9, r7
   15f6c:	e1590005 	cmp	r9, r5
   15f70:	3a000226 	bcc	16810 <qsort+0xa34>
   15f74:	e1a0100b 	mov	r1, fp
   15f78:	e1a00009 	mov	r0, r9
   15f7c:	e1a0e00f 	mov	lr, pc
   15f80:	e12fff1a 	bx	sl
   15f84:	e3500000 	cmp	r0, #0
   15f88:	ba000010 	blt	15fd0 <qsort+0x1f4>
   15f8c:	1afffff5 	bne	15f68 <qsort+0x18c>
   15f90:	e3580000 	cmp	r8, #0
   15f94:	0affffed 	beq	15f50 <qsort+0x174>
   15f98:	e3580001 	cmp	r8, #1
   15f9c:	0a00008f 	beq	161e0 <qsort+0x404>
   15fa0:	e1a01006 	mov	r1, r6
   15fa4:	e1a03009 	mov	r3, r9
   15fa8:	e59d2000 	ldr	r2, [sp]
   15fac:	e089e002 	add	lr, r9, r2
   15fb0:	e5d10000 	ldrb	r0, [r1]
   15fb4:	e5d32000 	ldrb	r2, [r3]
   15fb8:	e4c30001 	strb	r0, [r3], #1
   15fbc:	e4c12001 	strb	r2, [r1], #1
   15fc0:	e04e2003 	sub	r2, lr, r3
   15fc4:	e3520000 	cmp	r2, #0
   15fc8:	cafffff8 	bgt	15fb0 <qsort+0x1d4>
   15fcc:	eaffffe3 	b	15f60 <qsort+0x184>
   15fd0:	e59d3004 	ldr	r3, [sp, #4]
   15fd4:	e3530000 	cmp	r3, #0
   15fd8:	e1a04006 	mov	r4, r6
   15fdc:	e59d600c 	ldr	r6, [sp, #12]
   15fe0:	1a000089 	bne	1620c <qsort+0x430>
   15fe4:	e1a02005 	mov	r2, r5
   15fe8:	e5950000 	ldr	r0, [r5]
   15fec:	e599c000 	ldr	ip, [r9]
   15ff0:	e59d3000 	ldr	r3, [sp]
   15ff4:	e682c003 	str	ip, [r2], r3
   15ff8:	e5890000 	str	r0, [r9]
   15ffc:	e1a06002 	mov	r6, r2
   16000:	e3a08001 	mov	r8, #1
   16004:	e0899007 	add	r9, r9, r7
   16008:	e1590002 	cmp	r9, r2
   1600c:	e1a05002 	mov	r5, r2
   16010:	2affffc0 	bcs	15f18 <qsort+0x13c>
   16014:	e1a02008 	mov	r2, r8
   16018:	e1a08009 	mov	r8, r9
   1601c:	e1a0900b 	mov	r9, fp
   16020:	e59db004 	ldr	fp, [sp, #4]
   16024:	e3520000 	cmp	r2, #0
   16028:	0a0000a2 	beq	162b8 <qsort+0x4dc>
   1602c:	e59d3000 	ldr	r3, [sp]
   16030:	e59de010 	ldr	lr, [sp, #16]
   16034:	e02e9e93 	mla	lr, r3, lr, r9
   16038:	e59d3018 	ldr	r3, [sp, #24]
   1603c:	e0432009 	sub	r2, r3, r9
   16040:	e0460003 	sub	r0, r6, r3
   16044:	e1520000 	cmp	r2, r0
   16048:	a1a02000 	movge	r2, r0
   1604c:	e3520000 	cmp	r2, #0
   16050:	1a00010a 	bne	16480 <qsort+0x6a4>
   16054:	e59d1000 	ldr	r1, [sp]
   16058:	e04e2004 	sub	r2, lr, r4
   1605c:	e0422001 	sub	r2, r2, r1
   16060:	e0443008 	sub	r3, r4, r8
   16064:	e1520003 	cmp	r2, r3
   16068:	21a02003 	movcs	r2, r3
   1606c:	e3520000 	cmp	r2, #0
   16070:	1a000179 	bne	1665c <qsort+0x880>
   16074:	e1500003 	cmp	r0, r3
   16078:	21a06003 	movcs	r6, r3
   1607c:	31a06000 	movcc	r6, r0
   16080:	204e5003 	subcs	r5, lr, r3
   16084:	31a05009 	movcc	r5, r9
   16088:	31a04003 	movcc	r4, r3
   1608c:	304e9003 	subcc	r9, lr, r3
   16090:	e59d3000 	ldr	r3, [sp]
   16094:	21a04000 	movcs	r4, r0
   16098:	e1560003 	cmp	r6, r3
   1609c:	9a0000cd 	bls	163d8 <qsort+0x5fc>
   160a0:	e59d2014 	ldr	r2, [sp, #20]
   160a4:	e3520007 	cmp	r2, #7
   160a8:	8a00015b 	bhi	1661c <qsort+0x840>
   160ac:	e28d1068 	add	r1, sp, #104	; 0x68
   160b0:	e1a00004 	mov	r0, r4
   160b4:	e0814182 	add	r4, r1, r2, lsl #3
   160b8:	e5049040 	str	r9, [r4, #-64]	; 0xffffffc0
   160bc:	e1a01003 	mov	r1, r3
   160c0:	e2822001 	add	r2, r2, #1
   160c4:	e58d2014 	str	r2, [sp, #20]
   160c8:	e1a09005 	mov	r9, r5
   160cc:	e1a05003 	mov	r5, r3
   160d0:	ebffeb40 	bl	10dd8 <__aeabi_uidiv>
   160d4:	e1a01005 	mov	r1, r5
   160d8:	e504003c 	str	r0, [r4, #-60]	; 0xffffffc4
   160dc:	e1a00006 	mov	r0, r6
   160e0:	ebffeb3c 	bl	10dd8 <__aeabi_uidiv>
   160e4:	e58d0010 	str	r0, [sp, #16]
   160e8:	e59d3010 	ldr	r3, [sp, #16]
   160ec:	e3530006 	cmp	r3, #6
   160f0:	8affff4f 	bhi	15e34 <qsort+0x58>
   160f4:	e1a06003 	mov	r6, r3
   160f8:	e59d3000 	ldr	r3, [sp]
   160fc:	e0269693 	mla	r6, r3, r6, r9
   16100:	e0895003 	add	r5, r9, r3
   16104:	e1560005 	cmp	r6, r5
   16108:	9a000028 	bls	161b0 <qsort+0x3d4>
   1610c:	e58d6004 	str	r6, [sp, #4]
   16110:	e59d701c 	ldr	r7, [sp, #28]
   16114:	e2634000 	rsb	r4, r3, #0
   16118:	e1590005 	cmp	r9, r5
   1611c:	2a00001e 	bcs	1619c <qsort+0x3c0>
   16120:	e1a08005 	mov	r8, r5
   16124:	ea000005 	b	16140 <qsort+0x364>
   16128:	e5963000 	ldr	r3, [r6]
   1612c:	e5982000 	ldr	r2, [r8]
   16130:	e5862000 	str	r2, [r6]
   16134:	e5883000 	str	r3, [r8]
   16138:	e1580009 	cmp	r8, r9
   1613c:	9a000016 	bls	1619c <qsort+0x3c0>
   16140:	e1a06008 	mov	r6, r8
   16144:	e0888004 	add	r8, r8, r4
   16148:	e1a00008 	mov	r0, r8
   1614c:	e1a01006 	mov	r1, r6
   16150:	e1a0e00f 	mov	lr, pc
   16154:	e12fff1a 	bx	sl
   16158:	e3500000 	cmp	r0, #0
   1615c:	da00000e 	ble	1619c <qsort+0x3c0>
   16160:	e35b0000 	cmp	fp, #0
   16164:	0affffef 	beq	16128 <qsort+0x34c>
   16168:	e35b0001 	cmp	fp, #1
   1616c:	11a03008 	movne	r3, r8
   16170:	10880007 	addne	r0, r8, r7
   16174:	0a00008d 	beq	163b0 <qsort+0x5d4>
   16178:	e5d31000 	ldrb	r1, [r3]
   1617c:	e5d62000 	ldrb	r2, [r6]
   16180:	e4c61001 	strb	r1, [r6], #1
   16184:	e4c32001 	strb	r2, [r3], #1
   16188:	e0402006 	sub	r2, r0, r6
   1618c:	e3520000 	cmp	r2, #0
   16190:	cafffff8 	bgt	16178 <qsort+0x39c>
   16194:	e1580009 	cmp	r8, r9
   16198:	8affffe8 	bhi	16140 <qsort+0x364>
   1619c:	e59d3000 	ldr	r3, [sp]
   161a0:	e0855003 	add	r5, r5, r3
   161a4:	e59d3004 	ldr	r3, [sp, #4]
   161a8:	e1530005 	cmp	r3, r5
   161ac:	8affffd9 	bhi	16118 <qsort+0x33c>
   161b0:	e59d3014 	ldr	r3, [sp, #20]
   161b4:	e3530000 	cmp	r3, #0
   161b8:	0a00006f 	beq	1637c <qsort+0x5a0>
   161bc:	e59d3014 	ldr	r3, [sp, #20]
   161c0:	e28d2068 	add	r2, sp, #104	; 0x68
   161c4:	e2433001 	sub	r3, r3, #1
   161c8:	e58d3014 	str	r3, [sp, #20]
   161cc:	e0823183 	add	r3, r2, r3, lsl #3
   161d0:	e5139040 	ldr	r9, [r3, #-64]	; 0xffffffc0
   161d4:	e513303c 	ldr	r3, [r3, #-60]	; 0xffffffc4
   161d8:	e58d3010 	str	r3, [sp, #16]
   161dc:	eaffff11 	b	15e28 <qsort+0x4c>
   161e0:	e1a00006 	mov	r0, r6
   161e4:	e1a01009 	mov	r1, r9
   161e8:	e59d3008 	ldr	r3, [sp, #8]
   161ec:	e5912000 	ldr	r2, [r1]
   161f0:	e590c000 	ldr	ip, [r0]
   161f4:	e2433001 	sub	r3, r3, #1
   161f8:	e3530000 	cmp	r3, #0
   161fc:	e481c004 	str	ip, [r1], #4
   16200:	e4802004 	str	r2, [r0], #4
   16204:	cafffff8 	bgt	161ec <qsort+0x410>
   16208:	eaffff54 	b	15f60 <qsort+0x184>
   1620c:	e59d3004 	ldr	r3, [sp, #4]
   16210:	e3530001 	cmp	r3, #1
   16214:	0a00001b 	beq	16288 <qsort+0x4ac>
   16218:	e1a00009 	mov	r0, r9
   1621c:	e59d3000 	ldr	r3, [sp]
   16220:	e0832005 	add	r2, r3, r5
   16224:	e5d01000 	ldrb	r1, [r0]
   16228:	e5d63000 	ldrb	r3, [r6]
   1622c:	e4c61001 	strb	r1, [r6], #1
   16230:	e4c03001 	strb	r3, [r0], #1
   16234:	e0423006 	sub	r3, r2, r6
   16238:	e3530000 	cmp	r3, #0
   1623c:	cafffff8 	bgt	16224 <qsort+0x448>
   16240:	eaffff6d 	b	15ffc <qsort+0x220>
   16244:	1a00000b 	bne	16278 <qsort+0x49c>
   16248:	e59d3004 	ldr	r3, [sp, #4]
   1624c:	e3530000 	cmp	r3, #0
   16250:	1a000068 	bne	163f8 <qsort+0x61c>
   16254:	e59d3018 	ldr	r3, [sp, #24]
   16258:	e1a00003 	mov	r0, r3
   1625c:	e5932000 	ldr	r2, [r3]
   16260:	e595c000 	ldr	ip, [r5]
   16264:	e59d3000 	ldr	r3, [sp]
   16268:	e680c003 	str	ip, [r0], r3
   1626c:	e5852000 	str	r2, [r5]
   16270:	e3a08001 	mov	r8, #1
   16274:	e58d0018 	str	r0, [sp, #24]
   16278:	e59d3000 	ldr	r3, [sp]
   1627c:	e0832005 	add	r2, r3, r5
   16280:	e1a06002 	mov	r6, r2
   16284:	eaffff5f 	b	16008 <qsort+0x22c>
   16288:	e1a00009 	mov	r0, r9
   1628c:	e59d2008 	ldr	r2, [sp, #8]
   16290:	e5963000 	ldr	r3, [r6]
   16294:	e5901000 	ldr	r1, [r0]
   16298:	e2422001 	sub	r2, r2, #1
   1629c:	e3520000 	cmp	r2, #0
   162a0:	e4861004 	str	r1, [r6], #4
   162a4:	e4803004 	str	r3, [r0], #4
   162a8:	cafffff8 	bgt	16290 <qsort+0x4b4>
   162ac:	e59d3000 	ldr	r3, [sp]
   162b0:	e0832005 	add	r2, r3, r5
   162b4:	eaffff50 	b	15ffc <qsort+0x220>
   162b8:	e59d4010 	ldr	r4, [sp, #16]
   162bc:	e59d3000 	ldr	r3, [sp]
   162c0:	e0249493 	mla	r4, r3, r4, r9
   162c4:	e59d2020 	ldr	r2, [sp, #32]
   162c8:	e1540002 	cmp	r4, r2
   162cc:	9affffb7 	bls	161b0 <qsort+0x3d4>
   162d0:	e59d6024 	ldr	r6, [sp, #36]	; 0x24
   162d4:	e2635000 	rsb	r5, r3, #0
   162d8:	e1590006 	cmp	r9, r6
   162dc:	2a00001f 	bcs	16360 <qsort+0x584>
   162e0:	e1a08006 	mov	r8, r6
   162e4:	ea000005 	b	16300 <qsort+0x524>
   162e8:	e5973000 	ldr	r3, [r7]
   162ec:	e5982000 	ldr	r2, [r8]
   162f0:	e5872000 	str	r2, [r7]
   162f4:	e5883000 	str	r3, [r8]
   162f8:	e1580009 	cmp	r8, r9
   162fc:	9a000017 	bls	16360 <qsort+0x584>
   16300:	e1a07008 	mov	r7, r8
   16304:	e0888005 	add	r8, r8, r5
   16308:	e1a00008 	mov	r0, r8
   1630c:	e1a01007 	mov	r1, r7
   16310:	e1a0e00f 	mov	lr, pc
   16314:	e12fff1a 	bx	sl
   16318:	e3500000 	cmp	r0, #0
   1631c:	da00000f 	ble	16360 <qsort+0x584>
   16320:	e35b0000 	cmp	fp, #0
   16324:	0affffef 	beq	162e8 <qsort+0x50c>
   16328:	e35b0001 	cmp	fp, #1
   1632c:	0a000015 	beq	16388 <qsort+0x5ac>
   16330:	e1a03008 	mov	r3, r8
   16334:	e59d201c 	ldr	r2, [sp, #28]
   16338:	e0880002 	add	r0, r8, r2
   1633c:	e5d31000 	ldrb	r1, [r3]
   16340:	e5d72000 	ldrb	r2, [r7]
   16344:	e4c71001 	strb	r1, [r7], #1
   16348:	e4c32001 	strb	r2, [r3], #1
   1634c:	e0402007 	sub	r2, r0, r7
   16350:	e3520000 	cmp	r2, #0
   16354:	cafffff8 	bgt	1633c <qsort+0x560>
   16358:	e1580009 	cmp	r8, r9
   1635c:	8affffe7 	bhi	16300 <qsort+0x524>
   16360:	e59d3000 	ldr	r3, [sp]
   16364:	e0866003 	add	r6, r6, r3
   16368:	e1540006 	cmp	r4, r6
   1636c:	8affffd9 	bhi	162d8 <qsort+0x4fc>
   16370:	e59d3014 	ldr	r3, [sp, #20]
   16374:	e3530000 	cmp	r3, #0
   16378:	1affff8f 	bne	161bc <qsort+0x3e0>
   1637c:	e28dd06c 	add	sp, sp, #108	; 0x6c
   16380:	e8bd4ff0 	pop	{r4, r5, r6, r7, r8, r9, sl, fp, lr}
   16384:	e12fff1e 	bx	lr
   16388:	e1a02008 	mov	r2, r8
   1638c:	e59d3008 	ldr	r3, [sp, #8]
   16390:	e5971000 	ldr	r1, [r7]
   16394:	e5920000 	ldr	r0, [r2]
   16398:	e2433001 	sub	r3, r3, #1
   1639c:	e3530000 	cmp	r3, #0
   163a0:	e4870004 	str	r0, [r7], #4
   163a4:	e4821004 	str	r1, [r2], #4
   163a8:	cafffff8 	bgt	16390 <qsort+0x5b4>
   163ac:	eaffffd1 	b	162f8 <qsort+0x51c>
   163b0:	e1a02008 	mov	r2, r8
   163b4:	e59d3008 	ldr	r3, [sp, #8]
   163b8:	e5961000 	ldr	r1, [r6]
   163bc:	e5920000 	ldr	r0, [r2]
   163c0:	e2433001 	sub	r3, r3, #1
   163c4:	e3530000 	cmp	r3, #0
   163c8:	e4860004 	str	r0, [r6], #4
   163cc:	e4821004 	str	r1, [r2], #4
   163d0:	cafffff8 	bgt	163b8 <qsort+0x5dc>
   163d4:	eaffff57 	b	16138 <qsort+0x35c>
   163d8:	e59d3000 	ldr	r3, [sp]
   163dc:	e1540003 	cmp	r4, r3
   163e0:	9affff72 	bls	161b0 <qsort+0x3d4>
   163e4:	e1a00004 	mov	r0, r4
   163e8:	e59d1000 	ldr	r1, [sp]
   163ec:	ebffea79 	bl	10dd8 <__aeabi_uidiv>
   163f0:	e58d0010 	str	r0, [sp, #16]
   163f4:	eafffe8b 	b	15e28 <qsort+0x4c>
   163f8:	e59d3004 	ldr	r3, [sp, #4]
   163fc:	e3530001 	cmp	r3, #1
   16400:	0a0000a1 	beq	1668c <qsort+0x8b0>
   16404:	e59d2018 	ldr	r2, [sp, #24]
   16408:	e59d3000 	ldr	r3, [sp]
   1640c:	e0820003 	add	r0, r2, r3
   16410:	e5d61000 	ldrb	r1, [r6]
   16414:	e5d23000 	ldrb	r3, [r2]
   16418:	e4c21001 	strb	r1, [r2], #1
   1641c:	e4c63001 	strb	r3, [r6], #1
   16420:	e0403002 	sub	r3, r0, r2
   16424:	e3530000 	cmp	r3, #0
   16428:	cafffff8 	bgt	16410 <qsort+0x634>
   1642c:	eaffff8f 	b	16270 <qsort+0x494>
   16430:	e59d301c 	ldr	r3, [sp, #28]
   16434:	e59d2000 	ldr	r2, [sp]
   16438:	e35b0000 	cmp	fp, #0
   1643c:	e0833002 	add	r3, r3, r2
   16440:	e0898083 	add	r8, r9, r3, lsl #1
   16444:	0afffe9e 	beq	15ec4 <qsort+0xe8>
   16448:	e35b0001 	cmp	fp, #1
   1644c:	0a00009b 	beq	166c0 <qsort+0x8e4>
   16450:	e1a02009 	mov	r2, r9
   16454:	e59d3000 	ldr	r3, [sp]
   16458:	e0890003 	add	r0, r9, r3
   1645c:	e58d0020 	str	r0, [sp, #32]
   16460:	e5d61000 	ldrb	r1, [r6]
   16464:	e5d23000 	ldrb	r3, [r2]
   16468:	e4c21001 	strb	r1, [r2], #1
   1646c:	e4c63001 	strb	r3, [r6], #1
   16470:	e0403002 	sub	r3, r0, r2
   16474:	e3530000 	cmp	r3, #0
   16478:	cafffff8 	bgt	16460 <qsort+0x684>
   1647c:	eafffe97 	b	15ee0 <qsort+0x104>
   16480:	e35b0002 	cmp	fp, #2
   16484:	e0461002 	sub	r1, r6, r2
   16488:	01a0c009 	moveq	ip, r9
   1648c:	00892002 	addeq	r2, r9, r2
   16490:	1a0000a7 	bne	16734 <qsort+0x958>
   16494:	e5d15000 	ldrb	r5, [r1]
   16498:	e5dc3000 	ldrb	r3, [ip]
   1649c:	e4cc5001 	strb	r5, [ip], #1
   164a0:	e4c13001 	strb	r3, [r1], #1
   164a4:	e042300c 	sub	r3, r2, ip
   164a8:	e3530000 	cmp	r3, #0
   164ac:	cafffff8 	bgt	16494 <qsort+0x6b8>
   164b0:	e59d2000 	ldr	r2, [sp]
   164b4:	e04e1004 	sub	r1, lr, r4
   164b8:	e0411002 	sub	r1, r1, r2
   164bc:	e0443008 	sub	r3, r4, r8
   164c0:	e1510003 	cmp	r1, r3
   164c4:	21a01003 	movcs	r1, r3
   164c8:	e3510000 	cmp	r1, #0
   164cc:	0afffee8 	beq	16074 <qsort+0x298>
   164d0:	e1a02001 	mov	r2, r1
   164d4:	e04e1001 	sub	r1, lr, r1
   164d8:	e0862002 	add	r2, r6, r2
   164dc:	e5d14000 	ldrb	r4, [r1]
   164e0:	e5d6c000 	ldrb	ip, [r6]
   164e4:	e4c64001 	strb	r4, [r6], #1
   164e8:	e4c1c001 	strb	ip, [r1], #1
   164ec:	e042c006 	sub	ip, r2, r6
   164f0:	e35c0000 	cmp	ip, #0
   164f4:	cafffff8 	bgt	164dc <qsort+0x700>
   164f8:	eafffedd 	b	16074 <qsort+0x298>
   164fc:	e1a0e00f 	mov	lr, pc
   16500:	e12fff1a 	bx	sl
   16504:	e3500000 	cmp	r0, #0
   16508:	bafffe6b 	blt	15ebc <qsort+0xe0>
   1650c:	e1a01004 	mov	r1, r4
   16510:	e1a00005 	mov	r0, r5
   16514:	e1a0e00f 	mov	lr, pc
   16518:	e12fff1a 	bx	sl
   1651c:	e3500000 	cmp	r0, #0
   16520:	b1a06004 	movlt	r6, r4
   16524:	a1a06005 	movge	r6, r5
   16528:	eafffe63 	b	15ebc <qsort+0xe0>
   1652c:	e59d3000 	ldr	r3, [sp]
   16530:	e1a041a2 	lsr	r4, r2, #3
   16534:	e0030394 	mul	r3, r4, r3
   16538:	e0895003 	add	r5, r9, r3
   1653c:	e1a01005 	mov	r1, r5
   16540:	e1a00009 	mov	r0, r9
   16544:	e1a04003 	mov	r4, r3
   16548:	e58d3004 	str	r3, [sp, #4]
   1654c:	e1a0e00f 	mov	lr, pc
   16550:	e12fff1a 	bx	sl
   16554:	e1a02084 	lsl	r2, r4, #1
   16558:	e3500000 	cmp	r0, #0
   1655c:	e0894084 	add	r4, r9, r4, lsl #1
   16560:	e1a01004 	mov	r1, r4
   16564:	e1a00005 	mov	r0, r5
   16568:	e58d200c 	str	r2, [sp, #12]
   1656c:	ba000083 	blt	16780 <qsort+0x9a4>
   16570:	e1a0e00f 	mov	lr, pc
   16574:	e12fff1a 	bx	sl
   16578:	e3500000 	cmp	r0, #0
   1657c:	da000064 	ble	16714 <qsort+0x938>
   16580:	e59d7004 	ldr	r7, [sp, #4]
   16584:	e0464007 	sub	r4, r6, r7
   16588:	e1a01006 	mov	r1, r6
   1658c:	e1a00004 	mov	r0, r4
   16590:	e1a0e00f 	mov	lr, pc
   16594:	e12fff1a 	bx	sl
   16598:	e0867007 	add	r7, r6, r7
   1659c:	e3500000 	cmp	r0, #0
   165a0:	e1a01007 	mov	r1, r7
   165a4:	e1a00006 	mov	r0, r6
   165a8:	ba00008c 	blt	167e0 <qsort+0xa04>
   165ac:	e1a0e00f 	mov	lr, pc
   165b0:	e12fff1a 	bx	sl
   165b4:	e3500000 	cmp	r0, #0
   165b8:	da00004d 	ble	166f4 <qsort+0x918>
   165bc:	e59d300c 	ldr	r3, [sp, #12]
   165c0:	e0487003 	sub	r7, r8, r3
   165c4:	e59d3004 	ldr	r3, [sp, #4]
   165c8:	e0874003 	add	r4, r7, r3
   165cc:	e1a01004 	mov	r1, r4
   165d0:	e1a00007 	mov	r0, r7
   165d4:	e1a0e00f 	mov	lr, pc
   165d8:	e12fff1a 	bx	sl
   165dc:	e3500000 	cmp	r0, #0
   165e0:	e1a01008 	mov	r1, r8
   165e4:	e1a00004 	mov	r0, r4
   165e8:	ba000070 	blt	167b0 <qsort+0x9d4>
   165ec:	e1a0e00f 	mov	lr, pc
   165f0:	e12fff1a 	bx	sl
   165f4:	e3500000 	cmp	r0, #0
   165f8:	cafffe1c 	bgt	15e70 <qsort+0x94>
   165fc:	e1a01008 	mov	r1, r8
   16600:	e1a00007 	mov	r0, r7
   16604:	e1a0e00f 	mov	lr, pc
   16608:	e12fff1a 	bx	sl
   1660c:	e3500000 	cmp	r0, #0
   16610:	b1a04007 	movlt	r4, r7
   16614:	a1a04008 	movge	r4, r8
   16618:	eafffe14 	b	15e70 <qsort+0x94>
   1661c:	e1a00006 	mov	r0, r6
   16620:	e59d6000 	ldr	r6, [sp]
   16624:	e1a01006 	mov	r1, r6
   16628:	ebffe9ea 	bl	10dd8 <__aeabi_uidiv>
   1662c:	e1a0300a 	mov	r3, sl
   16630:	e1a01000 	mov	r1, r0
   16634:	e1a02006 	mov	r2, r6
   16638:	e1a00005 	mov	r0, r5
   1663c:	ebfffde6 	bl	15ddc <qsort>
   16640:	e1540006 	cmp	r4, r6
   16644:	9afffedc 	bls	161bc <qsort+0x3e0>
   16648:	e1a00004 	mov	r0, r4
   1664c:	e59d1000 	ldr	r1, [sp]
   16650:	ebffe9e0 	bl	10dd8 <__aeabi_uidiv>
   16654:	e58d0010 	str	r0, [sp, #16]
   16658:	eafffdf2 	b	15e28 <qsort+0x4c>
   1665c:	e35b0002 	cmp	fp, #2
   16660:	e04e1002 	sub	r1, lr, r2
   16664:	0affff9b 	beq	164d8 <qsort+0x6fc>
   16668:	e1a02122 	lsr	r2, r2, #2
   1666c:	e596c000 	ldr	ip, [r6]
   16670:	e5914000 	ldr	r4, [r1]
   16674:	e2422001 	sub	r2, r2, #1
   16678:	e3520000 	cmp	r2, #0
   1667c:	e4864004 	str	r4, [r6], #4
   16680:	e481c004 	str	ip, [r1], #4
   16684:	cafffff8 	bgt	1666c <qsort+0x890>
   16688:	eafffe79 	b	16074 <qsort+0x298>
   1668c:	e59d0018 	ldr	r0, [sp, #24]
   16690:	e59d2008 	ldr	r2, [sp, #8]
   16694:	e5903000 	ldr	r3, [r0]
   16698:	e5961000 	ldr	r1, [r6]
   1669c:	e2422001 	sub	r2, r2, #1
   166a0:	e3520000 	cmp	r2, #0
   166a4:	e4801004 	str	r1, [r0], #4
   166a8:	e4863004 	str	r3, [r6], #4
   166ac:	cafffff8 	bgt	16694 <qsort+0x8b8>
   166b0:	e59d3018 	ldr	r3, [sp, #24]
   166b4:	e59d2000 	ldr	r2, [sp]
   166b8:	e0830002 	add	r0, r3, r2
   166bc:	eafffeeb 	b	16270 <qsort+0x494>
   166c0:	e1a01009 	mov	r1, r9
   166c4:	e59d2008 	ldr	r2, [sp, #8]
   166c8:	e5913000 	ldr	r3, [r1]
   166cc:	e5960000 	ldr	r0, [r6]
   166d0:	e2422001 	sub	r2, r2, #1
   166d4:	e3520000 	cmp	r2, #0
   166d8:	e4810004 	str	r0, [r1], #4
   166dc:	e4863004 	str	r3, [r6], #4
   166e0:	cafffff8 	bgt	166c8 <qsort+0x8ec>
   166e4:	e59d3000 	ldr	r3, [sp]
   166e8:	e0893003 	add	r3, r9, r3
   166ec:	e58d3020 	str	r3, [sp, #32]
   166f0:	eafffdfa 	b	15ee0 <qsort+0x104>
   166f4:	e1a01007 	mov	r1, r7
   166f8:	e1a00004 	mov	r0, r4
   166fc:	e1a0e00f 	mov	lr, pc
   16700:	e12fff1a 	bx	sl
   16704:	e3500000 	cmp	r0, #0
   16708:	b1a06004 	movlt	r6, r4
   1670c:	a1a06007 	movge	r6, r7
   16710:	eaffffa9 	b	165bc <qsort+0x7e0>
   16714:	e1a01004 	mov	r1, r4
   16718:	e1a00009 	mov	r0, r9
   1671c:	e1a0e00f 	mov	lr, pc
   16720:	e12fff1a 	bx	sl
   16724:	e3500000 	cmp	r0, #0
   16728:	b1a05009 	movlt	r5, r9
   1672c:	a1a05004 	movge	r5, r4
   16730:	eaffff92 	b	16580 <qsort+0x7a4>
   16734:	e1a0c009 	mov	ip, r9
   16738:	e1a02122 	lsr	r2, r2, #2
   1673c:	e59c3000 	ldr	r3, [ip]
   16740:	e5915000 	ldr	r5, [r1]
   16744:	e2422001 	sub	r2, r2, #1
   16748:	e3520000 	cmp	r2, #0
   1674c:	e48c5004 	str	r5, [ip], #4
   16750:	e4813004 	str	r3, [r1], #4
   16754:	cafffff8 	bgt	1673c <qsort+0x960>
   16758:	e59d1000 	ldr	r1, [sp]
   1675c:	e04e2004 	sub	r2, lr, r4
   16760:	e0422001 	sub	r2, r2, r1
   16764:	e0443008 	sub	r3, r4, r8
   16768:	e1520003 	cmp	r2, r3
   1676c:	21a02003 	movcs	r2, r3
   16770:	e3520000 	cmp	r2, #0
   16774:	0afffe3e 	beq	16074 <qsort+0x298>
   16778:	e04e1002 	sub	r1, lr, r2
   1677c:	eaffffb9 	b	16668 <qsort+0x88c>
   16780:	e1a0e00f 	mov	lr, pc
   16784:	e12fff1a 	bx	sl
   16788:	e3500000 	cmp	r0, #0
   1678c:	baffff7b 	blt	16580 <qsort+0x7a4>
   16790:	e1a01004 	mov	r1, r4
   16794:	e1a00009 	mov	r0, r9
   16798:	e1a0e00f 	mov	lr, pc
   1679c:	e12fff1a 	bx	sl
   167a0:	e3500000 	cmp	r0, #0
   167a4:	b1a05004 	movlt	r5, r4
   167a8:	a1a05009 	movge	r5, r9
   167ac:	eaffff73 	b	16580 <qsort+0x7a4>
   167b0:	e1a0e00f 	mov	lr, pc
   167b4:	e12fff1a 	bx	sl
   167b8:	e3500000 	cmp	r0, #0
   167bc:	bafffdab 	blt	15e70 <qsort+0x94>
   167c0:	e1a01008 	mov	r1, r8
   167c4:	e1a00007 	mov	r0, r7
   167c8:	e1a0e00f 	mov	lr, pc
   167cc:	e12fff1a 	bx	sl
   167d0:	e3500000 	cmp	r0, #0
   167d4:	b1a04008 	movlt	r4, r8
   167d8:	a1a04007 	movge	r4, r7
   167dc:	eafffda3 	b	15e70 <qsort+0x94>
   167e0:	e1a0e00f 	mov	lr, pc
   167e4:	e12fff1a 	bx	sl
   167e8:	e3500000 	cmp	r0, #0
   167ec:	baffff72 	blt	165bc <qsort+0x7e0>
   167f0:	e1a01007 	mov	r1, r7
   167f4:	e1a00004 	mov	r0, r4
   167f8:	e1a0e00f 	mov	lr, pc
   167fc:	e12fff1a 	bx	sl
   16800:	e3500000 	cmp	r0, #0
   16804:	b1a06007 	movlt	r6, r7
   16808:	a1a06004 	movge	r6, r4
   1680c:	eaffff6a 	b	165bc <qsort+0x7e0>
   16810:	e1a0300b 	mov	r3, fp
   16814:	e1a02004 	mov	r2, r4
   16818:	e1a0b008 	mov	fp, r8
   1681c:	e1a04006 	mov	r4, r6
   16820:	e1a08009 	mov	r8, r9
   16824:	e59d600c 	ldr	r6, [sp, #12]
   16828:	e1a09003 	mov	r9, r3
   1682c:	eafffdfc 	b	16024 <qsort+0x248>

00016830 <strcmp>:
   16830:	e020c001 	eor	ip, r0, r1
   16834:	e31c0003 	tst	ip, #3
   16838:	1a000021 	bne	168c4 <strcmp+0x94>
   1683c:	e210c003 	ands	ip, r0, #3
   16840:	e3c00003 	bic	r0, r0, #3
   16844:	e3c11003 	bic	r1, r1, #3
   16848:	e4902004 	ldr	r2, [r0], #4
   1684c:	04913004 	ldreq	r3, [r1], #4
   16850:	0a000006 	beq	16870 <strcmp+0x40>
   16854:	e22cc003 	eor	ip, ip, #3
   16858:	e3e034ff 	mvn	r3, #-16777216	; 0xff000000
   1685c:	e1a0c18c 	lsl	ip, ip, #3
   16860:	e1a0cc33 	lsr	ip, r3, ip
   16864:	e4913004 	ldr	r3, [r1], #4
   16868:	e182200c 	orr	r2, r2, ip
   1686c:	e183300c 	orr	r3, r3, ip
   16870:	e52d4004 	push	{r4}		; (str r4, [sp, #-4]!)
   16874:	e3a04001 	mov	r4, #1
   16878:	e1844404 	orr	r4, r4, r4, lsl #8
   1687c:	e1844804 	orr	r4, r4, r4, lsl #16
   16880:	e042c004 	sub	ip, r2, r4
   16884:	e1520003 	cmp	r2, r3
   16888:	01ccc002 	biceq	ip, ip, r2
   1688c:	011c0384 	tsteq	ip, r4, lsl #7
   16890:	04902004 	ldreq	r2, [r0], #4
   16894:	04913004 	ldreq	r3, [r1], #4
   16898:	0afffff8 	beq	16880 <strcmp+0x50>
   1689c:	e1a00c02 	lsl	r0, r2, #24
   168a0:	e1a02422 	lsr	r2, r2, #8
   168a4:	e3500001 	cmp	r0, #1
   168a8:	21500c03 	cmpcs	r0, r3, lsl #24
   168ac:	01a03423 	lsreq	r3, r3, #8
   168b0:	0afffff9 	beq	1689c <strcmp+0x6c>
   168b4:	e20330ff 	and	r3, r3, #255	; 0xff
   168b8:	e0630c20 	rsb	r0, r3, r0, lsr #24
   168bc:	e49d4004 	pop	{r4}		; (ldr r4, [sp], #4)
   168c0:	e12fff1e 	bx	lr
   168c4:	e3100003 	tst	r0, #3
   168c8:	0a000006 	beq	168e8 <strcmp+0xb8>
   168cc:	e4d02001 	ldrb	r2, [r0], #1
   168d0:	e4d13001 	ldrb	r3, [r1], #1
   168d4:	e3520001 	cmp	r2, #1
   168d8:	21520003 	cmpcs	r2, r3
   168dc:	0afffff8 	beq	168c4 <strcmp+0x94>
   168e0:	e0420003 	sub	r0, r2, r3
   168e4:	e12fff1e 	bx	lr
   168e8:	e92d0030 	push	{r4, r5}
   168ec:	e3a04001 	mov	r4, #1
   168f0:	e1844404 	orr	r4, r4, r4, lsl #8
   168f4:	e1844804 	orr	r4, r4, r4, lsl #16
   168f8:	e4902004 	ldr	r2, [r0], #4
   168fc:	e2015003 	and	r5, r1, #3
   16900:	e3c11003 	bic	r1, r1, #3
   16904:	e4913004 	ldr	r3, [r1], #4
   16908:	e3550002 	cmp	r5, #2
   1690c:	0a000017 	beq	16970 <strcmp+0x140>
   16910:	8a00002d 	bhi	169cc <strcmp+0x19c>
   16914:	e3c254ff 	bic	r5, r2, #-16777216	; 0xff000000
   16918:	e1550423 	cmp	r5, r3, lsr #8
   1691c:	e042c004 	sub	ip, r2, r4
   16920:	e1ccc002 	bic	ip, ip, r2
   16924:	1a000007 	bne	16948 <strcmp+0x118>
   16928:	e01cc384 	ands	ip, ip, r4, lsl #7
   1692c:	04913004 	ldreq	r3, [r1], #4
   16930:	1a000006 	bne	16950 <strcmp+0x120>
   16934:	e0255002 	eor	r5, r5, r2
   16938:	e1550c03 	cmp	r5, r3, lsl #24
   1693c:	1a000008 	bne	16964 <strcmp+0x134>
   16940:	e4902004 	ldr	r2, [r0], #4
   16944:	eafffff2 	b	16914 <strcmp+0xe4>
   16948:	e1a03423 	lsr	r3, r3, #8
   1694c:	ea000036 	b	16a2c <strcmp+0x1fc>
   16950:	e3dcc4ff 	bics	ip, ip, #-16777216	; 0xff000000
   16954:	1a000031 	bne	16a20 <strcmp+0x1f0>
   16958:	e5d13000 	ldrb	r3, [r1]
   1695c:	e1a05c22 	lsr	r5, r2, #24
   16960:	ea000031 	b	16a2c <strcmp+0x1fc>
   16964:	e1a05c22 	lsr	r5, r2, #24
   16968:	e20330ff 	and	r3, r3, #255	; 0xff
   1696c:	ea00002e 	b	16a2c <strcmp+0x1fc>
   16970:	e1a05802 	lsl	r5, r2, #16
   16974:	e042c004 	sub	ip, r2, r4
   16978:	e1a05825 	lsr	r5, r5, #16
   1697c:	e1ccc002 	bic	ip, ip, r2
   16980:	e1550823 	cmp	r5, r3, lsr #16
   16984:	1a00000e 	bne	169c4 <strcmp+0x194>
   16988:	e01cc384 	ands	ip, ip, r4, lsl #7
   1698c:	04913004 	ldreq	r3, [r1], #4
   16990:	1a000004 	bne	169a8 <strcmp+0x178>
   16994:	e0255002 	eor	r5, r5, r2
   16998:	e1550803 	cmp	r5, r3, lsl #16
   1699c:	1a000006 	bne	169bc <strcmp+0x18c>
   169a0:	e4902004 	ldr	r2, [r0], #4
   169a4:	eafffff1 	b	16970 <strcmp+0x140>
   169a8:	e1b0c80c 	lsls	ip, ip, #16
   169ac:	1a00001b 	bne	16a20 <strcmp+0x1f0>
   169b0:	e1d130b0 	ldrh	r3, [r1]
   169b4:	e1a05822 	lsr	r5, r2, #16
   169b8:	ea00001b 	b	16a2c <strcmp+0x1fc>
   169bc:	e1a03803 	lsl	r3, r3, #16
   169c0:	e1a05822 	lsr	r5, r2, #16
   169c4:	e1a03823 	lsr	r3, r3, #16
   169c8:	ea000017 	b	16a2c <strcmp+0x1fc>
   169cc:	e20250ff 	and	r5, r2, #255	; 0xff
   169d0:	e1550c23 	cmp	r5, r3, lsr #24
   169d4:	e042c004 	sub	ip, r2, r4
   169d8:	e1ccc002 	bic	ip, ip, r2
   169dc:	1a000007 	bne	16a00 <strcmp+0x1d0>
   169e0:	e01cc384 	ands	ip, ip, r4, lsl #7
   169e4:	04913004 	ldreq	r3, [r1], #4
   169e8:	1a000006 	bne	16a08 <strcmp+0x1d8>
   169ec:	e0255002 	eor	r5, r5, r2
   169f0:	e1550403 	cmp	r5, r3, lsl #8
   169f4:	1a000006 	bne	16a14 <strcmp+0x1e4>
   169f8:	e4902004 	ldr	r2, [r0], #4
   169fc:	eafffff2 	b	169cc <strcmp+0x19c>
   16a00:	e1a03c23 	lsr	r3, r3, #24
   16a04:	ea000008 	b	16a2c <strcmp+0x1fc>
   16a08:	e31200ff 	tst	r2, #255	; 0xff
   16a0c:	0a000003 	beq	16a20 <strcmp+0x1f0>
   16a10:	e4913004 	ldr	r3, [r1], #4
   16a14:	e1a05422 	lsr	r5, r2, #8
   16a18:	e3c334ff 	bic	r3, r3, #-16777216	; 0xff000000
   16a1c:	ea000002 	b	16a2c <strcmp+0x1fc>
   16a20:	e3a00000 	mov	r0, #0
   16a24:	e8bd0030 	pop	{r4, r5}
   16a28:	e12fff1e 	bx	lr
   16a2c:	e20520ff 	and	r2, r5, #255	; 0xff
   16a30:	e20300ff 	and	r0, r3, #255	; 0xff
   16a34:	e3500001 	cmp	r0, #1
   16a38:	21500002 	cmpcs	r0, r2
   16a3c:	01a05425 	lsreq	r5, r5, #8
   16a40:	01a03423 	lsreq	r3, r3, #8
   16a44:	0afffff8 	beq	16a2c <strcmp+0x1fc>
   16a48:	e0420000 	sub	r0, r2, r0
   16a4c:	e8bd0030 	pop	{r4, r5}
   16a50:	e12fff1e 	bx	lr

00016a54 <strcpy>:
   16a54:	e0202001 	eor	r2, r0, r1
   16a58:	e1a0c000 	mov	ip, r0
   16a5c:	e3120003 	tst	r2, #3
   16a60:	1a000032 	bne	16b30 <strcpy+0xdc>
   16a64:	e3110003 	tst	r1, #3
   16a68:	1a000021 	bne	16af4 <strcpy+0xa0>
   16a6c:	e52d5004 	push	{r5}		; (str r5, [sp, #-4]!)
   16a70:	e3a05001 	mov	r5, #1
   16a74:	e1855405 	orr	r5, r5, r5, lsl #8
   16a78:	e1855805 	orr	r5, r5, r5, lsl #16
   16a7c:	e52d4004 	push	{r4}		; (str r4, [sp, #-4]!)
   16a80:	e3110004 	tst	r1, #4
   16a84:	e4913004 	ldr	r3, [r1], #4
   16a88:	0a000005 	beq	16aa4 <strcpy+0x50>
   16a8c:	e0432005 	sub	r2, r3, r5
   16a90:	e1d22003 	bics	r2, r2, r3
   16a94:	e1120385 	tst	r2, r5, lsl #7
   16a98:	048c3004 	streq	r3, [ip], #4
   16a9c:	04913004 	ldreq	r3, [r1], #4
   16aa0:	1a00000c 	bne	16ad8 <strcpy+0x84>
   16aa4:	e4914004 	ldr	r4, [r1], #4
   16aa8:	e0432005 	sub	r2, r3, r5
   16aac:	e1d22003 	bics	r2, r2, r3
   16ab0:	e1120385 	tst	r2, r5, lsl #7
   16ab4:	e0442005 	sub	r2, r4, r5
   16ab8:	1a000006 	bne	16ad8 <strcpy+0x84>
   16abc:	e48c3004 	str	r3, [ip], #4
   16ac0:	e1d22004 	bics	r2, r2, r4
   16ac4:	e1120385 	tst	r2, r5, lsl #7
   16ac8:	04913004 	ldreq	r3, [r1], #4
   16acc:	048c4004 	streq	r4, [ip], #4
   16ad0:	0afffff3 	beq	16aa4 <strcpy+0x50>
   16ad4:	e1a03004 	mov	r3, r4
   16ad8:	e4cc3001 	strb	r3, [ip], #1
   16adc:	e31300ff 	tst	r3, #255	; 0xff
   16ae0:	e1a03463 	ror	r3, r3, #8
   16ae4:	1afffffb 	bne	16ad8 <strcpy+0x84>
   16ae8:	e49d4004 	pop	{r4}		; (ldr r4, [sp], #4)
   16aec:	e49d5004 	pop	{r5}		; (ldr r5, [sp], #4)
   16af0:	e12fff1e 	bx	lr
   16af4:	e3110001 	tst	r1, #1
   16af8:	0a000003 	beq	16b0c <strcpy+0xb8>
   16afc:	e4d12001 	ldrb	r2, [r1], #1
   16b00:	e4cc2001 	strb	r2, [ip], #1
   16b04:	e3520000 	cmp	r2, #0
   16b08:	012fff1e 	bxeq	lr
   16b0c:	e3110002 	tst	r1, #2
   16b10:	0affffd5 	beq	16a6c <strcpy+0x18>
   16b14:	e0d120b2 	ldrh	r2, [r1], #2
   16b18:	e31200ff 	tst	r2, #255	; 0xff
   16b1c:	10cc20b2 	strhne	r2, [ip], #2
   16b20:	05cc2000 	strbeq	r2, [ip]
   16b24:	13120cff 	tstne	r2, #65280	; 0xff00
   16b28:	1affffcf 	bne	16a6c <strcpy+0x18>
   16b2c:	e12fff1e 	bx	lr
   16b30:	e4d12001 	ldrb	r2, [r1], #1
   16b34:	e4cc2001 	strb	r2, [ip], #1
   16b38:	e3520000 	cmp	r2, #0
   16b3c:	1afffffb 	bne	16b30 <strcpy+0xdc>
   16b40:	e12fff1e 	bx	lr

00016b44 <strlen>:
   16b44:	e3c01003 	bic	r1, r0, #3
   16b48:	e2100003 	ands	r0, r0, #3
   16b4c:	e2600000 	rsb	r0, r0, #0
   16b50:	e4913004 	ldr	r3, [r1], #4
   16b54:	e280c004 	add	ip, r0, #4
   16b58:	e1a0c18c 	lsl	ip, ip, #3
   16b5c:	e3e02000 	mvn	r2, #0
   16b60:	11833c32 	orrne	r3, r3, r2, lsr ip
   16b64:	e3a0c001 	mov	ip, #1
   16b68:	e18cc40c 	orr	ip, ip, ip, lsl #8
   16b6c:	e18cc80c 	orr	ip, ip, ip, lsl #16
   16b70:	e043200c 	sub	r2, r3, ip
   16b74:	e1c22003 	bic	r2, r2, r3
   16b78:	e012238c 	ands	r2, r2, ip, lsl #7
   16b7c:	04913004 	ldreq	r3, [r1], #4
   16b80:	02800004 	addeq	r0, r0, #4
   16b84:	0afffff9 	beq	16b70 <strlen+0x2c>
   16b88:	e31300ff 	tst	r3, #255	; 0xff
   16b8c:	12800001 	addne	r0, r0, #1
   16b90:	13130cff 	tstne	r3, #65280	; 0xff00
   16b94:	12800001 	addne	r0, r0, #1
   16b98:	131308ff 	tstne	r3, #16711680	; 0xff0000
   16b9c:	12800001 	addne	r0, r0, #1
   16ba0:	e12fff1e 	bx	lr

00016ba4 <strncpy>:
   16ba4:	e1803001 	orr	r3, r0, r1
   16ba8:	e3520003 	cmp	r2, #3
   16bac:	e2033003 	and	r3, r3, #3
   16bb0:	93a0c000 	movls	ip, #0
   16bb4:	83a0c001 	movhi	ip, #1
   16bb8:	e3530000 	cmp	r3, #0
   16bbc:	13a0c000 	movne	ip, #0
   16bc0:	e35c0000 	cmp	ip, #0
   16bc4:	01a0c000 	moveq	ip, r0
   16bc8:	e92d4070 	push	{r4, r5, r6, lr}
   16bcc:	1a000015 	bne	16c28 <strncpy+0x84>
   16bd0:	e241e001 	sub	lr, r1, #1
   16bd4:	ea000007 	b	16bf8 <strncpy+0x54>
   16bd8:	e1a0300c 	mov	r3, ip
   16bdc:	e5fe1001 	ldrb	r1, [lr, #1]!
   16be0:	e3510000 	cmp	r1, #0
   16be4:	e4c31001 	strb	r1, [r3], #1
   16be8:	e2424001 	sub	r4, r2, #1
   16bec:	0a000005 	beq	16c08 <strncpy+0x64>
   16bf0:	e1a0c003 	mov	ip, r3
   16bf4:	e1a02004 	mov	r2, r4
   16bf8:	e3520000 	cmp	r2, #0
   16bfc:	1afffff5 	bne	16bd8 <strncpy+0x34>
   16c00:	e8bd4070 	pop	{r4, r5, r6, lr}
   16c04:	e12fff1e 	bx	lr
   16c08:	e3540000 	cmp	r4, #0
   16c0c:	108c2002 	addne	r2, ip, r2
   16c10:	0afffffa 	beq	16c00 <strncpy+0x5c>
   16c14:	e4c31001 	strb	r1, [r3], #1
   16c18:	e1530002 	cmp	r3, r2
   16c1c:	1afffffc 	bne	16c14 <strncpy+0x70>
   16c20:	e8bd4070 	pop	{r4, r5, r6, lr}
   16c24:	e12fff1e 	bx	lr
   16c28:	e1a03001 	mov	r3, r1
   16c2c:	e1a0c000 	mov	ip, r0
   16c30:	e59f6030 	ldr	r6, [pc, #48]	; 16c68 <strncpy+0xc4>
   16c34:	e59f5030 	ldr	r5, [pc, #48]	; 16c6c <strncpy+0xc8>
   16c38:	e1a01003 	mov	r1, r3
   16c3c:	e4934004 	ldr	r4, [r3], #4
   16c40:	e084e006 	add	lr, r4, r6
   16c44:	e1cee004 	bic	lr, lr, r4
   16c48:	e11e0005 	tst	lr, r5
   16c4c:	1affffdf 	bne	16bd0 <strncpy+0x2c>
   16c50:	e2422004 	sub	r2, r2, #4
   16c54:	e3520003 	cmp	r2, #3
   16c58:	e1a01003 	mov	r1, r3
   16c5c:	e48c4004 	str	r4, [ip], #4
   16c60:	8afffff4 	bhi	16c38 <strncpy+0x94>
   16c64:	eaffffd9 	b	16bd0 <strncpy+0x2c>
   16c68:	fefefeff 	mrc2	14, 7, pc, cr14, cr15, {7}
   16c6c:	80808080 	addhi	r8, r0, r0, lsl #1

00016c70 <two_way_long_needle>:
   16c70:	e92d4ff0 	push	{r4, r5, r6, r7, r8, r9, sl, fp, lr}
   16c74:	e3530001 	cmp	r3, #1
   16c78:	e24dde41 	sub	sp, sp, #1040	; 0x410
   16c7c:	e1a05003 	mov	r5, r3
   16c80:	e1a0b000 	mov	fp, r0
   16c84:	e1a07001 	mov	r7, r1
   16c88:	e1a08002 	mov	r8, r2
   16c8c:	e24dd004 	sub	sp, sp, #4
   16c90:	9a0000fa 	bls	17080 <two_way_long_needle+0x410>
   16c94:	e3a03001 	mov	r3, #1
   16c98:	e3a01000 	mov	r1, #0
   16c9c:	e1a0e003 	mov	lr, r3
   16ca0:	e3e09000 	mvn	r9, #0
   16ca4:	e1a02003 	mov	r2, r3
   16ca8:	ea000005 	b	16cc4 <two_way_long_needle+0x54>
   16cac:	e1a01003 	mov	r1, r3
   16cb0:	e3a02001 	mov	r2, #1
   16cb4:	e043e009 	sub	lr, r3, r9
   16cb8:	e0823001 	add	r3, r2, r1
   16cbc:	e1550003 	cmp	r5, r3
   16cc0:	9a00000c 	bls	16cf8 <two_way_long_needle+0x88>
   16cc4:	e0880009 	add	r0, r8, r9
   16cc8:	e7d00002 	ldrb	r0, [r0, r2]
   16ccc:	e7d8c003 	ldrb	ip, [r8, r3]
   16cd0:	e15c0000 	cmp	ip, r0
   16cd4:	3afffff4 	bcc	16cac <two_way_long_needle+0x3c>
   16cd8:	0a000064 	beq	16e70 <two_way_long_needle+0x200>
   16cdc:	e3a0e001 	mov	lr, #1
   16ce0:	e1a0200e 	mov	r2, lr
   16ce4:	e1a09001 	mov	r9, r1
   16ce8:	e081100e 	add	r1, r1, lr
   16cec:	e0823001 	add	r3, r2, r1
   16cf0:	e1550003 	cmp	r5, r3
   16cf4:	8afffff2 	bhi	16cc4 <two_way_long_needle+0x54>
   16cf8:	e58de000 	str	lr, [sp]
   16cfc:	e3a0e001 	mov	lr, #1
   16d00:	e3a00000 	mov	r0, #0
   16d04:	e3e0c000 	mvn	ip, #0
   16d08:	e1a0100e 	mov	r1, lr
   16d0c:	e1a0300e 	mov	r3, lr
   16d10:	ea000005 	b	16d2c <two_way_long_needle+0xbc>
   16d14:	e1a00003 	mov	r0, r3
   16d18:	e3a01001 	mov	r1, #1
   16d1c:	e043e00c 	sub	lr, r3, ip
   16d20:	e0803001 	add	r3, r0, r1
   16d24:	e1550003 	cmp	r5, r3
   16d28:	9a00000c 	bls	16d60 <two_way_long_needle+0xf0>
   16d2c:	e0882001 	add	r2, r8, r1
   16d30:	e7d84003 	ldrb	r4, [r8, r3]
   16d34:	e7d2200c 	ldrb	r2, [r2, ip]
   16d38:	e1540002 	cmp	r4, r2
   16d3c:	8afffff4 	bhi	16d14 <two_way_long_needle+0xa4>
   16d40:	0a00004f 	beq	16e84 <two_way_long_needle+0x214>
   16d44:	e3a0e001 	mov	lr, #1
   16d48:	e1a0100e 	mov	r1, lr
   16d4c:	e1a0c000 	mov	ip, r0
   16d50:	e080000e 	add	r0, r0, lr
   16d54:	e0803001 	add	r3, r0, r1
   16d58:	e1550003 	cmp	r5, r3
   16d5c:	8afffff2 	bhi	16d2c <two_way_long_needle+0xbc>
   16d60:	e28cc001 	add	ip, ip, #1
   16d64:	e2899001 	add	r9, r9, #1
   16d68:	e159000c 	cmp	r9, ip
   16d6c:	e59d3000 	ldr	r3, [sp]
   16d70:	91a0300e 	movls	r3, lr
   16d74:	91a0900c 	movls	r9, ip
   16d78:	e58d3000 	str	r3, [sp]
   16d7c:	e28d2b01 	add	r2, sp, #1024	; 0x400
   16d80:	e28d300c 	add	r3, sp, #12
   16d84:	e282200c 	add	r2, r2, #12
   16d88:	e5a35004 	str	r5, [r3, #4]!
   16d8c:	e1530002 	cmp	r3, r2
   16d90:	1afffffc 	bne	16d88 <two_way_long_needle+0x118>
   16d94:	e3550000 	cmp	r5, #0
   16d98:	03e04000 	mvneq	r4, #0
   16d9c:	0a00000b 	beq	16dd0 <two_way_long_needle+0x160>
   16da0:	e2454001 	sub	r4, r5, #1
   16da4:	e2482001 	sub	r2, r8, #1
   16da8:	e0880004 	add	r0, r8, r4
   16dac:	e5f21001 	ldrb	r1, [r2, #1]!
   16db0:	e1e03002 	mvn	r3, r2
   16db4:	e28dce41 	add	ip, sp, #1040	; 0x410
   16db8:	e0833005 	add	r3, r3, r5
   16dbc:	e08c1101 	add	r1, ip, r1, lsl #2
   16dc0:	e0883003 	add	r3, r8, r3
   16dc4:	e1520000 	cmp	r2, r0
   16dc8:	e5013400 	str	r3, [r1, #-1024]	; 0xfffffc00
   16dcc:	1afffff6 	bne	16dac <two_way_long_needle+0x13c>
   16dd0:	e59d6000 	ldr	r6, [sp]
   16dd4:	e1a02009 	mov	r2, r9
   16dd8:	e1a00008 	mov	r0, r8
   16ddc:	e0881006 	add	r1, r8, r6
   16de0:	eb000146 	bl	17300 <memcmp>
   16de4:	e250a000 	subs	sl, r0, #0
   16de8:	1a000061 	bne	16f74 <two_way_long_needle+0x304>
   16dec:	e2493001 	sub	r3, r9, #1
   16df0:	e58d300c 	str	r3, [sp, #12]
   16df4:	e0453006 	sub	r3, r5, r6
   16df8:	e1a0600a 	mov	r6, sl
   16dfc:	e58d3004 	str	r3, [sp, #4]
   16e00:	e08be006 	add	lr, fp, r6
   16e04:	e7de3004 	ldrb	r3, [lr, r4]
   16e08:	e28d2e41 	add	r2, sp, #1040	; 0x410
   16e0c:	e0823103 	add	r3, r2, r3, lsl #2
   16e10:	e5133400 	ldr	r3, [r3, #-1024]	; 0xfffffc00
   16e14:	e3530000 	cmp	r3, #0
   16e18:	0a00001e 	beq	16e98 <two_way_long_needle+0x228>
   16e1c:	e59d2000 	ldr	r2, [sp]
   16e20:	e35a0000 	cmp	sl, #0
   16e24:	11530002 	cmpne	r3, r2
   16e28:	359d3004 	ldrcc	r3, [sp, #4]
   16e2c:	e3a0a000 	mov	sl, #0
   16e30:	e0866003 	add	r6, r6, r3
   16e34:	e0473005 	sub	r3, r7, r5
   16e38:	e1530006 	cmp	r3, r6
   16e3c:	2affffef 	bcs	16e00 <two_way_long_needle+0x190>
   16e40:	e08b0007 	add	r0, fp, r7
   16e44:	e3851b02 	orr	r1, r5, #2048	; 0x800
   16e48:	eb0001ab 	bl	174fc <strnlen>
   16e4c:	e0877000 	add	r7, r7, r0
   16e50:	e0473005 	sub	r3, r7, r5
   16e54:	e1530006 	cmp	r3, r6
   16e58:	2affffe8 	bcs	16e00 <two_way_long_needle+0x190>
   16e5c:	e3a00000 	mov	r0, #0
   16e60:	e28dde41 	add	sp, sp, #1040	; 0x410
   16e64:	e28dd004 	add	sp, sp, #4
   16e68:	e8bd4ff0 	pop	{r4, r5, r6, r7, r8, r9, sl, fp, lr}
   16e6c:	e12fff1e 	bx	lr
   16e70:	e15e0002 	cmp	lr, r2
   16e74:	03a02001 	moveq	r2, #1
   16e78:	12822001 	addne	r2, r2, #1
   16e7c:	0081100e 	addeq	r1, r1, lr
   16e80:	eaffff8c 	b	16cb8 <two_way_long_needle+0x48>
   16e84:	e15e0001 	cmp	lr, r1
   16e88:	03a01001 	moveq	r1, #1
   16e8c:	12811001 	addne	r1, r1, #1
   16e90:	0080000e 	addeq	r0, r0, lr
   16e94:	eaffffa1 	b	16d20 <two_way_long_needle+0xb0>
   16e98:	e159000a 	cmp	r9, sl
   16e9c:	21a03009 	movcs	r3, r9
   16ea0:	31a0300a 	movcc	r3, sl
   16ea4:	e1530004 	cmp	r3, r4
   16ea8:	2a00000e 	bcs	16ee8 <two_way_long_needle+0x278>
   16eac:	e2431001 	sub	r1, r3, #1
   16eb0:	e0832006 	add	r2, r3, r6
   16eb4:	e0881001 	add	r1, r8, r1
   16eb8:	e08b2002 	add	r2, fp, r2
   16ebc:	ea000002 	b	16ecc <two_way_long_needle+0x25c>
   16ec0:	e2833001 	add	r3, r3, #1
   16ec4:	e1530004 	cmp	r3, r4
   16ec8:	2a000006 	bcs	16ee8 <two_way_long_needle+0x278>
   16ecc:	e4d20001 	ldrb	r0, [r2], #1
   16ed0:	e5f1c001 	ldrb	ip, [r1, #1]!
   16ed4:	e15c0000 	cmp	ip, r0
   16ed8:	0afffff8 	beq	16ec0 <two_way_long_needle+0x250>
   16edc:	e2692001 	rsb	r2, r9, #1
   16ee0:	e0826006 	add	r6, r2, r6
   16ee4:	eaffffd0 	b	16e2c <two_way_long_needle+0x1bc>
   16ee8:	e159000a 	cmp	r9, sl
   16eec:	e59d300c 	ldr	r3, [sp, #12]
   16ef0:	9a000060 	bls	17078 <two_way_long_needle+0x408>
   16ef4:	e0892006 	add	r2, r9, r6
   16ef8:	e58d9008 	str	r9, [sp, #8]
   16efc:	e08b2002 	add	r2, fp, r2
   16f00:	e0881009 	add	r1, r8, r9
   16f04:	ea000002 	b	16f14 <two_way_long_needle+0x2a4>
   16f08:	e153000a 	cmp	r3, sl
   16f0c:	e2433001 	sub	r3, r3, #1
   16f10:	0a00000d 	beq	16f4c <two_way_long_needle+0x2dc>
   16f14:	e571c001 	ldrb	ip, [r1, #-1]!
   16f18:	e5720001 	ldrb	r0, [r2, #-1]!
   16f1c:	e15c0000 	cmp	ip, r0
   16f20:	e2839001 	add	r9, r3, #1
   16f24:	0afffff7 	beq	16f08 <two_way_long_needle+0x298>
   16f28:	e1a03009 	mov	r3, r9
   16f2c:	e59d9008 	ldr	r9, [sp, #8]
   16f30:	e28aa001 	add	sl, sl, #1
   16f34:	e15a0003 	cmp	sl, r3
   16f38:	8a000008 	bhi	16f60 <two_way_long_needle+0x2f0>
   16f3c:	e59d3000 	ldr	r3, [sp]
   16f40:	e59da004 	ldr	sl, [sp, #4]
   16f44:	e0866003 	add	r6, r6, r3
   16f48:	eaffffb9 	b	16e34 <two_way_long_needle+0x1c4>
   16f4c:	e1a0300a 	mov	r3, sl
   16f50:	e28aa001 	add	sl, sl, #1
   16f54:	e15a0003 	cmp	sl, r3
   16f58:	e59d9008 	ldr	r9, [sp, #8]
   16f5c:	9afffff6 	bls	16f3c <two_way_long_needle+0x2cc>
   16f60:	e1a0000e 	mov	r0, lr
   16f64:	e28dde41 	add	sp, sp, #1040	; 0x410
   16f68:	e28dd004 	add	sp, sp, #4
   16f6c:	e8bd4ff0 	pop	{r4, r5, r6, r7, r8, r9, sl, fp, lr}
   16f70:	e12fff1e 	bx	lr
   16f74:	e0453009 	sub	r3, r5, r9
   16f78:	e1530009 	cmp	r3, r9
   16f7c:	31a03009 	movcc	r3, r9
   16f80:	e3a0a000 	mov	sl, #0
   16f84:	e2492001 	sub	r2, r9, #1
   16f88:	e58d2000 	str	r2, [sp]
   16f8c:	e2833001 	add	r3, r3, #1
   16f90:	e2692001 	rsb	r2, r9, #1
   16f94:	e58d2004 	str	r2, [sp, #4]
   16f98:	e58d3008 	str	r3, [sp, #8]
   16f9c:	e3856b02 	orr	r6, r5, #2048	; 0x800
   16fa0:	e08be00a 	add	lr, fp, sl
   16fa4:	e7de3004 	ldrb	r3, [lr, r4]
   16fa8:	e28d2e41 	add	r2, sp, #1040	; 0x410
   16fac:	e0823103 	add	r3, r2, r3, lsl #2
   16fb0:	e5133400 	ldr	r3, [r3, #-1024]	; 0xfffffc00
   16fb4:	e3530000 	cmp	r3, #0
   16fb8:	0a00000b 	beq	16fec <two_way_long_needle+0x37c>
   16fbc:	e08aa003 	add	sl, sl, r3
   16fc0:	e0473005 	sub	r3, r7, r5
   16fc4:	e15a0003 	cmp	sl, r3
   16fc8:	9afffff4 	bls	16fa0 <two_way_long_needle+0x330>
   16fcc:	e08b0007 	add	r0, fp, r7
   16fd0:	e1a01006 	mov	r1, r6
   16fd4:	eb000148 	bl	174fc <strnlen>
   16fd8:	e0877000 	add	r7, r7, r0
   16fdc:	e0473005 	sub	r3, r7, r5
   16fe0:	e15a0003 	cmp	sl, r3
   16fe4:	9affffed 	bls	16fa0 <two_way_long_needle+0x330>
   16fe8:	eaffff9b 	b	16e5c <two_way_long_needle+0x1ec>
   16fec:	e1590004 	cmp	r9, r4
   16ff0:	2a000010 	bcs	17038 <two_way_long_needle+0x3c8>
   16ff4:	e59d3000 	ldr	r3, [sp]
   16ff8:	e089200a 	add	r2, r9, sl
   16ffc:	e0881003 	add	r1, r8, r3
   17000:	e08b2002 	add	r2, fp, r2
   17004:	e1a03009 	mov	r3, r9
   17008:	ea000002 	b	17018 <two_way_long_needle+0x3a8>
   1700c:	e2833001 	add	r3, r3, #1
   17010:	e1530004 	cmp	r3, r4
   17014:	2a000007 	bcs	17038 <two_way_long_needle+0x3c8>
   17018:	e4d20001 	ldrb	r0, [r2], #1
   1701c:	e5f1c001 	ldrb	ip, [r1, #1]!
   17020:	e15c0000 	cmp	ip, r0
   17024:	0afffff8 	beq	1700c <two_way_long_needle+0x39c>
   17028:	e59d2004 	ldr	r2, [sp, #4]
   1702c:	e082a00a 	add	sl, r2, sl
   17030:	e08aa003 	add	sl, sl, r3
   17034:	eaffffe1 	b	16fc0 <two_way_long_needle+0x350>
   17038:	e3590000 	cmp	r9, #0
   1703c:	0affffc7 	beq	16f60 <two_way_long_needle+0x2f0>
   17040:	e089100a 	add	r1, r9, sl
   17044:	e08b1001 	add	r1, fp, r1
   17048:	e0882009 	add	r2, r8, r9
   1704c:	ea000002 	b	1705c <two_way_long_needle+0x3ec>
   17050:	e2433001 	sub	r3, r3, #1
   17054:	e1530008 	cmp	r3, r8
   17058:	0affffc0 	beq	16f60 <two_way_long_needle+0x2f0>
   1705c:	e1a03002 	mov	r3, r2
   17060:	e5710001 	ldrb	r0, [r1, #-1]!
   17064:	e572c001 	ldrb	ip, [r2, #-1]!
   17068:	e15c0000 	cmp	ip, r0
   1706c:	0afffff7 	beq	17050 <two_way_long_needle+0x3e0>
   17070:	e59d3008 	ldr	r3, [sp, #8]
   17074:	eaffffd0 	b	16fbc <two_way_long_needle+0x34c>
   17078:	e1a03009 	mov	r3, r9
   1707c:	eaffffab 	b	16f30 <two_way_long_needle+0x2c0>
   17080:	e3a03001 	mov	r3, #1
   17084:	e3a09000 	mov	r9, #0
   17088:	e58d3000 	str	r3, [sp]
   1708c:	eaffff3a 	b	16d7c <two_way_long_needle+0x10c>

00017090 <strstr>:
   17090:	e92d41f0 	push	{r4, r5, r6, r7, r8, lr}
   17094:	e1a05001 	mov	r5, r1
   17098:	e5d11000 	ldrb	r1, [r1]
   1709c:	e3510000 	cmp	r1, #0
   170a0:	e1a04000 	mov	r4, r0
   170a4:	e24dd040 	sub	sp, sp, #64	; 0x40
   170a8:	0a000041 	beq	171b4 <strstr+0x124>
   170ac:	e5d52001 	ldrb	r2, [r5, #1]
   170b0:	e3520000 	cmp	r2, #0
   170b4:	0a00005e 	beq	17234 <strstr+0x1a4>
   170b8:	e5d53002 	ldrb	r3, [r5, #2]
   170bc:	e3530000 	cmp	r3, #0
   170c0:	0a00003f 	beq	171c4 <strstr+0x134>
   170c4:	e5d5e003 	ldrb	lr, [r5, #3]
   170c8:	e35e0000 	cmp	lr, #0
   170cc:	0a000073 	beq	172a0 <strstr+0x210>
   170d0:	e5d50004 	ldrb	r0, [r5, #4]
   170d4:	e3500000 	cmp	r0, #0
   170d8:	0a00005b 	beq	1724c <strstr+0x1bc>
   170dc:	e1a00005 	mov	r0, r5
   170e0:	ebfffe97 	bl	16b44 <strlen>
   170e4:	e1a06000 	mov	r6, r0
   170e8:	e1a00004 	mov	r0, r4
   170ec:	e3861c02 	orr	r1, r6, #512	; 0x200
   170f0:	eb000101 	bl	174fc <strnlen>
   170f4:	e1560000 	cmp	r6, r0
   170f8:	8a00003e 	bhi	171f8 <strstr+0x168>
   170fc:	e35600fe 	cmp	r6, #254	; 0xfe
   17100:	8a000077 	bhi	172e4 <strstr+0x254>
   17104:	e0400006 	sub	r0, r0, r6
   17108:	e3a02040 	mov	r2, #64	; 0x40
   1710c:	e0847000 	add	r7, r4, r0
   17110:	e2861001 	add	r1, r6, #1
   17114:	e1a0000d 	mov	r0, sp
   17118:	ebfffae8 	bl	15cc0 <memset>
   1711c:	e3560000 	cmp	r6, #0
   17120:	0a00000b 	beq	17154 <strstr+0xc4>
   17124:	e2452001 	sub	r2, r5, #1
   17128:	e206c0ff 	and	ip, r6, #255	; 0xff
   1712c:	e0820006 	add	r0, r2, r6
   17130:	e5f23001 	ldrb	r3, [r2, #1]!
   17134:	e203303f 	and	r3, r3, #63	; 0x3f
   17138:	e2833040 	add	r3, r3, #64	; 0x40
   1713c:	e0451002 	sub	r1, r5, r2
   17140:	e08d3003 	add	r3, sp, r3
   17144:	e08c1001 	add	r1, ip, r1
   17148:	e1520000 	cmp	r2, r0
   1714c:	e5431040 	strb	r1, [r3, #-64]	; 0xffffffc0
   17150:	1afffff6 	bne	17130 <strstr+0xa0>
   17154:	e2444001 	sub	r4, r4, #1
   17158:	e7d43006 	ldrb	r3, [r4, r6]
   1715c:	e203303f 	and	r3, r3, #63	; 0x3f
   17160:	e2833040 	add	r3, r3, #64	; 0x40
   17164:	e08d3003 	add	r3, sp, r3
   17168:	e5530040 	ldrb	r0, [r3, #-64]	; 0xffffffc0
   1716c:	e0844000 	add	r4, r4, r0
   17170:	e1570004 	cmp	r7, r4
   17174:	2a000003 	bcs	17188 <strstr+0xf8>
   17178:	ea000023 	b	1720c <strstr+0x17c>
   1717c:	e0844008 	add	r4, r4, r8
   17180:	e1570004 	cmp	r7, r4
   17184:	3a000020 	bcc	1720c <strstr+0x17c>
   17188:	e7d4c006 	ldrb	ip, [r4, r6]
   1718c:	e20cc03f 	and	ip, ip, #63	; 0x3f
   17190:	e28c3040 	add	r3, ip, #64	; 0x40
   17194:	e08dc003 	add	ip, sp, r3
   17198:	e1a00004 	mov	r0, r4
   1719c:	e1a02006 	mov	r2, r6
   171a0:	e1a01005 	mov	r1, r5
   171a4:	e55c8040 	ldrb	r8, [ip, #-64]	; 0xffffffc0
   171a8:	eb000054 	bl	17300 <memcmp>
   171ac:	e3500000 	cmp	r0, #0
   171b0:	1afffff1 	bne	1717c <strstr+0xec>
   171b4:	e1a00004 	mov	r0, r4
   171b8:	e28dd040 	add	sp, sp, #64	; 0x40
   171bc:	e8bd41f0 	pop	{r4, r5, r6, r7, r8, lr}
   171c0:	e12fff1e 	bx	lr
   171c4:	e5d0c000 	ldrb	ip, [r0]
   171c8:	e35c0000 	cmp	ip, #0
   171cc:	e1822801 	orr	r2, r2, r1, lsl #16
   171d0:	0a000008 	beq	171f8 <strstr+0x168>
   171d4:	e18c3803 	orr	r3, ip, r3, lsl #16
   171d8:	e1a00004 	mov	r0, r4
   171dc:	e5f4c001 	ldrb	ip, [r4, #1]!
   171e0:	e1520003 	cmp	r2, r3
   171e4:	135c0000 	cmpne	ip, #0
   171e8:	1afffff9 	bne	171d4 <strstr+0x144>
   171ec:	e1520003 	cmp	r2, r3
   171f0:	02404001 	subeq	r4, r0, #1
   171f4:	0affffee 	beq	171b4 <strstr+0x124>
   171f8:	e3a04000 	mov	r4, #0
   171fc:	e1a00004 	mov	r0, r4
   17200:	e28dd040 	add	sp, sp, #64	; 0x40
   17204:	e8bd41f0 	pop	{r4, r5, r6, r7, r8, lr}
   17208:	e12fff1e 	bx	lr
   1720c:	e7d73006 	ldrb	r3, [r7, r6]
   17210:	e3530000 	cmp	r3, #0
   17214:	e0870006 	add	r0, r7, r6
   17218:	0afffff6 	beq	171f8 <strstr+0x168>
   1721c:	e3a01b02 	mov	r1, #2048	; 0x800
   17220:	eb0000b5 	bl	174fc <strnlen>
   17224:	e0877000 	add	r7, r7, r0
   17228:	e1570004 	cmp	r7, r4
   1722c:	2affffc8 	bcs	17154 <strstr+0xc4>
   17230:	eafffff0 	b	171f8 <strstr+0x168>
   17234:	eb00005c 	bl	173ac <strchr>
   17238:	e1a04000 	mov	r4, r0
   1723c:	e1a00004 	mov	r0, r4
   17240:	e28dd040 	add	sp, sp, #64	; 0x40
   17244:	e8bd41f0 	pop	{r4, r5, r6, r7, r8, lr}
   17248:	e12fff1e 	bx	lr
   1724c:	e5d4c000 	ldrb	ip, [r4]
   17250:	e35c0000 	cmp	ip, #0
   17254:	0affffe7 	beq	171f8 <strstr+0x168>
   17258:	e1812402 	orr	r2, r1, r2, lsl #8
   1725c:	e1a01000 	mov	r1, r0
   17260:	e1823803 	orr	r3, r2, r3, lsl #16
   17264:	e1833c0e 	orr	r3, r3, lr, lsl #24
   17268:	e0232863 	eor	r2, r3, r3, ror #16
   1726c:	e1a02422 	lsr	r2, r2, #8
   17270:	e3c22cff 	bic	r2, r2, #65280	; 0xff00
   17274:	e0223463 	eor	r3, r2, r3, ror #8
   17278:	e18c1401 	orr	r1, ip, r1, lsl #8
   1727c:	e1a00004 	mov	r0, r4
   17280:	e5f4c001 	ldrb	ip, [r4, #1]!
   17284:	e35c0000 	cmp	ip, #0
   17288:	11510003 	cmpne	r1, r3
   1728c:	1afffff9 	bne	17278 <strstr+0x1e8>
   17290:	e1510003 	cmp	r1, r3
   17294:	02404003 	subeq	r4, r0, #3
   17298:	0affffc5 	beq	171b4 <strstr+0x124>
   1729c:	eaffffd5 	b	171f8 <strstr+0x168>
   172a0:	e1a02802 	lsl	r2, r2, #16
   172a4:	e1822c01 	orr	r2, r2, r1, lsl #24
   172a8:	e5d01000 	ldrb	r1, [r0]
   172ac:	e3510000 	cmp	r1, #0
   172b0:	e1823403 	orr	r3, r2, r3, lsl #8
   172b4:	0affffcf 	beq	171f8 <strstr+0x168>
   172b8:	e181200e 	orr	r2, r1, lr
   172bc:	e1a00004 	mov	r0, r4
   172c0:	e5f41001 	ldrb	r1, [r4, #1]!
   172c4:	e1a0e402 	lsl	lr, r2, #8
   172c8:	e3510000 	cmp	r1, #0
   172cc:	115e0003 	cmpne	lr, r3
   172d0:	1afffff8 	bne	172b8 <strstr+0x228>
   172d4:	e153000e 	cmp	r3, lr
   172d8:	02404002 	subeq	r4, r0, #2
   172dc:	0affffb4 	beq	171b4 <strstr+0x124>
   172e0:	eaffffc4 	b	171f8 <strstr+0x168>
   172e4:	e1a01000 	mov	r1, r0
   172e8:	e1a03006 	mov	r3, r6
   172ec:	e1a02005 	mov	r2, r5
   172f0:	e1a00004 	mov	r0, r4
   172f4:	e28dd040 	add	sp, sp, #64	; 0x40
   172f8:	e8bd41f0 	pop	{r4, r5, r6, r7, r8, lr}
   172fc:	eafffe5b 	b	16c70 <two_way_long_needle>

00017300 <memcmp>:
   17300:	e3520003 	cmp	r2, #3
   17304:	e92d4010 	push	{r4, lr}
   17308:	9a000011 	bls	17354 <memcmp+0x54>
   1730c:	e180e001 	orr	lr, r0, r1
   17310:	e31e0003 	tst	lr, #3
   17314:	e1a0c000 	mov	ip, r0
   17318:	e1a03001 	mov	r3, r1
   1731c:	1a00001d 	bne	17398 <memcmp+0x98>
   17320:	e1a01003 	mov	r1, r3
   17324:	e1a0000c 	mov	r0, ip
   17328:	e591e000 	ldr	lr, [r1]
   1732c:	e5904000 	ldr	r4, [r0]
   17330:	e154000e 	cmp	r4, lr
   17334:	e2833004 	add	r3, r3, #4
   17338:	e28cc004 	add	ip, ip, #4
   1733c:	1a000015 	bne	17398 <memcmp+0x98>
   17340:	e2422004 	sub	r2, r2, #4
   17344:	e3520003 	cmp	r2, #3
   17348:	e1a0000c 	mov	r0, ip
   1734c:	e1a01003 	mov	r1, r3
   17350:	8afffff2 	bhi	17320 <memcmp+0x20>
   17354:	e3520000 	cmp	r2, #0
   17358:	01a00002 	moveq	r0, r2
   1735c:	e2424001 	sub	r4, r2, #1
   17360:	0a00000a 	beq	17390 <memcmp+0x90>
   17364:	e240c001 	sub	ip, r0, #1
   17368:	e2411001 	sub	r1, r1, #1
   1736c:	ea000001 	b	17378 <memcmp+0x78>
   17370:	e0903003 	adds	r3, r0, r3
   17374:	0a000009 	beq	173a0 <memcmp+0xa0>
   17378:	e5fce001 	ldrb	lr, [ip, #1]!
   1737c:	e5f12001 	ldrb	r2, [r1, #1]!
   17380:	e15e0002 	cmp	lr, r2
   17384:	e044300c 	sub	r3, r4, ip
   17388:	0afffff8 	beq	17370 <memcmp+0x70>
   1738c:	e04e0002 	sub	r0, lr, r2
   17390:	e8bd4010 	pop	{r4, lr}
   17394:	e12fff1e 	bx	lr
   17398:	e2424001 	sub	r4, r2, #1
   1739c:	eafffff0 	b	17364 <memcmp+0x64>
   173a0:	e1a00003 	mov	r0, r3
   173a4:	e8bd4010 	pop	{r4, lr}
   173a8:	e12fff1e 	bx	lr

000173ac <strchr>:
   173ac:	e21110ff 	ands	r1, r1, #255	; 0xff
   173b0:	0a00002e 	beq	17470 <strchr+0xc4>
   173b4:	e3100003 	tst	r0, #3
   173b8:	e1a03000 	mov	r3, r0
   173bc:	1a000025 	bne	17458 <strchr+0xac>
   173c0:	e92d4070 	push	{r4, r5, r6, lr}
   173c4:	e590c000 	ldr	ip, [r0]
   173c8:	e1815401 	orr	r5, r1, r1, lsl #8
   173cc:	e59f4120 	ldr	r4, [pc, #288]	; 174f4 <strchr+0x148>
   173d0:	e1855805 	orr	r5, r5, r5, lsl #16
   173d4:	e025200c 	eor	r2, r5, ip
   173d8:	e0823004 	add	r3, r2, r4
   173dc:	e1c33002 	bic	r3, r3, r2
   173e0:	e08c2004 	add	r2, ip, r4
   173e4:	e59f610c 	ldr	r6, [pc, #268]	; 174f8 <strchr+0x14c>
   173e8:	e1c2200c 	bic	r2, r2, ip
   173ec:	e1833002 	orr	r3, r3, r2
   173f0:	e1130006 	tst	r3, r6
   173f4:	1a000008 	bne	1741c <strchr+0x70>
   173f8:	e5b0c004 	ldr	ip, [r0, #4]!
   173fc:	e02ce005 	eor	lr, ip, r5
   17400:	e08c3004 	add	r3, ip, r4
   17404:	e08e2004 	add	r2, lr, r4
   17408:	e1c3300c 	bic	r3, r3, ip
   1740c:	e1c2200e 	bic	r2, r2, lr
   17410:	e1833002 	orr	r3, r3, r2
   17414:	e1130006 	tst	r3, r6
   17418:	0afffff6 	beq	173f8 <strchr+0x4c>
   1741c:	e5d03000 	ldrb	r3, [r0]
   17420:	e3530000 	cmp	r3, #0
   17424:	1a000003 	bne	17438 <strchr+0x8c>
   17428:	ea00002e 	b	174e8 <strchr+0x13c>
   1742c:	e5f03001 	ldrb	r3, [r0, #1]!
   17430:	e3530000 	cmp	r3, #0
   17434:	0a00002b 	beq	174e8 <strchr+0x13c>
   17438:	e1510003 	cmp	r1, r3
   1743c:	1afffffa 	bne	1742c <strchr+0x80>
   17440:	ea000029 	b	174ec <strchr+0x140>
   17444:	e1520001 	cmp	r2, r1
   17448:	012fff1e 	bxeq	lr
   1744c:	e3130003 	tst	r3, #3
   17450:	e1a00003 	mov	r0, r3
   17454:	0affffd9 	beq	173c0 <strchr+0x14>
   17458:	e1a00003 	mov	r0, r3
   1745c:	e4d32001 	ldrb	r2, [r3], #1
   17460:	e3520000 	cmp	r2, #0
   17464:	1afffff6 	bne	17444 <strchr+0x98>
   17468:	e1a00002 	mov	r0, r2
   1746c:	e12fff1e 	bx	lr
   17470:	e3100003 	tst	r0, #3
   17474:	e1a03000 	mov	r3, r0
   17478:	0a000007 	beq	1749c <strchr+0xf0>
   1747c:	e1a00003 	mov	r0, r3
   17480:	e5d02000 	ldrb	r2, [r0]
   17484:	e3520000 	cmp	r2, #0
   17488:	e2833001 	add	r3, r3, #1
   1748c:	012fff1e 	bxeq	lr
   17490:	e3130003 	tst	r3, #3
   17494:	e1a00003 	mov	r0, r3
   17498:	1afffff7 	bne	1747c <strchr+0xd0>
   1749c:	e5902000 	ldr	r2, [r0]
   174a0:	e59fc04c 	ldr	ip, [pc, #76]	; 174f4 <strchr+0x148>
   174a4:	e59f104c 	ldr	r1, [pc, #76]	; 174f8 <strchr+0x14c>
   174a8:	e082300c 	add	r3, r2, ip
   174ac:	e1c33002 	bic	r3, r3, r2
   174b0:	e1130001 	tst	r3, r1
   174b4:	1a000004 	bne	174cc <strchr+0x120>
   174b8:	e5b02004 	ldr	r2, [r0, #4]!
   174bc:	e082300c 	add	r3, r2, ip
   174c0:	e1c33002 	bic	r3, r3, r2
   174c4:	e1130001 	tst	r3, r1
   174c8:	0afffffa 	beq	174b8 <strchr+0x10c>
   174cc:	e5d03000 	ldrb	r3, [r0]
   174d0:	e3530000 	cmp	r3, #0
   174d4:	012fff1e 	bxeq	lr
   174d8:	e5f03001 	ldrb	r3, [r0, #1]!
   174dc:	e3530000 	cmp	r3, #0
   174e0:	1afffffc 	bne	174d8 <strchr+0x12c>
   174e4:	e12fff1e 	bx	lr
   174e8:	e1a00003 	mov	r0, r3
   174ec:	e8bd4070 	pop	{r4, r5, r6, lr}
   174f0:	e12fff1e 	bx	lr
   174f4:	fefefeff 	mrc2	14, 7, pc, cr14, cr15, {7}
   174f8:	80808080 	addhi	r8, r0, r0, lsl #1

000174fc <strnlen>:
   174fc:	e3510000 	cmp	r1, #0
   17500:	11a03000 	movne	r3, r0
   17504:	1080c001 	addne	ip, r0, r1
   17508:	1a000002 	bne	17518 <strnlen+0x1c>
   1750c:	ea00000a 	b	1753c <strnlen+0x40>
   17510:	e153000c 	cmp	r3, ip
   17514:	0a000006 	beq	17534 <strnlen+0x38>
   17518:	e1a02003 	mov	r2, r3
   1751c:	e5d21000 	ldrb	r1, [r2]
   17520:	e3510000 	cmp	r1, #0
   17524:	e2833001 	add	r3, r3, #1
   17528:	1afffff8 	bne	17510 <strnlen+0x14>
   1752c:	e0420000 	sub	r0, r2, r0
   17530:	e12fff1e 	bx	lr
   17534:	e0430000 	sub	r0, r3, r0
   17538:	e12fff1e 	bx	lr
   1753c:	e1a00001 	mov	r0, r1
   17540:	e12fff1e 	bx	lr

00017544 <__cxa_pure_virtual>:
   17544:	eafffffe 	b	17544 <__cxa_pure_virtual>

00017548 <_Znwj>:
   17548:	e1a0c00d 	mov	ip, sp
   1754c:	e92dd800 	push	{fp, ip, lr, pc}
   17550:	e24cb004 	sub	fp, ip, #4
   17554:	ebffe903 	bl	11968 <malloc>
   17558:	e24bd00c 	sub	sp, fp, #12
   1755c:	e89d6800 	ldm	sp, {fp, sp, lr}
   17560:	e12fff1e 	bx	lr

00017564 <_ZdlPvj>:
   17564:	e1a0c00d 	mov	ip, sp
   17568:	e92dd800 	push	{fp, ip, lr, pc}
   1756c:	e24cb004 	sub	fp, ip, #4
   17570:	ebffe8f3 	bl	11944 <free>
   17574:	e24bd00c 	sub	sp, fp, #12
   17578:	e89d6800 	ldm	sp, {fp, sp, lr}
   1757c:	e12fff1e 	bx	lr

00017580 <_ZdlPv>:
   17580:	e1a0c00d 	mov	ip, sp
   17584:	e92dd800 	push	{fp, ip, lr, pc}
   17588:	e24cb004 	sub	fp, ip, #4
   1758c:	ebffe8ec 	bl	11944 <free>
   17590:	e24bd00c 	sub	sp, fp, #12
   17594:	e89d6800 	ldm	sp, {fp, sp, lr}
   17598:	e12fff1e 	bx	lr

Disassembly of section .rodata:

0001759c <crc32_tab-0x98>:
   1759c:	65526e6f 	ldrbvs	r6, [r2, #-3695]	; 0xfffff191
   175a0:	6e696170 	mcrvs	1, 3, r6, cr9, cr0, {3}
   175a4:	00000a74 	andeq	r0, r0, r4, ror sl
   175a8:	64253a63 	strtvs	r3, [r5], #-2659	; 0xfffff59d
   175ac:	253a6e20 	ldrcs	r6, [sl, #-3616]!	; 0xfffff1e0
   175b0:	00000a64 	andeq	r0, r0, r4, ror #20
   175b4:	00000072 	andeq	r0, r0, r2, ror r0
   175b8:	6374652f 	cmnvs	r4, #197132288	; 0xbc00000
   175bc:	622f782f 	eorvs	r7, pc, #3080192	; 0x2f0000
   175c0:	2e6b6f6f 	cdpcs	15, 6, cr6, cr11, cr15, {3}
   175c4:	666e6f63 	strbtvs	r6, [lr], -r3, ror #30
   175c8:	00000000 	andeq	r0, r0, r0
   175cc:	7461642f 	strbtvc	r6, [r1], #-1071	; 0xfffffbd1
   175d0:	6f662f61 	svcvs	0x00662f61
   175d4:	2f73746e 	svccs	0x0073746e
   175d8:	74737973 	ldrbtvc	r7, [r3], #-2419	; 0xfffff68d
   175dc:	742e6d65 	strtvc	r6, [lr], #-3429	; 0xfffff29b
   175e0:	00006674 	andeq	r6, r0, r4, ror r6
   175e4:	78383025 	ldmdavc	r8!, {r0, r2, r5, ip, sp}
   175e8:	0000000a 	andeq	r0, r0, sl
   175ec:	746e6f66 	strbtvc	r6, [lr], #-3942	; 0xfffff09a
   175f0:	7a69735f 	bvc	1a74374 <_stack+0x19f4374>
   175f4:	00000065 	andeq	r0, r0, r5, rrx
   175f8:	746e6f66 	strbtvc	r6, [lr], #-3942	; 0xfffff09a
   175fc:	00000000 	andeq	r0, r0, r0
   17600:	635f6762 	cmpvs	pc, #25690112	; 0x1880000
   17604:	726f6c6f 	rsbvc	r6, pc, #28416	; 0x6f00
   17608:	00000000 	andeq	r0, r0, r0
   1760c:	635f6766 	cmpvs	pc, #26738688	; 0x1980000
   17610:	726f6c6f 	rsbvc	r6, pc, #28416	; 0x6f00
   17614:	00000000 	andeq	r0, r0, r0
   17618:	7461642f 	strbtvc	r6, [r1], #-1071	; 0xfffffbd1
   1761c:	6f622f61 	svcvs	0x00622f61
   17620:	2f736b6f 	svccs	0x00736b6f
   17624:	742e6274 	strtvc	r6, [lr], #-628	; 0xfffffd8c
   17628:	00007478 	andeq	r7, r0, r8, ror r4
   1762c:	6b6f6f62 	blvs	1bf33bc <_stack+0x1b733bc>
   17630:	00000000 	andeq	r0, r0, r0

00017634 <crc32_tab>:
   17634:	00000000 	andeq	r0, r0, r0
   17638:	77073096 			; <UNDEFINED> instruction: 0x77073096
   1763c:	ee0e612c 	adfep	f6, f6, #4.0
   17640:	990951ba 	stmdbls	r9, {r1, r3, r4, r5, r7, r8, ip, lr}
   17644:	076dc419 			; <UNDEFINED> instruction: 0x076dc419
   17648:	706af48f 	rsbvc	pc, sl, pc, lsl #9
   1764c:	e963a535 	stmdb	r3!, {r0, r2, r4, r5, r8, sl, sp, pc}^
   17650:	9e6495a3 	cdpls	5, 6, cr9, cr4, cr3, {5}
   17654:	0edb8832 	mrceq	8, 6, r8, cr11, cr2, {1}
   17658:	79dcb8a4 	ldmibvc	ip, {r2, r5, r7, fp, ip, sp, pc}^
   1765c:	e0d5e91e 	sbcs	lr, r5, lr, lsl r9
   17660:	97d2d988 	ldrbls	sp, [r2, r8, lsl #19]
   17664:	09b64c2b 	ldmibeq	r6!, {r0, r1, r3, r5, sl, fp, lr}
   17668:	7eb17cbd 	mrcvc	12, 5, r7, cr1, cr13, {5}
   1766c:	e7b82d07 	ldr	r2, [r8, r7, lsl #26]!
   17670:	90bf1d91 	umlalsls	r1, pc, r1, sp	; <UNPREDICTABLE>
   17674:	1db71064 	ldcne	0, cr1, [r7, #400]!	; 0x190
   17678:	6ab020f2 	bvs	fec1fa48 <_stack+0xfeb9fa48>
   1767c:	f3b97148 	vceq.i32	<illegal reg q3.5>, q4, #0
   17680:	84be41de 	ldrthi	r4, [lr], #478	; 0x1de
   17684:	1adad47d 	bne	ff6cc880 <_stack+0xff64c880>
   17688:	6ddde4eb 	cfldrdvs	mvd14, [sp, #940]	; 0x3ac
   1768c:	f4d4b551 			; <UNDEFINED> instruction: 0xf4d4b551
   17690:	83d385c7 	bicshi	r8, r3, #834666496	; 0x31c00000
   17694:	136c9856 	cmnne	ip, #5636096	; 0x560000
   17698:	646ba8c0 	strbtvs	sl, [fp], #-2240	; 0xfffff740
   1769c:	fd62f97a 	stc2l	9, cr15, [r2, #-244]!	; 0xffffff0c	; <UNPREDICTABLE>
   176a0:	8a65c9ec 	bhi	1989e58 <_stack+0x1909e58>
   176a4:	14015c4f 	strne	r5, [r1], #-3151	; 0xfffff3b1
   176a8:	63066cd9 	movwvs	r6, #27865	; 0x6cd9
   176ac:	fa0f3d63 	blx	3e6c40 <_stack+0x366c40>
   176b0:	8d080df5 	stchi	13, cr0, [r8, #-980]	; 0xfffffc2c
   176b4:	3b6e20c8 	blcc	1b9f9dc <_stack+0x1b1f9dc>
   176b8:	4c69105e 	stclmi	0, cr1, [r9], #-376	; 0xfffffe88
   176bc:	d56041e4 	strble	r4, [r0, #-484]!	; 0xfffffe1c
   176c0:	a2677172 	rsbge	r7, r7, #-2147483620	; 0x8000001c
   176c4:	3c03e4d1 	cfstrscc	mvf14, [r3], {209}	; 0xd1
   176c8:	4b04d447 	blmi	14c7ec <_stack+0xcc7ec>
   176cc:	d20d85fd 	andle	r8, sp, #1061158912	; 0x3f400000
   176d0:	a50ab56b 	strge	fp, [sl, #-1387]	; 0xfffffa95
   176d4:	35b5a8fa 	ldrcc	sl, [r5, #2298]!	; 0x8fa
   176d8:	42b2986c 	adcsmi	r9, r2, #108, 16	; 0x6c0000
   176dc:	dbbbc9d6 	blle	fef09e3c <_stack+0xfee89e3c>
   176e0:	acbcf940 			; <UNDEFINED> instruction: 0xacbcf940
   176e4:	32d86ce3 	sbcscc	r6, r8, #58112	; 0xe300
   176e8:	45df5c75 	ldrbmi	r5, [pc, #3189]	; 18365 <softfloat_approxRecip_1k0s+0x7f1>
   176ec:	dcd60dcf 	ldclle	13, cr0, [r6], {207}	; 0xcf
   176f0:	abd13d59 	blge	ff466c5c <_stack+0xff3e6c5c>
   176f4:	26d930ac 	ldrbcs	r3, [r9], ip, lsr #1
   176f8:	51de003a 	bicspl	r0, lr, sl, lsr r0
   176fc:	c8d75180 	ldmgt	r7, {r7, r8, ip, lr}^
   17700:	bfd06116 	svclt	0x00d06116
   17704:	21b4f4b5 			; <UNDEFINED> instruction: 0x21b4f4b5
   17708:	56b3c423 	ldrtpl	ip, [r3], r3, lsr #8
   1770c:	cfba9599 	svcgt	0x00ba9599
   17710:	b8bda50f 	poplt	{r0, r1, r2, r3, r8, sl, sp, pc}
   17714:	2802b89e 	stmdacs	r2, {r1, r2, r3, r4, r7, fp, ip, sp, pc}
   17718:	5f058808 	svcpl	0x00058808
   1771c:	c60cd9b2 			; <UNDEFINED> instruction: 0xc60cd9b2
   17720:	b10be924 	tstlt	fp, r4, lsr #18
   17724:	2f6f7c87 	svccs	0x006f7c87
   17728:	58684c11 	stmdapl	r8!, {r0, r4, sl, fp, lr}^
   1772c:	c1611dab 	cmngt	r1, fp, lsr #27
   17730:	b6662d3d 			; <UNDEFINED> instruction: 0xb6662d3d
   17734:	76dc4190 			; <UNDEFINED> instruction: 0x76dc4190
   17738:	01db7106 	bicseq	r7, fp, r6, lsl #2
   1773c:	98d220bc 	ldmls	r2, {r2, r3, r4, r5, r7, sp}^
   17740:	efd5102a 	svc	0x00d5102a
   17744:	71b18589 			; <UNDEFINED> instruction: 0x71b18589
   17748:	06b6b51f 	ssateq	fp, #23, pc, lsl #10	; <UNPREDICTABLE>
   1774c:	9fbfe4a5 	svcls	0x00bfe4a5
   17750:	e8b8d433 	ldm	r8!, {r0, r1, r4, r5, sl, ip, lr, pc}
   17754:	7807c9a2 	stmdavc	r7, {r1, r5, r7, r8, fp, lr, pc}
   17758:	0f00f934 	svceq	0x0000f934
   1775c:	9609a88e 	strls	sl, [r9], -lr, lsl #17
   17760:	e10e9818 	tst	lr, r8, lsl r8
   17764:	7f6a0dbb 	svcvc	0x006a0dbb
   17768:	086d3d2d 	stmdaeq	sp!, {r0, r2, r3, r5, r8, sl, fp, ip, sp}^
   1776c:	91646c97 			; <UNDEFINED> instruction: 0x91646c97
   17770:	e6635c01 	strbt	r5, [r3], -r1, lsl #24
   17774:	6b6b51f4 	blvs	1aebf4c <_stack+0x1a6bf4c>
   17778:	1c6c6162 	stfnee	f6, [ip], #-392	; 0xfffffe78
   1777c:	856530d8 	strbhi	r3, [r5, #-216]!	; 0xffffff28
   17780:	f262004e 	vhadd.s32	q8, q1, q7
   17784:	6c0695ed 	cfstr32vs	mvfx9, [r6], {237}	; 0xed
   17788:	1b01a57b 	blne	80d7c <_stack+0xd7c>
   1778c:	8208f4c1 	andhi	pc, r8, #-1056964608	; 0xc1000000
   17790:	f50fc457 			; <UNDEFINED> instruction: 0xf50fc457
   17794:	65b0d9c6 	ldrvs	sp, [r0, #2502]!	; 0x9c6
   17798:	12b7e950 	adcsne	lr, r7, #80, 18	; 0x140000
   1779c:	8bbeb8ea 	blhi	fefc5b4c <_stack+0xfef45b4c>
   177a0:	fcb9887c 	ldc2	8, cr8, [r9], #496	; 0x1f0
   177a4:	62dd1ddf 	sbcsvs	r1, sp, #14272	; 0x37c0
   177a8:	15da2d49 	ldrbne	r2, [sl, #3401]	; 0xd49
   177ac:	8cd37cf3 	ldclhi	12, cr7, [r3], {243}	; 0xf3
   177b0:	fbd44c65 	blx	ff52a94e <_stack+0xff4aa94e>
   177b4:	4db26158 	ldfmis	f6, [r2, #352]!	; 0x160
   177b8:	3ab551ce 	bcc	fed6bef8 <_stack+0xfecebef8>
   177bc:	a3bc0074 			; <UNDEFINED> instruction: 0xa3bc0074
   177c0:	d4bb30e2 	ldrtle	r3, [fp], #226	; 0xe2
   177c4:	4adfa541 	bmi	ff800cd0 <_stack+0xff780cd0>
   177c8:	3dd895d7 	cfldr64cc	mvdx9, [r8, #860]	; 0x35c
   177cc:	a4d1c46d 	ldrbge	ip, [r1], #1133	; 0x46d
   177d0:	d3d6f4fb 	bicsle	pc, r6, #-83886080	; 0xfb000000
   177d4:	4369e96a 	cmnmi	r9, #1736704	; 0x1a8000
   177d8:	346ed9fc 	strbtcc	sp, [lr], #-2556	; 0xfffff604
   177dc:	ad678846 	stclge	8, cr8, [r7, #-280]!	; 0xfffffee8
   177e0:	da60b8d0 	ble	1845b28 <_stack+0x17c5b28>
   177e4:	44042d73 	strmi	r2, [r4], #-3443	; 0xfffff28d
   177e8:	33031de5 	movwcc	r1, #15845	; 0x3de5
   177ec:	aa0a4c5f 	bge	2aa970 <_stack+0x22a970>
   177f0:	dd0d7cc9 	stcle	12, cr7, [sp, #-804]	; 0xfffffcdc
   177f4:	5005713c 	andpl	r7, r5, ip, lsr r1
   177f8:	270241aa 	strcs	r4, [r2, -sl, lsr #3]
   177fc:	be0b1010 	mcrlt	0, 0, r1, cr11, cr0, {0}
   17800:	c90c2086 	stmdbgt	ip, {r1, r2, r7, sp}
   17804:	5768b525 	strbpl	fp, [r8, -r5, lsr #10]!
   17808:	206f85b3 	strhtcs	r8, [pc], #-83
   1780c:	b966d409 	stmdblt	r6!, {r0, r3, sl, ip, lr, pc}^
   17810:	ce61e49f 	mcrgt	4, 3, lr, cr1, cr15, {4}
   17814:	5edef90e 	vfnmspl.f16	s31, s28, s28	; <UNPREDICTABLE>
   17818:	29d9c998 	ldmibcs	r9, {r3, r4, r7, r8, fp, lr, pc}^
   1781c:	b0d09822 	sbcslt	r9, r0, r2, lsr #16
   17820:	c7d7a8b4 			; <UNDEFINED> instruction: 0xc7d7a8b4
   17824:	59b33d17 	ldmibpl	r3!, {r0, r1, r2, r4, r8, sl, fp, ip, sp}
   17828:	2eb40d81 	cdpcs	13, 11, cr0, cr4, cr1, {4}
   1782c:	b7bd5c3b 			; <UNDEFINED> instruction: 0xb7bd5c3b
   17830:	c0ba6cad 	adcsgt	r6, sl, sp, lsr #25
   17834:	edb88320 	ldc	3, cr8, [r8, #128]!	; 0x80
   17838:	9abfb3b6 	bls	ff004718 <_stack+0xfef84718>
   1783c:	03b6e20c 			; <UNDEFINED> instruction: 0x03b6e20c
   17840:	74b1d29a 	ldrtvc	sp, [r1], #666	; 0x29a
   17844:	ead54739 	b	ff569530 <_stack+0xff4e9530>
   17848:	9dd277af 	ldclls	7, cr7, [r2, #700]	; 0x2bc
   1784c:	04db2615 	ldrbeq	r2, [fp], #1557	; 0x615
   17850:	73dc1683 	bicsvc	r1, ip, #137363456	; 0x8300000
   17854:	e3630b12 	cmn	r3, #18432	; 0x4800
   17858:	94643b84 	strbtls	r3, [r4], #-2948	; 0xfffff47c
   1785c:	0d6d6a3e 	vpusheq	{s13-s74}
   17860:	7a6a5aa8 	bvc	1aae308 <_stack+0x1a2e308>
   17864:	e40ecf0b 	str	ip, [lr], #-3851	; 0xfffff0f5
   17868:	9309ff9d 	movwls	pc, #40861	; 0x9f9d	; <UNPREDICTABLE>
   1786c:	0a00ae27 	beq	43110 <__bss_end__+0x1a520>
   17870:	7d079eb1 	stcvc	14, cr9, [r7, #-708]	; 0xfffffd3c
   17874:	f00f9344 			; <UNDEFINED> instruction: 0xf00f9344
   17878:	8708a3d2 			; <UNDEFINED> instruction: 0x8708a3d2
   1787c:	1e01f268 	cdpne	2, 0, cr15, cr1, cr8, {3}
   17880:	6906c2fe 	stmdbvs	r6, {r1, r2, r3, r4, r5, r6, r7, r9, lr, pc}
   17884:	f762575d 			; <UNDEFINED> instruction: 0xf762575d
   17888:	806567cb 	rsbhi	r6, r5, fp, asr #15
   1788c:	196c3671 	stmdbne	ip!, {r0, r4, r5, r6, r9, sl, ip, sp}^
   17890:	6e6b06e7 	cdpvs	6, 6, cr0, cr11, cr7, {7}
   17894:	fed41b76 	mrc2	11, 6, r1, cr4, cr6, {3}	; <UNPREDICTABLE>
   17898:	89d32be0 	ldmibhi	r3, {r5, r6, r7, r8, r9, fp, sp}^
   1789c:	10da7a5a 	sbcsne	r7, sl, sl, asr sl
   178a0:	67dd4acc 	ldrbvs	r4, [sp, ip, asr #21]
   178a4:	f9b9df6f 			; <UNDEFINED> instruction: 0xf9b9df6f
   178a8:	8ebeeff9 	mrchi	15, 5, lr, cr14, cr9, {7}
   178ac:	17b7be43 	ldrne	fp, [r7, r3, asr #28]!
   178b0:	60b08ed5 	ldrsbtvs	r8, [r0], r5
   178b4:	d6d6a3e8 	ldrble	sl, [r6], r8, ror #7
   178b8:	a1d1937e 	bicsge	r9, r1, lr, ror r3
   178bc:	38d8c2c4 	ldmcc	r8, {r2, r6, r7, r9, lr, pc}^
   178c0:	4fdff252 	svcmi	0x00dff252
   178c4:	d1bb67f1 			; <UNDEFINED> instruction: 0xd1bb67f1
   178c8:	a6bc5767 	ldrtge	r5, [ip], r7, ror #14
   178cc:	3fb506dd 	svccc	0x00b506dd
   178d0:	48b2364b 	ldmmi	r2!, {r0, r1, r3, r6, r9, sl, ip, sp}
   178d4:	d80d2bda 	stmdale	sp, {r1, r3, r4, r6, r7, r8, r9, fp, sp}
   178d8:	af0a1b4c 	svcge	0x000a1b4c
   178dc:	36034af6 			; <UNDEFINED> instruction: 0x36034af6
   178e0:	41047a60 	tstmi	r4, r0, ror #20
   178e4:	df60efc3 	svcle	0x0060efc3
   178e8:	a867df55 	stmdage	r7!, {r0, r2, r4, r6, r8, r9, sl, fp, ip, lr, pc}^
   178ec:	316e8eef 	cmncc	lr, pc, ror #29
   178f0:	4669be79 			; <UNDEFINED> instruction: 0x4669be79
   178f4:	cb61b38c 	blgt	188472c <_stack+0x180472c>
   178f8:	bc66831a 	stcllt	3, cr8, [r6], #-104	; 0xffffff98
   178fc:	256fd2a0 	strbcs	sp, [pc, #-672]!	; 17664 <crc32_tab+0x30>
   17900:	5268e236 	rsbpl	lr, r8, #1610612739	; 0x60000003
   17904:	cc0c7795 	stcgt	7, cr7, [ip], {149}	; 0x95
   17908:	bb0b4703 	bllt	2e951c <_stack+0x26951c>
   1790c:	220216b9 	andcs	r1, r2, #193986560	; 0xb900000
   17910:	5505262f 	strpl	r2, [r5, #-1583]	; 0xfffff9d1
   17914:	c5ba3bbe 	ldrgt	r3, [sl, #3006]!	; 0xbbe
   17918:	b2bd0b28 	adcslt	r0, sp, #40, 22	; 0xa000
   1791c:	2bb45a92 	blcs	fed2e36c <_stack+0xfecae36c>
   17920:	5cb36a04 	vldmiapl	r3!, {s12-s15}
   17924:	c2d7ffa7 	sbcsgt	pc, r7, #668	; 0x29c
   17928:	b5d0cf31 	ldrblt	ip, [r0, #3889]	; 0xf31
   1792c:	2cd99e8b 	ldclcs	14, cr9, [r9], {139}	; 0x8b
   17930:	5bdeae1d 	blpl	ff7c31ac <_stack+0xff7431ac>
   17934:	9b64c2b0 	blls	19483fc <_stack+0x18c83fc>
   17938:	ec63f226 	sfm	f7, 3, [r3], #-152	; 0xffffff68
   1793c:	756aa39c 	strbvc	sl, [sl, #-924]!	; 0xfffffc64
   17940:	026d930a 	rsbeq	r9, sp, #671088640	; 0x28000000
   17944:	9c0906a9 	stcls	6, cr0, [r9], {169}	; 0xa9
   17948:	eb0e363f 	bl	3a524c <_stack+0x32524c>
   1794c:	72076785 	andvc	r6, r7, #34865152	; 0x2140000
   17950:	05005713 	streq	r5, [r0, #-1811]	; 0xfffff8ed
   17954:	95bf4a82 	ldrls	r4, [pc, #2690]!	; 183de <softfloat_approxRecip_1k0s+0x86a>
   17958:	e2b87a14 	adcs	r7, r8, #20, 20	; 0x14000
   1795c:	7bb12bae 	blvc	fec6281c <_stack+0xfebe281c>
   17960:	0cb61b38 	vldmiaeq	r6!, {d1-d28}
   17964:	92d28e9b 	sbcsls	r8, r2, #2480	; 0x9b0
   17968:	e5d5be0d 	ldrb	fp, [r5, #3597]	; 0xe0d
   1796c:	7cdcefb7 	ldclvc	15, cr14, [ip], {183}	; 0xb7
   17970:	0bdbdf21 	bleq	ff70f5fc <_stack+0xff68f5fc>
   17974:	86d3d2d4 			; <UNDEFINED> instruction: 0x86d3d2d4
   17978:	f1d4e242 			; <UNDEFINED> instruction: 0xf1d4e242
   1797c:	68ddb3f8 	ldmvs	sp, {r3, r4, r5, r6, r7, r8, r9, ip, sp, pc}^
   17980:	1fda836e 	svcne	0x00da836e
   17984:	81be16cd 			; <UNDEFINED> instruction: 0x81be16cd
   17988:	f6b9265b 			; <UNDEFINED> instruction: 0xf6b9265b
   1798c:	6fb077e1 	svcvs	0x00b077e1
   17990:	18b74777 	ldmne	r7!, {r0, r1, r2, r4, r5, r6, r8, r9, sl, lr}
   17994:	88085ae6 	stmdahi	r8, {r1, r2, r5, r6, r7, r9, fp, ip, lr}
   17998:	ff0f6a70 			; <UNDEFINED> instruction: 0xff0f6a70
   1799c:	66063bca 	strvs	r3, [r6], -sl, asr #23
   179a0:	11010b5c 	tstne	r1, ip, asr fp
   179a4:	8f659eff 	svchi	0x00659eff
   179a8:	f862ae69 			; <UNDEFINED> instruction: 0xf862ae69
   179ac:	616bffd3 	ldrdvs	pc, [fp, #-243]!	; 0xffffff0d
   179b0:	166ccf45 	strbtne	ip, [ip], -r5, asr #30
   179b4:	a00ae278 	andge	lr, sl, r8, ror r2
   179b8:	d70dd2ee 	strle	sp, [sp, -lr, ror #5]
   179bc:	4e048354 	mcrmi	3, 0, r8, cr4, cr4, {2}
   179c0:	3903b3c2 	stmdbcc	r3, {r1, r6, r7, r8, r9, ip, sp, pc}
   179c4:	a7672661 	strbge	r2, [r7, -r1, ror #12]!
   179c8:	d06016f7 	strdle	r1, [r0], #-103	; 0xffffff99	; <UNPREDICTABLE>
   179cc:	4969474d 	stmdbmi	r9!, {r0, r2, r3, r6, r8, r9, sl, lr}^
   179d0:	3e6e77db 	mcrcc	7, 3, r7, cr14, cr11, {6}
   179d4:	aed16a4a 	vfnmage.f32	s13, s2, s20
   179d8:	d9d65adc 	ldmible	r6, {r2, r3, r4, r6, r7, r9, fp, ip, lr}^
   179dc:	40df0b66 	sbcsmi	r0, pc, r6, ror #22
   179e0:	37d83bf0 			; <UNDEFINED> instruction: 0x37d83bf0
   179e4:	a9bcae53 	ldmibge	ip!, {r0, r1, r4, r6, r9, sl, fp, sp, pc}
   179e8:	debb9ec5 	cdple	14, 11, cr9, cr11, cr5, {6}
   179ec:	47b2cf7f 			; <UNDEFINED> instruction: 0x47b2cf7f
   179f0:	30b5ffe9 	adcscc	pc, r5, r9, ror #31
   179f4:	bdbdf21c 	lfmlt	f7, 1, [sp, #112]!	; 0x70
   179f8:	cabac28a 	bgt	feec8428 <_stack+0xfee48428>
   179fc:	53b39330 			; <UNDEFINED> instruction: 0x53b39330
   17a00:	24b4a3a6 	ldrtcs	sl, [r4], #934	; 0x3a6
   17a04:	bad03605 	blt	ff425220 <_stack+0xff3a5220>
   17a08:	cdd70693 	ldclgt	6, cr0, [r7, #588]	; 0x24c
   17a0c:	54de5729 	ldrbpl	r5, [lr], #1833	; 0x729
   17a10:	23d967bf 	bicscs	r6, r9, #50069504	; 0x2fc0000
   17a14:	b3667a2e 	cmnlt	r6, #188416	; 0x2e000
   17a18:	c4614ab8 	strbtgt	r4, [r1], #-2744	; 0xfffff548
   17a1c:	5d681b02 	vstmdbpl	r8!, {d17}
   17a20:	2a6f2b94 	bcs	1be2878 <_stack+0x1b62878>
   17a24:	b40bbe37 	strlt	fp, [fp], #-3639	; 0xfffff1c9
   17a28:	c30c8ea1 	movwgt	r8, #52897	; 0xcea1
   17a2c:	5a05df1b 	bpl	18f6a0 <_stack+0x10f6a0>
   17a30:	2d02ef8d 	stccs	15, cr14, [r2, #-564]	; 0xfffffdcc
   17a34:	00006272 	andeq	r6, r0, r2, ror r2
   17a38:	70616d63 	rsbvc	r6, r1, r3, ror #26
   17a3c:	00000000 	andeq	r0, r0, r0
   17a40:	20747663 	rsbscs	r7, r4, r3, ror #12
   17a44:	00000000 	andeq	r0, r0, r0
   17a48:	6d677066 	stclvs	0, cr7, [r7, #-408]!	; 0xfffffe68
   17a4c:	00000000 	andeq	r0, r0, r0
   17a50:	66796c67 	ldrbtvs	r6, [r9], -r7, ror #24
   17a54:	00000000 	andeq	r0, r0, r0
   17a58:	64616568 	strbtvs	r6, [r1], #-1384	; 0xfffffa98
   17a5c:	00000000 	andeq	r0, r0, r0
   17a60:	61656868 	cmnvs	r5, r8, ror #16
   17a64:	00000000 	andeq	r0, r0, r0
   17a68:	78746d68 	ldmdavc	r4!, {r3, r5, r6, r8, sl, fp, sp, lr}^
   17a6c:	00000000 	andeq	r0, r0, r0
   17a70:	61636f6c 	cmnvs	r3, ip, ror #30
   17a74:	00000000 	andeq	r0, r0, r0
   17a78:	7078616d 	rsbsvc	r6, r8, sp, ror #2
   17a7c:	00000000 	andeq	r0, r0, r0
   17a80:	322f534f 	eorcc	r5, pc, #1006632961	; 0x3c000001
   17a84:	00000000 	andeq	r0, r0, r0
   17a88:	70657270 	rsbvc	r7, r5, r0, ror r2
   17a8c:	00000000 	andeq	r0, r0, r0
   17a90:	78746d76 	ldmdavc	r4!, {r1, r2, r4, r5, r6, r8, sl, fp, sp, lr}^
   17a94:	00000000 	andeq	r0, r0, r0
   17a98:	7365722f 	cmnvc	r5, #-268435454	; 0xf0000002
   17a9c:	0073252f 	rsbseq	r2, r3, pc, lsr #10
   17aa0:	722f7325 	eorvc	r7, pc, #-1811939328	; 0x94000000
   17aa4:	252f7365 	strcs	r7, [pc, #-869]!	; 17747 <crc32_tab+0x113>
   17aa8:	00000073 	andeq	r0, r0, r3, ror r0
   17aac:	7665642f 	strbtvc	r6, [r5], -pc, lsr #8
   17ab0:	0000782f 	andeq	r7, r0, pc, lsr #16
   17ab4:	7778797a 			; <UNDEFINED> instruction: 0x7778797a
   17ab8:	73747576 	cmnvc	r4, #494927872	; 0x1d800000
   17abc:	6f707172 	svcvs	0x00707172
   17ac0:	6b6c6d6e 	blvs	1b33080 <_stack+0x1ab3080>
   17ac4:	6768696a 	strbvs	r6, [r8, -sl, ror #18]!
   17ac8:	63646566 	cmnvs	r4, #427819008	; 0x19800000
   17acc:	38396162 	ldmdacc	r9!, {r1, r5, r6, r8, sp, lr}
   17ad0:	34353637 	ldrtcc	r3, [r5], #-1591	; 0xfffff9c9
   17ad4:	30313233 	eorscc	r3, r1, r3, lsr r2
   17ad8:	34333231 	ldrtcc	r3, [r3], #-561	; 0xfffffdcf
   17adc:	38373635 	ldmdacc	r7!, {r0, r2, r4, r5, r9, sl, ip, sp}
   17ae0:	63626139 	cmnvs	r2, #1073741838	; 0x4000000e
   17ae4:	67666564 	strbvs	r6, [r6, -r4, ror #10]!
   17ae8:	6b6a6968 	blvs	1ab2090 <_stack+0x1a32090>
   17aec:	6f6e6d6c 	svcvs	0x006e6d6c
   17af0:	73727170 	cmnvc	r2, #112, 2
   17af4:	77767574 			; <UNDEFINED> instruction: 0x77767574
   17af8:	007a7978 	rsbseq	r7, sl, r8, ror r9
   17afc:	65757274 	ldrbvs	r7, [r5, #-628]!	; 0xfffffd8c
   17b00:	00000000 	andeq	r0, r0, r0
   17b04:	736c6166 	cmnvc	ip, #-2147483623	; 0x80000019
   17b08:	00000065 	andeq	r0, r0, r5, rrx
   17b0c:	00007830 	andeq	r7, r0, r0, lsr r8
   17b10:	45555254 	ldrbmi	r5, [r5, #-596]	; 0xfffffdac
   17b14:	00000000 	andeq	r0, r0, r0
   17b18:	0000002f 	andeq	r0, r0, pc, lsr #32
   17b1c:	5f637069 	svcpl	0x00637069
   17b20:	76726573 			; <UNDEFINED> instruction: 0x76726573
   17b24:	7366762e 	cmnvc	r6, #48234496	; 0x2e00000
   17b28:	00000000 	andeq	r0, r0, r0
   17b2c:	33323130 	teqcc	r2, #48, 2
   17b30:	37363534 			; <UNDEFINED> instruction: 0x37363534
   17b34:	42413938 	submi	r3, r1, #56, 18	; 0xe0000
   17b38:	46454443 	strbmi	r4, [r5], -r3, asr #8
   17b3c:	00000000 	andeq	r0, r0, r0
   17b40:	33323130 	teqcc	r2, #48, 2
   17b44:	37363534 			; <UNDEFINED> instruction: 0x37363534
   17b48:	62613938 	rsbvs	r3, r1, #56, 18	; 0xe0000
   17b4c:	66656463 	strbtvs	r6, [r5], -r3, ror #8
   17b50:	00000000 	andeq	r0, r0, r0

00017b54 <softfloat_approxRecip_1k1s>:
   17b54:	d62cf0f1 			; <UNDEFINED> instruction: 0xd62cf0f1
   17b58:	ac77bfa1 	ldclge	15, cr11, [r7], #-644	; 0xfffffd7c
   17b5c:	8ddb9c0a 	ldclhi	12, cr9, [fp, #40]	; 0x28
   17b60:	76ba8185 	ldrtvc	r8, [sl], r5, lsl #3
   17b64:	64d46d3b 	ldrbvs	r6, [r4], #3387	; 0xd3b
   17b68:	56b15d5c 	ssatpl	r5, #18, ip, asr #26
   17b6c:	4b5550b6 	blmi	156be4c <_stack+0x14ebe4c>
   17b70:	42114679 	andsmi	r4, r1, #126877696	; 0x7900000

00017b74 <softfloat_approxRecip_1k0s>:
   17b74:	f0beffc4 			; <UNDEFINED> instruction: 0xf0beffc4
   17b78:	d76fe363 	strble	lr, [pc, -r3, ror #6]!
   17b7c:	c2f0ccad 	rscsgt	ip, r0, #44288	; 0xad00
   17b80:	b201ba16 	andlt	fp, r1, #90112	; 0x16000
   17b84:	a3c6aa97 	bicge	sl, r6, #618496	; 0x97000
   17b88:	97a69d7a 			; <UNDEFINED> instruction: 0x97a69d7a
   17b8c:	8d32923c 	lfmhi	f1, 1, [r2, #-240]!	; 0xffffff10
   17b90:	8417887e 	ldrhi	r8, [r7], #-2174	; 0xfffff782

Disassembly of section .data.rel.ro:

00027b94 <_ZTVN4Ewok4XWinE>:
	...
   27b9c:	00017544 	andeq	r7, r1, r4, asr #10
   27ba0:	00000344 	andeq	r0, r0, r4, asr #6
   27ba4:	00000348 	andeq	r0, r0, r8, asr #6
   27ba8:	0000034c 	andeq	r0, r0, ip, asr #6
   27bac:	00000350 	andeq	r0, r0, r0, asr r3
   27bb0:	00000354 	andeq	r0, r0, r4, asr r3
   27bb4:	00000358 	andeq	r0, r0, r8, asr r3
	...

00027bc0 <_ZTV4Book>:
	...
   27bc8:	000004c4 	andeq	r0, r0, r4, asr #9
   27bcc:	00000344 	andeq	r0, r0, r4, asr #6
   27bd0:	00000348 	andeq	r0, r0, r8, asr #6
   27bd4:	0000034c 	andeq	r0, r0, ip, asr #6
   27bd8:	00000350 	andeq	r0, r0, r0, asr r3
   27bdc:	00000354 	andeq	r0, r0, r4, asr r3
   27be0:	000003c4 	andeq	r0, r0, r4, asr #7
   27be4:	0000035c 	andeq	r0, r0, ip, asr r3
   27be8:	00000660 	andeq	r0, r0, r0, ror #12

Disassembly of section .got:

00027bec <_GLOBAL_OFFSET_TABLE_>:
	...
   27bf8:	00000344 	andeq	r0, r0, r4, asr #6
   27bfc:	00027bc0 	andeq	r7, r2, r0, asr #23
   27c00:	00028698 	muleq	r2, r8, r6
   27c04:	00000358 	andeq	r0, r0, r8, asr r3
   27c08:	00027b94 	muleq	r2, r4, fp
   27c0c:	00028be0 	andeq	r8, r2, r0, ror #23
   27c10:	00000350 	andeq	r0, r0, r0, asr r3
   27c14:	0002869c 	muleq	r2, ip, r6
   27c18:	00000348 	andeq	r0, r0, r8, asr #6
   27c1c:	0000034c 	andeq	r0, r0, ip, asr #6
   27c20:	0000f430 	andeq	pc, r0, r0, lsr r4	; <UNPREDICTABLE>
   27c24:	00028694 	muleq	r2, r4, r6
   27c28:	00000354 	andeq	r0, r0, r4, asr r3

Disassembly of section .data:

00027c2c <extF80_roundingPrecision>:
   27c2c:	00000050 	andeq	r0, r0, r0, asr r0

Disassembly of section .bss:

00027c30 <_ZZN4Ewok1X10getResNameEPKcE3ret>:
	...

00027e30 <_str_result>:
	...

00027e74 <ret.0>:
	...

00028274 <_argv0>:
   28274:	00000000 	andeq	r0, r0, r0

00028278 <_stdin>:
	...

00028280 <_stdout>:
	...

00028288 <_stderr>:
	...

00028290 <_cmd>:
	...

00028690 <_off_cmd>:
   28690:	00000000 	andeq	r0, r0, r0

00028694 <stderr>:
   28694:	00000000 	andeq	r0, r0, r0

00028698 <stdout>:
   28698:	00000000 	andeq	r0, r0, r0

0002869c <stdin>:
   2869c:	00000000 	andeq	r0, r0, r0

000286a0 <_fsinfo_buffers>:
	...

000289a0 <ret.0>:
	...

00028ba0 <_ipc_serv_handle>:
   28ba0:	00000000 	andeq	r0, r0, r0

00028ba4 <_ipc_handled>:
   28ba4:	00000000 	andeq	r0, r0, r0

00028ba8 <_signals>:
	...

00028bb8 <_proto_factor>:
	...

00028bd4 <_vfsd_pid>:
   28bd4:	00000000 	andeq	r0, r0, r0

00028bd8 <_cored_pid>:
   28bd8:	00000000 	andeq	r0, r0, r0

00028bdc <_cpid>:
   28bdc:	00000000 	andeq	r0, r0, r0

00028be0 <errno>:
   28be0:	00000000 	andeq	r0, r0, r0

00028be4 <softfloat_exceptionFlags>:
   28be4:	00000000 	andeq	r0, r0, r0

00028be8 <softfloat_detectTininess>:
   28be8:	00000000 	andeq	r0, r0, r0

00028bec <softfloat_roundingMode>:
   28bec:	00000000 	andeq	r0, r0, r0

Disassembly of section .comment:

00000000 <.comment>:
   0:	3a434347 	bcc	10d0d24 <_stack+0x1050d24>
   4:	4e472820 	cdpmi	8, 4, cr2, cr7, cr0, {1}
   8:	72412055 	subvc	r2, r1, #85	; 0x55
   c:	6d45206d 	stclvs	0, cr2, [r5, #-436]	; 0xfffffe4c
  10:	64646562 	strbtvs	r6, [r4], #-1378	; 0xfffffa9e
  14:	54206465 	strtpl	r6, [r0], #-1125	; 0xfffffb9b
  18:	636c6f6f 	cmnvs	ip, #444	; 0x1bc
  1c:	6e696168 	powvsez	f6, f1, #0.0
  20:	2e303120 	rsfcssp	f3, f0, f0
  24:	30322d33 	eorscc	r2, r2, r3, lsr sp
  28:	312e3132 			; <UNDEFINED> instruction: 0x312e3132
  2c:	31202930 			; <UNDEFINED> instruction: 0x31202930
  30:	2e332e30 	mrccs	14, 1, r2, cr3, cr0, {1}
  34:	30322031 	eorscc	r2, r2, r1, lsr r0
  38:	38303132 	ldmdacc	r0!, {r1, r4, r5, r8, ip, sp}
  3c:	28203432 	stmdacs	r0!, {r1, r4, r5, sl, ip, sp}
  40:	656c6572 	strbvs	r6, [ip, #-1394]!	; 0xfffffa8e
  44:	29657361 	stmdbcs	r5!, {r0, r5, r6, r8, r9, ip, sp, lr}^
	...

Disassembly of section .debug_frame:

00000000 <.debug_frame>:
   0:	0000000c 	andeq	r0, r0, ip
   4:	ffffffff 			; <UNDEFINED> instruction: 0xffffffff
   8:	7c020001 	stcvc	0, cr0, [r2], {1}
   c:	000d0c0e 	andeq	r0, sp, lr, lsl #24
  10:	00000024 	andeq	r0, r0, r4, lsr #32
  14:	00000000 	andeq	r0, r0, r0
  18:	00015a48 	andeq	r5, r1, r8, asr #20
  1c:	00000120 	andeq	r0, r0, r0, lsr #2
  20:	84140e4e 	ldrhi	r0, [r4], #-3662	; 0xfffff1b2
  24:	86048505 	strhi	r8, [r4], -r5, lsl #10
  28:	8e028703 	cdphi	7, 0, cr8, cr2, cr3, {0}
  2c:	ce620201 	cdpgt	2, 6, cr0, cr2, cr1, {0}
  30:	c4c5c6c7 	strbgt	ip, [r5], #1735	; 0x6c7
  34:	0000000e 	andeq	r0, r0, lr
  38:	0000000c 	andeq	r0, r0, ip
  3c:	ffffffff 			; <UNDEFINED> instruction: 0xffffffff
  40:	7c020001 	stcvc	0, cr0, [r2], {1}
  44:	000d0c0e 	andeq	r0, sp, lr, lsl #24
  48:	00000020 	andeq	r0, r0, r0, lsr #32
  4c:	00000038 	andeq	r0, r0, r8, lsr r0
  50:	00015b68 	andeq	r5, r1, r8, ror #22
  54:	00000158 	andeq	r0, r0, r8, asr r1
  58:	100e4002 	andne	r4, lr, r2
  5c:	03850484 	orreq	r0, r5, #132, 8	; 0x84000000
  60:	018e0286 	orreq	r0, lr, r6, lsl #5
  64:	c6ce6402 	strbgt	r6, [lr], r2, lsl #8
  68:	000ec4c5 	andeq	ip, lr, r5, asr #9
  6c:	0000000c 	andeq	r0, r0, ip
  70:	ffffffff 			; <UNDEFINED> instruction: 0xffffffff
  74:	7c020001 	stcvc	0, cr0, [r2], {1}
  78:	000d0c0e 	andeq	r0, sp, lr, lsl #24
  7c:	00000034 	andeq	r0, r0, r4, lsr r0
  80:	0000006c 	andeq	r0, r0, ip, rrx
  84:	00015cc0 	andeq	r5, r1, r0, asr #25
  88:	0000011c 	andeq	r0, r0, ip, lsl r1
  8c:	840c0e62 	strhi	r0, [ip], #-3682	; 0xfffff19e
  90:	8e028503 	cfsh32hi	mvfx8, mvfx2, #3
  94:	ce4e0201 	cdpgt	2, 4, cr0, cr14, cr1, {0}
  98:	000ec4c5 	andeq	ip, lr, r5, asr #9
  9c:	840c0e52 	strhi	r0, [ip], #-3666	; 0xfffff1ae
  a0:	8e028503 	cfsh32hi	mvfx8, mvfx2, #3
  a4:	000e4401 	andeq	r4, lr, r1, lsl #8
  a8:	44cec5c4 	strbmi	ip, [lr], #1476	; 0x5c4
  ac:	03840c0e 	orreq	r0, r4, #3584	; 0xe00
  b0:	018e0285 	orreq	r0, lr, r5, lsl #5
  b4:	0000000c 	andeq	r0, r0, ip
  b8:	ffffffff 			; <UNDEFINED> instruction: 0xffffffff
  bc:	7c020001 	stcvc	0, cr0, [r2], {1}
  c0:	000d0c0e 	andeq	r0, sp, lr, lsl #24
  c4:	0000003c 	andeq	r0, r0, ip, lsr r0
  c8:	000000b4 	strheq	r0, [r0], -r4
  cc:	00015ddc 	ldrdeq	r5, [r1], -ip
  d0:	00000a54 	andeq	r0, r0, r4, asr sl
  d4:	84240e42 	strthi	r0, [r4], #-3650	; 0xfffff1be
  d8:	86088509 	strhi	r8, [r8], -r9, lsl #10
  dc:	88068707 	stmdahi	r6, {r0, r1, r2, r8, r9, sl, pc}
  e0:	8a048905 	bhi	1224fc <_stack+0xa24fc>
  e4:	8e028b03 	vmlahi.f64	d8, d2, d3
  e8:	900e4601 	andls	r4, lr, r1, lsl #12
  ec:	02ca0301 	sbceq	r0, sl, #67108864	; 0x4000000
  f0:	42240e0a 	eormi	r0, r4, #10, 28	; 0xa0
  f4:	c9cacbce 	stmibgt	sl, {r1, r2, r3, r6, r7, r8, r9, fp, lr, pc}^
  f8:	c5c6c7c8 	strbgt	ip, [r6, #1992]	; 0x7c8
  fc:	42000ec4 	andmi	r0, r0, #196, 28	; 0xc40
 100:	0000000b 	andeq	r0, r0, fp
 104:	0000000c 	andeq	r0, r0, ip
 108:	ffffffff 			; <UNDEFINED> instruction: 0xffffffff
 10c:	7c020001 	stcvc	0, cr0, [r2], {1}
 110:	000d0c0e 	andeq	r0, sp, lr, lsl #24
 114:	0000002c 	andeq	r0, r0, ip, lsr #32
 118:	00000104 	andeq	r0, r0, r4, lsl #2
 11c:	00016830 	andeq	r6, r1, r0, lsr r8
 120:	00000224 	andeq	r0, r0, r4, lsr #4
 124:	84040e62 	strhi	r0, [r4], #-3682	; 0xfffff19e
 128:	0ec46601 	cdpeq	6, 12, cr6, cr4, cr1, {0}
 12c:	080e5600 	stmdaeq	lr, {r9, sl, ip, lr}
 130:	01850284 	orreq	r0, r5, r4, lsl #5
 134:	420a9c02 	andmi	r9, sl, #512	; 0x200
 138:	000ec5c4 	andeq	ip, lr, r4, asr #11
 13c:	c4520b42 	ldrbgt	r0, [r2], #-2882	; 0xfffff4be
 140:	00000ec5 	andeq	r0, r0, r5, asr #29
 144:	0000000c 	andeq	r0, r0, ip
 148:	ffffffff 			; <UNDEFINED> instruction: 0xffffffff
 14c:	7c020001 	stcvc	0, cr0, [r2], {1}
 150:	000d0c0e 	andeq	r0, sp, lr, lsl #24
 154:	0000000c 	andeq	r0, r0, ip
 158:	00000144 	andeq	r0, r0, r4, asr #2
 15c:	00016a54 	andeq	r6, r1, r4, asr sl
 160:	000000f0 	strdeq	r0, [r0], -r0	; <UNPREDICTABLE>
 164:	0000000c 	andeq	r0, r0, ip
 168:	ffffffff 			; <UNDEFINED> instruction: 0xffffffff
 16c:	7c020001 	stcvc	0, cr0, [r2], {1}
 170:	000d0c0e 	andeq	r0, sp, lr, lsl #24
 174:	0000000c 	andeq	r0, r0, ip
 178:	00000164 	andeq	r0, r0, r4, ror #2
 17c:	00016b44 	andeq	r6, r1, r4, asr #22
 180:	00000060 	andeq	r0, r0, r0, rrx
 184:	0000000c 	andeq	r0, r0, ip
 188:	ffffffff 			; <UNDEFINED> instruction: 0xffffffff
 18c:	7c020001 	stcvc	0, cr0, [r2], {1}
 190:	000d0c0e 	andeq	r0, sp, lr, lsl #24
 194:	0000002c 	andeq	r0, r0, ip, lsr #32
 198:	00000184 	andeq	r0, r0, r4, lsl #3
 19c:	00016ba4 	andeq	r6, r1, r4, lsr #23
 1a0:	000000cc 	andeq	r0, r0, ip, asr #1
 1a4:	84100e54 	ldrhi	r0, [r0], #-3668	; 0xfffff1ac
 1a8:	86038504 	strhi	r8, [r3], -r4, lsl #10
 1ac:	5c018e02 	stcpl	14, cr8, [r1], {2}
 1b0:	c5c6ce0a 	strbgt	ip, [r6, #3594]	; 0xe0a
 1b4:	42000ec4 	andmi	r0, r0, #196, 28	; 0xc40
 1b8:	ce0a4e0b 	cdpgt	14, 0, cr4, cr10, cr11, {0}
 1bc:	0ec4c5c6 	cdpeq	5, 12, cr12, cr4, cr6, {6}
 1c0:	000b4200 	andeq	r4, fp, r0, lsl #4
 1c4:	0000000c 	andeq	r0, r0, ip
 1c8:	ffffffff 			; <UNDEFINED> instruction: 0xffffffff
 1cc:	7c020001 	stcvc	0, cr0, [r2], {1}
 1d0:	000d0c0e 	andeq	r0, sp, lr, lsl #24
 1d4:	00000050 	andeq	r0, r0, r0, asr r0
 1d8:	000001c4 	andeq	r0, r0, r4, asr #3
 1dc:	00016c70 	andeq	r6, r1, r0, ror ip
 1e0:	00000420 	andeq	r0, r0, r0, lsr #8
 1e4:	84240e42 	strthi	r0, [r4], #-3650	; 0xfffff1be
 1e8:	86088509 	strhi	r8, [r8], -r9, lsl #10
 1ec:	88068707 	stmdahi	r6, {r0, r1, r2, r8, r9, sl, pc}
 1f0:	8a048905 	bhi	12260c <_stack+0xa260c>
 1f4:	8e028b03 	vmlahi.f64	d8, d2, d3
 1f8:	b40e4401 	strlt	r4, [lr], #-1025	; 0xfffffbff
 1fc:	b80e4a08 	stmdalt	lr, {r3, r9, fp, lr}
 200:	0aec0208 	beq	ffb00a28 <_stack+0xffa80a28>
 204:	ce42240e 	cdpgt	4, 4, cr2, cr2, cr14, {0}
 208:	c8c9cacb 	stmiagt	r9, {r0, r1, r3, r6, r7, r9, fp, lr, pc}^
 20c:	c4c5c6c7 	strbgt	ip, [r5], #1735	; 0x6c7
 210:	0b42000e 	bleq	1080250 <_stack+0x1000250>
 214:	0e0a7e02 	cdpeq	14, 0, cr7, cr10, cr2, {0}
 218:	cbce4224 	blgt	ff390ab0 <_stack+0xff310ab0>
 21c:	c7c8c9ca 	strbgt	ip, [r8, sl, asr #19]
 220:	0ec4c5c6 	cdpeq	5, 12, cr12, cr4, cr6, {6}
 224:	000b4200 	andeq	r4, fp, r0, lsl #4
 228:	0000005c 	andeq	r0, r0, ip, asr r0
 22c:	000001c4 	andeq	r0, r0, r4, asr #3
 230:	00017090 	muleq	r1, r0, r0
 234:	00000270 	andeq	r0, r0, r0, ror r2
 238:	84180e42 	ldrhi	r0, [r8], #-3650	; 0xfffff1be
 23c:	86058506 	strhi	r8, [r5], -r6, lsl #10
 240:	88038704 	stmdahi	r3, {r2, r8, r9, sl, pc}
 244:	4a018e02 	bmi	63a54 <__bss_end__+0x3ae64>
 248:	8a02580e 	bhi	96288 <_stack+0x16288>
 24c:	42180e0a 	andsmi	r0, r8, #10, 28	; 0xa0
 250:	c6c7c8ce 	strbgt	ip, [r7], lr, asr #17
 254:	000ec4c5 	andeq	ip, lr, r5, asr #9
 258:	0a600b42 	beq	1802f68 <_stack+0x1782f68>
 25c:	ce42180e 	cdpgt	8, 4, cr1, cr2, cr14, {0}
 260:	c5c6c7c8 	strbgt	ip, [r6, #1992]	; 0x7c8
 264:	42000ec4 	andmi	r0, r0, #196, 28	; 0xc40
 268:	0e0a5c0b 	cdpeq	12, 0, cr5, cr10, cr11, {0}
 26c:	c8ce4218 	stmiagt	lr, {r3, r4, r9, lr}^
 270:	c4c5c6c7 	strbgt	ip, [r5], #1735	; 0x6c7
 274:	0b42000e 	bleq	10802b4 <_stack+0x10002b4>
 278:	180e5602 	stmdane	lr, {r1, r9, sl, ip, lr}
 27c:	c7c8ce42 	strbgt	ip, [r8, r2, asr #28]
 280:	0ec4c5c6 	cdpeq	5, 12, cr12, cr4, cr6, {6}
 284:	00000000 	andeq	r0, r0, r0
 288:	0000000c 	andeq	r0, r0, ip
 28c:	ffffffff 			; <UNDEFINED> instruction: 0xffffffff
 290:	7c020001 	stcvc	0, cr0, [r2], {1}
 294:	000d0c0e 	andeq	r0, sp, lr, lsl #24
 298:	00000024 	andeq	r0, r0, r4, lsr #32
 29c:	00000288 	andeq	r0, r0, r8, lsl #5
 2a0:	00017300 	andeq	r7, r1, r0, lsl #6
 2a4:	000000ac 	andeq	r0, r0, ip, lsr #1
 2a8:	84080e44 	strhi	r0, [r8], #-3652	; 0xfffff1bc
 2ac:	02018e02 	andeq	r8, r1, #2, 28
 2b0:	c4ce0a46 	strbgt	r0, [lr], #2630	; 0xa46
 2b4:	0b42000e 	bleq	10802f4 <_stack+0x10002f4>
 2b8:	0ec4ce48 	cdpeq	14, 12, cr12, cr4, cr8, {2}
 2bc:	00000000 	andeq	r0, r0, r0
 2c0:	0000000c 	andeq	r0, r0, ip
 2c4:	ffffffff 			; <UNDEFINED> instruction: 0xffffffff
 2c8:	7c020001 	stcvc	0, cr0, [r2], {1}
 2cc:	000d0c0e 	andeq	r0, sp, lr, lsl #24
 2d0:	00000034 	andeq	r0, r0, r4, lsr r0
 2d4:	000002c0 	andeq	r0, r0, r0, asr #5
 2d8:	000173ac 	andeq	r7, r1, ip, lsr #7
 2dc:	00000150 	andeq	r0, r0, r0, asr r1
 2e0:	84100e4c 	ldrhi	r0, [r0], #-3660	; 0xfffff1b4
 2e4:	86038504 	strhi	r8, [r3], -r4, lsl #10
 2e8:	02018e02 	andeq	r8, r1, #2, 28
 2ec:	c4000e40 	strgt	r0, [r0], #-3648	; 0xfffff1c0
 2f0:	02cec6c5 	sbceq	ip, lr, #206569472	; 0xc500000
 2f4:	84100e52 	ldrhi	r0, [r0], #-3666	; 0xfffff1ae
 2f8:	86038504 	strhi	r8, [r3], -r4, lsl #10
 2fc:	44018e02 	strmi	r8, [r1], #-3586	; 0xfffff1fe
 300:	c4c5c6ce 	strbgt	ip, [r5], #1742	; 0x6ce
 304:	0000000e 	andeq	r0, r0, lr
 308:	0000000c 	andeq	r0, r0, ip
 30c:	ffffffff 			; <UNDEFINED> instruction: 0xffffffff
 310:	7c020001 	stcvc	0, cr0, [r2], {1}
 314:	000d0c0e 	andeq	r0, sp, lr, lsl #24
 318:	0000000c 	andeq	r0, r0, ip
 31c:	00000308 	andeq	r0, r0, r8, lsl #6
 320:	000174fc 	strdeq	r7, [r1], -ip
 324:	00000048 	andeq	r0, r0, r8, asr #32

Disassembly of section .ARM.attributes:

00000000 <.ARM.attributes>:
   0:	00002741 	andeq	r2, r0, r1, asr #14
   4:	61656100 	cmnvs	r5, r0, lsl #2
   8:	01006962 	tsteq	r0, r2, ror #18
   c:	0000001d 	andeq	r0, r0, sp, lsl r0
  10:	00543405 	subseq	r3, r4, r5, lsl #8
  14:	01080206 	tsteq	r8, r6, lsl #4
  18:	04120109 	ldreq	r0, [r2], #-265	; 0xfffffef7
  1c:	01150114 	tsteq	r5, r4, lsl r1
  20:	01180317 	tsteq	r8, r7, lsl r3
  24:	021e011a 	andseq	r0, lr, #-2147483642	; 0x80000006
